ARM GAS  /tmp/ccQ6ActC.s 			page 1


   1              		.syntax unified
   2              		.cpu cortex-m3
   3              		.fpu softvfp
   4              		.eabi_attribute 20, 1
   5              		.eabi_attribute 21, 1
   6              		.eabi_attribute 23, 3
   7              		.eabi_attribute 24, 1
   8              		.eabi_attribute 25, 1
   9              		.eabi_attribute 26, 1
  10              		.eabi_attribute 30, 2
  11              		.eabi_attribute 34, 1
  12              		.eabi_attribute 18, 4
  13              		.thumb
  14              		.file	"chheap.c"
  15              		.text
  16              	.Ltext0:
  17              		.section	.gnu.lto_.jmpfuncs.ab6618b4dc77849e,"",%progbits
  18 0000 789C6362 		.ascii	"x\234cb`b\300\006\212\2414+\003\003#S5\303\257\206\216"
  18      6062C006 
  18      8AA1342B 
  18      03032353 
  18      35C3AF86 
  19 0015 06814C46 		.ascii	"\006\201LF\006m\206U\015\015 \026c.#C\022#\\9#\343\203"
  19      066D8655 
  19      0D0D2016 
  19      632E2343 
  19      12235C39 
  20 002c FF50C018 		.ascii	"\377P\300\030\301\230\311\0104\224\231\235\221\245\001"
  20      C198C908 
  20      3494999D 
  20      91A501
  21 003b C8042962 		.ascii	"\310\004)ba\007\222\020\304\014R\316\004R\303\314\301"
  21      61079210 
  21      C40C52CE 
  21      0452C3CC 
  21      C1
  22 004c C0500FB4 		.ascii	"\300P\017\264\201\021\"\301\006U\303\000\000\371\033"
  22      811122C1 
  22      0655C300 
  22      00F91B
  23 005b 13AA     		.ascii	"\023\252"
  24              		.text
  25              		.section	.gnu.lto_.inline.ab6618b4dc77849e,"",%progbits
  26 0000 789C6362 		.ascii	"x\234cb`b\300\006Z\030!4+\003\003\207\000#\003\023\333"
  26      6062C006 
  26      5A182134 
  26      2B030387 
  26      00230313 
  27 0015 073D06B6 		.ascii	"\007=\006\266\005\362`\305L\334\014\014\214\014\314"
  27      05F260C5 
  27      4CDC0C0C 
  27      8C0CCC
  28 0024 0C3C228C 		.ascii	"\014<\"\214LL`u \202\231\265C\235\201{\205\033\023\003"
  28      4C4C6075 
  28      208299B5 
  28      439D817B 
  28      851B1303 
ARM GAS  /tmp/ccQ6ActC.s 			page 2


  29 0038 CB027916 		.ascii	"\313\002y\026\270\272\011~,\014\327\030v11\2623\244"
  29      B8BA097E 
  29      2C0CD718 
  29      763131B2 
  29      33A4
  30 004a 47306632 		.ascii	"G0f2\202e2`,\246\024\020\213\231\035\310J\205\261\300"
  30      82653260 
  30      2CA61410 
  30      8B991DC8 
  30      4A85B1C0 
  31 005e A681CD65 		.ascii	"\246\201\315e\004\021\254E\373>*@\354\006\032\354\000"
  31      0411AC45 
  31      FB3E2A40 
  31      EC061AEC 
  31      00
  32 006f 221A1819 		.ascii	"\"\032\030\031\204\246x60!Y\202J\261\013\003\3353\301"
  32      84A67836 
  32      30215982 
  32      4AB10B03 
  32      DD33C1
  33 0082 6F821FD0 		.ascii	"o\202\037\320\375\306\207\031\201\346\200]\350\323\265"
  33      FDC68719 
  33      81E6805D 
  33      E8D3B5
  34 0091 458441E0 		.ascii	"E\204A\340E\020\023\003\323\005~\026L\335l\014\222_"
  34      45101303 
  34      D3057E16 
  34      4CDD6C0C 
  34      925F
  35 00a3 191839B1 		.ascii	"\031\0309\2619\224\021\314b\005\261\322a,&\270\030\023"
  35      399411CC 
  35      6205B1D2 
  35      612C26B8 
  35      1813
  36 00b5 5C8C01EE 		.ascii	"\\\214\001\356n\260\0178\005\036\314\343\202;\276\001"
  36      6EB00F38 
  36      051ECCE3 
  36      823BBE01 
  37 00c5 42B23030 		.ascii	"B\26200\177\023\026``\274\304&\000\021\340``n\023u`"
  37      7F131660 
  37      60BCC426 
  37      0011E060 
  37      606E1375 
  38 00da 606C6277 		.ascii	"`lbw\300\342'\006\000\261\2422\262"
  38      C0E22706 
  38      00B1A232 
  38      B2
  39              		.text
  40              		.section	.gnu.lto_.pureconst.ab6618b4dc77849e,"",%progbits
  41 0000 789C6362 		.ascii	"x\234cb`b\340f\200\000V\006\011f)\026)V)6)\000\004?"
  41      6062E066 
  41      80005606 
  41      09662916 
  41      29562936 
  42 0018 00A7     		.ascii	"\000\247"
  43              		.text
  44              		.section	.gnu.lto__heap_init.ab6618b4dc77849e,"",%progbits
ARM GAS  /tmp/ccQ6ActC.s 			page 3


  45 0000 789C6362 		.ascii	"x\234cb`b@\007\222@|\216\221\201A\003H32302M8\307\300"
  45      60624007 
  45      92407C8E 
  45      91814103 
  45      48333233 
  46 001a D0C8C1C4 		.ascii	"\320\310\301\304\310\010b002\32431\326G2\202\325\256"
  46      C8086230 
  46      3032D433 
  46      31D64732 
  46      82D5AE
  47 002d 673AF0E0 		.ascii	"g:\360\340\377\377u\333\216O\277\3038\217\211\015(\302"
  47      FFFF75DB 
  47      8E4FBFC3 
  47      388F890D 
  47      28C2
  48 003f CAD0D2D0 		.ascii	"\312\320\322\3200A\201\201!\031\254\"\004H\202\264\205"
  48      30418181 
  48      2119AC22 
  48      044882B4 
  48      85
  49 0050 32328168 		.ascii	"22\201h\346\263\014M\277\232\277\367Y&2.dde\320fX\325"
  49      E6B30C4D 
  49      BF9ABFF7 
  49      5926322E 
  49      646465D0 
  50 0067 0004F699 		.ascii	"\000\004\366\231\214\014\263\031f564\010d22V3\374j\350"
  50      8C0CB319 
  50      66353634 
  50      08643232 
  50      5633FC6A 
  51 007c 00B19872 		.ascii	"\000\261\230r\301FD0\002\231`\333\222 \2262@T4\224g"
  51      C1464430 
  51      029960DB 
  51      92209632 
  51      40543494 
  52 0091 32322733 		.ascii	"22'3B\304\200\346\356\270\361\375\000\013\212\271\354"
  52      42C480E6 
  52      EEB8F1FD 
  52      000B8AB9 
  52      EC
  53 00a2 998C2CDA 		.ascii	"\231\214,\332\014Z\231\214\254`\222\2158;\030\2414\214"
  53      0C5A998C 
  53      AC60928D 
  53      383B18A1 
  53      348C
  54 00b4 CFCC0053 		.ascii	"\317\314\000S\301\002\263\351\307\367\023\0306\261S"
  54      C102B3E9 
  54      C7F71318 
  54      36B153
  55 00c3 6E130BDC 		.ascii	"n\023\013\334&v\020\343<C\313\203\227\207\271 \026\301"
  55      267610E3 
  55      3C43CB83 
  55      9787B920 
  55      16C1
  56 00d5 7C0D3489 		.ascii	"|\0154\211#\031\252\003$\302\221\311\310\011u\304D\240"
  56      2319AA03 
  56      24C291C9 
ARM GAS  /tmp/ccQ6ActC.s 			page 4


  56      C80975C4 
  56      44A0
  57 00e7 462EA02D 		.ascii	"F.\240-I`\345\014\014P\215\231\214\334\014\014\027\031"
  57      4960E50C 
  57      0C508D99 
  57      8CDC0C0C 
  57      1719
  58 00f9 1A1FBC55 		.ascii	"\032\037\274U\206\031\005\001!@\007\000\343\004d\226"
  58      86190501 
  58      21400700 
  58      E3046496 
  59 0109 9A9E9E3E 		.ascii	"\232\236\236>\004\345\027\353'\347\347\346\346\347\001"
  59      04E517EB 
  59      27E7E7E6 
  59      E6E701
  60 0118 59399949 		.ascii	"Y9\231I\372\305E\311\372\311\031\031\251\211\005z\311"
  60      FAC545C9 
  60      FAC91919 
  60      A989057A 
  60      C9
  61 0129 0C00FF43 		.ascii	"\014\000\377Cv\366"
  61      76F6
  62              		.text
  63              		.section	.gnu.lto_chHeapObjectInit.ab6618b4dc77849e,"",%progbits
  64 0000 789C9552 		.ascii	"x\234\225R\277K\303P\020\276{Il\032\353\217\325M\004"
  64      BF4BC350 
  64      10BE7B49 
  64      6C1AEB8F 
  64      D54D04
  65 0013 052D34F8 		.ascii	"\005-4\370\277(\350X\203\264\001c\213\335\354\340\263"
  65      BF28E858 
  65      83B40163 
  65      8BDDECE0 
  65      B3
  66 0024 E95004A1 		.ascii	"\351P\004\241HE\321\305:DP\320\265c]\004\005\0257\335"
  66      4845D1C5 
  66      3A4450D0 
  66      B5635D04 
  66      051537DD 
  67 0038 FC031C74 		.ascii	"\374\003\034t\262t0\336{y\255T\253\340\221\334\275\344"
  67      B27430DE 
  67      7B79AD54 
  67      ABE091DC 
  67      BDE4
  68 004a BEFBEE7B 		.ascii	"\276\373\356{\3071`\360\335\306\350}\241\337I\212\250"
  68      C73160F0 
  68      DDC6E87D 
  68      A1DF498A 
  68      A8
  69 005b 01B2EA1D 		.ascii	"\001\262\352\035\300\246\311\020\305\001\0206\030n,"
  69      C0A6C910 
  69      C5011036 
  69      186E2C
  70 006a A2C45EB0 		.ascii	"\242\304^\260\346s\030\236\327n\256.\361lr\030\321C"
  70      E673189E 
  70      D76EAE2E 
  70      F16C7218 
ARM GAS  /tmp/ccQ6ActC.s 			page 5


  70      D143
  71 007c D0C8A149 		.ascii	"\320\310\241I\216\305\301E\260\204K\220\023\025\006"
  71      8EC5C145 
  71      B0844B90 
  71      131506
  72 008b 9439AF8E 		.ascii	"\2249\257\216O@\235\363\235\346\336\326\356\030?*U\371"
  72      4F409DF3 
  72      9DE6DED6 
  72      EE183F2A 
  72      55F9
  73 009d 4718A28B 		.ascii	"G\030\242\213\214\3014\202\203\260@\037\332\270\014"
  73      8CC13482 
  73      83B0401F 
  73      DAB80C
  74 00ac BADE2BCE 		.ascii	"\272\336+\316#E\002B6G^(\232G&\242v\015,\215u4 \215"
  74      23450242 
  74      36475E28 
  74      9A4726A2 
  74      760D2C8D 
  75 00c4 C7380119 		.ascii	"\3078\001\031\321\360\026J\215F\360\244\022I8\345d\263"
  75      D1F0164A 
  75      8D46F0A4 
  75      124938E5 
  75      64B3
  76 00d6 2E1A8770 		.ascii	".\032\207p@\354\003\031\324D\227\230\344^\212\356$\373"
  76      40EC0319 
  76      D4449798 
  76      E45E8AEE 
  76      24FB
  77 00e8 1AE240D5 		.ascii	"\032\342@\325\327\217\301\203\326S\035#\241I\230q\321"
  77      D78FC183 
  77      D6531D23 
  77      A1499871 
  77      D1
  78 00f9 943EDE9F 		.ascii	"\224>\336\237\011Ud*j2v5\265\202\247\037\254\326\377"
  78      0955642A 
  78      6A327635 
  78      B582A71F 
  78      ACD6FF
  79 010c 59F5AE5E 		.ascii	"Y\365\256^K\351m\354\237\274\341/z#\3168\211\020\025"
  79      4BE96DEC 
  79      9FBCE12F 
  79      7A23CE38 
  79      891015
  80 011f ACAFC26E 		.ascii	"\254\257\302n\346\026\374\212\377^\263#\256\214(3e\243"
  80      E616FC8A 
  80      FF5EB323 
  80      AE8C2833 
  80      65A3
  81 0131 56188623 		.ascii	"V\030\206#\021`\333\017\264N\336\"\210\314\233jp\257"
  81      1160DB0F 
  81      B44EDE22 
  81      88CC9B6A 
  81      70AF
  82 0143 B15F2EF8 		.ascii	"\261_.\370\267\014]\015\312\222,m?\254\315tZ$\212\260"
  82      B70C5D0D 
  82      CA922C6D 
ARM GAS  /tmp/ccQ6ActC.s 			page 6


  82      3FACCD74 
  82      5A248AB0 
  83 0157 4E6BA408 		.ascii	"Nk\244\010\013.\016\366\237\222\361\265.\367Pn\252z"
  83      0B2E0EF6 
  83      9F92F1B5 
  83      2EF7506E 
  83      AA7A
  84 0169 8022B479 		.ascii	"\200\"\264y\205\217\272\230p\324$\211\323\305!\200\007"
  84      858FBA98 
  84      70D42489 
  84      D3C52180 
  84      07
  85 017a D87C3E9B 		.ascii	"\330|>\233\354\340\"\233#\014\255\225\3205\225J\331"
  85      ECE0229B 
  85      230CAD95 
  85      D035954A 
  85      D9
  86 018b D1932BD8 		.ascii	"\321\223+\330N\316\363r\253tZq\227\354\302\232c;\331"
  86      4ECEF372 
  86      AB745A71 
  86      97ECC29A 
  86      633BD9
  87 019e EC723A9F 		.ascii	"\354r:\237r\200e\363\237U\026\2476"
  87      728065F3 
  87      9F5516A7 
  87      36
  88              		.text
  89              		.section	.gnu.lto_chHeapAllocAligned.ab6618b4dc77849e,"",%progbits
  90 0000 789C9D57 		.ascii	"x\234\235WilTU\024\276\367\276\367f_\332\351F\265l\225"
  90      696C5455 
  90      14BEF7BE 
  90      F7665FDA 
  90      E946B56C 
  91 0015 1D6D2915 		.ascii	"\035m)\025EhS\026cB\3004!\220\340?K\2252\211\225*\377"
  91      45685316 
  91      6342C034 
  91      2190E03F 
  91      4B953289 
  92 002c E447A79D 		.ascii	"\344G\247\235F6%\304@\000Y\254Q\203h\010\233\304\032"
  92      463625C4 
  92      400059AC 
  92      51836808 
  92      9BC41A
  93 003f 24CC1014 		.ascii	"$\314\020\024\012\010\324\304\010\015*Q\221\204\222"
  93      0A08D4C4 
  93      080D2A51 
  93      918492
  94 004e 46A21124 		.ascii	"F\242\021$\306\361\234s\357}\363:\035\247\243/\355y"
  94      C6F19C73 
  94      EF7DF33A 
  94      1DA7A32F 
  94      ED79
  95 0060 EF9EFD7E 		.ascii	"\357\236\375~\347\334e\004\023,\363)\343\214\255\210"
  95      E7DC6504 
  95      132CF329 
  95      E38CAD88 
  96 0070 C03F7CF3 		.ascii	"\300?|\3632\306\305\326K\214ux\2040\256\373Y\314g~r"
ARM GAS  /tmp/ccQ6ActC.s 			page 7


  96      32C6C5D6 
  96      4B8C7578 
  96      8430AEFB 
  96      59CC677E 
  97 0085 9AB158C0 		.ascii	"\232\261X\300\340\246\344\233\302\3320\031\370.\244"
  97      E0A6E49B 
  97      C2DA3019 
  97      F82EA4
  98 0094 018BBB24 		.ascii	"\001\213\273$\333\305K\345\207[xH^Hr\217\360\2366pt"
  98      DBC54BE5 
  98      875B7848 
  98      5E48728F 
  98      F09E3670 
  99 00a9 E93C7AF1 		.ascii	"\351<z\361\012\037\011\203$\364\011?\215\0024\362\363"
  99      0A1F0983 
  99      24F4093F 
  99      8D0234F2 
  99      F3
 100 00ba 80F410E0 		.ascii	"\200\364\020\340\005\362#(B\277\226\200<\334=\033\344"
 100      05F22328 
 100      42BF9680 
 100      3CDC3D1B 
 100      E4
 101 00cb 21CD0EEB 		.ascii	"!\315\016\353\217\002^\"?\012e\360\371\245\302Mq|\021"
 101      8F025E22 
 101      3F0A65F0 
 101      F9A5C24D 
 101      717C11
 102 00de 0C1A8888 		.ascii	"\014\032\210\210\242/iXr\036\207E\242\370\312E\032&"
 102      A22F6958 
 102      721E8745 
 102      A2F8CA45 
 102      1A26
 103 00f0 380C8BB5 		.ascii	"8\014\213\265u\011\347\370\3018k\027\206i\271\334\036"
 103      7509E7F8 
 103      C1386B17 
 103      8669B9DC 
 103      1E
 104 0101 AFCF1F08 		.ascii	"\257\317\037\010\206\302\005\205\245\221\242\342\022"
 104      86C20585 
 104      A591A2E2 
 104      12
 105 010e DEFE1C47 		.ascii	"\336\376\034G\240\274\225\354\335Xl\353\215/~\352\263"
 105      A0BC95EC 
 105      DD586CEB 
 105      8D2F7EEA 
 105      B3
 106 011f 766D4B74 		.ascii	"vmKtu\307\376J\2458\217r\000u*g\315\234\255\200\001"
 106      75C7FE4A 
 106      A5388F72 
 106      00752A67 
 106      CD9CAD80 
 107 0134 1F472F61 		.ascii	"\037G/a\016EY\332\306\216~\030\363\222\235AfU\371\231"
 107      0E4559DA 
 107      C68E7E18 
 107      F3929D41 
 107      6655F999 
ARM GAS  /tmp/ccQ6ActC.s 			page 8


 108 0148 254E5DDA 		.ascii	"%N]\332Q\276\251\273sk\354o\210H\226\217\347i\371\331"
 108      51BEA9BB 
 108      736BEC6F 
 108      8848968F 
 108      E769F9D9 
 109 015c E53D1996 		.ascii	"\345=\031\226s\362\262|+\361\316\346\355\345\261\264"
 109      73F2B27C 
 109      2BF1CEE6 
 109      EDE5B1B4 
 110 016c A5215843 		.ascii	"\245!XC~\226\261?_8\027\353J\244R\015d\265 \317xG6\277"
 110      7E96B13F 
 110      5F3817EB 
 110      4AA4520D 
 110      64B520CF 
 111 0184 E98C670A 		.ascii	"\351\214g\012\366L\236\226\337l\331\233\221\351\222"
 111      F64C9E96 
 111      DF6CD99B 
 111      91E992
 112 0193 3C2D0F5F 		.ascii	"<-\017_\016l\355\330\020K\245\332\301\254\211\037\346"
 112      0E6CEDD8 
 112      104BA5DA 
 112      C1AC891F 
 112      E6
 113 01a4 6204BB43 		.ascii	"b\004\273C\"q#\225\272s\355\3677\356\360\363b)g\255"
 113      22712395 
 113      BA73EDF7 
 113      37EEF0F3 
 113      622967AD 
 114 01b8 08692BE7 		.ascii	"\010i+\347\006k\342\007x%3\325\333bQny9\210}@\270\037"
 114      066BE207 
 114      782533D5 
 114      DB62516E 
 114      7939887D 
 115 01cf 880800CF 		.ascii	"\210\010\000\317\025D\022\002\255\203\240\025\206\201"
 115      15441202 
 115      AD83A015 
 115      8681
 116 01dd 3BA24C8A 		.ascii	";\242L\212``\024\253A\011\016JQ\267\014\311($\345H\036"
 116      606014AB 
 116      41090E4A 
 116      51B70CC9 
 116      2824E548 
 117 01f2 42F23010 		.ascii	"B\3620\020Q\241TG#g\014r\306\"\031\207\226\343A\366"
 117      51A15447 
 117      23670C72 
 117      C6221987 
 117      96E341F6 
 118 0206 2EC82AE1 		.ascii	".\310*\341\375\036\274\037\001&\233\200d\"\222IH&#\231"
 118      FD1EBC1F 
 118      01269B80 
 118      64229249 
 118      48262399 
 119 021a 82C65341 		.ascii	"\202\306SA\353\003\320\232\206\234\351H\036E\362\030"
 119      EB03D09A 
 119      869CE948 
 119      1E45F218 
 120 022a CAAAD1E7 		.ascii	"\312\252\321\347\014$5\240u\010\264f\"\273\026\311,"
ARM GAS  /tmp/ccQ6ActC.s 			page 9


 120      0C2435A0 
 120      7508B466 
 120      22BB16C9 
 120      2C
 121 023b 0C351BC9 		.ascii	"\0145\033\311\034T\230\213\244\016\264\216\200V=\262"
 121      1C54988B 
 121      A40EB48E 
 121      80563DB2 
 122 024b 1B60B01F 		.ascii	"\033`\260\037\006\363\320\335|$\013\220,D\343E\210\320"
 122      06F3D0DD 
 122      7C240B90 
 122      2C44E345 
 122      88D0
 123 025d 62209E25 		.ascii	"b \236%8|\026I#\350\177\014\372\360X\254\013\372w\234"
 123      387C1649 
 123      23E87F0C 
 123      FAF058AC 
 123      0BFA779C 
 124 0271 9CA26EC9 		.ascii	"\234\242n\311\013;2\012\3358R\241\245?\211v+T\011\325"
 124      0B3B320A 
 124      DD3852A1 
 124      A53F8976 
 124      2B5409D5 
 125 0285 E1590674 		.ascii	"\341Y\006t\227\305\226C\301wY\3069v\346V\362\304f\350"
 125      97C59643 
 125      C17759C6 
 125      3976E656 
 125      F2C466E8 
 126 0299 80A3DC62 		.ascii	"\200\243\334b-\334\213\236\274N7\313\301\364gf\364\262"
 126      2DDC8B9E 
 126      BC4E37CB 
 126      C1F46766 
 126      F4B2
 127 02ab CE1BDFDF 		.ascii	"\316\033\337\337tI=\250\355:\366 \266!\026\233\013\332"
 127      74493DA8 
 127      ED3AF620 
 127      B621169B 
 127      0BDA
 128 02bd ADDC7468 		.ascii	"\255\334th\233\350\026\264=\014\325Z8\204;\307\272~"
 128      9BE816B4 
 128      3D0CD55A 
 128      38843BC7 
 128      BA7E
 129 02cf 497E930E 		.ascii	"I~\223\016\342\303 .\267mt\215q\210,\270\364\2318y!"
 129      E2C3202E 
 129      B76D748D 
 129      71882CB8 
 129      F4993879 
 130 02e4 647B357A 		.ascii	"d{5z\014tj\261\213\002\235v\017X:\003NN<v\\\2273.\370"
 130      0C746AB1 
 130      8B029D76 
 130      0F583A03 
 130      4E4E3C76 
 131 02fd 83EDFE2B 		.ascii	"\203\355\376+\026\337\020?Y\246\303\006Z\270\037\215"
 131      16DF103F 
 131      59A6C306 
 131      5AB81F8D 
ARM GAS  /tmp/ccQ6ActC.s 			page 10


 132 030d 4C8C0CB2 		.ascii	"L\214\014\262\023vBA\020\222\344~*\225\012K\351\233"
 132      13764241 
 132      1092E47E 
 132      2A950A4B 
 132      E99B
 133 031f F1555A1C 		.ascii	"\361UZ\034\002\015\022c\264^&$_\"\013RT\357|\020\037"
 133      020D1263 
 133      B45E2624 
 133      5F220B52 
 133      54EF7C10 
 134 0334 D861FB0B 		.ascii	"\330a\373\013\257c\257A{Og\323\242\334\267\233\275\015"
 134      AF63AF41 
 134      7B4F67D3 
 134      A2DCB79B 
 134      BD0D
 135 0346 B6FE1699 		.ascii	"\266\376\026\231\261\304v%w |\231\231\322\220)T\013"
 135      B1C47625 
 135      77207C99 
 135      99D29029 
 135      540B
 136 0358 A23CD0CC 		.ascii	"\242<\320\314\245\0128\213\362\240\012qo\207K\207\210"
 136      A50A388B 
 136      F2A00A71 
 136      6F874B87 
 136      88
 137 0369 A02A3C35 		.ascii	"\240*<5\320\014\323\331G\370Y\037\345\241\354\301\034"
 137      D00CD3D9 
 137      47F8591F 
 137      E5A1ECC1 
 137      1C
 138 037a D100A184 		.ascii	"\321\000\241\204KO\340\000M \"k \2400\246F\325\372\374"
 138      4B4FE000 
 138      4D20226B 
 138      20A030A6 
 138      46D5FAFC 
 139 038e BB971055 		.ascii	"\273\227\020U7\203c\205\212\277q\275mv\214\314\212\010"
 139      37836385 
 139      8ABF71BD 
 139      6D768CCC 
 139      8A08
 140 03a0 A6CDF163 		.ascii	"\246\315\361c{\352tR%\300\245V\364\020\206\235\2036"
 140      7BEA7452 
 140      25C0A556 
 140      F410869D 
 140      8336
 141 03b2 22A52094 		.ascii	"\"\245 \224\005\261Ye\304\025\031\334Q \240\034Rv):"
 141      05B15965 
 141      C41519DC 
 141      5120A01C 
 141      5276293A 
 142 03c6 0FD8D272 		.ascii	"\017\330\322rm\220\256\335CdS\256\252\375\267\315\177"
 142      6D90AEDD 
 142      436453AE 
 142      AAFDB7CD 
 142      7F
 143 03d7 1844944B 		.ascii	"\030D\224K\272\246\235\203\351\232V\200\306\220b~L\223"
 143      BAA69D83 
ARM GAS  /tmp/ccQ6ActC.s 			page 11


 143      E99A5680 
 143      C690627E 
 143      4C93
 144 03e9 AA20BDFE 		.ascii	"\252 \275\376\253?%\205\326\034Me4\211\206%\276!5OC"
 144      AB3F2585 
 144      D61C4D65 
 144      34898625 
 144      BE21354F 
 145 03fe E12BD4DB 		.ascii	"\341+\324\333P \017\231\321\030pA\211p)\331dK\306\202"
 145      50200F99 
 145      D1187041 
 145      897029D9 
 145      644BC682 
 146 0412 D001573C 		.ascii	"\320\001W<\275B\306A\000\220\343\3229\363KG\215\203"
 146      BD42C641 
 146      0090E3D2 
 146      39F34B47 
 146      8D83
 147 0424 5DE15C99 		.ascii	"]\341\\\231\036\266\177\242A\363\272m\247;^U\306\001"
 147      1EB67FA2 
 147      41F3BA6D 
 147      A73B5E55 
 147      C601
 148 0436 7E25CD15 		.ascii	"~%\315\025\002l\264Y\217\220be\206\342\004\2129$\373"
 148      026CB459 
 148      8F906265 
 148      86E2048A 
 148      3924FB
 149 0449 89C0C51C 		.ascii	"\211\300\305\034\031\302H\017o\317P\231D\356&\022w\237"
 149      19C2480F 
 149      6FCF5099 
 149      44EE2612 
 149      779F
 150 045b CD9D0C02 		.ascii	"\315\235\014\0022\034\326\013S@H\233\302\255\216u\016"
 150      321CD60B 
 150      5340489B 
 150      C2AD8E75 
 150      0E
 151 046c 5EC83933 		.ascii	"^\31093/\373\226\343\346t3y|KP+\025eL\337\307\006do"
 151      2FFB96E3 
 151      E6743379 
 151      7C4B502B 
 151      15654CDF 
 152 0484 EE5BEF53 		.ascii	"\356[\357S\233\246\332.{.\245O78N\227\216\264W\342n"
 152      9BA6DA2E 
 152      7B2EA54F 
 152      37384E97 
 152      8EB457E2 
 153 0499 2957207C 		.ascii	")W |\234\246N\230BY\017\304S{\252\233x\222\342OU8v\016"
 153      9CA64E98 
 153      42590FC4 
 153      537BAA9B 
 153      7892E24F 
 154 04b1 189A354D 		.ascii	"\030\2325M\367\365F\2335\235\024\247\331pH\356\243 "
 154      F7F5469B 
 154      359D14A7 
 154      D97048EE 
ARM GAS  /tmp/ccQ6ActC.s 			page 12


 154      A320
 155 04c3 C884434A 		.ascii	"\310\204CJ\036\003!\261z\017\373%O\255\347\332\377\324"
 155      1E0321B1 
 155      7A0FFB25 
 155      4FADE7DA 
 155      FFD4
 156 04d5 75E088DA 		.ascii	"u\340\210\332\345f\262oKH\373\016\321<\322\210\371\331"
 156      E566B26F 
 156      4B48FB0E 
 156      D13CD288 
 156      F9D9
 157 04e7 1306AD93 		.ascii	"\023\006\255\223O\367\326\333\307\314!:v\244\0119\252"
 157      4FF7D6DB 
 157      C7CC213A 
 157      76A40939 
 157      AA
 158 04f8 06C3CC8E 		.ascii	"\006\303\314\216=K\376f\200pH\307\306_\323\242\032Z"
 158      3D4BFE66 
 158      807048C7 
 158      C65FD3A2 
 158      1A5A
 159 050a 5333D49A 		.ascii	"S3\324\232:Kk\352\020!Y#\001\212\237\330\273H+\317\324"
 159      3A4B6BEA 
 159      10215923 
 159      018A9FD8 
 159      BB482BCF 
 160 051f 15A7646E 		.ascii	"\025\247dn\013\315\257\005\021\355\264\216\325\337\373"
 160      0BCDAF05 
 160      11EDB48E 
 160      D5DFFB
 161 052e AB5F8A15 		.ascii	"\253_\212\025,O\016\207\245&\027,\265rI\367\014&\355"
 161      2C4F0E87 
 161      A526172C 
 161      B57249F7 
 161      0C26ED
 162 0541 69CC227B 		.ascii	"i\314\"{#\037pu\243`\"W\206%\222\351\"k\"\246Jd\226"
 162      231F7075 
 162      A3602257 
 162      862592E9 
 162      226B22A6 
 163 0558 F47275F0 		.ascii	"\364ru\360\256\030\311O\216T\010OY\315\200\356\377\223"
 163      AE18C94F 
 163      8E54084F 
 163      59CD80EE 
 163      FF93
 164 056a EBDDB27C 		.ascii	"\353\335\262|zo\256\320*AT\241C~[\330q\234\215v6E\210"
 164      7A6FAED0 
 164      2A4154A1 
 164      437E5BD8 
 164      719C8D76 
 165 0581 8DC14DA4 		.ascii	"\215\301M\244\177\347oI{\215\316\376\377\010\035\315"
 165      7FE76F49 
 165      7B8DCEFE 
 165      FF081DCD 
 166 0591 393323D7 		.ascii	"93#\327\314f\353\224\302\340M6\352\300\276:\273Q\217"
 166      CC66EB94 
 166      C2E04D36 
ARM GAS  /tmp/ccQ6ActC.s 			page 13


 166      EAC0BE3A 
 166      BB518F
 167 05a4 A8463DAA 		.ascii	"\250F=\252\033uN\226F\355\247\374\347\202pX\243JQ\035"
 167      1B754E96 
 167      46EDA7FC 
 167      E7827058 
 167      A34A511D 
 168 05b8 6D247355 		.ascii	"m$sU\243\366\023jG\010\265:\331)\367\377H\332~\352\377"
 168      A3F6136A 
 168      4708B53A 
 168      D929F7FF 
 168      48DA7EEA 
 169 05cd 3F0EFD39 		.ascii	"?\016\3759q\250\313\205C\275:\255~\333\367\224N\244"
 169      71A8CB85 
 169      43BD3AAD 
 169      7EDBF794 
 169      4EA4
 170 05df 41A5471B 		.ascii	"A\245G\033\215d\315\243=\274\301\336\215%w>\355\331"
 170      8D64CDA3 
 170      3DBCC1DE 
 170      8D25773E 
 170      EDD9
 171 05f1 F3ECED47 		.ascii	"\363\354\355Gr\027\200 s\373\221\222\205 L\257\263\376"
 171      72178020 
 171      73FB9192 
 171      85204CAF 
 171      B3FE
 172 0603 9CEB2C6B 		.ascii	"\234\353,k\322z\235-\224^z\356\335\025#M>g\023\324\351"
 172      D27A9D2D 
 172      945E7AEE 
 172      DD15234D 
 172      3E6713D4 
 173 0618 2628C033 		.ascii	"&(\3003@\336\350t_\233\024\343\302\325\007}bH\243\205"
 173      40DEE874 
 173      5F9B14E3 
 173      C2D5077D 
 173      6248A385 
 174 062c 75AE0576 		.ascii	"u\256\005v\014\323\031\303Ro\227\212\341\227~\356g\361"
 174      0CD319C3 
 174      526F978A 
 174      E1977EEE 
 174      67F1
 175 063e E3CDC78F 		.ascii	"\343\315\307\217[\371\341x{\353\352\036tg\273\300\011"
 175      5BF9E178 
 175      7BEBEA1E 
 175      7467BBC0 
 175      09
 176 064f A5A42F70 		.ascii	"\245\244/p\320\2047\307\352\005\266Hy\026\362\006{\215"
 176      D08437C7 
 176      EA05B648 
 176      7916F206 
 176      7B8D
 177 0661 99B06A03 		.ascii	"\231\260j\003\327\357\265Aw\205\366\334}\036^aB\241"
 177      D7EFB541 
 177      7785F6DC 
 177      7D1E5E61 
 177      42A1
ARM GAS  /tmp/ccQ6ActC.s 			page 14


 178 0673 90DD3BC7 		.ascii	"\220\335;\307\014\324(\006\236\373\347v\240\036\222"
 178      0CD42806 
 178      9EFBE776 
 178      A01E92
 179 0682 9432F8F1 		.ascii	"\2242\370\361\3165@\362.g\250\373\313\251>n\237\232"
 179      CE3540F2 
 179      2E67A8FB 
 179      CBA93E6E 
 179      9F9A
 180 0694 595B3847 		.ascii	"Y[8G\011\350l\276\323Qk;H\253\252\\\215\026^\\\010w"
 180      09E86CBE 
 180      D3516B3B 
 180      48ABAA5C 
 180      8D165E5C 
 181 06aa EC88EBFA 		.ascii	"\354\210\353\372\017\2430\225\010;m\030\200\304\215"
 181      0FA33095 
 181      083B6D18 
 181      80C48D
 182 06b9 4DD17C90 		.ascii	"M\321|\220\200\004\337\373\321Np1\245V\230\375\352\352"
 182      8004DFFB 
 182      D14E7031 
 182      A55698FD 
 182      EAEA
 183 06cb 71A664DF 		.ascii	"q\246d\337\004\026\243J!s<\313\341\326s\320\220{\306"
 183      0416A34A 
 183      21733CCB 
 183      E1D673D0 
 183      907BC6
 184 06de A9F7E768 		.ascii	"\251\367\347h\305%j\2070\207]\276\236\005\241}\251\277"
 184      C5256A87 
 184      30875DBE 
 184      9E05A17D 
 184      A9BF
 185 06f0 CC5E4F94 		.ascii	"\314^O\224kI#\370gRC\250\353p\024/\311\303.\213\215"
 185      6B4923F8 
 185      675243A8 
 185      EB70142F 
 185      C9C32E8B 
 186 0705 32ADE4F1 		.ascii	"2\255\344\361\267\002\266m\006V\230X1\373\300\240mz"
 186      B702B66D 
 186      06569858 
 186      31FBC0A0 
 186      6D7A
 187 0717 77EF902B 		.ascii	"w\357\220+\364\323l!\350*\033uM\26577l\317\235\373\277"
 187      F4D36C21 
 187      E82A1B75 
 187      4DB53737 
 187      6CCF9DFB 
 188 072c 1EB13D65 		.ascii	"\036\261=e@}\307\315\336\242\350\253'\213\257\314%\363"
 188      407DC7CD 
 188      DEA2E8AB 
 188      278BAFCC 
 188      25F3
 189 073e AFBE1CCB 		.ascii	"\257\276\034\313FN\251\004\177l\365\261\016\017r-\331"
 189      464EA904 
 189      7F6CF5B1 
 189      0E0F722D 
ARM GAS  /tmp/ccQ6ActC.s 			page 15


 189      D9
 190 074f 14163475 		.ascii	"\024\0264u\3016h\317\306\342\256\355TC\020\024]\337"
 190      C13668CF 
 190      C6E2AEED 
 190      54431014 
 190      5DDF
 191 0761 1E549FF8 		.ascii	"\036T\237\3703c\031\244\263\313\302v\230TUU-\377\326"
 191      336319A4 
 191      B3CBC276 
 191      98545555 
 191      2DFFD6
 192 0774 ACAD6E5E 		.ascii	"\254\255n^\323\332\272\346e\370z)\272\262z\355\253\315"
 192      D3DABAE6 
 192      65F87A29 
 192      BAB27AED 
 192      ABCD
 193 0786 D5CDAB57 		.ascii	"\325\315\253W\277\330\324V\325\314\314\325mU5V\023\320"
 193      BFD8D456 
 193      D5CCCCD5 
 193      6D553556 
 193      13D0
 194 0798 99446BCD 		.ascii	"\231Dk\315UmU\217\213W\332\014\030YmM-/\256\025\253"
 194      556D558F 
 194      8B57DA0C 
 194      18596D4D 
 194      2D2FAE15 
 195 07ad DAC4EA36 		.ascii	"\332\304\3526\327J\032\374\0030\366\"\347"
 195      D74A1AFC 
 195      0330F622 
 195      E7
 196              		.text
 197              		.section	.gnu.lto_chHeapFree.ab6618b4dc77849e,"",%progbits
 198 0000 789C9D55 		.ascii	"x\234\235U]L\034U\024>\347\316\314\316\257t\223\226"
 198      5D4C1C55 
 198      143EE7CE 
 198      CCCEAF74 
 198      9396
 199 0012 C2125216 		.ascii	"\302\022R\026Jh\2266l\2146>\031\237}/\211>\302j`S\021"
 199      4A689636 
 199      6C8C363E 
 199      199F7D2F 
 199      893EC26A 
 200 0029 6ADFE4A1 		.ascii	"j\337\344\241\303.&\304\306\204HT\0245\020\323\232\370"
 200      C32E26C4 
 200      C6844854 
 200      143510D3 
 200      9AF8
 201 003b 6234A66D 		.ascii	"b4\246mB\322.\304\207Bl\253\345\205R\215\024\243\215"
 201      42D22EC4 
 201      87426CAB 
 201      E585528D 
 201      14A38D
 202 004e AF6A946C 		.ascii	"\257j\224l\032\307s\177fvv\235\322\205\311\356\271?"
 202      1AC7737F 
 202      6676769D 
 202      D285C9EE 
 202      B93F
ARM GAS  /tmp/ccQ6ActC.s 			page 16


 203 0060 E7DEEF9C 		.ascii	"\347\336\357\234\373\335\357\336\313\200A\343\267H\377"
 203      FBDDEFDE 
 203      CB8041E3 
 203      B748FF
 204 006f 4907E059 		.ascii	"I\007\340Y*\361)@6{\033`\312b\250\311\212\306\214\037"
 204      2AF12940 
 204      367B1B60 
 204      CA62A8C9 
 204      8AC68C1F 
 205 0083 5DF01DFD 		.ascii	"]\360\035\375\233U\000\337\323\2311s\202\232.\267\236"
 205      9B5500DF 
 205      D3993173 
 205      829A2EB7 
 205      9E
 206 0094 C1CC558D 		.ascii	"\301\314U\215Z\251\333\353\334\231RMW6Mf\211\251\266"
 206      5AA9DBEB 
 206      DC99524D 
 206      57364D66 
 206      89A9B6
 207 00a7 9C6AA12D 		.ascii	"\234j\241-!m\346\210~O\366;\350\311~W\306\\\261<D^\001"
 207      216DE688 
 207      7E4FF63B 
 207      E8C97E57 
 207      C65CB13C 
 208 00be 840B4CD3 		.ascii	"\204\013L\323\215\224i\331\216\353\341\205\227\221g"
 208      8D9469D9 
 208      8EEBE185 
 208      979167
 209 00cd ACF5C092 		.ascii	"\254\365\300\222\357\277\273\375\326\327w\331\207~e"
 209      EFBFBBFD 
 209      D6D777D9 
 209      877E65
 210 00dc 7AD17F14 		.ascii	"z\321\177\024\004\210E\244\325\345\020\012\010/Q\003"
 210      048845A4 
 210      D5E5100A 
 210      082F5103 
 211 00ec B3A2607A 		.ascii	"\263\242`z\375r\345\\\377\347Wn\372\323\225 xA\314:"
 211      FD72E55C 
 211      FFE7576E 
 211      FAD39520 
 211      7841CC3A 
 212 0100 D5DCACCA 		.ascii	"\325\334\254\312\334\334{\031\177\2614\353\377K\001"
 212      DCDC7B19 
 212      7FB134EB 
 212      FF4B01
 213 010f 8BA831C8 		.ascii	"\213\2501\310?i\346\227\254\262\035\004\217>\370\375"
 213      3F69E697 
 213      ACB21D04 
 213      8F3EF8FD 
 214 011f C1A7D8DA 		.ascii	"\301\247\330\332\2170\204K\330\003:\216!\030\324\370"
 214      8F30844B 
 214      D8033A8E 
 214      2118D4F8 
 215 012f 8C1A2695 		.ascii	"\214\032&\225\227\250\264\224\323\206\"\352\0167.7\036"
 215      97A8B494 
 215      D38622EA 
 215      0E372E37 
ARM GAS  /tmp/ccQ6ActC.s 			page 17


 215      1E
 216 0140 372D648C 		.ascii	"7-d\2144\0318\314\233G\310\260Vn\216\362\2766n\332\271"
 216      341938CC 
 216      9B47C8B0 
 216      566E8EF2 
 216      BE366EDA 
 217 0155 23C34D07 		.ascii	"#\303M\0077\235\274\357\030\257u\361qYn\272y_\017\357"
 217      379DBCEF 
 217      18AF75F1 
 217      71596EBA 
 217      795F0FEF 
 218 0169 3BCE4D2F 		.ascii	";\316M/7}\274/\247B\323g\300\264\357\317fe[&(\323\033"
 218      377DBC2F 
 218      A742D367 
 218      C0B4EFCF 
 218      66655B26 
 219 0180 4362BF20 		.ascii	"Cb\277 v\340\014\331\252\006\203\310\250\320nA\371b"
 219      76E00CD9 
 219      AA0683C8 
 219      A8D06E41 
 219      F962
 220 0192 79F9726A 		.ascii	"y\371rj\010?G\003F\320\030A]P\261\033\004\301!\032\276"
 220      083F4703 
 220      46D01841 
 220      5D50B11B 
 220      04C1211A 
 221 01a7 064CFA24 		.ascii	"\006L\372$\034\215\000\270\005\245\255\371+\353\030"
 221      1C8D00B8 
 221      05A5ADF9 
 221      2BEB18
 222 01b6 4E324FC2 		.ascii	"N2O\302\027>}\317\021\255'\241\277\210\251\005\370\210"
 222      173E7DCF 
 222      11AD27A1 
 222      BF88A905 
 222      F888
 223 01c8 404C0506 		.ascii	"@L\005\006!\030\014\243dv\030U\205\360K\225L\030\341"
 223      21180CA3 
 223      64761855 
 223      85F04B95 
 223      4C18E1
 224 01db 9288608A 		.ascii	"\222\210`\212\010\325\362\303ZZ\326$Ty\204\247\011L"
 224      08D5F2C3 
 224      5A5AD624 
 224      547984A7 
 224      094C
 225 01ed 057B9EF0 		.ascii	"\005{\236\360e\030\213\246\3600\232\202\216\235\023"
 225      65188BA6 
 225      F0309A82 
 225      8E9D13
 226 01fc 8E9E0AD1 		.ascii	"\216\236\012\321\227\004\272\245\362\277\272\316Bt["
 226      9704BAA5 
 226      F2BFBACE 
 226      42745B
 227 020b 246D379B 		.ascii	"$m7\233\272\246\300\211\273\031-\304p\010\206O\260M"
 227      BAA6C089 
 227      BB192DC4 
 227      7008864F 
ARM GAS  /tmp/ccQ6ActC.s 			page 18


 227      B04D
 228 021d E9598E3C 		.ascii	"\351Y\216<.9\205'\204\"\357;\345\177.\237\015\007x4"
 228      2E398527 
 228      8422EF3B 
 228      E57F2E9F 
 228      0D077834 
 229 0231 460CB084 		.ascii	"F\014\260\204\263\2646\177\265\252\270Uk5\303\354\234"
 229      B3B4367F 
 229      B5AAB855 
 229      6B35C3EC 
 229      9C
 230 0242 C767A7AB 		.ascii	"\307g\247\253\354\014Q\022\252bq\351D\030\247e\022\336"
 230      EC0C5112 
 230      AA6271E9 
 230      4418A765 
 230      12DE
 231 0254 24250A20 		.ascii	"$%\012 7\231\272T\215\272;\240\313\211t\305\020\371"
 231      3799BA54 
 231      8DBA3BA0 
 231      CB8974C5 
 231      10F9
 232 0266 337EBA88 		.ascii	"3~\272\210^A\355\033\201\025\351\302\021\337 \315\246"
 232      5E41ED1B 
 232      8115E9C2 
 232      11DF20CD 
 232      A6
 233 0277 13AF11D7 		.ascii	"\023\257\021\327\264\200\220f\032w\023\276}\270r\177"
 233      B4809066 
 233      1A7713BE 
 233      7DB8727F 
 234 0287 CE0BE3A3 		.ascii	"\316\013\343\243 _~\367\200Z9\367\257\257x'\373x!\303"
 234      205F7EF7 
 234      805A39F7 
 234      AFAF7827 
 234      FB7821C3 
 235 029b 7174A04B 		.ascii	"qt\240KE\243i\277\255\334\337\350\215I\022ki\015R\337"
 235      45A369BF 
 235      ADDCDFE8 
 235      8D49126B 
 235      690D52DF 
 236 02af DFA734BE 		.ascii	"\337\2474\276\205\233\313[\221\004\323bU\320@\022\012"
 236      859BCB5B 
 236      9104D362 
 236      55D04012 
 236      0A
 237 02c0 92A09E20 		.ascii	"\222\240\236 S!\311\3646\362\021Dmp\024+\005\177\366"
 237      5321C9F4 
 237      36F21144 
 237      6D70142B 
 237      057FF6
 238 02d3 F3847E5D 		.ascii	"\363\204~]\371i\243+\226P:>\310\224\007\211\366\355"
 238      F969A32B 
 238      96503A3E 
 238      C8940789 
 238      F6ED
 239 02e5 FA5D56B7 		.ascii	"\372]V\267o\207\376\237\322c\367\315T\304\246\245\006"
 239      6F87FE9F 
ARM GAS  /tmp/ccQ6ActC.s 			page 19


 239      D263F7CD 
 239      54C4A6A5 
 239      06
 240 02f6 AE3581B5 		.ascii	"\2565\201\265\307\362\242s\272{\275F\322\341\230\316"
 240      C7F2A273 
 240      BA7BBD46 
 240      D2E198CE 
 241 0306 9B565283 		.ascii	"\233VR\203\316\217\020\214\270 Pz\336\216<\255\344\024"
 241      CE8F108C 
 241      B820507A 
 241      DE8E3CAD 
 241      E414
 242 0318 1E29E3F2 		.ascii	"\036)\343\362\305\310sTp\326*\023\372\276%\354nK\334"
 242      C5C87354 
 242      70D62A13 
 242      FABE25EC 
 242      6E4BDC
 243 032b B3271024 		.ascii	"\263'\020$\367m\352t\014\273-\276\031\026|\007B\035"
 243      F76DEA74 
 243      0CBB2DBE 
 243      19167C07 
 243      421D
 244 033d D76EAC46 		.ascii	"\327n\254F\011\264'.\274-\211\276\370\242\313W\"\352"
 244      09B4272E 
 244      BC2D89BE 
 244      F8A2CB57 
 244      22EA
 245 034f 32B46CC2 		.ascii	"2\264l\302i \243\203\034\342\344J2J/\306w,-\"\252\332"
 245      6920A383 
 245      1CE2E44A 
 245      324A2FC6 
 245      772C2D22 
 246 0365 3E0E6E87 		.ascii	">\016n\207\344i\363\306\037\321\005\325\231\310Tb\376"
 246      E469F3C6 
 246      1FD105D5 
 246      99C85462 
 246      FE
 247 0376 66947F69 		.ascii	"f\224\177im\326\255S\3203\007Pcg\310\253\255D\2765\277"
 247      6DD6AD53 
 247      D0330750 
 247      6367C8AB 
 247      AD44BE35 
 248 038b B313B172 		.ascii	"\263\023\261r,\221\327DY&\212\251\213 \222\305\224%"
 248      2C91D744 
 248      59268AA9 
 248      8B2092C5 
 248      9425
 249 039d 67B298BA 		.ascii	"g\262\230\272\305E\222m\324A\367H\024B\344\353\204:"
 249      C545926D 
 249      D441F748 
 249      1442E4EB 
 249      843A
 250 03af D8DCA9E9 		.ascii	"\330\334\251\351\240\347\340\007 \246\205\343\224\365"
 250      A0E7E007 
 250      20A685E3 
 250      94F5
 251 03bd 087F70EB 		.ascii	"\010\177p\353\326\322K\216\375ja\017\246\010P\035\340"
ARM GAS  /tmp/ccQ6ActC.s 			page 20


 251      D6D24B8E 
 251      FD6A610F 
 251      A608501D 
 251      E0
 252 03ce 9D9A0EFA 		.ascii	"\235\232\016\372\016vb\232\323\302\236\267I_\310\253"
 252      0E76629A 
 252      D3C29EB7 
 252      495FC8AB 
 253 03de 0BEFAF4B 		.ascii	"\013\357\257Kbw\177Y\215(\311)\330\323\373\274\203\371"
 253      62777F59 
 253      8D28C929 
 253      D8D3FBBC 
 253      83F9
 254 03f0 FBDC5EFF 		.ascii	"\373\334^\377>\347\302H\036W\334\035\230\336^8\233\364"
 254      3EE7C248 
 254      1E57DC1D 
 254      98DE5E38 
 254      9BF4
 255 0402 10319599 		.ascii	"\0201\225\231|\210~\200\251\305O\334p\234\374\316\320"
 255      7C887E80 
 255      A9C54FDC 
 255      709CFCCE 
 255      D0
 256 0413 BB51D5F8 		.ascii	"\273Q\325\370\270\276\201\201\274\374\215\237\317\027"
 256      B8BE8181 
 256      BCFC8D9F 
 256      CF17
 257 0421 C6C7C6C6 		.ascii	"\306\307\306\306_\247\332k\305\341\374\3717\012\371"
 257      5FA7DA6B 
 257      C5E1FCF9 
 257      370AF9
 258 0430 C2E8E8AB 		.ascii	"\302\350\350\253C\023\003\005`\347&\330\350\204\301"
 258      43130305 
 258      60E726D8 
 258      E884C1
 259 043f 5B13FF01 		.ascii	"[\023\377\001CLOp"
 259      434C4F70 
 260              		.text
 261              		.section	.gnu.lto_chHeapStatus.ab6618b4dc77849e,"",%progbits
 262 0000 789C8D54 		.ascii	"x\234\215T\335kTG\024?g\346~\355\375\330M\224\004\002"
 262      DD6B5447 
 262      143F67E6 
 262      7EEDFDD8 
 262      4D940402 
 263 0014 3E88054B 		.ascii	">\210\005KU6\224\"\024l)\375\037\014\324\307u\225\365"
 263      55369422 
 263      146C29FD 
 263      1F0CD4C7 
 263      7595F5
 264 0027 826BA2E9 		.ascii	"\202k\242\351K\365\301IvK\203n!\264\017\251\326\207"
 264      4BF5C149 
 264      764B836E 
 264      21B40FA9 
 264      D687
 265 0039 C856826D 		.ascii	"\310V\202m1\245\015(\304\320\215\024\033\261U\024\304"
 265      31A50D28 
 265      C4D08D14 
ARM GAS  /tmp/ccQ6ActC.s 			page 21


 265      1BB15514 
 265      C4
 266 004a 6EEAC3E2 		.ascii	"n\352\303\342\203-\030j\021T\020\353\366\314\314\235"
 266      832D186A 
 266      115410EB 
 266      F6CCCC9D 
 267 005a FD080B7A 		.ascii	"\375\010\013z\331\275g\3569\277\337\371\230sf\0300X"
 267      D9BD67EE 
 267      39BFDFF9 
 267      98736618 
 267      3058
 268 006c FF7C437F 		.ascii	"\377|C\177\333\005\370\220$\246\001\331\364\015\200"
 268      DB05F890 
 268      24A601D9 
 268      F40D80
 269 007b 098F317E 		.ascii	"\011\2171~/\000\341[\013W\000D\310\321\322z\013=\275"
 269      2F00E15B 
 269      0B570044 
 269      C8D1D27A 
 269      0B3DBD
 270 008e B09933F5 		.ascii	"\260\2313\365&\001\\\371\016\035t\265\332\325\366e\317"
 270      26015CF9 
 270      0E1D74B5 
 270      DAD5F665 
 270      CF
 271 009f 6376E557 		.ascii	"cv\345W\242\372\251\262K\200\024\363\225'?\220nC\037"
 271      A2FAA9B2 
 271      4B8014F3 
 271      95273F90 
 271      6E431F
 272 00b2 038D0F58 		.ascii	"\003\215\017Xx\372\252\324GO%,\304H\353#D\271\000\204"
 272      78FAAAD4 
 272      474F252C 
 272      C448EB23 
 272      44B90084 
 273 00c6 E38C5BB6 		.ascii	"\343\214[\266\343z)?\010#<\276\007e\326\326\0268+\304"
 273      E37A293F 
 273      08233CBE 
 273      0765D6D6 
 273      16382BC4 
 274 00da 178D4F1F 		.ascii	"\027\215O\037\337f\247D\255<+^4\233\2101R\205o!\344"
 274      DF66A744 
 274      AD3C2B5E 
 274      349B8831 
 274      52856F21 
 275 00ef 113EA20F 		.ascii	"\021>\242\017\334\254\004\263\272K\326\334\332\2273"
 275      DCAC04B3 
 275      BA4BD6DC 
 275      DA9733
 276 00fe 9F0F89D9 		.ascii	"\237\017\211\331\311i\361\222\2501r\006;^\217)\026\367"
 276      C969F192 
 276      A8317206 
 276      3B5E8F29 
 276      16F7
 277 0110 AD8872AD 		.ascii	"\255\210r\255\331\374@\261\262\257\311\372\263\213\265"
 277      D9FC40B1 
 277      B2AFC9FA 
ARM GAS  /tmp/ccQ6ActC.s 			page 22


 277      B38BB5
 278 011f F355AC79 		.ascii	"\363U\254yVk4\233/.>\251\334\303\277\331\020BQ\026\227"
 278      566B349B 
 278      2F2E3EA9 
 278      DCC3BFD9 
 278      10425116 
 279 0134 C3B3B805 		.ascii	"\303\263\270\0058\311*I\213\3449\2226\3119\222N\"SH"
 279      38C92A49 
 279      8BE43992 
 279      36C93992 
 279      4E225348 
 280 0148 601F62B4 		.ascii	"`\037b\264\242\204\221\246\017\310$\346\276\204\336"
 280      A28491A6 
 280      0FC824E6 
 280      BE84DE
 281 0157 9FD03710 		.ascii	"\237\3207\020\0347\022\302\036\240\025\033\224+9\026"
 281      1C3712C2 
 281      1EA0151B 
 281      942B3916 
 282 0167 5016627A 		.ascii	"P\026bz\263v\240\031\032\257\275\200,\200\236\335\364"
 282      B376A019 
 282      1AAFBD80 
 282      2C809EDD 
 282      F4
 283 0178 A61E8F20 		.ascii	"\246\036\217 #\301W\340\227\277\226gfx\016\317\223\223"
 283      23C157E0 
 283      97BF9667 
 283      66780ECF 
 283      9393
 284 018a 02A6646D 		.ascii	"\002\246dmNga#\310\3413\344\327`\262\361\333CG\343("
 284      4E676123 
 284      C8E133E4 
 284      D760B2F1 
 284      DB4347E3 
 285 019f DD63F05C 		.ascii	"\335c\360\\L\011\261\213\320EB\264\321\226tKh\017$\254"
 285      4C09B18B 
 285      D04542B4 
 285      D196744B 
 285      680F24AC 
 286 01b3 8014EE77 		.ascii	"\200\024\356w\230|^\372\371B+\210\177\014\216R\261\333"
 286      987C5EFA 
 286      F9422B88 
 286      7F0C8E52 
 286      B1DB
 287 01c5 615B8CEE 		.ascii	"a[\214\356\327p\232Bz\004l\207\336\213\035\011\334\004"
 287      D7709A42 
 287      7A046C87 
 287      DE8B1D09 
 287      DC04
 288 01d7 4B132109 		.ascii	"K\023!\011\332\027c*\217\032B\316b\364\001dz\177\\O"
 288      DA17632A 
 288      8F1A42CE 
 288      62F40164 
 288      7A7F5C4F 
 289 01eb D2D3654B 		.ascii	"\322\323eKw\222$m\263\365\300\230\346\326\231\032\253"
 289      7792246D 
 289      B3F5C098 
ARM GAS  /tmp/ccQ6ActC.s 			page 23


 289      E6D6991A 
 289      AB
 290 01fc DFA1B155 		.ascii	"\337\241\261U;m*\353G\027\034\223u$\243\323\3636\265"
 290      3B6D2AEB 
 290      47171C93 
 290      7524A3D3 
 290      F336B5
 291 020f 663B7C2B 		.ascii	"f;|+\227\357\307\030\364\316\277\243\000\212Qk%&{C\256"
 291      97EFC718 
 291      F4CEBFA3 
 291      008A516B 
 291      25267B43 
 292 0224 A4BE0E48 		.ascii	"\244\276\016H\373\315P\027U;u7\335\332K~\211\313\255"
 292      FBCD5017 
 292      553B7537 
 292      DDDA4B7E 
 292      89CBAD
 293 0237 B481CE24 		.ascii	"\264\201\316$\247<V/=\273\217I\177\223\361\374Q\210"
 293      A73C562F 
 293      3DBB8F49 
 293      7F93F1FC 
 293      5188
 294 0249 943A465C 		.ascii	"\224:F\\\315\347{\257\232O\000\263\211\024?\223\344"
 294      CDE77BAF 
 294      9A4F00B3 
 294      89143F93 
 294      E4
 295 025a BF87B8AA 		.ascii	"\277\207\270\252\013\241\256\"(`Z\222!\251\202%\222"
 295      0BA1AE22 
 295      28605A92 
 295      21A98225 
 295      92
 296 026b 7794B229 		.ascii	"w\224\262)\207?\251R\026T)\031\271Q\245\251Ru\336\321"
 296      873FA952 
 296      16542919 
 296      B951A5A9 
 296      5275DED1 
 297 027f 8602F615 		.ascii	"\206\002\366\025\220K/\034\025\205\031BU\021\372\022"
 297      904B2F1C 
 297      15851942 
 297      5511FA12 
 298 028f C2DCFC26 		.ascii	"\302\334\374&C\350/\240\245<u\200\317)p?\000M\350\203"
 298      43E82FA0 
 298      A53C7580 
 298      CF29703F 
 298      004DE883 
 299 02a3 E53B33A1 		.ascii	"\345;3\241\001g\012\235\3639B\037W\337P\323\371\360"
 299      01670A9D 
 299      F339421F 
 299      57DF50D3 
 299      F9F0
 300 02b5 BA6BC873 		.ascii	"\272k\310s&5\015q\325>\352\2314F[7\377\237\223\216!"
 300      26350D71 
 300      D53EEA99 
 300      34465B37 
 300      FF9F938E 
 301 02ca E9D6A475 		.ascii	"\351\326\244ukl\212bS\1772\316\345\245O\244\017\017"
ARM GAS  /tmp/ccQ6ActC.s 			page 24


 301      6B6C8A62 
 301      537F32CE 
 301      E5A54FA4 
 301      0F0F
 302 02dc E8825BE7 		.ascii	"\350\202[\347\303Q>\224B\247k\265\025\272X\336Vh\367"
 302      C3513E94 
 302      42A76BB5 
 302      15BA58DE 
 302      5668F7
 303 02ef 4CCDD5EA 		.ascii	"L\315\325\352W\317n\243\231\253\264\352\000\254\353"
 303      57CF6EA3 
 303      99ABB4EA 
 303      00ACEB
 304 02fe 03EBD507 		.ascii	"\003\353\325\007\323\323\025(\257M\274\323r\320\206"
 304      D3D31528 
 304      AF4DBCD3 
 304      72D086
 305 030d 82CE9ED1 		.ascii	"\202\316\236\321\210Y\227\027\207\310\346\256-\345\352"
 305      88599717 
 305      87C8E6AE 
 305      2DE5EA
 306 031c C093A9B6 		.ascii	"\300\223\251\266\276_\034\240\026\270\225\245\241:X"
 306      BE5F1CA0 
 306      16B895A5 
 306      A13A58
 307 032b 4659598C 		.ascii	"FYY\214i\253\3353K\207\353\340\030\345\031\251\264]"
 307      69ABDD33 
 307      4B87EBE0 
 307      18E519A9 
 307      B45D
 308 033d 94C5A7F4 		.ascii	"\224\305\247\364UQ^[~\322\276*6Hd\324}U\370\360\237"
 308      55515E5B 
 308      7ED2BE2A 
 308      364864D4 
 308      7D55F8F0 
 309 0352 4D035B3A 		.ascii	"M\003[:Qz4\2375\300\215\2641j\036<}\252\256\375\340"
 309      517A349F 
 309      35C08DB4 
 309      316A1E3C 
 309      7DAAAEFD 
 310 0367 6A13153B 		.ascii	"j\023\025;AS\030\220\251\313\035Q\214\303\240\025\271"
 310      41531890 
 310      A9CB1D51 
 310      8CC3A015 
 310      B9
 311 0378 D98E3CD0 		.ascii	"\331\216<\320#r\010\347\035\035\271\272\360\256\001"
 311      237208E7 
 311      1D1DB9BA 
 311      F0AE01
 312 0387 0E528FBA 		.ascii	"\016R\217\272\"\377\333+\362@g\344A\3430\222\221oB\271"
 312      22FFDB2B 
 312      F24067E4 
 312      41E33092 
 312      916F42B9 
 313 039b 71A2D8EB 		.ascii	"q\242\330\353\372a]\327\317-\230\230\255D&lr\\v\323"
 313      FA615DD7 
 313      CF2D9898 
ARM GAS  /tmp/ccQ6ActC.s 			page 25


 313      AD44266C 
 313      725C76D3 
 314 03af 2D507625 		.ascii	"-Pv%pk6;\254\177\243\343\303\371\321bq\364\020\255\016"
 314      706B363B 
 314      AC7FA3E3 
 314      C3F9D162 
 314      71F410AD 
 315 03c4 C67B87C7 		.ascii	"\306{\207\307\217\344\207\363\007\016\354\317\215e\363"
 315      8FE487F3 
 315      070EECCF 
 315      8D65F3
 316 03d3 C00E8FE1 		.ascii	"\300\016\217\341!\347\343\261\\a\377\270sP\011[\275"
 316      21E7E3B1 
 316      5C61FFB8 
 316      7350095B 
 316      BD
 317 03e4 FF07DFDB 		.ascii	"\377\007\337\333\251\313"
 317      A9CB
 318              		.text
 319              		.section	.gnu.lto_.symbol_nodes.ab6618b4dc77849e,"",%progbits
 320 0000 789C4D8C 		.ascii	"x\234M\214;\016\302@\020C\355\235\335|N\221kq\233\001"
 320      3B0EC240 
 320      1043ED9D 
 320      DD7C4E91 
 320      6B719B01 
 321 0014 45024A44 		.ascii	"E\002JDCG\223\206\202#\360\217\240\244\246A\012J\001"
 321      43479386 
 321      8223F08F 
 321      A0A4A641 
 321      0A4A01
 322 0027 8274F488 		.ascii	"\202t\364\210\005\"\222i\236\236\307\262\201\301\031"
 322      05229269 
 322      9E9EC7B2 
 322      81C119
 323 0036 F5992515 		.ascii	"\365\231%\025\030\035\001\325\351\220nAX\025\356\250"
 323      181D01D5 
 323      E9906E41 
 323      5815EEA8 
 324 0046 FCA5DD1E 		.ascii	"\374\245\335\036\315\212j\232\216YS\245\245\033\252"
 324      CD8A6A9A 
 324      8E5953A5 
 324      A51BAA
 325 0055 6DE996EA 		.ascii	"m\351\226\352\032eN\015\352\245.y\240\206\215\355\251"
 325      1A654E0D 
 325      EAA52E79 
 325      A0868DED 
 325      A9
 326 0066 D1DF0421 		.ascii	"\321\337\004!\312\342E\221\020Y\277J\304\306(\277\214"
 326      CAE24591 
 326      1059BF4A 
 326      C4C628BF 
 326      8C
 327 0077 905D4F9D 		.ascii	"\220]O\235\017\363{1\027k\361|\334f\".F:\360\005\347"
 327      0FF37B31 
 327      176BF17C 
 327      DC66222E 
 327      463AF005 
ARM GAS  /tmp/ccQ6ActC.s 			page 26


 328 008c 1F13CFC0 		.ascii	"\037\023\317\300\373\305\017\004\021\322q\225\340\015"
 328      FBC50F04 
 328      11D27195 
 328      E00D
 329 009a A76B450E 		.ascii	"\247kE\016"
 330              		.text
 331              		.section	.gnu.lto_.refs.ab6618b4dc77849e,"",%progbits
 332 0000 789C6362 		.ascii	"x\234cb`b\020e\200\000V\006FF&&F \000\022,@\314\306"
 332      60621065 
 332      80005606 
 332      46462626 
 332      46200012 
 333 0018 C4C80000 		.ascii	"\304\310\000\000\004\212\000>"
 333      048A003E 
 334              		.text
 335              		.section	.gnu.lto_.decls.ab6618b4dc77849e,"",%progbits
 336 0000 789CAD5A 		.ascii	"x\234\255Z{p\024E\032\357\236}d7\211\210Pg\341\035\026"
 336      7B701445 
 336      1AEF9E7D 
 336      64378988 
 336      5067E11D 
 337 0015 D152CBB3 		.ascii	"\321R\313\263\204\200O\274\252\023\221\273\003\253\344"
 337      84804FBC 
 337      AA1391BB 
 337      03ABE4
 338 0024 D4B32CBD 		.ascii	"\324\263,\275\177n\235l&\311\312\276nfB\340,\317a\201"
 338      7F6E9D6C 
 338      26C9CABE 
 338      6E6642E0 
 338      2CCF6181 
 339 0038 18305E42 		.ascii	"\0300^B\220\207\010\230\240\"\250\310[@(n\005\015\251"
 339      90870898 
 339      A022A8C8 
 339      5B40286E 
 339      050DA9
 340 004b C0497848 		.ascii	"\300IxH\344P\211\010\212R\242\0301 \217\275\257{fvg"
 340      E4508908 
 340      8A52A218 
 340      31208FBD 
 340      AF7B6676 
 341 0060 7A6736B3 		.ascii	"zg6\263\311M\245{\036\333\337\257\277\357\367}\335_"
 341      C94DA57B 
 341      1EDBDFAF 
 341      BFEFF77D 
 341      DD5F
 342 0072 F74C38C4 		.ascii	"\367L8\304\241[]\010\245\340\3303\034\241\315\036\204"
 342      A15B5D08 
 342      A5E0D833 
 342      1CA1CD1E 
 342      84
 343 0083 BC08A17B 		.ascii	"\274\010\241{\221zn\201\262\014\312D\214\020\374\204"
 343      917A6E81 
 343      B20CCA44 
 343      8C10FC84 
 344 0093 1E86F333 		.ascii	"\036\206\3633P\340\017=\015\225\037\316\377\204s\002"
 344      50E00F3D 
 344      0D951FCE 
ARM GAS  /tmp/ccQ6ActC.s 			page 27


 344      FF847302 
 345 00a3 CA0C288D 		.ascii	"\312\014(\215P\026Ai\201\262\012\312Z(\353\265\366\033"
 345      50164169 
 345      81B20ACA 
 345      5A28EBB5 
 345      F61B
 346 00b5 49653888 		.ascii	"Ie8\210\\1\234\237\200\363#X\305\016@\211B\231\004\245"
 346      5C319C9F 
 346      80F32358 
 346      C50E4089 
 346      429904A5 
 347 00c9 0CABFD6E 		.ascii	"\014\253\375n\302\031=\336\301\252^\217\303\231\207"
 347      C2193DDE 
 347      C1AA5E8F 
 347      C39987
 348 00d8 F2149408 		.ascii	"\362\024\224\010\224\030V\365q\031\364Ye\323/\321s\000"
 348      941856F5 
 348      7119F459 
 348      65D32FD1 
 348      7300
 349 00ea 52ED21B8 		.ascii	"R\355!\270Q\355\236\325\305\250\003\351\233\350\321"
 349      51ED9ED5 
 349      C5A803E9 
 349      9BE8D1
 350 00f9 5BFF9C86 		.ascii	"[\377\234\206O\372v\303u=\234gC\371\027\224\315\214"
 350      4FFA76C3 
 350      753D9C67 
 350      43F91794 
 350      CD8C
 351 010b 1E84ABC1 		.ascii	"\036\204\253\301Hm\247\367\037\325\372\033c\320/\240"
 351      486DA7F7 
 351      1FD5FA1B 
 351      63D02FA0 
 352 011b E9437478 		.ascii	"\351Ctx\004g\364(\323t\224\260\252\367_5\177<m\320-"
 352      0467F428 
 352      D37494B0 
 352      AAF75F35 
 352      7F3C6DD0 
 353 0130 A6E92742 		.ascii	"\246\351'B\251\201R\215U\335]Z\377\3535\037\221\276"
 353      A981528D 
 353      55DD5D5A 
 353      FFEB351F 
 353      91BE
 354 0142 E6C37921 		.ascii	"\346\303y!\224\005P\266\343l\336\026i<\031\371z\030"
 354      940550B6 
 354      E36CDE16 
 354      693C19F9 
 354      7A18
 355 0154 67F49434 		.ascii	"g\364\2244\235\036\321l\230\304\360\346C\252\036\325"
 355      9D1ED16C 
 355      98C4F0E6 
 355      43AA1ED5 
 356 0164 9A7E3506 		.ascii	"\232~5\006\035\237\326\364ti\375\350z\021>\227\302y"
 356      1D9FD6F4 
 356      7469FDE8 
 356      7A113E97 
 356      C279
ARM GAS  /tmp/ccQ6ActC.s 			page 28


 357 0176 27A34B8B 		.ascii	"'\243K\213\205.\023\2658\321\343\324\216\257g4\235\255"
 357      852E13B5 
 357      38D1E3D4 
 357      8EAF6734 
 357      9DAD
 358 0188 787269D8 		.ascii	"xri\330z\377\3047o\300y\005\2247-8)B\263\025%\2414\327"
 358      7AFFC437 
 358      6FC07905 
 358      94372D38 
 358      2942B315 
 359 01a0 2A13DA06 		.ascii	"*\023\332\006\014Bs\0248J\332\006\020\207\360x\200\037"
 359      0C427314 
 359      384ADA06 
 359      1087F078 
 359      801F
 360 01b2 29985E15 		.ascii	")\230^\025\373\321@h}#zMQ\032\273f\036\031\252\270y"
 360      FBD14068 
 360      7D237A4D 
 360      511ABB66 
 360      1E19AAB8 
 361 01c7 BC0C0F02 		.ascii	"\274\014\017\002\373\256\307\350\026\264\022\304\032"
 361      FBAEC7E8 
 361      16B412C4 
 361      1A
 362 01d4 1565C7D5 		.ascii	"\025e\307\325(\373\350\025\225C\2430\030\262\034\340"
 362      28FBE815 
 362      9543A330 
 362      18B21CE0 
 363 01e4 78FC3ABE 		.ascii	"x\374:\276E\355FIv\363%\352S\244=\2678\256C\315\244"
 363      45ED4649 
 363      76F325EA 
 363      53A43DB7 
 363      38AE43CD 
 364 01f9 E9D9137E 		.ascii	"\351\331\023~\245\251\330\242\247\373\364\216|\031\365"
 364      A5A9D8A2 
 364      A7FBF48E 
 364      7C19F5
 365 0208 CFB6BCF0 		.ascii	"\317\266\274\360\200\242\370x\374&5 \200M\360\032H\363"
 365      80A2F878 
 365      FC263520 
 365      804DF01A 
 365      48F3
 366 021a 7D76281C 		.ascii	"}v(\034!\233\307\253\030u\273\346\264\357M\340i\212"
 366      219BC7AB 
 366      1875BBE6 
 366      B4EF4DE0 
 366      698A
 367 022c 82D5DF7A 		.ascii	"\202\325\337zS:\221\3347{\3115J\363\016\334\233\017"
 367      533A91DC 
 367      377BC935 
 367      4AF30EDC 
 367      9B0F
 368 023e 9ADD7AF7 		.ascii	"\232\335z\367\177\310\030\361\323%\027\260\263\216Z"
 368      7FC818F1 
 368      D32517B0 
 368      B38E5A
 369 024d D0822D4D 		.ascii	"\320\202-M\260\307\340 \026\210\310\306,\033f\177\246"
ARM GAS  /tmp/ccQ6ActC.s 			page 29


 369      B0C7E020 
 369      1688C8C6 
 369      2C1B667F 
 369      A6
 370 025e DBB0D111 		.ascii	"\333\260\321\021\361=\355\2131\261A'sC\032\327\212:"
 370      F13DED8B 
 370      31B14127 
 370      73431AD7 
 370      8A3A
 371 0270 ED523DB4 		.ascii	"\355R=\264\006fN\316\265\0277\362~T\227!$\335\260D\027"
 371      06664ECE 
 371      B51737F2 
 371      7E549721 
 371      24DDB044 
 372 0285 771B5CF9 		.ascii	"w\033\\\371\374\007\373\360t\252\357V\354\207\376\273"
 372      FC07FBF0 
 372      74AAEF56 
 372      EC87FEBB 
 373 0295 192A9C43 		.ascii	"\031*\234C\3654\034<\203\023\024j;\205\372/g\206\342"
 373      F5341C3C 
 373      8313146A 
 373      3B85FA2F 
 373      6786E2
 374 02a8 71811F19 		.ascii	"q\201\037\031\016z\2577 x\364g\355\202\344\243+Q\276"
 374      0E7AAF37 
 374      2078F467 
 374      ED82E4A3 
 374      2B51BE
 375 02bb CD39F425 		.ascii	"\3159\364%\307\360gR\325@\245%\177$\010?o\302s\247+"
 375      C7F06752 
 375      D540A525 
 375      7F24083F 
 375      6FC273A7 
 376 02d0 6D23F538 		.ascii	"m#\3658\366\332\331\315\241\223\264\263\235l\020\034"
 376      F6DAD9CD 
 376      A193B4B3 
 376      9D6C101C 
 377 02e0 E9DCA307 		.ascii	"\351\334\243\007\301NG\201\274\261}\201\263@\346\364"
 377      C14E4781 
 377      BCB17D81 
 377      B340E6F4 
 378 02f0 FE6FA0FD 		.ascii	"\376o\240\375\277\342\"\375\267\261\375o:\362\351L\255"
 378      BFE222FD 
 378      B7B1FD6F 
 378      3AF2E94C 
 378      AD
 379 0301 FF3647FD 		.ascii	"\3776G\375o\351|1\273\177\036\337\373\253\\\376>\322"
 379      6FE97C31 
 379      BB7F1EDF 
 379      FBAB5CFE 
 379      3ED2
 380 0313 F9D519AD 		.ascii	"\371\325\031\255\227= \311\241\303.\326\337c\212\314"
 380      973D20C9 
 380      A1C32ED6 
 380      DF638ACC 
 381 0323 0E847B43 		.ascii	"\016\204{C\003\016\035K\353\237\303Y\366\301\016\206"
 381      030E1D4B 
ARM GAS  /tmp/ccQ6ActC.s 			page 30


 381      EB9FC359 
 381      F6C10E86 
 382 0333 9E9E879B 		.ascii	"\236\236\207\233\210\263t\035N\344\215Xbbb['\014\037"
 382      88B3741D 
 382      4EE48D58 
 382      6262625B 
 382      270C1F
 383 0346 1DECA413 		.ascii	"\035\354\244\0230\333XJ$\267\033\301N\345\015f\326\254"
 383      30DB584A 
 383      24B71BC1 
 383      4EE50D66 
 383      D6AC
 384 0358 C30876DA 		.ascii	"\303\010v\332\011\330@{\315\366\033\301\316\344\015"
 384      09D8407B 
 384      CDF61BC1 
 384      CEE40D
 385 0367 66D6ECA0 		.ascii	"f\326\354\240\021\354''`C\3545;d\004;\2277\230Y\263"
 385      11EC2727 
 385      6043EC35 
 385      3B64043B 
 385      97379859 
 386 037c 4F8C6017 		.ascii	"O\214`\027\235\200\225Xh\226>\254\344HX\357\302\351"
 386      9D809558 
 386      68963EAC 
 386      E44858EF 
 386      C2E9
 387 038e 38E750CA 		.ascii	"8\347P\312\245\317\011y\3064\312`$\334\371Nb&\273a\022"
 387      A5CF0979 
 387      C634CA60 
 387      24DCF94E 
 387      6226BB61 
 388 03a3 3BBA4C9D 		.ascii	";\272L\235\304x\274\226\032_\353\0041G\3004\356\246"
 388      C478BC96 
 388      1A5FEB04 
 388      3147C034 
 388      EEA6
 389 03b5 4CAA60F5 		.ascii	"L\252`\365y\203\231\335\262\224\200\231\346\032-\313"
 389      798399DD 
 389      B2948099 
 389      E61A2DCB 
 390 03c5 74BD9E1C 		.ascii	"t\275\236\034\26203\335\371t,\262\346R\3476X#q\351\306"
 390      B23033DD 
 390      F9742CB2 
 390      E652E736 
 390      582371E9 
 391 03da CA9021D6 		.ascii	"\312\220!\326my\374\015\276\021\352o\261?\255\205z\255"
 391      6D79FC0D 
 391      BE11EA6F 
 391      B13FAD85 
 391      7AAD
 392 03ec 5FA5E8D2 		.ascii	"_\245\350\322\262\311\315\254\346\364\2437Q\273H\370"
 392      B2C9CDAC 
 392      E6F4A337 
 392      51BB48F8 
 393 03fc DA18090B 		.ascii	"\332\030\011\013\234\320\224c(t\330\321\224\254U\352"
 393      9CD09463 
 393      2874D8D1 
ARM GAS  /tmp/ccQ6ActC.s 			page 31


 393      94AC55EA 
 394 040c F0B4B543 		.ascii	"\360\264\265Cs.\322\216t\236n\321\322\361\3674\035/"
 394      732ED28E 
 394      749E6ED1 
 394      D2F1F734 
 394      1D2F
 395 041e 765B6676 		.ascii	"v[fvG`=\015\027\337\327\226\011?R\2607\334\354\\\357"
 395      47603D0D 
 395      17DFD796 
 395      093F52B0 
 395      37DCEC5C 
 396 0433 6772BBDF 		.ascii	"gr\273\337\234\254\375\376\314EJ?\314\354;\226\261c"
 396      9CACFDFE 
 396      CC454A3F 
 396      CCEC3B96 
 396      B163
 397 0445 FFB491FD 		.ascii	"\377\264\221\3755y\263\317\216\241\237\233pwBY8\322"
 397      3579B3CF 
 397      8EA19F9B 
 397      70774259 
 397      38D2
 398 0457 106F3983 		.ascii	"\020o9\203\023VS\273\267\377\236.\214{(I\233\254\031"
 398      135653BB 
 398      B7FF9E2E 
 398      8C7B2849 
 398      9BAC19
 399 046a 7700D4D3 		.ascii	"w\000\324\323\260\252\224\002\375B\201\222Ylc\206ml"
 399      B0AA9402 
 399      FD428192 
 399      596C6386 
 399      6D6C
 400 047c 662E1DB0 		.ascii	"f.\035\260Z\274\346\323\226Cm,u&\025s\314\224i\352."
 400      5ABCE6D3 
 400      96436D2C 
 400      75261573 
 400      CC9469EA 
 401 0491 E64FDDF3 		.ascii	"\346O\335\363\032u)j\361GY\026\377\222\247\311\034:"
 401      1A75296A 
 401      F1475916 
 401      FF92A7C9 
 401      1C3A
 402 04a3 94B7193E 		.ascii	"\224\267\031>\263\031\263S}0\343\337\252\03138b\306"
 402      B319B353 
 402      7D30E3DF 
 402      AA193338 
 402      62C6
 403 04b5 A7FF0733 		.ascii	"\247\377\0073\216\347m\306@\203\031t[\365\242\232\014"
 403      8EE76DC6 
 403      40831974 
 403      5BF5A29A 
 403      0C
 404 04c6 06A3A6DC 		.ascii	"\006\243\246\334+Z\242\317,n\260y\027\371\361G\270D"
 404      2B5AA2CF 
 404      2C6EB079 
 404      17F9F147 
 404      B844
 405 04d8 7DDCFB6E 		.ascii	"}\334\373n\246\373\243\305t!I\011S\034m@v\2477 \365"
ARM GAS  /tmp/ccQ6ActC.s 			page 32


 405      A6FBA3C5 
 405      74214909 
 405      531C6D40 
 405      76A73720 
 406 04ed 94B26FAC 		.ascii	"\224\262o\254\006\215#\250\236\275{\367i3^\003\205\372"
 406      068D23A8 
 406      9EBD7BF7 
 406      69335E03 
 406      85FA
 407 04ff 3E8B7D2F 		.ascii	">\213}/C\276\327L>\334\222\276\316\321y\346Y\355\011"
 407      43BED74C 
 407      3EDC92BE 
 407      CED179E6 
 407      59ED09
 408 0512 B929407D 		.ascii	"\271)@}\226\343P\017U\203\020\330\227U.\331S\036\237"
 408      96E3500F 
 408      558310D8 
 408      97552ED9 
 408      531E9F
 409 0525 AB677395 		.ascii	"\253gs\225\243\313\375BL$_iP7\316tE\316\241\347<\375"
 409      A3CBFD42 
 409      4C245F69 
 409      5037CE74 
 409      45CEA1E7 
 410 053b 83DBB697 		.ascii	"\203\333\266\227MT\314Fb\235\315,\254\307\300\332\372"
 410      4D54CC46 
 410      629DCD2C 
 410      ACC7C0DA 
 410      FA
 411 054c 5BE9A079 		.ascii	"[\351\240y\211#\352\374\313\303\272m-f6\022\344\201"
 411      8923EAFC 
 411      CBC3BA6D 
 411      2D663612 
 411      E481
 412 055e A1895D2C 		.ascii	"\241\211],/\344\014\011\241\245_V\222qt\226q\303\033"
 412      2FE40C09 
 412      A1A55F56 
 412      92717496 
 412      71C31B
 413 0571 FDE4ED7C 		.ascii	"\375\344\355|\203\263\367\027O\352X\305\324\220\325"
 413      83B3F717 
 413      4FEA58C5 
 413      D490D5
 414 0580 B4DB168E 		.ascii	"\264\333\026\216\331\365\235?\325U\253\205?\371\255"
 414      D9F59D3F 
 414      D555AB85 
 414      3FF9AD
 415 058f F7C17A84 		.ascii	"\367\301z\204\276\363Q_<\360x\013\3464T\253u@\257\364"
 415      BEF3515F 
 415      3CF0780B 
 415      E63454AB 
 415      7540AFF4 
 416 05a3 243F17DA 		.ascii	"$?\027\332F\3463\354[\365a\277\\\235)\263\234N\306\260"
 416      46E633EC 
 416      5BF561BF 
 416      5C9D29B3 
 416      9C4EC6B0 
ARM GAS  /tmp/ccQ6ActC.s 			page 33


 417 05b7 C9E9790D 		.ascii	"\311\351y\015\272ci\222\234.\241\331\303.\250\232\215"
 417      BA636992 
 417      9C2EA1D9 
 417      C32EA89A 
 417      8D
 418 05c8 41F555FF 		.ascii	"A\365U\377B\000\202\252\36555\250\230!\263\334f\310"
 418      420082AA 
 418      F53535A8 
 418      9821B3DC 
 418      66C8
 419 05da 100DDE36 		.ascii	"\020\015\3366j\360]?\203p\353~\303\224\355\354\235\321"
 419      6AF05D3F 
 419      8370EB7E 
 419      C394EDEC 
 419      9DD1
 420 05ec EE0F75DF 		.ascii	"\356\017u\337\255\246\276\373)\313w\333\331,\347\344"
 420      ADA6BEFB 
 420      29CB77DB 
 420      D92CE7E4 
 421 05fc D58DE2ED 		.ascii	"\325\215\342\355\243%\351\003\2462\257\203U_\211\331"
 421      A325E903 
 421      A632AF83 
 421      555F89D9 
 422 060c BF862886 		.ascii	"\277\206(\206\271\366\320\213\016_\377\350l\234\250"
 422      B9F6D08B 
 422      0E5FFFE8 
 422      6C9CA8
 423 061b 9F4027AF 		.ascii	"\237@'\257\215\034y\1777\313k\37564\307[\244\205Td3"
 423      8D1C797F 
 423      37CB6BFD 
 423      3634C75B 
 423      A4855464 
 424 0630 3B9EE7CC 		.ascii	";\236\347\314N\277E\332\354`<'\222\353g\353\263\272"
 424      4EBF45DA 
 424      EC603C27 
 424      92EB67EB 
 424      B3BA
 425 0642 BA4D5B91 		.ascii	"\272M[\221\306\355+\237&\027f\024\344\361{\034\331^"
 425      C6ED2B9F 
 425      26176614 
 425      E4F17B1C 
 425      D95E
 426 0654 6DE5AE33 		.ascii	"m\345\2563r\277\312\011\3677\333E\242\222<\273\337\374"
 426      72BFCA09 
 426      F737DB45 
 426      A2923CBB 
 426      DFFC
 427 0666 2A74238B 		.ascii	"*t#\213g5#\231\360\214\276\204=\353\001\272gUct\273"
 427      67352399 
 427      F08CBE84 
 427      3DEB01BA 
 427      67556374 
 428 067b 13E546DA 		.ascii	"\023\345F\332\203\2752W'\367m\232\244v9\301\033mgl\""
 428      83BD3257 
 428      27F76D9A 
 428      A47639C1 
 428      1B6D676C 
ARM GAS  /tmp/ccQ6ActC.s 			page 34


 429 0690 B9E9C062 		.ascii	"\271\351\300b\015O}\357\2727o<\263~\037\3175\245\364"
 429      0D4F7DEF 
 429      BA376F3C 
 429      B37E1FCF 
 429      35A5F4
 430 06a3 4F9CC0DD 		.ascii	"O\234\300\335\347\330\367\231\367\334<\336D\267\326"
 430      E7D8F799 
 430      F7DC3CDE 
 430      44B7D6
 431 06b2 9BF17524 		.ascii	"\233\361u$\016h\275\203\326\307h}\234\326_\321\372;"
 431      0E68BD83 
 431      D6C7687D 
 431      9CD65FD1 
 431      FA3B
 432 06c4 5AFF4CEB 		.ascii	"Z\377L\353\313\264\236\316\221\272\216\326\033h\275"
 432      CBB49ECE 
 432      91BA8ED6 
 432      1B68BD
 433 06d3 9DD6495A 		.ascii	"\235\326IZ\357\240\365\007\264n5\306\226\335D\310,\003"
 433      EFA0F507 
 433      B46E35C6 
 433      96DD44C8 
 433      2C03
 434 06e5 78BC8D23 		.ascii	"x\274\215#IlU__(&\367\267\033^s|\356\305y\202\225\344"
 434      496C555F 
 434      5F2826F7 
 434      B71B5E73 
 434      7CEEC579 
 435 06fc E2709581 		.ascii	"\342p\225\201\303\325\224\3035\224\2236\243\245z\036"
 435      C3D594C3 
 435      35949336 
 435      A3A57A1E 
 436 070c 5E9E3BEA 		.ascii	"^\236;\352\355M\350\232q\324`\302\227^\214\354sI\216"
 436      ED4DE89A 
 436      71D460C2 
 436      975E8CEC 
 436      73498E
 437 071f 2CA8F171 		.ascii	",\250\361qQ \253\235\026J\263\312m>X9\351Xn\240c\005"
 437      5120AB9D 
 437      164AB3CA 
 437      6D3E5839 
 437      E9586EA0 
 438 0735 A56325A5 		.ascii	"\245c%\245\243\235\272\177\217\023\367\267d\226\205"
 438      A39DBA7F 
 438      8F13F7B7 
 438      649685
 439 0744 CEB3D7FA 		.ascii	"\316\263\327\372\236\256\337\255V\224\201<\376\017\235"
 439      9EAEDFAD 
 439      5694813C 
 439      FE0F9D
 440 0753 180E15B0 		.ascii	"\030\016\025\260\311\313\303\344.\2179wy\374\231\013"
 440      C9CBC3E4 
 440      2E8F3977 
 440      79FC990B 
 441 0763 2D77592E 		.ascii	"-wY.\340\352\276\314\274\252P\322/\356K2\232\\\270\234"
 441      E0EABECC 
 441      BCAA50D2 
ARM GAS  /tmp/ccQ6ActC.s 			page 35


 441      2FEE4B32 
 441      9A5CB89C 
 442 0777 BC661BD5 		.ascii	"\274f\033\325d\037M\035u>\353\257P\366@\034\232Oe\016"
 442      641F4D1D 
 442      753EEBAF 
 442      50F6401C 
 442      9A4F650E 
 443 078b 32B92339 		.ascii	"2\271#9\367\271b\362\201\361\240\243\2741o\327\342\354"
 443      F7B962F2 
 443      81F1A0A3 
 443      BC316FD7 
 443      E2EC
 444 079d 65E8D568 		.ascii	"e\350\325h\236\266\224S\260L'\025;/\034\346\324\217"
 444      9EB69453 
 444      B04C2715 
 444      3B2F1CE6 
 444      D48F
 445 07af 962EFAAD 		.ascii	"\226.\372\255\026\251\274\246oT2M\277\321\213\307\\"
 445      16A9BCA6 
 445      6F54324D 
 445      BFD18BC7 
 445      5C
 446 07c0 39DDAB51 		.ascii	"9\335\253Q4\357\325/\256YI)\372\204\316\272"
 446      34EFD52F 
 446      AE594929 
 446      FA84CEBA 
 447 07d0 1D0C45CC 		.ascii	"\035\014E\314\242\211\250b\247\346Q\256\310\206\211"
 447      A289A862 
 447      A7E651AE 
 447      C88689
 448 07df ACDF60E8 		.ascii	"\254\337`\350\247i\355\333^\341\302\345\256\241[6(\312"
 448      A769EDDB 
 448      5EE1C2E5 
 448      AEA15B36 
 448      28CA
 449 07f1 DA27B53D 		.ascii	"\332'\265=w\322k\364\242iH\253\246&\267\266^K\\v\014"
 449      77D26BF4 
 449      A26948AB 
 449      A626B7B6 
 449      5E4B5C76 
 450 0806 963F1CFA 		.ascii	"\226?\034\372\232\261\263w\024\016\235\2452'\262\266"
 450      9AB1B377 
 450      140E9DA5 
 450      3227B2B6 
 451 0816 EFADE43B 		.ascii	"\357\255\344;\347\011\007\333\367D\262\263\266\341\327"
 451      E70907DB 
 451      F744B2B3 
 451      B6E1D7
 452 0825 4A73FD10 		.ascii	"Js\375\020\375\225\3414\277\016\331\267=\301\321\326"
 452      FD95E134 
 452      BF0ED9B7 
 452      3DC1D1D6 
 453 0835 C2CC5765 		.ascii	"\302\314We\373\017\302D\261Sl\010\037n%\257\035N9\212"
 453      FB0FC244 
 453      B1536C08 
 453      1F6E25AF 
 453      1D4E398A 
ARM GAS  /tmp/ccQ6ActC.s 			page 36


 454 0849 E023B516 		.ascii	"\340#\265\026\033)\225K\273p8\235YC\353S\333\251>\272"
 454      1B29954B 
 454      BB70389D 
 454      5943EB53 
 454      DBA93EBA 
 455 085d 3B91FCAC 		.ascii	";\221\374\254UO\346\352\234\362\034\345-\037\274\022"
 455      554FE6EA 
 455      9CF21CE5 
 455      2D1FBC12 
 456 086d C6300EBD 		.ascii	"\3060\016\275\320O\356{\234s\337\315r\177\206r\337\355"
 456      D04FEE7B 
 456      9C73DFCD 
 456      727F8672 
 456      DFED
 457 087f 88FBEE5A 		.ascii	"\210\373\356Z}\341\321A\207h\023\325\273\273\317\\\236"
 457      7DE1D141 
 457      876813D5 
 457      BBBBCF5C 
 457      9E
 458 0890 65B85C90 		.ascii	"e\270\\\2207^6\227\213\373\312\245\325a\034c<\376\232"
 458      375E3697 
 458      8BFBCAA5 
 458      D5611C63 
 458      3CFE9A
 459 08a3 AE844FD2 		.ascii	"\256\204O\322\244\365-\255\1774\257\212[\374\314Tb\325"
 459      A4F52DAD 
 459      7F34AF8A 
 459      5BFCCC54 
 459      62D5
 460 08b5 B7FD07E9 		.ascii	"\267\375\007\351\344\342\361$\235\253\377*\262\202\305"
 460      E4E2F124 
 460      9DABFF2A 
 460      B282C5
 461 08c4 32FF1F88 		.ascii	"2\377\037\210\341\322\231!\007\015K\372C\324\220Nj\302"
 461      E1D29921 
 461      070D4BFA 
 461      43D4904E 
 461      6AC2
 462 08d6 17B4BEE0 		.ascii	"\027\264\276\340$\007wd\306\0213\372\210\373\354\244"
 462      24077764 
 462      C61133FA 
 462      88FBECA4 
 463 08e6 2E65A486 		.ascii	".e\244\206\241\245JsW\327\226\267\016_;\037\366]\312"
 463      A1A54A73 
 463      57D796B7 
 463      0E5F3B1F 
 463      F65DCA
 464 08f9 0F24A332 		.ascii	"\017$\2432\331\307\346C4AJi\331'\223Q8t\300\217\231"
 464      D9C7E643 
 464      34414A69 
 464      D9279351 
 464      3874C08F 
 465 090e B0BD09BD 		.ascii	"\260\275\011\275N\360\224\025\212\213\242\221\366\227"
 465      4EF09415 
 465      8A8BA291 
 465      F697
 466 091c B9616636 		.ascii	"\271af6\024\027g|@\024\353\")\350\374\265/\255Sf\314"
ARM GAS  /tmp/ccQ6ActC.s 			page 37


 466      1417677C 
 466      4014EB22 
 466      29E8FCB5 
 466      2FAD5366 
 467 0931 522EA79E 		.ascii	"R.\247\236\305j\216\201\004\221\325\205\2121=\033\203"
 467      C56A8E81 
 467      0491D585 
 467      8A313D1B 
 467      83
 468 0942 1AB7EFE6 		.ascii	"\032\267\357\346\276\0307\323\305\244V\302v\372F\375"
 468      BE1837D3 
 468      C5A456C2 
 468      76FA46FD 
 469 0952 BA9E33B5 		.ascii	"\272\2363\265r\350\002\243\350\015\350UEiR\226\010\023"
 469      72E802A3 
 469      E80DE855 
 469      45695296 
 469      0813
 470 0964 F4015B5F 		.ascii	"\364\001[_HZ\314p\015\263TC\363\260&\326I\304\350\006"
 470      485ACC70 
 470      0DB35443 
 470      F3B026D6 
 470      49C4E806 
 471 0978 A3A917A9 		.ascii	"\243\251\027\2511\031\241\024\021\"\332\361\370\034"
 471      3119A114 
 471      1122DAF1 
 471      F81C
 472 0986 9D68EDA5 		.ascii	"\235h\355\2454\0334w\275\240\314\034\210\323\376\"R"
 472      341B3477 
 472      BDA0CC1C 
 472      88D3FE22 
 472      52
 473 0997 26AE6759 		.ascii	"&\256gY\370\353\207\344\222\335\2731tz1\225r\261L\347"
 473      F8EB87E4 
 473      92DDBB31 
 473      747A3195 
 473      72B14CE7 
 474 09ab 58C4CCC9 		.ascii	"X\304\314\311\311\264\246\026\263\250a\230\236_h\311"
 474      C9B4A616 
 474      B3A86198 
 474      9E5F68C9 
 475 09bb F47A9D69 		.ascii	"\364z\235i\036?\357\"\3267:b\372(K\232\275\030\325N"
 475      1E3FEF22 
 475      D6373A62 
 475      FA284B9A 
 475      BD18D54E 
 476 09cf F76B6B71 		.ascii	"\367kkq#\326\226\254\337\364\"\347\311p\235PV\327\316"
 476      23D696AC 
 476      DFF422E7 
 476      C9709D50 
 476      56D7CE
 477 09e2 1CE8D662 		.ascii	"\034\350\326b\312^Hck\236U\224'SM\266\314\347\210\361"
 477      CA5E4863 
 477      6B9E5594 
 477      27534DB6 
 477      CCE788F1 
 478 09f6 9759E6E9 		.ascii	"\227Y\346\351?\211\230\230]i\315\354\321r=\0307\320"
ARM GAS  /tmp/ccQ6ActC.s 			page 38


 478      3F899898 
 478      5D69CDEC 
 478      D1723D18 
 478      37D0
 479 0a08 068B7206 		.ascii	"\006\213r\006\243MT-b\243j\211\265m\363\353!+%\222\251"
 479      A34D542D 
 479      62A36A89 
 479      B56DF3EB 
 479      212B2592 
 480 0a1d D418D6B6 		.ascii	"\324\030\326\266\\\363\334\262\234a\245\315\202\354"
 480      5CF3DCB2 
 480      9C61A5CD 
 480      82EC
 481 0a2b 3D63FDBB 		.ascii	"=c\375\273\326\326\277\304\306U\213\363\021|\211\016"
 481      D6D6BFC4 
 481      C6558BF3 
 481      117C890E 
 482 0a3b FC9D14D8 		.ascii	"\374\235\024\330^\354\222Al\201\032W\252`\273\023\301"
 482      5EEC9241 
 482      6C811A57 
 482      AA60BB13 
 482      C1
 483 0a4c 7464AD3D 		.ascii	"td\255=\376\360\004}\010\331Ki\204-\267\234\203?\350"
 483      FEF0047D 
 483      08D94B69 
 483      842DB79C 
 483      833FE8
 484 0a5f 6EC37579 		.ascii	"n\303uyG\326;,\371\352>\326D\356\201B\353y|\215\225"
 484      47D63B2C 
 484      F9EA3ED6 
 484      44EE8142 
 484      EB797C8D 
 485 0a74 1EC97777 		.ascii	"\036\311ww\325+\270qZW*5L\205\207\035\266\015\300:K"
 485      D52BB871 
 485      5A572A35 
 485      4C85871D 
 485      B60DC03A 
 486 0a89 80A5D900 		.ascii	"\200\245\331\000\337\333\000l0\003\\\217Z\224d\007d"
 486      DFDB006C 
 486      30035C8F 
 486      5A946407 
 486      64
 487 0a9a 922F7EF3 		.ascii	"\222/~\363N\0026\026@A\012\247\306\350{\307\363i\024"
 487      4E023616 
 487      40410AA7 
 487      C6E87BC7 
 487      F36914
 488 0aad CB8D2201 		.ascii	"\313\215\"\001|7\003\310dj\242\210\035\211\233\\EF\025"
 488      7C3703C8 
 488      646AA288 
 488      1D899B5C 
 488      454615
 489 0ac0 3A3A922F 		.ascii	"::\222/\267\317R\260R\253L#\311\354*\324H\367\250\013"
 489      B7CF52B0 
 489      52AB4C23 
 489      C9EC2AD4 
 489      48F7A80B 
ARM GAS  /tmp/ccQ6ActC.s 			page 39


 490 0ad4 01E6244E 		.ascii	"\001\346$N\017\204\272\364\272\344**jl\366\255}3\036"
 490      0F84BAF4 
 490      BAE42A2A 
 490      6A6CF6AD 
 490      7D331E
 491 0ae7 BFE752AF 		.ascii	"\277\347R\257L_\022h\013;\005\267\2722\377\250Q\354"
 491      4C5F1268 
 491      0B3B05B7 
 491      BA32FFA8 
 491      51EC
 492 0af9 47CC2A08 		.ascii	"G\314*\0101\255\310\277\302\0241\231\213\325\202C\015"
 492      31ADC8BF 
 492      C2143199 
 492      8BD58243 
 492      0D
 493 0b0a 45589303 		.ascii	"EX\223\003Zu\2737\354V|k\224:%\225z\326\306\352\205"
 493      5A75BB37 
 493      EC567C6B 
 493      943A2595 
 493      7AD6C6EA 
 494 0b1f 69A0C1B9 		.ascii	"i\240\301\271\254f\233\3618\231\267\325\357\333X=\310"
 494      AC669BF1 
 494      3899B7D5 
 494      EFDB583D 
 494      C8
 495 0b30 64B5DE8A 		.ascii	"d\265\336\212lq\330\334\303j\301\241%VV\317?\320\233"
 495      6C71D8DC 
 495      C36AC1A1 
 495      255656CF 
 495      3FD09B
 496 0b43 D54FE838 		.ascii	"\325O\3508E\271\214fZ\361\370\303\274mn\265\261\271"
 496      45B98C66 
 496      5AF1F8C3 
 496      BC6D6EB5 
 496      B1B9
 497 0b55 D064732B 		.ascii	"\320ds+k\263!-0Jp\350-\223\311h\330\210\021\245\352"
 497      6BB3212D 
 497      304A70E8 
 497      2D93C968 
 497      D88811A5 
 498 0b6a 5F4C2A15 		.ascii	"_L*\025\345\322P4\030\256.\027J\203U\021y\312\210*T"
 498      E5D25034 
 498      18AE2E17 
 498      4A835511 
 498      79CA882A 
 499 0b7f 10A99685 		.ascii	"\020\251\226\205)\001\331;\376\317\217\225\214C\276"
 499      2901D93B 
 499      FECF8F95 
 499      8C43BE
 500 0b8e 6055803E 		.ascii	"`U\200>\271\301VN\232*\311S\343\202\004\302W\312U\242"
 500      B9C1564E 
 500      9A2AC953 
 500      E38204C2 
 500      57CA55A2 
 501 0ba2 C0974B81 		.ascii	"\300\227K\201\277W\013\325B@\036\010\322\246G%\366("
 501      BF570BD5 
 501      42401E08 
ARM GAS  /tmp/ccQ6ActC.s 			page 40


 501      D2A64725 
 501      F628
 502 0bb4 C1AA7240 		.ascii	"\301\252r@\360\251\315\003\262?-\352\241\222\243\215"
 502      F0A9CD03 
 502      B23F2DEA 
 502      A192A38D 
 503 0bc4 92C15824 		.ascii	"\222\301X$\022\213\226\306c\242,\225\216\375\313\304"
 503      128B96C6 
 503      63A22C95 
 503      8EFDCBC4 
 504 0bd4 7113A790 		.ascii	"q\023\247\220g\361PX\020\245\322\361\343\306\001\240"
 504      67F15058 
 504      10A5D2F1 
 504      E3C601A0 
 505 0be4 AE53811C 		.ascii	"\256S\201\034\027C\261\200\374\267\322\252XD(\215\311"
 505      1743B180 
 505      FCB7D2AA 
 505      5844288D 
 505      C9
 506 0bf5 72AC74A2 		.ascii	"r\254t\242\020\225c\342x\221\217W\205\202R\351\243\261"
 506      109563E2 
 506      78918F57 
 506      858252E9 
 506      A3B1
 507 0c07 6A312888 		.ascii	"j1(\210S\003\343b\345\302\375B\024\272~0$\013\201\212"
 507      5303E362 
 507      E5C2FD42 
 507      14BA7E30 
 507      240B818A 
 508 0c1b 981800F4 		.ascii	"\230\030\000\364\300\037\307\336\377@)/F\206GcQa\270"
 508      C01FC7DE 
 508      FF40292F 
 508      46864763 
 508      5161B8
 509 0c2e C09785D2 		.ascii	"\300\227\205\322\212Kry(*\023\305\253\341|\373m\001"
 509      8A4B7279 
 509      282A13C5 
 509      ABE17CFB 
 509      6D01
 510 0c40 D94DBA2B 		.ascii	"\331M\272+&\252\005\202\261(0'\377\266W\325\253\202"
 510      26AA0582 
 510      B1283027 
 510      FFB657D5 
 510      AB82
 511 0c52 31510090 		.ascii	"1Q\000\220\"*\006@Ay\312pgR\201\311wGH\367\242P\011"
 511      222A0640 
 511      4179CA70 
 511      675281C9 
 511      774748F7 
 512 0c69 1A06644E 		.ascii	"\032\006dN\274\203\023\357\344\304\2738\361nN\034\315"
 512      BC8313EF 
 512      E4C4BB38 
 512      F16E4E1C 
 512      CD
 513 0c7a 89F7B8C4 		.ascii	"\211\367\270\304Q#\241\214\342\302\"'\305]\000\355\211"
 513      5123A18C 
 513      E2C22227 
ARM GAS  /tmp/ccQ6ActC.s 			page 41


 513      C55D00ED 
 513      89
 514 0c8b 0A3582E8 		.ascii	"\0125\202\350\211\205\313\005\321\035\254\342Ew\224"
 514      8985CB05 
 514      D11DACE2 
 514      457794
 515 0c9a 8F088592 		.ascii	"\217\010\205\222<\211\017\207*\243\001\231\032s\327"
 515      3C890F87 
 515      2AA30199 
 515      1A73D7
 516 0ca9 1D100535 		.ascii	"\035\020\0055|\031/\011>Y\222y D. ?\214\016\310\036"
 516      7C192F09 
 516      3E599279 
 516      20442E20 
 516      3F8C0EC8 
 517 0cbe 7A5F2047 		.ascii	"z_ G\2000\270\253\010\363\225R\201,\012\025\022\020"
 517      8030B8AB 
 517      08F39552 
 517      812C0A15 
 517      1210
 518 0cd0 404E9E88 		.ascii	"@N\236\210T\011\3155N\274b\371Tx\340\023\246\204\344"
 518      5409CD35 
 518      4EBC62F9 
 518      5478E013 
 518      A684E4
 519 0ce3 2088786B 		.ascii	" \210xk\344X\331S\361A\232\263A@\020\201v\002U#\313"
 519      E458D953 
 519      F1419AB3 
 519      41401081 
 519      76025523 
 520 0cf8 62BC4002 		.ascii	"b\274@\002\007\201@1xB\022\"\340&\260\324>r\241\011"
 520      07814031 
 520      78421222 
 520      E026B0D4 
 520      3E72A109 
 521 0d0c 50E00946 		.ascii	"P\340\011F\345\200\354\202\032\340\341Q\034N\020\323"
 521      E580EC82 
 521      1AE0E151 
 521      1C4E10D3 
 522 0d1c F1226132 		.ascii	"\361\"a2A\343\245I\240\210PC.p\365\000=,\303!\011\244"
 522      41E3A549 
 522      A0885043 
 522      2E70F500 
 522      3D2CC321 
 523 0d32 AE34042A 		.ascii	"\2564\004*y\342\216\202\337\012j\370\220\034\212V\372"
 523      79E28E82 
 523      DF0A6AF8 
 523      901C8A56 
 523      FA
 524 0d43 40131A83 		.ascii	"@\023\032\203>!.D\301\337\225\005\200K\232\001\353|"
 524      3E212E44 
 524      C1DF9505 
 524      804B9A01 
 524      EB7C
 525 0d55 98F8DB13 		.ascii	"\230\370\333\023\211\307bap\2750\331\023\253\211\012"
 525      89C76261 
 525      70BD30D9 
ARM GAS  /tmp/ccQ6ActC.s 			page 42


 525      13AB890A 
 526 0d65 62B89FD1 		.ascii	"b\270\237\321\026\016\225\225V\006\203L\324\3351b\364"
 526      160E9595 
 526      5606834C 
 526      D4DD3162 
 526      F4
 527 0d76 8851C6D8 		.ascii	"\210Q\306\330+\027*\300r\257\024\372\007pw\213E\304"
 527      2B172AC0 
 527      72AF14FA 
 527      0770778B 
 527      45C4
 528 0d88 C4248294 		.ascii	"\304$\202\224\241\252J\340\343 qED\210\304@\005r\033"
 528      A1AA4AE0 
 528      E3207145 
 528      4488C440 
 528      05721B
 529 0d9b 908B0C77 		.ascii	"\220\213\014wVa\307\202@s-`\011N\245 WTG\203\340f_\\"
 529      5661C782 
 529      40732D60 
 529      094EA520 
 529      57544783 
 530 0db3 8C4D0E41 		.ascii	"\214M\016AP]Aq\241\202k\2007\334yh\204y\342|\245 \271"
 530      505D4171 
 530      A1826B80 
 530      37DC7968 
 530      8479E27C 
 531 0dca 2B444170 		.ascii	"+DAp\223\037\335\304\000w\265$\224{\325f. \370&[M$1"
 531      931FDDC4 
 531      0077B524 
 531      947BD566 
 531      2E20F826 
 532 0de2 A89B1244 		.ascii	"\250\233\022D\205\252\021\241hH\036\032\254\032\007"
 532      85AA11A1 
 532      68481E1A 
 532      AC1A07
 533 0df1 7A8D0D87 		.ascii	"z\215\015\207c\301\261\244\037\241\374\361\220\\\365"
 533      63C1B1A4 
 533      1FA1FCF1 
 533      905CF5
 534 0e00 50458524 		.ascii	"PE\205$\220\271h\0024|\250\354)!(?\000\255=D.\356*\253"
 534      90B96802 
 534      347CA8EC 
 534      2921283F 
 534      00AD3D44 
 535 0e18 AE18A4FE 		.ascii	"\256\030\244\376d\224+T\037\375\0114\304\361b\365\346"
 535      64942B54 
 535      1FFD0934 
 535      C4F162F5 
 535      E6
 536 0e29 5188F96A 		.ascii	"Q\210\371j\311+\307dp\272/\314\213`\203\034\207\320"
 536      C92BC764 
 536      70BA2FCC 
 536      8B60831C 
 536      87D0
 537 0e3b 99284FC9 		.ascii	"\231(O\311\300\026\321\373\307\242\2005\311O\257\037"
 537      C016D1FB 
 537      C7A28035 
ARM GAS  /tmp/ccQ6ActC.s 			page 43


 537      C94FAF1F 
 538 0e4b 84AB62F0 		.ascii	"\204\253b\360\024_\035\226\251\262\276@\2000\026\010"
 538      145F1D96 
 538      A9B2BE40 
 538      80301608 
 539 0e5b 5CA15F8C 		.ascii	"\\\241_\214\270\363\236Q\267\033\357n3\335\335~\327"
 539      B8F39E51 
 539      B71BEF6E 
 539      33DDDD7E 
 539      D7
 540 0e6c FF006FF5 		.ascii	"\377\000o\365\224\253"
 540      94AB
 541              		.text
 542              		.section	.gnu.lto_.symtab.ab6618b4dc77849e,"",%progbits
 543 0000 5F686561 		.ascii	"_heap_init\000\000\000\000\000\000\000\000\000\000\000"
 543      705F696E 
 543      69740000 
 543      00000000 
 543      00000000 
 544 0015 007E0100 		.ascii	"\000~\001\000\000chHeapObjectInit\000\000\000\000\000"
 544      00636848 
 544      6561704F 
 544      626A6563 
 544      74496E69 
 545 002f 00000000 		.ascii	"\000\000\000\000\000\000\000\204\001\000\000chHeapA"
 545      00000084 
 545      01000063 
 545      68486561 
 545      7041
 546 0041 6C6C6F63 		.ascii	"llocAligned\000\000\000\000\000\000\000\000\000\000"
 546      416C6967 
 546      6E656400 
 546      00000000 
 546      00000000 
 547 0056 00009001 		.ascii	"\000\000\220\001\000\000chHeapFree\000\000\000\000\000"
 547      00006368 
 547      48656170 
 547      46726565 
 547      00000000 
 548 006b 00000000 		.ascii	"\000\000\000\000\000\000\000\232\001\000\000chHeapS"
 548      0000009A 
 548      01000063 
 548      68486561 
 548      7053
 549 007d 74617475 		.ascii	"tatus\000\000\000\000\000\000\000\000\000\000\000\000"
 549      73000000 
 549      00000000 
 549      00000000 
 549      00
 550 008e A1010000 		.ascii	"\241\001\000\000chCoreAllocAlignedWithOffset\000\000"
 550      6368436F 
 550      7265416C 
 550      6C6F6341 
 550      6C69676E 
 551 00b0 02000000 		.ascii	"\002\000\000\000\000\000\000\000\000\000\202\001\000"
 551      00000000 
 551      00008201 
ARM GAS  /tmp/ccQ6ActC.s 			page 44


 551      00
 552 00bd 0063684D 		.ascii	"\000chMtxObjectInit\000\000\002\000\000\000\000\000"
 552      74784F62 
 552      6A656374 
 552      496E6974 
 552      00000200 
 553 00d5 00000000 		.ascii	"\000\000\000\000\255\001\000\000chMtxUnlock\000\000"
 553      AD010000 
 553      63684D74 
 553      78556E6C 
 553      6F636B00 
 554 00ea 02000000 		.ascii	"\002\000\000\000\000\000\000\000\000\000\261\001\000"
 554      00000000 
 554      0000B101 
 554      00
 555 00f7 0063684D 		.ascii	"\000chMtxLock\000\000\002\000\000\000\000\000\000\000"
 555      74784C6F 
 555      636B0000 
 555      02000000 
 555      00000000 
 556 010b 0000B301 		.ascii	"\000\000\263\001\000\000"
 556      0000
 557              		.text
 558              		.section	.gnu.lto_.opts,"",%progbits
 559 0000 272D6D63 		.ascii	"'-mcpu=cortex-m3' '-mno-thumb-interwork' '-mthumb' "
 559      70753D63 
 559      6F727465 
 559      782D6D33 
 559      2720272D 
 560 0033 272D6767 		.ascii	"'-ggdb' '-O2' '-fomit-frame-pointer' '-falign-funct"
 560      64622720 
 560      272D4F32 
 560      2720272D 
 560      666F6D69 
 561 0066 696F6E73 		.ascii	"ions=16' '-ffunction-sections' '-fdata-sections' '-"
 561      3D313627 
 561      20272D66 
 561      66756E63 
 561      74696F6E 
 562 0099 666E6F2D 		.ascii	"fno-common' '-flto'\000"
 562      636F6D6D 
 562      6F6E2720 
 562      272D666C 
 562      746F2700 
 563              		.text
 564              		.cfi_sections	.debug_frame
 565              		.section	.text._heap_init,"ax",%progbits
 566              		.align	2
 567              		.p2align 4,,15
 568              		.global	_heap_init
 569              		.thumb
 570              		.thumb_func
 571              		.type	_heap_init, %function
 572              	_heap_init:
 573              	.LFB188:
 574              		.file 1 "../../../os/common/oslib/src/chheap.c"
 575              		.loc 1 107 0
ARM GAS  /tmp/ccQ6ActC.s 			page 45


 576              		.cfi_startproc
 577              		@ args = 0, pretend = 0, frame = 0
 578              		@ frame_needed = 0, uses_anonymous_args = 0
 579              		@ link register save eliminated.
 580              		.loc 1 109 0
 581 0000 40F20003 		movw	r3, #:lower16:.LANCHOR0
 582 0004 C0F20003 		movt	r3, #:upper16:.LANCHOR0
 583 0008 40F20002 		movw	r2, #:lower16:chCoreAllocAlignedWithOffset
 584              		.loc 1 110 0
 585 000c 0021     		movs	r1, #0
 586              		.loc 1 109 0
 587 000e C0F20002 		movt	r2, #:upper16:chCoreAllocAlignedWithOffset
 588              		.loc 1 113 0
 589 0012 03F11000 		add	r0, r3, #16
 590              		.loc 1 109 0
 591 0016 1A60     		str	r2, [r3]
 592              		.loc 1 110 0
 593 0018 9960     		str	r1, [r3, #8]
 594              		.loc 1 111 0
 595 001a D960     		str	r1, [r3, #12]
 596              		.loc 1 113 0
 597 001c FFF7FEBF 		b	chMtxObjectInit
 598              	.LVL0:
 599              		.cfi_endproc
 600              	.LFE188:
 601              		.size	_heap_init, .-_heap_init
 602              		.section	.text.chHeapObjectInit,"ax",%progbits
 603              		.align	2
 604              		.p2align 4,,15
 605              		.global	chHeapObjectInit
 606              		.thumb
 607              		.thumb_func
 608              		.type	chHeapObjectInit, %function
 609              	chHeapObjectInit:
 610              	.LFB189:
 611              		.loc 1 130 0
 612              		.cfi_startproc
 613              		@ args = 0, pretend = 0, frame = 0
 614              		@ frame_needed = 0, uses_anonymous_args = 0
 615              		@ link register save eliminated.
 616              	.LVL1:
 617              		.loc 1 141 0
 618 0000 083A     		subs	r2, r2, #8
 619              	.LVL2:
 620              		.loc 1 137 0
 621 0002 0023     		movs	r3, #0
 622              		.loc 1 141 0
 623 0004 D208     		lsrs	r2, r2, #3
 624              	.LVL3:
 625              		.loc 1 138 0
 626 0006 8160     		str	r1, [r0, #8]
 627              		.loc 1 137 0
 628 0008 0360     		str	r3, [r0]
 629              		.loc 1 139 0
 630 000a C360     		str	r3, [r0, #12]
 631              		.loc 1 143 0
 632 000c 1030     		adds	r0, r0, #16
ARM GAS  /tmp/ccQ6ActC.s 			page 46


 633              	.LVL4:
 634              		.loc 1 141 0
 635 000e 4A60     		str	r2, [r1, #4]
 636              		.loc 1 140 0
 637 0010 0B60     		str	r3, [r1]
 638              		.loc 1 143 0
 639 0012 FFF7FEBF 		b	chMtxObjectInit
 640              	.LVL5:
 641              		.cfi_endproc
 642              	.LFE189:
 643              		.size	chHeapObjectInit, .-chHeapObjectInit
 644 0016 00BFAFF3 		.section	.text.chHeapAllocAligned,"ax",%progbits
 644      0080AFF3 
 644      0080
 645              		.align	2
 646              		.p2align 4,,15
 647              		.global	chHeapAllocAligned
 648              		.thumb
 649              		.thumb_func
 650              		.type	chHeapAllocAligned, %function
 651              	chHeapAllocAligned:
 652              	.LFB190:
 653              		.loc 1 166 0
 654              		.cfi_startproc
 655              		@ args = 0, pretend = 0, frame = 8
 656              		@ frame_needed = 0, uses_anonymous_args = 0
 657              	.LVL6:
 658 0000 2DE9F04F 		push	{r4, r5, r6, r7, r8, r9, r10, fp, lr}
 659              		.cfi_def_cfa_offset 36
 660              		.cfi_offset 4, -36
 661              		.cfi_offset 5, -32
 662              		.cfi_offset 6, -28
 663              		.cfi_offset 7, -24
 664              		.cfi_offset 8, -20
 665              		.cfi_offset 9, -16
 666              		.cfi_offset 10, -12
 667              		.cfi_offset 11, -8
 668              		.cfi_offset 14, -4
 669              		.loc 1 174 0
 670 0004 40F20009 		movw	r9, #:lower16:.LANCHOR0
 671 0008 C0F20009 		movt	r9, #:upper16:.LANCHOR0
 672 000c 0028     		cmp	r0, #0
 673 000e 18BF     		it	ne
 674 0010 8146     		movne	r9, r0
 675              	.LVL7:
 676              		.loc 1 166 0
 677 0012 83B0     		sub	sp, sp, #12
 678              		.cfi_def_cfa_offset 48
 679              		.loc 1 186 0
 680 0014 09F11003 		add	r3, r9, #16
 681              		.loc 1 166 0
 682 0018 0191     		str	r1, [sp, #4]
 683              		.loc 1 179 0
 684 001a 072A     		cmp	r2, #7
 685 001c 8CBF     		ite	hi
 686 001e 9046     		movhi	r8, r2
 687 0020 4FF00808 		movls	r8, #8
ARM GAS  /tmp/ccQ6ActC.s 			page 47


 688              	.LVL8:
 689              		.loc 1 183 0
 690 0024 0731     		adds	r1, r1, #7
 691              	.LVL9:
 692              		.loc 1 186 0
 693 0026 1846     		mov	r0, r3
 694 0028 0093     		str	r3, [sp]
 695              		.loc 1 183 0
 696 002a 4FEAD10B 		lsr	fp, r1, #3
 697              	.LVL10:
 698              		.loc 1 189 0
 699 002e 09F10807 		add	r7, r9, #8
 700              		.loc 1 186 0
 701 0032 FFF7FEFF 		bl	chMtxLock
 702              	.LVL11:
 703              		.loc 1 196 0
 704 0036 C8F1000C 		rsb	ip, r8, #0
 705              		.loc 1 190 0
 706 003a 0DE0     		b	.L6
 707              	.LVL12:
 708              	.L13:
 709              		.loc 1 198 0
 710 003c 5A68     		ldr	r2, [r3, #4]
 711 003e 511C     		adds	r1, r2, #1
 712 0040 C900     		lsls	r1, r1, #3
 713 0042 A1F10800 		sub	r0, r1, #8
 714 0046 1944     		add	r1, r1, r3
 715 0048 0544     		add	r5, r5, r0
 716 004a 8C42     		cmp	r4, r1
 717 004c 4FEAE505 		asr	r5, r5, #3
 718 0050 01D2     		bcs	.L7
 719              		.loc 1 198 0 is_stmt 0 discriminator 1
 720 0052 AB45     		cmp	fp, r5
 721 0054 22D9     		bls	.L19
 722              	.L7:
 723 0056 1F46     		mov	r7, r3
 724              	.LVL13:
 725              	.L6:
 726              		.loc 1 190 0 is_stmt 1 discriminator 1
 727 0058 3B68     		ldr	r3, [r7]
 728              	.LVL14:
 729              		.loc 1 196 0 discriminator 1
 730 005a DE1D     		adds	r6, r3, #7
 731 005c 4644     		add	r6, r6, r8
 732 005e 0CEA0606 		and	r6, ip, r6
 733 0062 A6F10804 		sub	r4, r6, #8
 734              	.LVL15:
 735              		.loc 1 198 0 discriminator 1
 736 0066 1D1B     		subs	r5, r3, r4
 737              		.loc 1 196 0 discriminator 1
 738 0068 03F1080A 		add	r10, r3, #8
 739              		.loc 1 190 0 discriminator 1
 740 006c 002B     		cmp	r3, #0
 741 006e E5D1     		bne	.L13
 742              		.loc 1 258 0
 743 0070 0098     		ldr	r0, [sp]
 744 0072 FFF7FEFF 		bl	chMtxUnlock
ARM GAS  /tmp/ccQ6ActC.s 			page 48


 745              	.LVL16:
 746              		.loc 1 262 0
 747 0076 D9F80030 		ldr	r3, [r9]
 748 007a 002B     		cmp	r3, #0
 749 007c 47D0     		beq	.L16
 750              		.loc 1 263 0
 751 007e 0BF10100 		add	r0, fp, #1
 752 0082 C000     		lsls	r0, r0, #3
 753 0084 4146     		mov	r1, r8
 754 0086 0822     		movs	r2, #8
 755 0088 9847     		blx	r3
 756              	.LVL17:
 757              		.loc 1 266 0
 758 008a 20B1     		cbz	r0, .L12
 759              	.LVL18:
 760              		.loc 1 269 0
 761 008c 019B     		ldr	r3, [sp, #4]
 762              		.loc 1 268 0
 763 008e 40F8089C 		str	r9, [r0, #-8]
 764              		.loc 1 269 0
 765 0092 40F8043C 		str	r3, [r0, #-4]
 766              	.LVL19:
 767              	.L12:
 768              		.loc 1 278 0
 769 0096 03B0     		add	sp, sp, #12
 770              		@ sp needed
 771 0098 BDE8F08F 		pop	{r4, r5, r6, r7, r8, r9, r10, fp, pc}
 772              	.LVL20:
 773              	.L19:
 774              		.loc 1 202 0
 775 009c 9C42     		cmp	r4, r3
 776 009e AE46     		mov	lr, r5
 777 00a0 19D8     		bhi	.L20
 778              		.loc 1 226 0
 779 00a2 9345     		cmp	fp, r2
 780 00a4 2FD0     		beq	.L21
 781              	.LBB2:
 782              		.loc 1 234 0
 783 00a6 0BF10101 		add	r1, fp, #1
 784              	.LVL21:
 785              		.loc 1 235 0
 786 00aa 1A68     		ldr	r2, [r3]
 787              		.loc 1 236 0
 788 00ac A0EBC100 		sub	r0, r0, r1, lsl #3
 789 00b0 C510     		asrs	r5, r0, #3
 790 00b2 03EBC100 		add	r0, r3, r1, lsl #3
 791              	.LVL22:
 792              		.loc 1 235 0
 793 00b6 43F83120 		str	r2, [r3, r1, lsl #3]
 794              		.loc 1 237 0
 795 00ba 1C46     		mov	r4, r3
 796              	.LVL23:
 797              		.loc 1 236 0
 798 00bc 4560     		str	r5, [r0, #4]
 799              		.loc 1 237 0
 800 00be 3860     		str	r0, [r7]
 801              	.LVL24:
ARM GAS  /tmp/ccQ6ActC.s 			page 49


 802              	.L10:
 803              	.LBE2:
 804              		.loc 1 242 0
 805 00c0 019B     		ldr	r3, [sp, #4]
 806              		.loc 1 246 0
 807 00c2 0098     		ldr	r0, [sp]
 808              		.loc 1 242 0
 809 00c4 6360     		str	r3, [r4, #4]
 810              		.loc 1 243 0
 811 00c6 C4F80090 		str	r9, [r4]
 812              		.loc 1 246 0
 813 00ca FFF7FEFF 		bl	chMtxUnlock
 814              	.LVL25:
 815              		.loc 1 249 0
 816 00ce 5046     		mov	r0, r10
 817              		.loc 1 278 0
 818 00d0 03B0     		add	sp, sp, #12
 819              		@ sp needed
 820 00d2 BDE8F08F 		pop	{r4, r5, r6, r7, r8, r9, r10, fp, pc}
 821              	.LVL26:
 822              	.L20:
 823              	.LBB3:
 824              		.loc 1 208 0
 825 00d6 AB45     		cmp	fp, r5
 826              		.loc 1 207 0
 827 00d8 CAEB0402 		rsb	r2, r10, r4
 828 00dc 4FEAE202 		asr	r2, r2, #3
 829              	.LBB4:
 830              		.loc 1 217 0
 831 00e0 3EBF     		ittt	cc
 832 00e2 1D68     		ldrcc	r5, [r3]
 833              	.LVL27:
 834              		.loc 1 213 0
 835 00e4 0BF10100 		addcc	r0, fp, #1
 836              		.loc 1 214 0
 837 00e8 6FEA0B01 		mvncc	r1, fp
 838              	.LBE4:
 839              		.loc 1 207 0
 840 00ec 5A60     		str	r2, [r3, #4]
 841              	.LBB5:
 842              		.loc 1 214 0
 843 00ee 3DBF     		ittte	cc
 844 00f0 7144     		addcc	r1, r1, lr
 845              		.loc 1 213 0
 846 00f2 04EBC002 		addcc	r2, r4, r0, lsl #3
 847              	.LVL28:
 848              		.loc 1 214 0
 849 00f6 5160     		strcc	r1, [r2, #4]
 850 00f8 B246     		movcs	r10, r6
 851              		.loc 1 217 0
 852 00fa 3EBF     		ittt	cc
 853 00fc 44F83050 		strcc	r5, [r4, r0, lsl #3]
 854 0100 B246     		movcc	r10, r6
 855              		.loc 1 218 0
 856 0102 1A60     		strcc	r2, [r3]
 857 0104 DCE7     		b	.L10
 858              	.LVL29:
ARM GAS  /tmp/ccQ6ActC.s 			page 50


 859              	.L21:
 860              	.LBE5:
 861              	.LBE3:
 862              		.loc 1 228 0
 863 0106 1A68     		ldr	r2, [r3]
 864 0108 1C46     		mov	r4, r3
 865              	.LVL30:
 866 010a 3A60     		str	r2, [r7]
 867 010c D8E7     		b	.L10
 868              	.LVL31:
 869              	.L16:
 870              		.loc 1 277 0
 871 010e 1846     		mov	r0, r3
 872 0110 C1E7     		b	.L12
 873              		.cfi_endproc
 874              	.LFE190:
 875              		.size	chHeapAllocAligned, .-chHeapAllocAligned
 876 0112 00BFAFF3 		.section	.text.chHeapFree,"ax",%progbits
 876      0080AFF3 
 876      0080AFF3 
 876      0080
 877              		.align	2
 878              		.p2align 4,,15
 879              		.global	chHeapFree
 880              		.thumb
 881              		.thumb_func
 882              		.type	chHeapFree, %function
 883              	chHeapFree:
 884              	.LFB191:
 885              		.loc 1 287 0
 886              		.cfi_startproc
 887              		@ args = 0, pretend = 0, frame = 0
 888              		@ frame_needed = 0, uses_anonymous_args = 0
 889              	.LVL32:
 890 0000 F8B5     		push	{r3, r4, r5, r6, r7, lr}
 891              		.cfi_def_cfa_offset 24
 892              		.cfi_offset 3, -24
 893              		.cfi_offset 4, -20
 894              		.cfi_offset 5, -16
 895              		.cfi_offset 6, -12
 896              		.cfi_offset 7, -8
 897              		.cfi_offset 14, -4
 898              		.loc 1 300 0
 899 0002 50F8043C 		ldr	r3, [r0, #-4]
 900              		.loc 1 296 0
 901 0006 50F8084C 		ldr	r4, [r0, #-8]
 902              		.loc 1 300 0
 903 000a 0733     		adds	r3, r3, #7
 904              		.loc 1 301 0
 905 000c DB08     		lsrs	r3, r3, #3
 906              		.loc 1 304 0
 907 000e 04F11006 		add	r6, r4, #16
 908              		.loc 1 300 0
 909 0012 40F8043C 		str	r3, [r0, #-4]
 910              		.loc 1 287 0
 911 0016 0546     		mov	r5, r0
 912              		.loc 1 297 0
ARM GAS  /tmp/ccQ6ActC.s 			page 51


 913 0018 0834     		adds	r4, r4, #8
 914              		.loc 1 304 0
 915 001a 3046     		mov	r0, r6
 916              	.LVL33:
 917 001c FFF7FEFF 		bl	chMtxLock
 918              	.LVL34:
 919              		.loc 1 294 0
 920 0020 A5F10801 		sub	r1, r5, #8
 921              	.LVL35:
 922              		.loc 1 297 0
 923 0024 2346     		mov	r3, r4
 924              	.LVL36:
 925              	.L29:
 926              		.loc 1 309 0
 927 0026 A342     		cmp	r3, r4
 928 0028 04D0     		beq	.L23
 929              	.L34:
 930              		.loc 1 309 0 is_stmt 0 discriminator 2
 931 002a 8B42     		cmp	r3, r1
 932 002c 02D3     		bcc	.L23
 933 002e 1B68     		ldr	r3, [r3]
 934              	.LVL37:
 935              		.loc 1 309 0
 936 0030 A342     		cmp	r3, r4
 937 0032 FAD1     		bne	.L34
 938              	.L23:
 939              		.loc 1 310 0 is_stmt 1 discriminator 1
 940 0034 1A68     		ldr	r2, [r3]
 941              		.loc 1 309 0 discriminator 1
 942 0036 1AB1     		cbz	r2, .L25
 943              		.loc 1 310 0
 944 0038 9142     		cmp	r1, r2
 945 003a 01D3     		bcc	.L25
 946 003c 1346     		mov	r3, r2
 947              	.LVL38:
 948              		.loc 1 328 0
 949 003e F2E7     		b	.L29
 950              	.LVL39:
 951              	.L25:
 952              		.loc 1 315 0
 953 0040 55F8040C 		ldr	r0, [r5, #-4]
 954              		.loc 1 312 0
 955 0044 45F8082C 		str	r2, [r5, #-8]
 956              		.loc 1 313 0
 957 0048 1960     		str	r1, [r3]
 958              		.loc 1 315 0
 959 004a 421C     		adds	r2, r0, #1
 960 004c 55F8087C 		ldr	r7, [r5, #-8]
 961 0050 01EBC204 		add	r4, r1, r2, lsl #3
 962              	.LVL40:
 963 0054 BC42     		cmp	r4, r7
 964 0056 0AD0     		beq	.L35
 965              		.loc 1 320 0
 966 0058 5A68     		ldr	r2, [r3, #4]
 967 005a 501C     		adds	r0, r2, #1
 968 005c 03EBC000 		add	r0, r3, r0, lsl #3
 969 0060 8142     		cmp	r1, r0
ARM GAS  /tmp/ccQ6ActC.s 			page 52


 970 0062 13D0     		beq	.L36
 971              	.L28:
 972              		.loc 1 331 0
 973 0064 3046     		mov	r0, r6
 974              		.loc 1 334 0
 975 0066 BDE8F840 		pop	{r3, r4, r5, r6, r7, lr}
 976              	.LVL41:
 977              		.loc 1 331 0
 978 006a FFF7FEBF 		b	chMtxUnlock
 979              	.LVL42:
 980              	.L35:
 981              		.loc 1 317 0
 982 006e 6468     		ldr	r4, [r4, #4]
 983              		.loc 1 318 0
 984 0070 51F83220 		ldr	r2, [r1, r2, lsl #3]
 985              		.loc 1 317 0
 986 0074 2044     		add	r0, r0, r4
 987 0076 0130     		adds	r0, r0, #1
 988 0078 45F8040C 		str	r0, [r5, #-4]
 989              		.loc 1 318 0
 990 007c 45F8082C 		str	r2, [r5, #-8]
 991              		.loc 1 320 0
 992 0080 5A68     		ldr	r2, [r3, #4]
 993 0082 501C     		adds	r0, r2, #1
 994 0084 03EBC000 		add	r0, r3, r0, lsl #3
 995 0088 8142     		cmp	r1, r0
 996 008a EBD1     		bne	.L28
 997              	.L36:
 998              		.loc 1 322 0
 999 008c 55F8040C 		ldr	r0, [r5, #-4]
 1000              		.loc 1 323 0
 1001 0090 55F8081C 		ldr	r1, [r5, #-8]
 1002              	.LVL43:
 1003              		.loc 1 322 0
 1004 0094 0244     		add	r2, r2, r0
 1005 0096 0132     		adds	r2, r2, #1
 1006              		.loc 1 323 0
 1007 0098 83E80600 		stmia	r3, {r1, r2}
 1008              		.loc 1 331 0
 1009 009c 3046     		mov	r0, r6
 1010              		.loc 1 334 0
 1011 009e BDE8F840 		pop	{r3, r4, r5, r6, r7, lr}
 1012              	.LVL44:
 1013              		.loc 1 331 0
 1014 00a2 FFF7FEBF 		b	chMtxUnlock
 1015              	.LVL45:
 1016              		.cfi_endproc
 1017              	.LFE191:
 1018              		.size	chHeapFree, .-chHeapFree
 1019 00a6 00BFAFF3 		.section	.text.chHeapStatus,"ax",%progbits
 1019      0080AFF3 
 1019      0080
 1020              		.align	2
 1021              		.p2align 4,,15
 1022              		.global	chHeapStatus
 1023              		.thumb
 1024              		.thumb_func
ARM GAS  /tmp/ccQ6ActC.s 			page 53


 1025              		.type	chHeapStatus, %function
 1026              	chHeapStatus:
 1027              	.LFB192:
 1028              		.loc 1 351 0
 1029              		.cfi_startproc
 1030              		@ args = 0, pretend = 0, frame = 0
 1031              		@ frame_needed = 0, uses_anonymous_args = 0
 1032              	.LVL46:
 1033              		.loc 1 356 0
 1034 0000 40F20003 		movw	r3, #:lower16:.LANCHOR0
 1035 0004 C0F20003 		movt	r3, #:upper16:.LANCHOR0
 1036              		.loc 1 351 0
 1037 0008 2DE9F047 		push	{r4, r5, r6, r7, r8, r9, r10, lr}
 1038              		.cfi_def_cfa_offset 32
 1039              		.cfi_offset 4, -32
 1040              		.cfi_offset 5, -28
 1041              		.cfi_offset 6, -24
 1042              		.cfi_offset 7, -20
 1043              		.cfi_offset 8, -16
 1044              		.cfi_offset 9, -12
 1045              		.cfi_offset 10, -8
 1046              		.cfi_offset 14, -4
 1047              		.loc 1 356 0
 1048 000c 0028     		cmp	r0, #0
 1049 000e 14BF     		ite	ne
 1050 0010 0446     		movne	r4, r0
 1051 0012 1C46     		moveq	r4, r3
 1052              	.LVL47:
 1053              		.loc 1 359 0
 1054 0014 04F11008 		add	r8, r4, #16
 1055 0018 4046     		mov	r0, r8
 1056              		.loc 1 351 0
 1057 001a 8A46     		mov	r10, r1
 1058 001c 9146     		mov	r9, r2
 1059              		.loc 1 359 0
 1060 001e FFF7FEFF 		bl	chMtxLock
 1061              	.LVL48:
 1062              		.loc 1 364 0
 1063 0022 A368     		ldr	r3, [r4, #8]
 1064 0024 E3B1     		cbz	r3, .L44
 1065              		.loc 1 361 0
 1066 0026 0025     		movs	r5, #0
 1067              		.loc 1 360 0
 1068 0028 2F46     		mov	r7, r5
 1069              		.loc 1 362 0
 1070 002a 2E46     		mov	r6, r5
 1071              	.LVL49:
 1072              	.L40:
 1073              		.loc 1 364 0
 1074 002c 18CB     		ldmia	r3, {r3, r4}
 1075              	.LBB6:
 1076              		.loc 1 368 0
 1077 002e 0136     		adds	r6, r6, #1
 1078              	.LVL50:
 1079              		.loc 1 369 0
 1080 0030 2744     		add	r7, r7, r4
 1081              	.LVL51:
ARM GAS  /tmp/ccQ6ActC.s 			page 54


 1082 0032 A542     		cmp	r5, r4
 1083 0034 38BF     		it	cc
 1084 0036 2546     		movcc	r5, r4
 1085              	.LVL52:
 1086              	.LBE6:
 1087              		.loc 1 364 0
 1088 0038 002B     		cmp	r3, #0
 1089 003a F7D1     		bne	.L40
 1090              	.LVL53:
 1091              	.L39:
 1092              		.loc 1 378 0
 1093 003c BAF1000F 		cmp	r10, #0
 1094 0040 02D0     		beq	.L41
 1095              		.loc 1 379 0
 1096 0042 FF00     		lsls	r7, r7, #3
 1097 0044 CAF80070 		str	r7, [r10]
 1098              	.L41:
 1099              		.loc 1 383 0
 1100 0048 B9F1000F 		cmp	r9, #0
 1101 004c 02D0     		beq	.L42
 1102              		.loc 1 384 0
 1103 004e ED00     		lsls	r5, r5, #3
 1104 0050 C9F80050 		str	r5, [r9]
 1105              	.L42:
 1106              		.loc 1 386 0
 1107 0054 4046     		mov	r0, r8
 1108 0056 FFF7FEFF 		bl	chMtxUnlock
 1109              	.LVL54:
 1110              		.loc 1 389 0
 1111 005a 3046     		mov	r0, r6
 1112 005c BDE8F087 		pop	{r4, r5, r6, r7, r8, r9, r10, pc}
 1113              	.LVL55:
 1114              	.L44:
 1115              		.loc 1 361 0
 1116 0060 1D46     		mov	r5, r3
 1117              		.loc 1 360 0
 1118 0062 1F46     		mov	r7, r3
 1119              		.loc 1 362 0
 1120 0064 1E46     		mov	r6, r3
 1121 0066 E9E7     		b	.L39
 1122              		.cfi_endproc
 1123              	.LFE192:
 1124              		.size	chHeapStatus, .-chHeapStatus
 1125 0068 AFF30080 		.section	.bss.default_heap,"aw",%nobits
 1125      AFF30080 
 1126              		.align	3
 1127              		.set	.LANCHOR0,. + 0
 1128              		.type	default_heap, %object
 1129              		.size	default_heap, 32
 1130              	default_heap:
 1131 0000 00000000 		.space	32
 1131      00000000 
 1131      00000000 
 1131      00000000 
 1131      00000000 
 1132              		.text
 1133              	.Letext0:
ARM GAS  /tmp/ccQ6ActC.s 			page 55


 1134              		.file 2 "/home/otto/MentorGraphics/Sourcery_CodeBench_Lite_for_ARM_EABI/lib/gcc/arm-none-eabi/4.8.
 1135              		.file 3 "/home/otto/MentorGraphics/Sourcery_CodeBench_Lite_for_ARM_EABI/arm-none-eabi/include/stdi
 1136              		.file 4 "../../../os/common/ports/ARMCMx/compilers/GCC/chtypes.h"
 1137              		.file 5 "../../../os/rt/include/chsystypes.h"
 1138              		.file 6 "../../../os/rt/include/chschd.h"
 1139              		.file 7 "../../../os/common/ports/ARMCMx/chcore.h"
 1140              		.file 8 "../../../os/common/ports/ARMCMx/chcore_v7m.h"
 1141              		.file 9 "../../../os/rt/include/chsem.h"
 1142              		.file 10 "../../../os/rt/include/chmtx.h"
 1143              		.file 11 "../../../os/common/oslib/include/chmemcore.h"
 1144              		.file 12 "../../../os/common/oslib/include/chheap.h"
 1145              		.file 13 "../../../os/common/ext/CMSIS/include/core_cm3.h"