ARM GAS  /tmp/ccr7exbh.s 			page 1


   1              		.syntax unified
   2              		.cpu cortex-m3
   3              		.fpu softvfp
   4              		.eabi_attribute 20, 1
   5              		.eabi_attribute 21, 1
   6              		.eabi_attribute 23, 3
   7              		.eabi_attribute 24, 1
   8              		.eabi_attribute 25, 1
   9              		.eabi_attribute 26, 1
  10              		.eabi_attribute 30, 2
  11              		.eabi_attribute 34, 1
  12              		.eabi_attribute 18, 4
  13              		.thumb
  14              		.file	"chregistry.c"
  15              		.text
  16              	.Ltext0:
  17              		.section	.gnu.lto_.jmpfuncs.497d0cb4557e69f4,"",%progbits
  18 0000 789C6362 		.ascii	"x\234cb`b\300\006\224\2404+\003\003\023##\003\0033\210"
  18      6062C006 
  18      94A0342B 
  18      03031323 
  18      23030333 
  19 0015 002A6506 		.ascii	"\000*e\006\212\22510\260\200\270\254 \202\001\000\017"
  19      8A953130 
  19      B080B8AC 
  19      20820100 
  19      0F
  20 0026 B600BD   		.ascii	"\266\000\275"
  21              		.text
  22              		.section	.gnu.lto_.inline.497d0cb4557e69f4,"",%progbits
  23 0000 789C6362 		.ascii	"x\234cb`b\300\006z\2404+\003\003'\007#\003\023\317\203"
  23      6062C006 
  23      7AA0342B 
  23      03032707 
  23      230313CF 
  24 0015 5806B605 		.ascii	"X\006\266\005\362`\305L\014\274\242@!\376\005%\014\354"
  24      F260C54C 
  24      0CBCA240 
  24      21FE0525 
  24      0CEC
  25 0027 1DEA1021 		.ascii	"\035\352\020!n\006\006\306\011~\314\014\242\327\230"
  25      6E0606C6 
  25      097ECC0C 
  25      A2D798
  26 0036 80526287 		.ascii	"\200Rb\207\216\262\303\2253\3630\202\344Xx\201\022\023"
  26      8EB2C395 
  26      33F33082 
  26      E4587881 
  26      1213
  27 0048 FC3EB0B1 		.ascii	"\374>\260\2610\010lg\004\262E\376LfCW\304\312 x\210"
  27      30086C67 
  27      04B245FE 
  27      4C664357 
  27      C4CA2078 
  28 005d 1187010C 		.ascii	"\021\207\001\014\000r-\024A"
  28      00722D14 
  28      41
ARM GAS  /tmp/ccr7exbh.s 			page 2


  29              		.text
  30              		.section	.gnu.lto_.pureconst.497d0cb4557e69f4,"",%progbits
  31 0000 789C6362 		.ascii	"x\234cb`b\340f\200\000V\006+&+f+\026+V+\000\007]\001"
  31      6062E066 
  31      80005606 
  31      2B262B66 
  31      2B162B56 
  32 0019 45       		.ascii	"E"
  33              		.text
  34              		.section	.gnu.lto_chRegFirstThread.497d0cb4557e69f4,"",%progbits
  35 0000 789C8552 		.ascii	"x\234\205RMh\023Q\020\236y\233\264i\202P\274)\222.\212"
  35      4D681351 
  35      109E799B 
  35      B4698250 
  35      BC29922E 
  36 0015 A056B3F6 		.ascii	"\240V\263\366 ^\225\236z\310\301\246\202^,\333uI\026"
  36      205E959E 
  36      7AC8C1A6 
  36      825E2CDB 
  36      754916
  37 0028 BA49D94D 		.ascii	"\272I\331MK\203\207\276\374\034\352\255\024\017\325"
  37      4B8387BE 
  37      FC1CEAAD 
  37      140FD5
  38 0037 12B4546B 		.ascii	"\022\264Tk\253\242GA\021\326\223\026L\244\236\304S\020"
  38      ABA24741 
  38      11D69316 
  38      4CA49EC4 
  38      5310
  39 0049 3C54BC88 		.ascii	"<T\274\210\027)B\234\267\177&A\332Mv\337\354\233\231"
  39      1729429C 
  39      B77F2641 
  39      DA4D76DF 
  39      EC9B99
  40 005c EFFB76BE 		.ascii	"\357\373v\276\307\200A\357u\204\356\033\022\300;ZQ\002"
  40      C78041EF 
  40      7584EE1B 
  40      12C03B5A 
  40      5102
  41 006e 644B4D80 		.ascii	"dKM\200r\214!\212\000\020\026\030.\\GQ\212\307a\215"
  41      728C218A 
  41      00101618 
  41      2E5C4751 
  41      8AC7618D 
  42 0082 F3E5D6B7 		.ascii	"\363\345\326\267\365]\274\313\235\332\003\376\247\335"
  42      F55DBCCB 
  42      9DDA03FE 
  42      A7DD
  43 0090 46349060 		.ascii	"F4\220`O h\010\327\350\005ewa\221n\236\027\314i\265"
  43      4F206808 
  43      D7E80565 
  43      7761916E 
  43      9E17CC69 
  44 00a5 DB3F7636 		.ascii	"\333?v6\277n\341\341\270\004*\256\021^\004\014\224\242"
  44      BF6EE1E1 
  44      B8042AAE 
  44      115E040C 
ARM GAS  /tmp/ccr7exbh.s 			page 3


  44      94A2
  45 00b7 E2412551 		.ascii	"\342A%Q\250q\276${\031\020xtM\320S(\271\212L\254\322"
  45      A871BE24 
  45      7B191078 
  45      744DD053 
  45      28B98A4C 
  46 00cd 36546200 		.ascii	"6Tb\000\276\222\372V\343-.W\371{^sH\312\220\201\021"
  46      BE92FA56 
  46      E32D2E57 
  46      F97B5E73 
  46      48CA9081 
  47 00e2 263AF697 		.ascii	"&:\366\227\"\366\"2\005M\250\374|U\3358\352\023\007"
  47      22F62232 
  47      054DA8FC 
  47      7C55DD38 
  47      EA1307
  48 00f5 0A9CD79F 		.ascii	"\012\234\327\237V\245S*>te\370{\277\356\374N\034\013"
  48      56A5532A 
  48      3E7465F8 
  48      7BBFEEFC 
  48      4E1C0B
  49 0108 DFB63FD0 		.ascii	"\337\266?\320$U\\\307(q\011>F\267\344\016\211~\317("
  49      24555CC7 
  49      2871093E 
  49      46B7E40E 
  49      897ECF28 
  50 011c A4BCE48D 		.ascii	"\244\274\344\215;\011o\260\316W.\031T\334\311\376/\357"
  50      3B096FB0 
  50      CE572E19 
  50      54DCC9FE 
  50      2FEF
  51 012e F8F93E4F 		.ascii	"\370\371>O_\003*_>o\214x\360Y\224\206\341\011\247\353"
  51      5F032A5F 
  51      3E6F8C78 
  51      F0599486 
  51      E109A7EB 
  52 0142 0A0DDA0F 		.ascii	"\012\015\332\017/\030\330\277\012\367\312\234\017\032"
  52      2F18D8BF 
  52      0AF7CA9C 
  52      0F1A
  53 0150 18BB057B 		.ascii	"\030\273\005{|QD\003&\006\014\003.\322\024\202\277\372"
  53      7C514403 
  53      26060C03 
  53      2ED21482 
  53      BFFA
  54 0162 01D0F89C 		.ascii	"\001\320\370\234>\017\331\233sV\310\026\214+\217O\007"
  54      3E0FD99B 
  54      7356C816 
  54      8C2B8F4F 
  54      07
  55 0173 8C916138 		.ascii	"\214\221a8c`\234\030\010)A\025\0021@\012\216P\003\252"
  55      63609C18 
  55      08294115 
  55      0231400A 
  55      8E5003AA 
  56 0187 8BD57CD0 		.ascii	"\213\325|\320\022\245.Q\025G\357\003\306\274\204\257"
  56      12A52E51 
ARM GAS  /tmp/ccr7exbh.s 			page 4


  56      1547EF03 
  56      C6BC84AF 
  57 0197 3771005A 		.ascii	"7q\000ZV\214\246\333\331\335f\257\263*>r\307|\240\265"
  57      568CA6DB 
  57      D9DD66AF 
  57      B32A3E72 
  57      C77CA0B5 
  58 01ab B09FB5DF 		.ascii	"\260\237\265\337\353\302\332\227\335\326\336?\224\014"
  58      EBC2DA97 
  58      DDD6DE3F 
  58      940C
  59 01b9 8F5FB87D 		.ascii	"\217_\270}\373c\207\307.\250\346\206\2756\253\370\224"
  59      FB6387C7 
  59      2EA8E686 
  59      BD36ABF8 
  59      94
  60 01ca 829039B0 		.ascii	"\202\2209\260U\305\347\230\364T\355@\271\265\251\207"
  60      55C5E798 
  60      F454ED40 
  60      B9B5A987 
  61 01da 7E7A9B13 		.ascii	"~z\233\023\344\011\035hQ+\247R\212\367/\330\212UTlK"
  61      E4091D68 
  61      512BA752 
  61      8AF72FD8 
  61      8A55546C 
  62 01ef 53B49CA5 		.ascii	"S\264\234\245g\015\273h\225R\032\260\342\314\271\316"
  62      670DBB68 
  62      95521AB0 
  62      E2CCB9CE 
  63 01ff 1AAD609A 		.ascii	"\032\255`\232\205\2742S\260\212\266ry<=\232\236\247"
  63      85BC3253 
  63      B08AB672 
  63      793C3D9A 
  63      9EA7
  64 0211 06AD60E9 		.ascii	"\006\255`\351\223s\027\315T\016\242s\352\364\254>\362"
  64      937317CD 
  64      540EA273 
  64      EAF4AC3E 
  64      F2
  65 0222 9F1E7DBE 		.ascii	"\237\036}\276\250\214\2463c\031\305\310k\323\2637uE"
  65      A88CA633 
  65      6319C5C8 
  65      6BD3B337 
  65      7545
  66 0234 336DC39E 		.ascii	"3m\303\236\314j\032\365\015\365(\011krv\311\246\374"
  66      CC6A1AF5 
  66      0DF52809 
  66      6B7276C9 
  66      A6FC
  67 0246 603A332E 		.ascii	"`:3.O\251\266>c\031g\345\223\347\201Y\320o\352f\301"
  67      4FA9B63E 
  67      631967E5 
  67      93E78159 
  67      D06FEA66 
  68 025b 2AC15F2F 		.ascii	"*\301_/\216\377@"
  68      8EFF40
  69              		.text
ARM GAS  /tmp/ccr7exbh.s 			page 5


  70              		.section	.gnu.lto_chRegNextThread.497d0cb4557e69f4,"",%progbits
  71 0000 789C8553 		.ascii	"x\234\205SKHTQ\030\376\377s\357<R\013i\031\242C\021"
  71      4B485451 
  71      18FEFF73 
  71      EF3C520B 
  71      6919A243 
  72 0015 44963769 		.ascii	"D\2267i!\355\012W.f\243\011\265\222\353\3612^\360:r"
  72      21ED0A57 
  72      2E66A309 
  72      B592EBF1 
  72      325EF03A 
  73 002a EF289A0B 		.ascii	"\357(\232\013\217\316,\2146\"-2\021\223\036\320ShQ\213"
  73      8FCE2C8C 
  73      36222D32 
  73      11931ED0 
  73      5368518B 
  74 003e A066A085 		.ascii	"\240f\240\205B\332cS\266\032B)K\212VI\004\323\177\356"
  74      42DA6353 
  74      B61A4229 
  74      4B8A5649 
  74      04D37FEE 
  75 0052 CB71883C 		.ascii	"\313q\210<3\367\236\307\377\372\376\357|\227\001\203"
  75      33F79EC7 
  75      FFFAFEEF 
  75      7C970183 
  76 0062 CA719A9E 		.ascii	"\312q\232\236\357\012\300\022\315\030\001dS\253\000"
  76      EF0AC012 
  76      CD180164 
  76      53AB00
  77 0071 E371C6D4 		.ascii	"\343q\306\324<\202\250R\336\274\002\0205\012\252\336"
  77      3C82A852 
  77      DEBC0210 
  77      350AAADE 
  78 0081 B98A2817 		.ascii	"\271\212(\027\2000\306\024\025\307.\242L\202\207aA\210"
  78      8030C614 
  78      15C72EA2 
  78      4C828761 
  78      4188
  79 0093 E9E2C6E2 		.ascii	"\351\342\306\342&\316\210|\356\206\370S*!\232H\005\217"
  79      26CE887C 
  79      EE86F853 
  79      2A219A48 
  79      058F
  80 00a5 2070840B 		.ascii	" p\204\013\264\301\204;1u7\202E\226/\226J[\357\327?"
  80      B4C1843B 
  80      31753782 
  80      45962F96 
  80      4A5BEFD7 
  81 00ba 6DE1C103 		.ascii	"m\341\301\003\010:.P\276\010Z\010Q\177\023\003\023\225"
  81      083A2E50 
  81      BE085A08 
  81      517F1303 
  81      1395
  82 00cc B87C917F 		.ascii	"\270|\221\177\004rBL%<\213\205\004\200\273 \316\323"
  82      0472424C 
  82      253C8B85 
  82      0480BB20 
ARM GAS  /tmp/ccr7exbh.s 			page 6


  82      CED3
  83 00de 5B62EB44 		.ascii	"[b\353D&ge\031&\342\000>\262\371\273+\005\234\316\212"
  83      26676519 
  83      26E2003E 
  83      B2F9BB2B 
  83      059CCE8A 
  84 00f2 2591CB13 		.ascii	"%\221\313\023\264\006\023UF\236{@\223gj\202\026\253"
  84      B4061355 
  84      469E7B40 
  84      93676A82 
  84      16AB
  85 0104 30F1F359 		.ascii	"0\361\363Y\366\316!\277v\000\"\377\342\335\254rL\307"
  85      F6CE21BF 
  85      760022FF 
  85      E2DDAC72 
  85      4CC7
  86 0116 5B84243C 		.ascii	"[\204$<\373uu\273\272.\334-\257\023\347:\336$n9\312"
  86      FB7575BB 
  86      BA2EDC2D 
  86      AF13E73A 
  86      DE246E39 
  87 012b 7A8C1EC5 		.ascii	"z\214\036\305%\215~\017iIv\305\273\230zx\216s\342\332"
  87      258D7E0F 
  87      694976C5 
  87      BB987A78 
  87      8E73E2DA 
  88 013f 59939CCB 		.ascii	"Y\223\234\313\253\357\330\013\276=\352\341[\201\211"
  88      ABEFD80B 
  88      BE3DEAE1 
  88      5B8189
  89 014e 8F1F1E9F 		.ascii	"\217\037\036\237\361\322\2470\332\010\367\004\215\026"
  89      F1D2A730 
  89      DA08F704 
  89      8D16
  90 015c 227E16AE 		.ascii	"\"~\026\256Sx,\205\021\231\306s\357\306\2401\342&\037"
  90      53782C85 
  90      1199C673 
  90      EFC6A031 
  90      E2261F
  91 016f F3C23C1E 		.ascii	"\363\302<\036S2\345\022\274\374\\\230\271\242\204\371"
  91      5332E512 
  91      BCFC5C98 
  91      B9A284F9 
  92 017f 46E1B798 		.ascii	"F\341\267\230\024b\320\304\270\237z\324\304}\026\262"
  92      1462D0C4 
  92      B89F7AD4 
  92      C47D16B2 
  93 018f 6E0C53ED 		.ascii	"n\014S\355\214Nj\206\344\242HT\333O\012\030\244\211"
  93      8C4E6A86 
  93      E4A24854 
  93      DB4F0A18 
  93      A489
  94 01a1 35C27113 		.ascii	"5\302q\023\253BD\321rD\201\"W ;\231\275\024\204\304"
  94      AB4244D1 
  94      72448122 
  94      57203B99 
  94      BD1484C4 
ARM GAS  /tmp/ccr7exbh.s 			page 7


  95 01b5 294A7A55 		.ascii	")JzU\241\327e\233g\360A4\357\221\215\342\003Dj\231\024"
  95      A1D7659B 
  95      67F04134 
  95      EF918DE2 
  95      03446A99 
  96 01ca 824ED1ED 		.ascii	"\202N\321\355\277L\033\233\253\225\332\320\361\266{"
  96      BF4C1B9B 
  96      AB95DAD0 
  96      F1B67B
  97 01d9 517B8A03 		.ascii	"Q{\212\003\376'\216\257sR\034Ow\213c~\177}\250\341\360"
  97      FE278EAF 
  97      73521C4F 
  97      778B637E 
  97      7F7DA8E1 
  98 01ee F8F28F32 		.ascii	"\370\362\2172\225\270I\271\273\254\024\212\216\367i"
  98      95B849B9 
  98      BBAC148A 
  98      8EF769
  99 01fd 11560E84 		.ascii	"\021V\016\204\241\343#\254\367P\275\206\\\361\313\206"
  99      A1E323AC 
  99      F750BD86 
  99      5CF1CB86 
 100 020d 7FB700DE 		.ascii	"\177\267\000\336\015\326\232X\315}\321\220\"L\254\001"
 100      0DD69A58 
 100      CD7DD190 
 100      224CAC01 
 101 021d 780BE3C5 		.ascii	"x\013\343\305oF@\270\313\340\032\240O&\333Z\353!j\225"
 101      6F4640B8 
 101      CBE01AA0 
 101      4F26DB5A 
 101      EB216A95 
 102 0231 076B75F2 		.ascii	"\007ku\362\303B\311\242\254\224hj\322\274\177\332\321"
 102      C342C9A2 
 102      AC94686A 
 102      D2BC7FDA 
 102      D1
 103 0242 EC8CE6D8 		.ascii	"\354\214\346\330\\\343\275\266\2212\235\214=\322\304"
 103      5CE3BDB6 
 103      91329D8C 
 103      3DD2C4
 104 0251 41E9CF0C 		.ascii	"A\351\317\014\234,w\342i\313J\367k\003i;\343h\347\332"
 104      9C2C77E2 
 104      69CB4AF7 
 104      6B03693B 
 104      E368E7DA 
 105 0265 93ADC961 		.ascii	"\223\255\311a\212\340i\333\350\032j\261\232z!2\244\367"
 105      8AE069DB 
 105      E81A6AB1 
 105      9A7A2132 
 105      A4F7
 106 0277 0D1ACDFF 		.ascii	"\015\032\315\377\2101\2063Zk\262\243\255C3\373y\337"
 106      88318633 
 106      5A6BB2A3 
 106      AD4333FB 
 106      79DF
 107 0289 608FA171 		.ascii	"`\217\241q\3131\235\256\024\347\024\327P\001%\364\351"
 107      CB319DAE 
ARM GAS  /tmp/ccr7exbh.s 			page 8


 107      14E714D7 
 107      500125F4 
 107      E9
 108 029a 75461CB2 		.ascii	"uF\034\262\327&;\332\023\335\272c\014\330\346\211\304"
 108      D7263BDA 
 108      13DDBA63 
 108      0CD8E689 
 108      C4
 109 02ab D153C06C 		.ascii	"\321S\300l\210Y\206\225\266G\340/7\261&\207"
 109      88598695 
 109      B647E02F 
 109      37B12687 
 110              		.text
 111              		.section	.gnu.lto_chRegFindThreadByName.497d0cb4557e69f4,"",%progbits
 112 0000 789C8D54 		.ascii	"x\234\215T]H\024Q\024>\347\316\356\354\352\256f\365"
 112      5D481451 
 112      143EE7CE 
 112      EEECEAAE 
 112      66F5
 113 0012 5261B6F4 		.ascii	"Ra\266\364\003\375:\371\020\275\026=\005\371P&\324S"
 113      03FD3AF9 
 113      10BD163D 
 113      05F95026 
 113      D453
 114 0024 8CD3320E 		.ascii	"\214\3232\0168\256\314l\242\024t]\015\352%\244z\260"
 114      38AECC6C 
 114      A214745D 
 114      0DEA25A4 
 114      7AB0
 115 0036 3234FA23 		.ascii	"24\372#3\214\336\312\2405\202Tr\245\236*z\220\"\304"
 115      338CDECA 
 115      A0358254 
 115      72A59E2A 
 115      7A9022C4 
 116 004a F041F1A1 		.ascii	"\360A\361\241\210\310\316\235;;\256R\331\335\235\271"
 116      88C8CE9D 
 116      3B3BAE52 
 116      D9DD9DB9 
 117 005a 3FE79CEF 		.ascii	"?\347\234\357|\347g.\003\006K\307!z\332\302\00034c\004"
 117      7CE7672E 
 117      03064BC7 
 117      217ADAC2 
 117      00333463 
 118 006f 9075E6E8 		.ascii	"\220u\346\350 \312P\221\013\205\205_(\300\213C\271Q"
 118      20CA5091 
 118      0B85855F 
 118      28C08B43 
 118      B951
 119 0081 001E0F31 		.ascii	"\000\036\0171\325[\024{\247qU\252a\030Q\314\200p\226"
 119      D55B147B 
 119      A77155AA 
 119      611851CC 
 119      807096
 120 0094 2921358C 		.ascii	")!5\214g\217\243@\307\215p\223\363K\023_>M\341U\236"
 120      678FA340 
 120      C78D7093 
 120      F34B135F 
ARM GAS  /tmp/ccr7exbh.s 			page 9


 120      3E4DE155 
 121 00a9 EDE8E53F 		.ascii	"\355\350\345?\347\347\021-$&\233\020\014\204c\264\301"
 121      E7E7112D 
 121      24269B10 
 121      0C8463B4 
 121      C1
 122 00ba 8437B1D0 		.ascii	"\2047\261\320bj\003,;1?\337?\333\377\271\007W\257B\320"
 122      626A032C 
 122      3B313FDF 
 122      3FDBFFB9 
 122      0757AF42 
 123 00cf F126E131 		.ascii	"\361&\3411 \353\010\275\224(\332\010E\264\012\305|Y"
 123      20EB08BD 
 123      9428DA08 
 123      45B40AC5 
 123      7C59
 124 00e1 DC9F4BE8 		.ascii	"\334\237K\3500\\*^\004\023\206\016\316;\023R\002\302"
 124      305C2A5E 
 124      0413860E 
 124      CE3B1352 
 124      02C2
 125 00f3 278DA3F4 		.ascii	"'\215\243\364\236Q\241\026\031M\312\010d\242\000>\327"
 125      9E51A116 
 125      194DCA08 
 125      64A2003E 
 125      D7
 126 0104 9EFB6343 		.ascii	"\236\373cCx\251\235\017\363\216,\221\335`\241\312Hq"
 126      78A99D0F 
 126      F38E2C91 
 126      DD60A1CA 
 126      4871
 127 0116 19B2E24C 		.ascii	"\031\262\342LM\320\"\007\231\331\301\366\273\353|\267"
 127      4DD02207 
 127      99D9C1F6 
 127      BBEB7CB7 
 128 0126 79FFD9E7 		.ascii	"y\377\331\347o\257+[u\274\355\221\360\317\276]\371\036"
 128      6FAF2B5B 
 128      75BCED91 
 128      F0CFBE5D 
 128      F91E
 129 0138 2B0F7623 		.ascii	"+\017v#\257Y\300Vr\311\366\214^\\\313{3\235\374\027"
 129      AF59C056 
 129      72C9F68C 
 129      5E5CCB7B 
 129      339DFC17 
 130 014c 31F1B2F6 		.ascii	"1\361\262\366\020\227c\222\307\340\203\335\021\240\204"
 130      10976392 
 130      C7E083DD 
 130      11A084
 131 015b DCA22C18 		.ascii	"\334\242,\030\350EmP\270\006*\364x6H\277G\264%\267\212"
 131      E8456D50 
 131      B8062AF4 
 131      783648BF 
 131      47B425B7 
 132 0170 6C8D0A18 		.ascii	"l\215\012\030\302\033\274k\237E\255P\030\324\202\374"
 132      C21BBC6B 
 132      9F45AD50 
ARM GAS  /tmp/ccr7exbh.s 			page 10


 132      18D482FC 
 133 0180 A52F8F4A 		.ascii	"\245/\217JWc\220\371\360\356n\225\216}\344\305\304\370"
 133      576390F9 
 133      F0EE6E95 
 133      8E7DE4C5 
 133      C4F8
 134 0192 0EE8E334 		.ascii	"\016\350\3434\016\023W\177\271\307\302\242\353p\255"
 134      0E13577F 
 134      B9C7C2A2 
 134      EB70AD
 135 01a1 8DF3320B 		.ascii	"\215\3632\013\213O\303\017~^\254b\266GIx\210yHub\253"
 135      8B4FC30F 
 135      7E5EAC62 
 135      B6474978 
 135      88794875 
 136 01b7 E34351B3 		.ascii	"\343CQ\263:!\363\327\000T\235\254*=\350\370\200\362"
 136      3A21F3D7 
 136      00549DAC 
 136      2A3DE8F8 
 136      80F2
 137 01c9 477EA4E7 		.ascii	"G~\244\347\256{\333\362\236Kv\300v\013\343\201\247\022"
 137      AE7BDBF2 
 137      9E4B76C0 
 137      760BE381 
 137      A712
 138 01db 5212E0E0 		.ascii	"R\022\340\340\203\263\002\3001h?\337\336\230\267,%c"
 138      83B302C0 
 138      31683FDF 
 138      DE98B72C 
 138      2563
 139 01ed A1194719 		.ascii	"\241\031G\031\317A)\360\351\307\376\017\224`<\242\005"
 139      CF4129F0 
 139      E9C7FE0F 
 139      94603CA2 
 139      05
 140 01fe 6D34955B 		.ascii	"m4\225[\332F:\336\361\012\260l\037\301\277\372\350\353"
 140      DA463ADE 
 140      F10AB06C 
 140      1FC1BFFA 
 140      E8EB
 141 0210 0DD14783 		.ascii	"\015\321G\203\213\373\250\247\244\"\350\235\340\370"
 141      8BFBA8A7 
 141      A422E89D 
 141      E0F8
 142 021e C2B847B0 		.ascii	"\302\270G\260\317k\200\260l\000\365\017\305\327q\200"
 142      CF6B80B0 
 142      6C00F50F 
 142      C5D77180 
 143 022e 1681E77C 		.ascii	"\026\201\347|\261u|\214\025\222\025E6qq\022e3\345\277"
 143      B1757C8C 
 143      15921545 
 143      36717112 
 143      6533E5BF 
 144 0242 24396AC9 		.ascii	"$9j\311\224\276}\377\033\2222S\324\217R\371\364\334"
 144      94BE7DFF 
 144      1B923253 
 144      D48F52F9 
ARM GAS  /tmp/ccr7exbh.s 			page 11


 144      F4DC
 145 0254 40F77A91 		.ascii	"@\367z\221\234\010\245\220\340\025\022x\371[\263\000"
 145      9C08A590 
 145      E0151278 
 145      F95BB300 
 146 0264 DB351991 		.ascii	"\3335\031\221\26062\317nQ\026\237\344>>\306\313\205"
 146      B03632CF 
 146      6E51169F 
 146      E43E3EC6 
 146      CB85
 147 0276 592417FD 		.ascii	"Y$\027\375\313f\321\026\245\031\207s3\231\2713\022\335"
 147      CB66D116 
 147      A5198773 
 147      3399B933 
 147      12DD
 148 0288 C4A2A0F7 		.ascii	"\304\242\240\367J\015\331\336\202\230\211Q\013W\000"
 148      4A0DD9DE 
 148      82988951 
 148      0B5700
 149 0297 0CC3CBC9 		.ascii	"\014\303\313\311\266\252@W\200\026`\276\007\244\322"
 149      B6AA4057 
 149      801660BE 
 149      07A4D2
 150 02a6 B3E9D972 		.ascii	"\263\351\331r\023c\352\263\271\223\"\356\020\320U\250"
 150      1363EAB3 
 150      B99322EE 
 150      10D055A8 
 151 02b6 8C43286F 		.ascii	"\214C(o\025\013<\224\031\376\007b\212\313n\245\010\212"
 151      150B3C94 
 151      19FE0762 
 151      8ACB6EA5 
 151      088A
 152 02c8 1526CF14 		.ascii	"\025&\317\024M?\014\035\323COr\030\230/\264\226?\216"
 152      4D3F0C1D 
 152      D3434F72 
 152      18982FB4 
 152      963F8E
 153 02db 52417A5F 		.ascii	"RAz_\001\326\222\234\256\2517t\037\013H&)\211t)\335"
 153      01D6929C 
 153      AEA93774 
 153      1F0B4826 
 153      29897429 
 154 02f0 73E5BE59 		.ascii	"s\345\276Yhz..L\220T\205F\242\262R\223\377\224\2539"
 154      687A2E2E 
 154      4C905485 
 154      46A2B252 
 154      93FF94AB 
 155 0305 69CD750C 		.ascii	"i\315u\014\315\250w\222\246\345\246\235\326J\003\024"
 155      CDA87792 
 155      A6E5A69D 
 155      D64A0314 
 156 0315 23DDB4AB 		.ascii	"#\335\264\253P\311H\331v\252QkJ9iW\333\177\244\372@"
 156      50C948D9 
 156      76AA516B 
 156      4A396957 
 156      DB7FA4FA 
 157 032a 750B5918 		.ascii	"u\013Y\030)'y\242y\257]Y\017\341f\275\341T\262\352\017"
ARM GAS  /tmp/ccr7exbh.s 			page 12


 157      292779A2 
 157      79AF5D59 
 157      0FE166BD 
 157      E154B2EA 
 158 033f 36C996B4 		.ascii	"6\311\226\264v\240\272\346`\215f5\032\015\247N&5\303"
 158      76A0BAE6 
 158      608D6635 
 158      1A0DA74E 
 158      2635C3
 159 0352 762DF784 		.ascii	"v-\367\204i\030d\267a\011\225@\247\336muI\316\322Me"
 159      691864B7 
 159      61099540 
 159      A7DE6D75 
 159      49CED24D 
 160 0367 D5354712 		.ascii	"\3255G\022u\272\233lr\254\235\211-\273\2019\020\261"
 160      75BA9B6C 
 160      72AC9D89 
 160      2DBB8139 
 160      10B1
 161 0379 9376CA69 		.ascii	"\223v\312i\205\315\1775\017\242\251\207\337\202r\217"
 161      85CD7F35 
 161      0FA2A987 
 161      DF82728F 
 162 0389 EE       		.ascii	"\356"
 163              		.text
 164              		.section	.gnu.lto_chRegFindThreadByPointer.497d0cb4557e69f4,"",%progbits
 165 0000 789C8D54 		.ascii	"x\234\215TMHTQ\024>\347\2767o\234\037AhU\210\015EPY"
 165      4D485451 
 165      143EE7BE 
 165      376F9C1F 
 165      41685588 
 166 0018 BE5C44DB 		.ascii	"\276\\D\333\244\225\220\213R\241V\361|\015\317\007\216"
 166      A495908B 
 166      52A156F1 
 166      7C0DCF07 
 166      8E
 167 0029 23EF4DA2 		.ascii	"#\357M\242\264\360:3\213\332\224H\220\375\330\030\375"
 167      B4F03A33 
 167      8BDA9448 
 167      90FDD818 
 167      FD
 168 003a 1B61B46D 		.ascii	"\033a\264m\321\030EZ\376P\253\222\026B\0131\204jeVd"
 168      D118455A 
 168      FE50AB92 
 168      16420B31 
 168      846A6556 
 169 004f E7BEFBE6 		.ascii	"\347\276\373\3469\211dw~\356\271\367\234\357\234\357"
 169      39896477 
 169      7EEEB9F7 
 169      9CEF9CEF 
 170 005f DEFBDDCB 		.ascii	"\336\373\335\313\200\301\372v\224~\257T\2007\324c\030"
 170      80C1FA76 
 170      947EAF54 
 170      8037D463 
 170      18
 171 0070 900DCC00 		.ascii	"\220\015\314\000\364W0T\244\241\260\320s\005xT\235y"
 171      F4573054 
ARM GAS  /tmp/ccr7exbh.s 			page 13


 171      A4A1B0D0 
 171      73057854 
 171      9D79
 172 0082 0DC0E32A 		.ascii	"\015\300\343*\323<#\352\315\3065\031\326\020B\024= "
 172      D33C23EA 
 172      CDC63519 
 172      D6104214 
 172      3D20
 173 0094 F43145D5 		.ascii	"\3641E\325B\330w\022Ev\334\00179\037\234\177\371e\021"
 173      42D87712 
 173      4576DC01 
 173      37391F9C 
 173      7FF96511 
 174 00a8 AFF0627E 		.ascii	"\257\360b~\204\377Z]E\264\221\230\354D0\021N\320\000"
 174      84FF5A5D 
 174      45B49198 
 174      EC443011 
 174      4ED000
 175 00bb 135EC7D4 		.ascii	"\023^\307\324\277\251\215\261\342\374\352\352\307\345"
 175      BFA98DB1 
 175      E2FCEAEA 
 175      C7E5
 176 00c9 FB9FE670 		.ascii	"\373\237\346pK\025\202\2017)\037\003B\2071\205\020\361"
 176      4B158281 
 176      37291F03 
 176      42873185 
 176      10F1
 177 00db 67A27E1F 		.ascii	"g\242~\037#\217\022\027\177\004\016A\236\363\201\204"
 177      238F1217 
 177      7F040E41 
 177      9EF38184 
 178 00eb F480A844 		.ascii	"\364\200\250D\255\205\376\277j\320\212\214:e\022\262"
 178      AD85FEBF 
 178      6AD08A8C 
 178      3A6512B2 
 179 00fb 15003EC3 		.ascii	"\025\000>\303\302\203\351q\034\314\361\011\236/\022"
 179      C283E971 
 179      1CCCF109 
 179      9E2F12
 180 010a C5ED36AA 		.ascii	"\305\3556\252\214\0027\241(\346\324\004\0313\220\375"
 180      8C0237A1 
 180      28E6D404 
 180      193390FD 
 181 011a F6347777 		.ascii	"\3664ww\233_\266T\277\370\354\3355e\267\201\267=\022"
 181      9B5FB654 
 181      BFF8ECDD 
 181      3565B781 
 181      B73D12
 182 012d FEDCF2A5 		.ascii	"\376\334\362\245\357\261\352`49\305\002\266\222K\261"
 182      EFB1EA60 
 182      3439C502 
 182      B6924BB1 
 183 013d F0FAC256 		.ascii	"\360\372\302V>\222\035\340\277\211\211\267W\217p3&\245"
 183      3E921DE0 
 183      BF8989B7 
 183      578F7033 
 183      26A5
ARM GAS  /tmp/ccr7exbh.s 			page 14


 184 014f 1CFCDE8D 		.ascii	"\034\374\336\2150\320\206\334\302\020!\274U\233\264"
 184      30D086DC 
 184      C21021BC 
 184      559BB4
 185 015e 5C9336C5 		.ascii	"\\\2236\305D\017\203\364yLC*\253HA\324\3008\016\363"
 185      440F83F4 
 185      794C432A 
 185      AB4841D4 
 185      C0380EF3 
 186 0172 A1C33661 		.ascii	"\241\3036a\312\027\265\346\177\341\3735Yj\032\262s\357"
 186      CA17B5E6 
 186      7FE1FB35 
 186      596A1AB2 
 186      73EF
 187 0184 EFD61B38 		.ascii	"\357\326\0338J\010\013\243\2650\312\251\035#\256\276"
 187      4A080BA3 
 187      B530CAA9 
 187      1D23AEBE 
 188 0194 79D0C6F0 		.ascii	"y\320\306\3605\270\332\317y\225\215\025g\341\007?'\254"
 188      35B8DACF 
 188      79958D15 
 188      67E1073F 
 188      27AC
 189 01a6 48CAA324 		.ascii	"H\312\243$*D\274Lmbh\340#Q\271M\370|\033\200N\247\250"
 189      2A44BC4C 
 189      6D6268E0 
 189      2351B94D 
 189      F87C1B80 
 190 01bd C90A063E 		.ascii	"\311\012\006>\244\375\243:\262\362\320\275=\245\312"
 190      A4FDA33A 
 190      B2F2D0BD 
 190      3DA5CA
 191 01cc B15AD86B 		.ascii	"\261Z\330kc4\250\024\243 \221\034\374\344\254,\3414"
 191      6334A814 
 191      A320911C 
 191      FCE4AC2C 
 191      E134
 192 01de E4CEE53A 		.ascii	"\344\316\345:K\3108\201Ed\024\345z\032\245\303\247\037"
 192      4BC83881 
 192      456414E5 
 192      7A1AA5C3 
 192      A71F
 193 01f0 FBBFA494 		.ascii	"\373\277\244\224\306#Z&\243\305\231\36522\360\216w\000"
 193      C6235A26 
 193      A3C599F5 
 193      3232F08E 
 193      7700
 194 0202 9BEA08FE 		.ascii	"\233\352\010\376\245\243\317\303BGO\377\326Q\241\262"
 194      A5A3CFC3 
 194      42474FFF 
 194      D651A1B2 
 195 0212 26D04E30 		.ascii	"&\320N0}~\326#8\352\011 $\005\240mp\370\006\216\221"
 195      7D7ED623 
 195      38EA0920 
 195      2405A06D 
 195      70F8068E 
 196 0227 11542E1D 		.ascii	"\021T.\035\266\201O\260F\262\242\225\315O.\240\024S"
ARM GAS  /tmp/ccr7exbh.s 			page 15


 196      B6814FB0 
 196      46B2A295 
 196      CD4F2EA0 
 196      1453
 197 0239 E926C9D6 		.ascii	"\351&\311\326JP\272\361\376\035\222>K\234\337\004\274"
 197      4A50BAF1 
 197      FE1D923E 
 197      4B9CDF04 
 197      BC
 198 024a 5818BF7C 		.ascii	"X\030\277|1.A4e\321\253\342\267\017@\243(\273\276Rm"
 198      312E4134 
 198      65D1ABE2 
 198      B70F40A3 
 198      28BBBE52 
 199 025f 61445B5A 		.ascii	"aD[Z9-\362\250@\017\2122\013j\011\021\011\324\0227}"
 199      392DF2A8 
 199      400F8A32 
 199      0B6A0911 
 199      09D41237 
 200 0274 AC259E8C 		.ascii	"\254%\236\214JA\210\225\223\261\204\210& \2774^\230"
 200      4A418895 
 200      93B18488 
 200      2620BF34 
 200      5E98
 201 0286 C500BE76 		.ascii	"\305\000\276vT~k\241\345\217\274\002l%?]\373\267\364"
 201      547E6BA1 
 201      E58FBC02 
 201      6C253F5D 
 201      FBB7F4
 202 0299 AA89944C 		.ascii	"\252\211\224LRb\224\\\231Z\251\366a\352\365\237q\001"
 202      5262945C 
 202      995AA9F6 
 202      61EAF59F 
 202      7101
 203 02ab 410A1511 		.ascii	"A\012\025\021\211\272:]~\323\256\356dt\3271u\263\335"
 203      89BA3A5D 
 203      7ED3AEEE 
 203      6474D731 
 203      75B3DD
 204 02be 495AB69B 		.ascii	"IZ\266\233qz\353LP\314L\327\376\362 3\235J\245;\365"
 204      717AEB4C 
 204      50CC4CD7 
 204      FEF22033 
 204      9D4AA53B 
 205 02d3 AEB49371 		.ascii	"\256\264\223q\365\206\343MG\232z\010a\246\235\344\251"
 205      F586E34D 
 205      479A7A08 
 205      61A69DE4 
 205      A9
 206 02e4 EE43A9BA 		.ascii	"\356C\251\272v\010u\033\035g\222\365\033`\222=\031\375"
 206      7608751B 
 206      1D6792F5 
 206      1B60923D 
 206      19FD
 207 02f6 48537363 		.ascii	"HSsc\263nw\232\035gN'u3\345\332\356)\3134\011\267}\035"
 207      B36E779A 
 207      1D674E27 
ARM GAS  /tmp/ccr7exbh.s 			page 16


 207      7533E5DA 
 207      EE29CB34 
 208 030e 9520A6DD 		.ascii	"\225 \246\335\355u\311\3172]UM\315\307\023m\206\233"
 208      ED75C9CF 
 208      325D554D 
 208      CDC7136D 
 208      869B
 209 0320 EC72EC7D 		.ascii	"\354r\354}\211]\007\2009\020N%Si\247\027\376\000\256"
 209      895D0780 
 209      39104E25 
 209      5369A717 
 209      FE00AE
 210 0333 5F5AAA   		.ascii	"_Z\252"
 211              		.text
 212              		.section	.gnu.lto_chRegFindThreadByWorkingArea.497d0cb4557e69f4,"",%progbits
 213 0000 789C8D54 		.ascii	"x\234\215TKh\024A\020\255\352\331\331]\367\343\007\274"
 213      4B681441 
 213      10ADEAD9 
 213      D95DF7E3 
 213      07BC
 214 0012 28495C14 		.ascii	"(I\\\024\301o\306\034\304\253!\247\200\0214\006\364"
 214      C16FC61C 
 214      C4AB21A7 
 214      80113406 
 214      F4
 215 0023 24E364D9 		.ascii	"$\343d\331\0148\3310\263\206\004\017\351\374 ^4\211"
 215      0C38D930 
 215      B386040F 
 215      E9FC205E 
 215      3489
 216 0035 1EFCB2F1 		.ascii	"\036\374\262\361\217QQ\004\017~\300\215\010&!Y\321\223"
 216      8F515104 
 216      0F7EC08D 
 216      08262159 
 216      D193
 217 0047 7A8A8888 		.ascii	"z\212\210\210\022\210\236\024\225\254\325\323\263\223"
 217      12889E14 
 217      95ACD5D3 
 217      B393
 218 0055 4D5063EF 		.ascii	"MPc\357\316tuW\325\253\327U5\315\200\301\302\261\213"
 218      CE747557 
 218      D5ABD755 
 218      35CD80C1 
 218      C2B18B
 219 0068 9EDD2AC0 		.ascii	"\236\335*\300\014\315\030\002d\375y\200\3160CE\012\012"
 219      0CCD1802 
 219      64FD7980 
 219      CE304345 
 219      0A0A
 220 007a 539F2AC0 		.ascii	"S\237*\300#\201\3748\000\217\005X\320\025\"\356n,(\315"
 220      2381FC38 
 220      008F0558 
 220      D01522EE 
 220      6E2C28CD 
 221 008e AA554431 		.ascii	"\252UD1\003B\007S\002A\025;\016\240@\307\265p\221\363"
 221      03420753 
 221      0241153B 
ARM GAS  /tmp/ccr7exbh.s 			page 17


 221      0EA040C7 
 221      B57091F3 
 222 00a2 C1A90FB3 		.ascii	"\301\251\017\263\237\360\014\317\365\014\361_\205\002"
 222      9FF00CCF 
 222      F50CF15F 
 222      8502
 223 00b0 A289C464 		.ascii	"\242\211\304d\035\202\201\260\237\026\230p'\026\230"
 223      1D8281B0 
 223      9F169870 
 223      271698
 224 00bf 4FED0ECB 		.ascii	"O\355\016\313M\025\012\267\012S\357O\340\312\025\010"
 224      4D150AB7 
 224      0A53EF4F 
 224      E0CA1508 
 225 00cf 3A5E243C 		.ascii	":^$<\006\344\035\242\227\022F\013!\342mG\2759F\232@"
 225      06E41DA2 
 225      9712460B 
 225      21E26D47 
 225      BD39469A 
 226 00e4 5CBC0841 		.ascii	"\\\274\010A\205\036\316\373\023R\003\"\034\215}\364"
 226      851ECEFB 
 226      13520322 
 226      1C8D7DF4 
 227 00f4 FE128406 		.ascii	"\376\022\204\006d4)c\320\025\006\360hfoL\216\340`7\037"
 227      64342963 
 227      D01506F0 
 227      68666F4C 
 227      8EE06037 
 228 0109 E53D39E2 		.ascii	"\345=9\342\271\306D\225\221\341\"<\305\236\232 !\017"
 228      B9C64495 
 228      91E1223C 
 228      C59E9A20 
 228      210F
 229 011b 5D5F1F75 		.ascii	"]_\037u_[\355\205-\306\317=yuN\331\240\343\025\227\204"
 229      5F5BED85 
 229      2DC6CF3D 
 229      79754ED9 
 229      A0E31597 
 230 0130 B7F7EDD4 		.ascii	"\267\367\355\324\367h\231\277\032\233`>[\311%\227\035"
 230      F76899BF 
 230      1A9B603E 
 230      5BC92597 
 230      1D
 231 0141 3FBE8A0F 		.ascii	"?\276\212\017u\365\363Yb\342&\3546.\306\244\210\301"
 231      75F5F359 
 231      62E226EC 
 231      362EC6A4 
 231      88C1
 232 0153 7F664340 		.ascii	"\177fC@\011\271\214*y\270\2476\350\270\006*\364\270"
 232      09B98C2A 
 232      79B8A736 
 232      E8B8062A 
 232      F4B8
 233 0165 3E48BFBB 		.ascii	">H\277\273\264\244\260\212\354\212\012\030\301\013\374"
 233      B4A4B08A 
 233      EC8A0A18 
 233      C10BFC
ARM GAS  /tmp/ccr7exbh.s 			page 18


 234 0174 F44E1383 		.ascii	"\364N\023\203\363\0165\247\177\346\351C2\324$t\275}"
 234      F30E35A7 
 234      7FE6E943 
 234      32D42474 
 234      BD7D
 235 0186 7DAD4AC7 		.ascii	"}\255J\307a\212\222\302\350f\030\3464\366\020WO\334"
 235      618A92C2 
 235      E86618E6 
 235      34F61057 
 235      4FDC
 236 0198 6E62F81C 		.ascii	"nb\370\034\234\355\344|\271\211K\216\302\017\336'\244"
 236      9CEDE47C 
 236      B9894B8E 
 236      C20FDE27 
 236      A4
 237 01a9 88E55212 		.ascii	"\210\345R\022\021\".\322!\261\324\3616\341\220\214\276"
 237      11222ED2 
 237      21B1D4F1 
 237      36E1908C 
 237      BE
 238 01ba 0C40D5C9 		.ascii	"\014@\325\311\005e\004\035oR\376(\216\214|\372\372\306"
 238      0565041D 
 238      6F52FE28 
 238      8E8C7CFA 
 238      FAC6
 239 01cc 62E4D866 		.ascii	"b\344\330f\330db\324\217\024##\001\016\0368+\001\234"
 239      D86462D4 
 239      8F142323 
 239      010E1E38 
 239      2B019C
 240 01df 84EEBEEE 		.ascii	"\204\356\276\356\346\242g\234\234\205e\024\345yj\245"
 240      E6A2679C 
 240      9C856514 
 240      E5796AA5 
 241 01ef C2A31FFD 		.ascii	"\302\243\037\375?P\202q\211\226\264\321\247\374\302"
 241      3F508271 
 241      8996B4D1 
 241      A7FCC2
 242 01fe 36D2F1AA 		.ascii	"6\322\361\252[\200E\373\010\376\325G\237/\210>z4\277"
 242      5B8045FB 
 242      08FED547 
 242      9F2F883E 
 242      7A34BF
 243 0211 8FB2F10A 		.ascii	"\217\262\361\012\277w\374\355c/\\\202\303n\003\250\262"
 243      BF77FCED 
 243      632F5C82 
 243      C36E03A8 
 243      B2
 244 0222 01827F28 		.ascii	"\001\202\177(\276\216wH\360#\027\213\255\343=\254\220"
 244      BE8E7748 
 244      F023178B 
 244      ADE33DAC 
 244      90
 245 0233 ACE86453 		.ascii	"\254\350dS\263\037Q6S\361K\222\243\201\\\351\263\367"
 245      B31F5136 
 245      53F14B92 
 245      A3815CE9 
ARM GAS  /tmp/ccr7exbh.s 			page 19


 245      B3F7
 246 0245 BE21A94B 		.ascii	"\276!\251K\211\372Q*\037\366\316d\313ErB\224B\202WH"
 246      89FA512A 
 246      1FF6CE64 
 246      CB457242 
 246      94428257 
 247 025a E1E6AF6C 		.ascii	"\341\346\257l\016\266\357\3062\011k!s\375\346e\361A"
 247      0EB6EFC6 
 247      32096B21 
 247      73FDE665 
 247      F141
 248 026c 7EE23E9E 		.ascii	"~\342>\236,\315\"\205\270\265h\026-Q\232Qx\366\361]"
 248      2CCD2285 
 248      B8B56816 
 248      2D519A51 
 248      78F6F15D 
 249 0280 EFA5A71E 		.ascii	"\357\245\247\036mb\221\302p\321\342\015 \025\223M\027"
 249      6D6291C2 
 249      70D1E20D 
 249      2015934D 
 249      17
 250 0291 CA521809 		.ascii	"\312R\030\011>\036H\212\223\004\200\3565\345\005\004"
 250      3E1E488A 
 250      930480EE 
 250      35E50504 
 251 02a1 8A1E11BF 		.ascii	"\212\036\021\277_\343\206\327\362)qs-\0254Yi:R\242\215"
 251      5FE386D7 
 251      F2297173 
 251      2D153459 
 251      693A52A2 
 252 02b6 47A1677A 		.ascii	"G\241gz\344\314+?`d\256Y\274\261\217\0120\364\034\260"
 252      E4CC2B3F 
 252      6064AE59 
 252      BCB18F0A 
 252      30F41CB0 
 253 02ca 81F474F1 		.ascii	"\201\364t\361\274\244\313U@2II$@9?P\356\271\005\246"
 253      BCA4CB55 
 253      40324949 
 253      2440393F 
 253      50EEB905 
 254 02df 07E2C205 		.ascii	"\007\342\302\005\311TX$*+5\371O;\232\235\321\034\333"
 254      C9545824 
 254      2A2B35F9 
 254      4F3B9A9D 
 254      D11CDB
 255 02f2 D08C263B 		.ascii	"\320\214&;\2312\235\214\335^i\200bdZ\266\226\032\031"
 255      99329D8C 
 255      DD5E6980 
 255      62645AB6 
 255      961A19
 256 0305 69CB4A37 		.ascii	"i\313J7k-i;\343h\325{\353j\352\332\310\303H\333\311"
 256      6B2D693B 
 256      E368D57B 
 256      EB6AEADA 
 256      C8C348DB 
 257 031a 83AD3BAC 		.ascii	"\203\255;\254\312&P[\365\303G\222U\177\360I\266e\264"
 257      CA26505B 
ARM GAS  /tmp/ccr7exbh.s 			page 20


 257      F5C34792 
 257      557FF049 
 257      B665B4
 258 032d 9ABAFADA 		.ascii	"\232\272\372\332z\315l6\016\037iLj\206\345\230\316\301"
 258      7ACD6C36 
 258      0E1F694C 
 258      6A86E598 
 258      CEC1
 259 033f 946190DF 		.ascii	"\224a\220\337\232\005T|\233&\247\335!=\313\264,\257"
 259      9A05547C 
 259      9B26A7DD 
 259      213DCBB4 
 259      2CAF
 260 0351 ABDF9B38 		.ascii	"\253\337\2338\244;\311\026\333\334\222X\277\015\230"
 260      A43BC916 
 260      DBDC9258 
 260      BF0D98
 261 0360 0D212B69 		.ascii	"\015!+i\245\355vX\367W\367\014\235Go\024\020\277\001"
 261      A5ED7658 
 261      F757F70C 
 261      9D476F14 
 261      10BF01
 262 0373 4F708554 		.ascii	"Op\205T"
 263              		.text
 264              		.section	.gnu.lto_.symbol_nodes.497d0cb4557e69f4,"",%progbits
 265 0000 789C4D8C 		.ascii	"x\234M\214=\016Aa\024Dg\346\276\213]X\352\274(\020\225"
 265      3D0E4161 
 265      144467E6 
 265      BE8B5D58 
 265      EABC2810 
 266 0015 15686CC3 		.ascii	"\025hl\303?\241\323k\011\211\304\"\274\027\3027\325"
 266      3FA1D36B 
 266      0989C422 
 266      BC17C237 
 266      D5
 267 0026 39A71841 		.ascii	"9\247\030A\230\343;-i`z\006\354\331\230\271cC\320\212"
 267      98E33B2D 
 267      69607A06 
 267      ECD998B9 
 267      6343D08A 
 268 003a E6BF6A4D 		.ascii	"\346\277jM\253\320\015\035\205n\351\252\270X\220i\360"
 268      ABD00D1D 
 268      856EE9AA 
 268      B8589069 
 268      F0
 269 004b 40E7A7D6 		.ascii	"@\347\247\3265y\244;?\013uq\033\276\372\021=\354O\367"
 269      3579A43B 
 269      3F0B7571 
 269      1BBEFA11 
 269      3DEC4FF7 
 270 005f 67460883 		.ascii	"gF\010\203\311\343\222Q50j!\205k\013x\003\320Y27"
 270      C9E39251 
 270      35306A21 
 270      856B0B78 
 270      03D05932 
 271              		.text
 272              		.section	.gnu.lto_.refs.497d0cb4557e69f4,"",%progbits
ARM GAS  /tmp/ccr7exbh.s 			page 21


 273 0000 789C6362 		.ascii	"x\234cb`b\020e\200\000F bdbbdd\006\322,@\314\012\024"
 273      60621065 
 273      80004620 
 273      62646262 
 273      646406D2 
 274 0019 0200040B 		.ascii	"\002\000\004\013\0004"
 274      0034
 275              		.text
 276              		.section	.gnu.lto_.decls.497d0cb4557e69f4,"",%progbits
 277 0000 789CC55B 		.ascii	"x\234\305[{\224\024\325\231\277U\3253\335\3154\003\301"
 277      7B9414D5 
 277      99BF55D5 
 277      33DDCD34 
 277      03C1
 278 0012 C799ECB2 		.ascii	"\307\231\354\262\313\2305\273\304\023\031L\\\302\356"
 278      CB9835BB 
 278      C413194C 
 278      5CC2EE
 279 0021 39519464 		.ascii	"9Q\224d\305s\242G!\356\346\217\215m\321S\314t\354\327"
 279      C573A247 
 279      21EEE68F 
 279      8D6DD153 
 279      CC74ECD7 
 280 0035 56D7308C 		.ascii	"V\3270\214\373Gj\006\034PA\006\030\336\010\303+\013"
 280      FB476A06 
 280      1C504106 
 280      18DE08C3 
 280      2B0B
 281 0047 9820A006 		.ascii	"\230 \240\006\014 \035#o\345-H\206G\213\200\221\021"
 281      0C201D23 
 281      6FE52D48 
 281      86478B80 
 281      9111
 282 0059 84E00B99 		.ascii	"\204\340\013\2310\373\335\257nuWUWuW\015\331\263u\250"
 282      30FBDDAF 
 282      6E755755 
 282      5775570D 
 282      D9B375A8 
 283 006d 3BF7DEBE 		.ascii	";\367\336\276\367w\277\367}\025<\341IH \244\007\236"
 283      F777BFF7 
 283      7D153CE1 
 283      494820A4 
 283      079E
 284 007f 953F24E4 		.ascii	"\225?$\344\337\375\204\224\023B\356#\371\007\252\310"
 284      DFFD8494 
 284      1342EE23 
 284      F907AAC8 
 285 008f 52781FE7 		.ascii	"Rx\037\347\010\371\031\274O\302;\026\336(\274qxy\370"
 285      08F919BC 
 285      4FC23B16 
 285      DE28BC71 
 285      7879F8
 286 00a2 ED19F8BB 		.ascii	"\355\031\370\273\203#\246\207\366\011\301\273\034\336"
 286      8323A687 
 286      F609C1BB 
 286      1CDE
 287 00b0 4A96A74D 		.ascii	"J\226\247M6\303\373%d\256\301\333\002\357\177\303{\035"
ARM GAS  /tmp/ccr7exbh.s 			page 22


 287      36C3FB25 
 287      64AEC1DB 
 287      02EF7FC3 
 287      7B1D
 288 00c2 5E0EDE15 		.ascii	"^\016\336\025\360\033\220C\232!\377\002\247u(gX\335"
 288      F01B9043 
 288      9A21FF02 
 288      A7752867 
 288      58DD
 289 00d4 B40C8309 		.ascii	"\264\014\203\011\360\206\340\355\307kx\317X\306\245"
 289      F086E0ED 
 289      C76B78CF 
 289      58C6A5
 290 00e3 74F62D31 		.ascii	"t\366-1.\035g\000\257\215O\307\275\005\362\277\340\264"
 290      2E1D6700 
 290      AF8D4FC7 
 290      BD05F2BF 
 290      E0B4
 291 00f5 B14FB3F1 		.ascii	"\261O\263\361i'?\303\263\033;\312\332?\001\177o\345"
 291      69273FC3 
 291      B31B3BCA 
 291      DA3F017F 
 291      6FE5
 292 0107 0BE9A0B2 		.ascii	"\013\351\240\262\032`\241\343,\274>\227r\370\033\300"
 292      1A60A1E3 
 292      2CBC3E97 
 292      72F81BC0 
 293 0117 4C40FE6F 		.ascii	"L@\376o\341\357h\256P.A6\206\223l\250n\036g\375\376"
 293      E1EF68AE 
 293      502E4136 
 293      86936CA8 
 293      6E1E67FD 
 294 012c 93D3E81B 		.ascii	"\223\323\350\033\310\233i\244\272\254\354\205\216\234"
 294      C89B69A4 
 294      BAACEC85 
 294      8E9C
 295 013a 680A304C 		.ascii	"h\0120L'\232\036g\366\362\024W(/jS\375,\264t\375\025"
 295      279A1E67 
 295      F6F21457 
 295      282F6A53 
 295      FD2CB474 
 296 0150 E8195B82 		.ascii	"\350\031[\202\036\332g\034\243\347\357,\362\031D\026"
 296      1EDA671C 
 296      A3E7EF2C 
 296      F2194416 
 297 0160 ABD9CBD9 		.ascii	"\253\331\313\331\355\313\217s\363\325\314$\265\247\347"
 297      EDCB8F73 
 297      F3D5CC24 
 297      B5A7E7
 298 016f 97DCED64 		.ascii	"\227\334\355d\266\012OG\253\252rJ\005y^U[ha\324\256"
 298      B60A4F47 
 298      ABAA724A 
 298      05795E55 
 298      5B6861D4 
 299 0184 CA016406 		.ascii	"\312\001d\006\375\245zW%\325\214\310U\006I\207\017s"
 299      FDA57A57 
 299      25D58CC8 
ARM GAS  /tmp/ccr7exbh.s 			page 23


 299      55064987 
 299      0F73
 300 0196 A120F911 		.ascii	"\241 \371\021\300}\233\254P\325\266\354\334\277\034"
 300      C07D9BAC 
 300      50D5B6EC 
 300      DCBF1C
 301 01a5 16543520 		.ascii	"\026T5 r+\270\001@\321(\216\334EVC\3076U]v\227E*\370"
 301      722BB801 
 301      40D1288E 
 301      DC455643 
 301      C736555D 
 302 01be 9404E6A9 		.ascii	"\224\004\346\251%\210\334*\300\023\271\377\341\356\322"
 302      2588DC2A 
 302      C013B9FF 
 302      E1EED2
 303 01cd 4652B3B3 		.ascii	"FR\263\263'\237l\341\232\201P\3557\302~\265y\356 \035"
 303      279F6CE1 
 303      9A8150ED 
 303      37C27EB5 
 303      79EE201D 
 304 01e1 D021F3E5 		.ascii	"\320!\363\345\236E\234\332\361\026g3\342\010}\300\200"
 304      9E459CDA 
 304      F1166733 
 304      E2087DC0 
 304      80
 305 01f2 8193A5D3 		.ascii	"\201\223\245\323\036FN~\215\234L\3448\323\010\014\245"
 305      1E464E7E 
 305      8D9C4CE4 
 305      38D3080C 
 305      A5
 306 0203 6384130C 		.ascii	"c\204\023\014Ofa\227W\012\010\337\271_'\374\025\027"
 306      4F666197 
 306      570A08DF 
 306      B95F27FC 
 306      1517
 307 0215 84B7640E 		.ascii	"\204\267d\016>\377\3227)\341\"\267\234\253\000\334\025"
 307      3EFFD237 
 307      29E122B7 
 307      9CAB00DC 
 307      15
 308 0226 395C366E 		.ascii	"9\\6n\265>.\365?\226\325\036\326\300\214whO\250M\324"
 308      B53E2EF5 
 308      3F96D51E 
 308      D6C08C77 
 308      684FA84D 
 309 023b C1567B06 		.ascii	"\301V{\006\253\266#U{\214\334\212\334z\356\333\220n"
 309      ABB62355 
 309      7B8CDC8A 
 309      DC7AEEDB 
 309      906E
 310 024d E0EE80F4 		.ascii	"\340\356\200\3645Hs\017O\326r\272N\355DW\232\205k{\026"
 310      3548730F 
 310      4FD672BA 
 310      4EED4457 
 310      9A856B7B 
 311 0262 A1488264 		.ascii	"\241H\202dJ\336F\211-\013L\235\307_x\373 7\021\245\276"
 311      4ADE4689 
ARM GAS  /tmp/ccr7exbh.s 			page 24


 311      2D0B4C9D 
 311      C75F78FB 
 311      203711A5 
 312 0277 09BAF1E4 		.ascii	"\011\272\361\344\242E\241\356\241:\247\037\271\302\265"
 312      A245A1EE 
 312      A13AA71F 
 312      B9C2B5
 313 0286 20D46684 		.ascii	" \324f\204:\302\233\241D\316\037$\206\007\313z\003\212"
 313      3AC29BA1 
 313      44CE1F24 
 313      8607CB7A 
 313      038A
 314 0298 E70FE633 		.ascii	"\347\017\3463t~\352G\2746\347\311I\336\"B;\305\005\234"
 314      747EEA47 
 314      BC36E7C9 
 314      49DE2242 
 314      3BC5059C 
 315 02ac 4448CDF0 		.ascii	"DH\315\360\324Ln\326Du\327P\335\224\313\235\370\346"
 315      D44C6ED6 
 315      4475D750 
 315      DD94CB9D 
 315      F8E6
 316 02be C9191C2C 		.ascii	"\311\031\034,c5\345m\307\336\321M9\343\312\224_\337"
 316      6335E56D 
 316      C7DED14D 
 316      39E3CA94 
 316      5FDF
 317 02d0 3317F556 		.ascii	"3\027\365V2\266\360\372\370w\342\370\363\005:\376v\353"
 317      32B6F0FA 
 317      F877E2F8 
 317      F3053AFE 
 317      76EB
 318 02e2 F80B3B4F 		.ascii	"\370\013;O<\313\306\337\356j\3747\216\265\027\216/r"
 318      3CCBC6DF 
 318      EE6AFC37 
 318      8EB5178E 
 318      2F72
 319 02f4 F7DD564C 		.ascii	"\367\335VL\337\333\216\235\277\302F\331\215>sX\260\352"
 319      DFDB8E9D 
 319      BFC246D9 
 319      8D3E7358 
 319      B0EA
 320 0306 FBFE0AB3 		.ascii	"\373\376\012\263\002\241lh\300\223\0239\372{\345\262"
 320      02A16C68 
 320      C0931339 
 320      FA7BE5B2 
 321 0316 C0E8A5D9 		.ascii	"\300\350\245\331\334L\252,\235\206\323\236\021\253M"
 321      DC4CAA2C 
 321      9D86D39E 
 321      11AB4D
 322 0325 92D8720C 		.ascii	"\222\330r\014\203\200\006v\306\015\230\243-\265d\336"
 322      83800676 
 322      C60D98A3 
 322      2DB564DE 
 323 0335 34829DF3 		.ascii	"4\202\235\363\014f\246\354\200\021\354On\300\372;Sv"
 323      0C66A6EC 
 323      8011EC4F 
ARM GAS  /tmp/ccr7exbh.s 			page 25


 323      6EC0FA3B 
 323      5376
 324 0347 C808D6E5 		.ascii	"\310\010\326\345\031\314L\331\021#\330%7`U\316\224\035"
 324      19CC4CD9 
 324      1123D825 
 324      376055CE 
 324      941D
 325 0359 3582FDD9 		.ascii	"5\202\375\3313\230\231\262\367\215`_\270\001\253\266"
 325      339899B2 
 325      F78D605F 
 325      B801ABB6 
 326 0369 A12CF7D8 		.ascii	"\241,\367\330\365\243f\3756\227\263s\236\\\023\364\230"
 326      F5A366FD 
 326      3697B373 
 326      9E5C13F4 
 326      98
 327 037a E0D1A649 		.ascii	"\340\321\246I\036\243[\360\032\304L|C\020;\275L\013"
 327      1EA35BF0 
 327      1AC44C7C 
 327      43103BBD 
 327      4C0B
 328 038c 62FA7CA6 		.ascii	"b\372|\246\372\\ \0261\230\266\275\206\311\261\3253"
 328      FA5C2016 
 328      3198B6BD 
 328      86C9B1D5 
 328      33
 329 039d 98592D8B 		.ascii	"\230Y-\213)\230)\326\260Y&\2732S5/\037\356\002:\026"
 329      299829D6 
 329      B05926BB 
 329      3253352F 
 329      1FEE023A 
 330 03b2 5D2169B1 		.ascii	"]!i\261\015\026L|\256\261ZUe\337V\344\316\343$\373\021"
 330      0D164C7C 
 330      AEB15A55 
 330      65DF56E4 
 330      CEE324FB 
 331 03c7 17CC51A1 		.ascii	"\027\314Q\241\345\365\\\017.K\247\372\354\326^\010P"
 331      E5F55C0F 
 331      2E4BA7FA 
 331      ECD65E08 
 331      50
 332 03d8 BCAB9325 		.ascii	"\274\253\223%\2345Z\302\0147b*\342\012\007\234\304\224"
 332      9C355AC2 
 332      0C37622A 
 332      E20A079C 
 332      C494
 333 03ea 6955A770 		.ascii	"iU\247p\315\353\007\026]\250m;vi)\233\216?\301\351x"
 333      CDEB0716 
 333      5DA86D3B 
 333      7669299B 
 333      8E3FC1E9 
 334 03ff 8ECF7666 		.ascii	"\216\317vfw\005\3269\275\373\367l\231\360)\202-\365"
 334      7705D639 
 334      BDFBF76C 
 334      99F02982 
 334      2DF5
 335 0411 59637DD0 		.ascii	"Yc}\3202\267\007\315\223u0\230\317\364\350\217Y\372"
ARM GAS  /tmp/ccr7exbh.s 			page 26


 335      32B707CD 
 335      93753098 
 335      CFF4E88F 
 335      59FA
 336 0423 AEFB3849 		.ascii	"\256\3738I\277\313(\3755\236\245o\365\241/frW[\324y"
 336      BFCB28FD 
 336      359EA56F 
 336      F5A12F66 
 336      72575BD4 
 337 0438 430DF656 		.ascii	"C\015\366V\3248a5\265\367\315\037\342\342\3703\024\322"
 337      D4386135 
 337      B5F7CD1F 
 337      E2E2F833 
 337      14D2
 338 044a 7A7B89BB 		.ascii	"z{\211\273\000\352\234\376\233\032\004\372\022\201~"
 338      00EA9CFE 
 338      9B1A04FA 
 338      12817E
 339 0459 57206DCE 		.ascii	"W m\316\"m\316,\271\234\3012{\365\322\226'oYEg\"\261"
 339      226DCE2C 
 339      B99CC132 
 339      7BF5D296 
 339      276F5945 
 340 0470 48A4CC89 		.ascii	"H\244\314\211\256\333\273\350^`\242\353F\216w\025p\374"
 340      AEDBBBE8 
 340      5E60A2EB 
 340      468E7715 
 340      70FC
 341 0482 A5479679 		.ascii	"\245G\226yr\3003\033\0013\033\223{z\301\3066\215\215"
 341      72C0331B 
 341      01331B93 
 341      7B7AC1C6 
 341      368D8D
 342 0495 669EB271 		.ascii	"f\236\262q\364\257\300\306)\317l\3647\260\201\033\253"
 342      F4AFC0C6 
 342      29CF6CF4 
 342      37B0811B 
 342      AB
 343 04a6 766D32B8 		.ascii	"vm2\270\205\314,\276\242\245\364\264\362\267\230V\223"
 343      85CC2CBE 
 343      A2A5F4B4 
 343      F2B79856 
 343      93
 344 04b7 99F7F671 		.ascii	"\231\367\366q\325Zu\351\315\344\325}\206\015\210\352"
 344      D55A75E9 
 344      CDE4D57D 
 344      860D88EA 
 345 04c7 6A03B237 		.ascii	"j\003\2627\267\001y\016E\366\241\235\323\270\202\352"
 345      B701790E 
 345      45F6A19D 
 345      D3B882EA 
 346 04d7 DCBFFF20 		.ascii	"\334\277\377 \213xS\021\352\343\002\351\227[\204_n\026"
 346      8B785311 
 346      EAE302E9 
 346      975B845F 
 346      6E16
 347 04e9 3E14E958 		.ascii	">\024\351X_a\234\371%\253\241\005?\351u?\236\\A2\250"
ARM GAS  /tmp/ccr7exbh.s 			page 27


 347      5F619CF9 
 347      25ABA105 
 347      3FE9753F 
 347      9E5C4132 
 348 04fe 007BB3CA 		.ascii	"\000{\263\312\245[\372\263\263\364\331\\\223\321W7\205"
 348      A55BFAB3 
 348      B3F4D95C 
 348      93D15737 
 348      85
 349 050f D8925932 		.ascii	"\330\222Y2]\337:\337O\347\363\346\262\233\203\333\262"
 349      5DDF3ADF 
 349      4FE7F3E6 
 349      B29B83DB 
 349      B2
 350 0520 DF3A5159 		.ascii	"\337:QY6\022+\034\242\260~\246\260~\352w\321i\346\360"
 350      36122B1C 
 350      A2B07EA6 
 350      B07EEA77 
 350      D169E6F0 
 351 0534 949C2965 		.ascii	"\224\234)eV\265-\347,\033\011Zah\342d\313\263y\303\204"
 351      56B52DE7 
 351      2C1B095A 
 351      6168E264 
 351      CBB379C3 
 352 0549 B0F0A6B8 		.ascii	"\260\360\246\270\244~\364\271E\015KoRn\327\230\032J"
 352      A47EF4B9 
 352      450D4B6F 
 352      526ED798 
 352      1A4A
 353 055b 6DFB9ED2 		.ascii	"m\373\236\322\261B\310\310j\034v1o\331\365\235\354\312"
 353      B142C8C8 
 353      6A1C7631 
 353      6FD9F59D 
 353      ECCA
 354 056d B632F3A7 		.ascii	"\2662\363\247\277\225v\326\316sAufH;\311\021\271\337"
 354      BF9576D6 
 354      CE734175 
 354      66483BC9 
 354      11B9DF
 355 0580 723C43B5 		.ascii	"r<C\265[\007\224\024O\346\224\264k\250\027\267\337\241"
 355      5B079414 
 355      4FE694B4 
 355      6BA817B7 
 355      DFA1
 356 0592 BBFD722D 		.ascii	"\273\375r-R\026(\235\372\260I\351\236\234\356DNHn\227"
 356      5216289D 
 356      FAB049E9 
 356      9E9CEE44 
 356      4E486E97 
 357 05a6 D0D6C7C9 		.ascii	"\320\326\307\311\250^2\032U\366\346L\000\214j\307\012"
 357      A85E321A 
 357      55F6E64C 
 357      008C6AC7 
 357      0A
 358 05b7 CDA84A19 		.ascii	"\315\250J\031\201\312\031W\326<\371\010G^c\265\202\203"
 358      81CA1957 
 358      D63CF908 
ARM GAS  /tmp/ccr7exbh.s 			page 28


 358      475E63B5 
 358      8283
 359 05c9 9FEE9ACC 		.ascii	"\237\356\232\314v\345k\\Y\301\3476V\260\246\227V\000"
 359      76E56B5C 
 359      59C1E736 
 359      56B0A697 
 359      5600
 360 05db 26FDF16E 		.ascii	"&\375\361n\016\341\264\235B[9g\206\363\270\203\356\226"
 360      0EE1B49D 
 360      425B3967 
 360      86F3B883 
 360      EE96
 361 05ed BC0A46B3 		.ascii	"\274\012F\263\257\314\361st\322\332\300\3233\3129\345"
 361      AFCCF173 
 361      74D2DAC0 
 361      D333CA39 
 361      E5
 362 05fe 56D3D224 		.ascii	"V\323\322$c0\255\274\030A\020<\335:\374\206\247\347"
 362      6330ADBC 
 362      1841103C 
 362      DD3AFC86 
 362      A7E7
 363 0610 736B315D 		.ascii	"sk1]\307\033N\351\234\314b}\336,D\356U\253\030\335n"
 363      C71B4EE9 
 363      9CCC627D 
 363      DE2C44EE 
 363      55AB18DD 
 364 0625 E04A0EB3 		.ascii	"\340J\016\263\332h}\213\313o\316\372\332w\356\363\321"
 364      DA687D8B 
 364      CB6FCEFA 
 364      DA77EEF3 
 364      D1
 365 0636 536EC1C3 		.ascii	"Sn\301\303\201\341\336\355\272\343nD\307]Y \335\315"
 365      81E1DEED 
 365      BAE36E44 
 365      C75D5920 
 365      DDCD
 366 0648 D6258E9B 		.ascii	"\326%\216\233s\273\365\275e%\367\360dS\271\213%\177"
 366      73BBF5BD 
 366      6525F7F0 
 366      6453B98B 
 366      257F
 367 065a B58DD473 		.ascii	"\265\215\324s\023\355\321v\227g\177\372\314un\352(\234"
 367      13EDD176 
 367      97677FFA 
 367      CC756EEA 
 367      289C
 368 066c B9B6A2A5 		.ascii	"\271\266\242\245\375\316\"\013\027G\210\273\261K\306"
 368      FDCE220B 
 368      174788BB 
 368      B14BC6
 369 067b EAC6B327 		.ascii	"\352\306\263'\347\217\020]\270qK\346U\323i\270n\201"
 369      E78F105D 
 369      B8714BE6 
 369      55D369B8 
 369      6E81
 370 068d 99E21658 		.ascii	"\231\342\026XT\236&\025f\014\016\362\026:\310\037\214"
ARM GAS  /tmp/ccr7exbh.s 			page 29


 370      549E2615 
 370      660C0EF2 
 370      163AC81F 
 370      8C
 371 069e 4EC193E3 		.ascii	"N\301\223\343nd?\330\311\024!\014\035\322\256!\364\213"
 371      6E643FD8 
 371      C914210C 
 371      1DD2AE21 
 371      F48B
 372 06b0 850FAC78 		.ascii	"\205\017\254xv\201\310\204g\324eK\246\3550\036Xh6z\301"
 372      7681C884 
 372      67D4654B 
 372      A6ED301E 
 372      5868367A 
 373 06c5 0D71439D 		.ascii	"\015qC\235\301\226\314\322\205\273\032W(W\335\340\015"
 373      C196CCD2 
 373      85BB1A57 
 373      2857DDE0 
 373      0D
 374 06d6 7762B625 		.ascii	"wb\266%\263\361\360\"\206\247\035\272_\367\214g\246"
 374      B3F1F022 
 374      86A71DBA 
 374      5FF78C67 
 374      A6
 375 06e7 EFBD59A6 		.ascii	"\357\275Y\246\365\334$\277\013\270\021\256u\237\277"
 375      F5DC24BF 
 375      0BB811AE 
 375      759FBF
 376 06f6 63829086 		.ascii	"c\202\220\206\347*/\343\345\305FL\267az\032\323\017"
 376      E72A2FE3 
 376      E5C5464C 
 376      B7617A1A 
 376      D30F
 377 0708 30FD10D3 		.ascii	"0\375\020\323\013\230^\305\364:\246*\006\323g1\335\202"
 377      0B985EC5 
 377      F43AA62A 
 377      06D36731 
 377      DD82
 378 071a E9764C77 		.ascii	"\351vLwb\272\033\323\275\230\276\353&\340\272\\\003"
 378      62BA1BD3 
 378      BD98BEEB 
 378      26E0BA5C 
 378      03
 379 072b 2EE36E67 		.ascii	".\343ng\271'\004\335X\237\367\233\375\224\220\177$+"
 379      B92704DD 
 379      589FF79B 
 379      FD94907F 
 379      242B
 380 073d 6940C46B 		.ascii	"i@\304k\277\366\214O_r\212\334Rn\220\0034\376\274\237"
 380      BFF68C4F 
 380      5F728ADC 
 380      526E9003 
 380      34FEBC9F 
 381 0751 37DD1F6A 		.ascii	"7\335\037j\267\207\231\356=\241\266\346lO\317 \323\315"
 381      B78799EE 
 381      3DA1B6E6 
 381      6C4FCF20 
ARM GAS  /tmp/ccr7exbh.s 			page 30


 381      D3CD
 382 0763 A106EA44 		.ascii	"\241\006\352D\347!^\243S\300\353\322\034\177:\321H\367"
 382      E7215EA3 
 382      53C0EBD2 
 382      1C7F3AD1 
 382      48F7
 383 0775 420BDD77 		.ascii	"B\013\335w\222\345\252:S](\215\322'\334\227\261\305"
 383      92E5AA3A 
 383      535D288D 
 383      D227DC97 
 383      B1C5
 384 0787 41DE9EE8 		.ascii	"A\336\236\350\334JZcW\335x\366\261QyV\235z1\002\217"
 384      DC4A5A63 
 384      57DD78F6 
 384      B1517956 
 384      9D7A3102 
 385 079c 14B2DA91 		.ascii	"\024\262\332\221\315\264\357\363\316\352q+\253g\013"
 385      CDB4EFF3 
 385      CEEA712B 
 385      AB670B
 386 07ab 595D6BCF 		.ascii	"Y]k\317\352f\312\252\326\374c\214p\357;\262z\266\010"
 386      EA66CAAA 
 386      D6FC638C 
 386      70EF3BB2 
 386      7AB608
 387 07be AB4EBD18 		.ascii	"\253N\275\030\201\235\266\254~\255\263\252)\213'o\333"
 387      819DB6AC 
 387      7EADB3AA 
 387      298B276F 
 387      DB
 388 07cf D3       		.ascii	"\323"
 389 07d0 B8555787 		.ascii	"\270UW\207\310\035\345)\215\247z\245\016\247^\214\306"
 389      C81DE529 
 389      8DA77AA5 
 389      0EA75E8C 
 389      C6
 390 07e1 D3B6347E 		.ascii	"\323\2664~\266\337\273:>\264\252\243\253P\035'\355Y"
 390      B6DFBB3A 
 390      3EB4AAA3 
 390      AB501D27 
 390      ED59
 391 07f3 3D4E59ED 		.ascii	"=NY\355B\313\373\032[\234qd\265\253\010\253N\275\030"
 391      42CBFB1A 
 391      5B9C7164 
 391      B5AB08AB 
 391      4EBD18
 392 0806 81E76C9C 		.ascii	"\201\347l\234\254-{\275's\377\274\015\352\244\347\324"
 392      AC2D7BBD 
 392      2773FFBC 
 392      0DEAA4E7 
 392      D4
 393 0817 1BD63B7A 		.ascii	"\033\326;z\307\253+\212v\301\205\243-\015X\003\204\326"
 393      C7AB2B8A 
 393      76C185A3 
 393      2D0D5803 
 393      84D6
 394 0829 F4131B4A 		.ascii	"\364\023\033J\326e\267.\377 2_}\213~,\320S\245\036X"
ARM GAS  /tmp/ccr7exbh.s 			page 31


 394      D665B72E 
 394      FF20325F 
 394      7D8B7E2C 
 394      D053A51E 
 395 083e 6725C617 		.ascii	"g%\306\027\264!\006\207\347\311\264 \227\207\277d\347"
 395      B4210687 
 395      E7C9B420 
 395      9787BF64 
 395      E7
 396 084f 18A60221 		.ascii	"\030\246\002!VRg\007\215\2442\324E\210\312\012+\364"
 396      56526707 
 396      8DA432D4 
 396      4588CA0A 
 396      2BF4
 397 0861 21587975 		.ascii	"!Xyu~H\273\347[d)\025\357\354\311\357\355\344f\252\035"
 397      7E48BBE7 
 397      5B642915 
 397      EFECC9EF 
 397      EDE466AA 
 398 0876 BB607286 		.ascii	"\273`r\206\015\326 \273\225\267_g'E\014\037\010L\377"
 398      0DD620BB 
 398      95B75F67 
 398      27450C1F 
 398      084CFF
 399 0889 575C125D 		.ascii	"W\\\022]\307%\321\332\240Y\222%a`\025\205]n\024.\211"
 399      C725D1DA 
 399      A0599225 
 399      61601585 
 399      5D6E142E 
 400 089e 4EB5B225 		.ascii	"N\265\262%\321\015W;\233\031\235\216_6ds{\206\201\006"
 400      D10D573B 
 400      9B199D8E 
 400      5F366473 
 400      7B868106 
 401 08b2 CAB74EBB 		.ascii	"\312\267N\273\017)o\021(\345o\227\246\334\014\303\223"
 401      0F296F11 
 401      28E56F97 
 401      A6DC0CC3 
 401      93
 402 08c3 83D8E559 		.ascii	"\203\330\345Y\241\200\362\213\372},\375\2554\345\033"
 402      A180F28B 
 402      FA7D2CFD 
 402      AD34E51B 
 403 08d3 8F191743 		.ascii	"\217\031\027C\372\256\214\366\355\335\256l\223v\017"
 403      FAAE8CF6 
 403      EDDDAE6C 
 403      93760F
 404 08e2 B609CF1A 		.ascii	"\266\011\317\032\337\264\202y\332\223\251\372\025\251"
 404      DFB48279 
 404      DA93A9FA 
 404      15A9
 405 08f0 76EB7DCA 		.ascii	"v\353}\3123X\265\211\262\303s\315\313\326\254\033\274"
 405      3358B589 
 405      B2C373CD 
 405      CBD6AC1B 
 405      BC
 406 0901 22F754EC 		.ascii	"\"\367T\354.R\003;\343\031\314L\334\037\217\031.\275"
ARM GAS  /tmp/ccr7exbh.s 			page 32


 406      2E52033B 
 406      E319CC4C 
 406      DC1F8F19 
 406      2EBD
 407 0913 4EE7745B 		.ascii	"N\347t[\004\314\3566\307\3561\032\211\310M\026\350\242"
 407      04CCEE36 
 407      C7EE311A 
 407      89C84D16 
 407      E8A2
 408 0925 6A8A4097 		.ascii	"j\212@\227>\317a\372<\246/`:\025\323i\202i\271\375Q"
 408      3ECF61FA 
 408      3CA62F60 
 408      3A15D369 
 408      8269B9FD 
 409 093a CE476C4D 		.ascii	"\316GlM\261\224I\250\231\371\316\316a:n\322}\343\215"
 409      B19449A8 
 409      99F9CECE 
 409      613A6ED2 
 409      7DE38D
 410 094d 177F86BE 		.ascii	"\027\177\206\2761\003}\343bi\337\260\034ZM\354C{\264"
 410      31037DE3 
 410      6269DFB0 
 410      1C5A4DEC 
 410      437BB4
 411 0960 17B8C6CE 		.ascii	"\027\270\306\316\243\272k\264\273p\215\226\314\3119"
 411      A3BA6BB4 
 411      BB708D96 
 411      CCC939
 412 096f EECECC3A 		.ascii	"\356\316\314:r\362\270\325\300\305\312\027\265\217\227"
 412      72F2B8D5 
 412      C0C5CA17 
 412      B58F97
 413 097e E623170B 		.ascii	"\346#\027\013\372\224\344\302\014\303\2235\330eQ!\033"
 413      FA94E4C2 
 413      0CC39335 
 413      D8655121 
 413      1B
 414 098f 3B743616 		.ascii	";t6\026\271b\343\2459\272\335\317\023\362\333\265E\305"
 414      B962E3A5 
 414      39BADDCF 
 414      13F2DBB5 
 414      45C5
 415 09a1 ADCB519D 		.ascii	"\255\313Q\235-\231\305G\321T5\260\327=\203\231\355~"
 415      2D99C547 
 415      D15435B0 
 415      D73D8399 
 415      ED7E
 416 09b3 FDD14555 		.ascii	"\375\321EUj\307\357\365\317\210\324Vu\360\252\274H\372"
 416      6AC7EFF5 
 416      CF88D456 
 416      75F0AABC 
 416      48FA
 417 09c5 EB08BC41 		.ascii	"\353\010\274A\260\257\037\346Q\260\313\004Z\277\331"
 417      B0AF1FE6 
 417      51B0CB04 
 417      5ABFD9
 418 09d4 2258F740 		.ascii	"\"X\367@\235\3237\016G\240\225\010\264\335\002$r\202"
ARM GAS  /tmp/ccr7exbh.s 			page 33


 418      9DD3370E 
 418      47A09508 
 418      B4DD0224 
 418      7282
 419 09e6 E56C4130 		.ascii	"\345lA0\237-\010\301|\246\247G \336\032\363d_N\277v"
 419      9F2D08C1 
 419      7CA6A747 
 419      20DE1AF3 
 419      645F4EBF 
 420 09fb 44960A8E 		.ascii	"D\226\012\216\364<\357\235\3316\347y\356W'/\013\226"
 420      F43CEF9D 
 420      D936E779 
 420      EE57272F 
 420      0B96
 421 0a0d 25C0FD96 		.ascii	"%\300\375\226\305\211]G]\013W\246\015F\341\255\021h"
 421      C5895D47 
 421      5D0B57A6 
 421      0D46E1AD 
 421      1168
 422 0a1f C43A6211 		.ascii	"\304:b\021\236\345P\236\216\344D\305+B\205\203\011\027"
 422      9EE5509E 
 422      8EE444C5 
 422      2B428583 
 422      0917
 423 0a31 FC066B43 		.ascii	"\374\006kC\253\314\274\315\001 \263wW\352\007\353\270"
 423      ABCCBCCD 
 423      0120B377 
 423      57EA07EB 
 423      B8
 424 0a42 7F3DE306 		.ascii	"\177=\343\006\320n\022\260{\214\336*r\2131\324.\301"
 424      D06E12B0 
 424      7B8CDE2A 
 424      728B31D4 
 424      2EC1
 425 0a54 90DA81E9 		.ascii	"\220\332\201\351RLWc\272\336\030d\235dC},\207\255\371"
 425      524C5763 
 425      BADE1864 
 425      9D64437D 
 425      2C87ADF9 
 426 0a68 6D7BAFFD 		.ascii	"m{\257\375\366r\241\337z\0013\0112\3639\363[\315\015"
 426      F672A1DF 
 426      7A013309 
 426      32F339F3 
 426      5BCD0D
 427 0a7b 61E32E58 		.ascii	"a\343.X\360\274\031s\246}n\350\300S\272O\237\317\005"
 427      F0BC1973 
 427      A67D6EE8 
 427      C053BA4F 
 427      9FCF05
 428 0a8e 70B760FD 		.ascii	"p\267`\375\213)\245\335\240\2249\250\224\271\250\202"
 428      8B29A5DD 
 428      A09439A8 
 428      94B9A882 
 429 0a9e 57317D0D 		.ascii	"W1}\015\323\327\315s\336\247},s\236i\212\261\233\201"
 429      D3D7CD73 
 429      DEA77D2C 
 429      739E698A 
ARM GAS  /tmp/ccr7exbh.s 			page 34


 429      B19B81
 430 0ab1 8DE25133 		.ascii	"\215\342Q3\353:A\326\256O\366.\276\250\235\354\275\201"
 430      EB3A41D6 
 430      AE4FF62E 
 430      BEA89DEC 
 430      BD81
 431 0ac3 53C517F6 		.ascii	"S\305\027\366SE\261\223\275g+h\227-\205\213\301\033"
 431      5345B193 
 431      BD672B68 
 431      972D858B 
 431      C11B
 432 0ad5 FA54B1A5 		.ascii	"\372T\261\245\364T1ibf\376\202_\345g\274\2119\367=\307"
 432      F4543169 
 432      6266FE82 
 432      5FE567BC 
 432      8939F73D 
 433 0aea D9ED2A34 		.ascii	"\331\355*4\341\232>C\231\235\243\303\243\211\332+n\213"
 433      E19A3E43 
 433      999DA3C3 
 433      A389DA2B 
 433      6E8B
 434 0afc 41716FA2 		.ascii	"Aqo\242\342\266\231\325\264\244\302\242&\217'\201ot"
 434      E2B699D5 
 434      B4A4C2A2 
 434      268F2781 
 434      6F74
 435 0b0e EA8B5FED 		.ascii	"\352\213_\355c\351\345V\274\016\323\207\320v\200\325"
 435      63E9E556 
 435      BC0ED387 
 435      D07680D5 
 436 0b1e C518B861 		.ascii	"\305\030\270a8\312T\221\201f\264\2666L7a\372\0073Kk"
 436      38CA5491 
 436      8166B4B6 
 436      364C3761 
 436      FA07334B 
 437 0b33 2B74EDDB 		.ascii	"+t\355\333nY(\352v!\2673\244\033\250u\231\354\271\013"
 437      6E5928EA 
 437      7621B733 
 437      A41BA875 
 437      99ECB90B 
 438 0b47 59BE997E 		.ascii	"Y\276\231~B\256v\303\376I_h\001\213\234a\016\\\227["
 438      42AE76C3 
 438      FE495F68 
 438      018B9C61 
 438      0E5C975B 
 439 0b5b 5FD0B0CF 		.ascii	"_\320\260\317l\357\360\346kU\364\210]_\2178\266\027"
 439      6CEFF0E6 
 439      6B55F488 
 439      5D5F8F38 
 439      B617
 440 0b6d B95DC040 		.ascii	"\271]\300@\311f\264\341\036\213\035f\216K\325Z\255\213"
 440      C966B4E1 
 440      1E8B1D66 
 440      8E4BD55A 
 440      AD8B
 441 0b7f 8BC2CF03 		.ascii	"\213\302\317\003jk\350\033\244\015\031\030Q\245}\007"
 441      6A6BE81B 
ARM GAS  /tmp/ccr7exbh.s 			page 35


 441      A40D1918 
 441      51A57D07 
 442 0b8f E5647CEF 		.ascii	"\345d|\357\012\337\300\234\3512\020[8\365\330'\344\277"
 442      0ADFC09C 
 442      E932105B 
 442      38F5D827 
 442      E4BF
 443 0ba1 B50A05F3 		.ascii	"\265\012\005\363\031}\322\343\311QT\300\236^\207\331"
 443      197DD2E3 
 443      C95154C0 
 443      9E5E87D9 
 444 0bb1 133F9F37 		.ascii	"\023?\2377T\377\230\346\003+\226\335\367\024&\254j\023"
 444      54FF98E6 
 444      032B96DD 
 444      F71426AC 
 444      6A13
 445 0bc3 D62903D6 		.ascii	"\326)\003\326y\317X\203MX\227\305UC\365\265N\227\025"
 445      79CF5883 
 445      4D5897C5 
 445      5543F5B5 
 445      4E9715
 446 0bd6 CB2EC09A 		.ascii	"\313.\300\232\260\206\232\260\376l\240\353\252\033\272"
 446      B0869AB0 
 446      FE6CA0EB 
 446      AA1BBA
 447 0be5 8A44FECF 		.ascii	"\212D\376\317\014X\327=c\231>\243\311|a\300\232\024"
 447      0C58D73D 
 447      63993EA3 
 447      C97C61C0 
 447      9A14
 448 0bf7 F28AD5DF 		.ascii	"\362\212\325\337\204\365\225\001k\272g\254*\023\326"
 448      84F59501 
 448      6BBA67AC 
 448      2A13D6
 449 0c06 D706AC79 		.ascii	"\327\006\254y\236\261\3146\321m\300\352\360\214e\266"
 449      9EB1CC36 
 449      D16DC0EA 
 449      F08C65B6 
 450 0c16 891B06AC 		.ascii	"\211\033\006\2545\236\261\3146\321\266\243b\335S:\330"
 450      359EB1CC 
 450      36D1B6A3 
 450      62DD533A 
 450      D8
 451 0c27 6B9EC186 		.ascii	"k\236\301\206\233\300f\032\301\266\272\001+\262Qo7\202"
 451      9BC0661A 
 451      C1B6BA01 
 451      2BB2516F 
 451      3782
 452 0c39 EDF10C66 		.ascii	"\355\361\014f6\2619F\260#\236\301\31466\317\010v\312"
 452      36B13946 
 452      B0239EC1 
 452      CC3636CF 
 452      0876CA
 453 0c4c 3398D9C8 		.ascii	"3\230\331\310\026\030\301>\362\014f\266\262EF\260\253"
 453      1618C13E 
 453      F20C66B6 
 453      B24546B0 
ARM GAS  /tmp/ccr7exbh.s 			page 36


 453      AB
 454 0c5d 9EC10613 		.ascii	"\236\301\006\023\363\243O\202{q\022|\007'\276\003\230"
 454      F3A34F82 
 454      7B71127C 
 454      0727BE03 
 454      98
 455 0c6e 1EC2F408 		.ascii	"\036\302\364\010\246G1}\037\323?bz\002\323S\230f1=\203"
 455      A647317D 
 455      1FD33F62 
 455      7A02D353 
 455      9866313D 
 456 0c83 E9594CCF 		.ascii	"\351YL\317c\372'L/`\372\011\246\2270\275l\236X\273C"
 456      63FA274C 
 456      2F60FA09 
 456      A69730BD 
 456      6C9E58BB 
 457 0c98 D6FD9D36 		.ascii	"\326\375\2356#\031h\314O\\\344\377\213\312\326\276\226"
 457      231968CC 
 457      4F5CE4FF 
 457      8BCAD6BE 
 457      96
 458 0ca9 E9BF707A 		.ascii	"\351\277pz\275\012\323\377\337\223\351}_R5\313\274\227"
 458      BD0AD3FF 
 458      DF93E97D 
 458      5F5235CB 
 458      BC97
 459 0cbb BCAA4EC9 		.ascii	"\274\252N\311t\224\211\334N\244\237\322\255\325\215"
 459      749489DC 
 459      4EA49FD2 
 459      ADD58D
 460 0cca D066C89C 		.ascii	"\320f\310\234S\320\014\235N\343z\025\227\253\022\365"
 460      53D00C9D 
 460      4EE37A15 
 460      97AB12F5 
 461 0cda 2A3E5715 		.ascii	"*>W\025\325\253\204\\U\2020\211\320\012\274z\327D\303"
 461      D5AB845C 
 461      55823089 
 461      D00ABC7A 
 461      D744C3
 462 0ced 8AB73319 		.ascii	"\212\2673\031\321\"\3143-#\230\264\330\317>&6V\344\231"
 462      D122CC33 
 462      2D2398B4 
 462      D8CF3E26 
 462      3656E499 
 463 0d01 FC58F147 		.ascii	"\374X\361GL\220\254\030`\022e\305\020\023-+\366g2f\305"
 463      4C90AC18 
 463      601265C5 
 463      10132D2B 
 463      F6673266 
 464 0d16 5B99B059 		.ascii	"[\231\260Y\261\212I\235\025\0072\361\263b5\323\003+"
 464      B18A499D 
 464      150732F1 
 464      B36235D3 
 464      032B
 465 0d28 EA0A61C5 		.ascii	"\352\012a\305o1\315\0308\274l,\022\222[\234\314\253"
 465      6F31CD18 
 465      38BC6C2C 
ARM GAS  /tmp/ccr7exbh.s 			page 37


 465      12925B9C 
 465      CCAB
 466 0d3a 34AD4E4C 		.ascii	"4\255NLs(~\177\351yu\362\225\303\352D?DgCW[F\036\256"
 466      73287E7F 
 466      E97975F2 
 466      95C3EA44 
 466      3F446743 
 467 0d53 B7F3339C 		.ascii	"\267\3633\234k\236G\376\332a\344r6\262eC\177\335a\311"
 467      6B9E47FE 
 467      DA61E472 
 467      36B26543 
 467      7FDD61C9 
 468 0d67 4DA1AEE7 		.ascii	"M\241\256\3477\255\364\322\"s9;\243\353\312\223\277"
 468      37ADF4D2 
 468      2273393B 
 468      A3EBCA93 
 468      BF
 469 0d78 DEA0AA78 		.ascii	"\336\240\252x}\322<\311\303\005\312_\204\302\033\325"
 469      7DD23CC9 
 469      C305CA5F 
 469      84C21BD5 
 470 0d88 4C5FB323 		.ascii	"L_\263#\263\213\036xV\251\002\242\321\366\335\302 \263"
 470      B38B1E78 
 470      56A902A2 
 470      D1F6DDC2 
 470      20B3
 471 0d9a 73DF100A 		.ascii	"s\337\020\012\356S\200\264\005\013\337\373\246\376\237"
 471      EE5380B4 
 471      050BDFFB 
 471      A6FE9F
 472 0da9 2FEFD0C6 		.ascii	"/\357\320\306\2039\302\325\010\252\3172B\263\317n\204"
 472      8339C2D5 
 472      08AACF32 
 472      42B3CF6E 
 472      84
 473 0dba E397AE8C 		.ascii	"\343\227\256\214\272\226g\376\016\367\314O\362Y\316"
 473      BA9667FE 
 473      0EF7CC4F 
 473      F259CE
 474 0dc9 6736E3A1 		.ascii	"g6\343\241\272\351J\246\265\322\346J\246\275\222\031"
 474      BAE94AA6 
 474      B5D2E64A 
 474      A6BD9219 
 475 0dd9 0CBB3A3B 		.ascii	"\014\273:;\270#\324\306\351\377Un\031\366\230\350s\272"
 475      B823D4C6 
 475      E9FF556E 
 475      19F698E8 
 475      73BA
 476 0deb 3C639FD4 		.ascii	"<c\237\3240\216\2576?V\225\343x\242\225\343V[\216gt"
 476      308EAF36 
 476      3F5695E3 
 476      78A295E3 
 476      565B8E67 
 477 0e00 1DAC37AA 		.ascii	"\035\2547\252[\027\353\252J7b\235j\035d\232\355 \013"
 477      5B17EBAA 
 477      4A37629D 
 477      6A1D649A 
ARM GAS  /tmp/ccr7exbh.s 			page 38


 477      ED200B
 478 0e13 165E2C54 		.ascii	"\026^,T\334k\256F\230n\035\241\315<\202\305\326[\034"
 478      DC6BAE46 
 478      986E1DA1 
 478      CD3C82C5 
 478      D65B1C
 479 0e26 B602B4E7 		.ascii	"\266\002\264\347L_\205C/z\365\347\324kV\276\027\335"
 479      4C5F8543 
 479      2F7AF5E7 
 479      D46B56BE 
 479      17DD
 480 0e38 C01D3890 		.ascii	"\300\0358\220\335\376\333\325\334\224\254\332\006\022"
 480      DDFEDBD5 
 480      DC94ACDA 
 480      0612
 481 0e46 EBE18C5E 		.ascii	"\353\341\214^n\330z\233?>s\014\006\326f\"7\307\3475"
 481      6ED87A9B 
 481      3F3E730C 
 481      06D66622 
 481      37C7E735 
 482 0e5a 1ACCF5D9 		.ascii	"\032\314\365\331G\003\343\377\222\314\267\242>Yi\371"
 482      4703E3FF 
 482      92CCB7A2 
 482      3E5969F9 
 483 0e6a 16C04A05 		.ascii	"\026\300J\005Ov3\243\024\271>\\\201\264.\025\221\326"
 483      4F7633A3 
 483      14B93E5C 
 483      81B42E15 
 483      91D6
 484 0e7c 0247191F 		.ascii	"\002G\031\037*\322ka\276\327?\221_\321\255\345\222C"
 484      2AD26B61 
 484      BED73F91 
 484      5FD1ADE5 
 484      9243
 485 0e8e BB9AE997 		.ascii	"\273\232\351\227z\226/|\365\337\325\015\035\375m~$\325"
 485      7A962F7C 
 485      F5DFD50D 
 485      1DFD6D7E 
 485      24D5
 486 0ea0 4386D468 		.ascii	"C\206\324h\377\222\351\032Y\251I\313\221\232H\275,\325"
 486      FF92E91A 
 486      59A949CB 
 486      919A48BD 
 486      2CD5
 487 0eb2 45D38ADC 		.ascii	"E\323\212\3344$B\356\2644\210&\"\261\206Z\011\032\245"
 487      342442EE 
 487      B4348826 
 487      22B1865A 
 487      091AA5
 488 0ec5 9BD24A53 		.ascii	"\233\322JSJJ\017\251'\001\005\272\210\265a\245\374\241"
 488      4A4A0FA9 
 488      270105BA 
 488      88B561A5 
 488      FCA1
 489 0ed7 479FA81E 		.ascii	"G\237\250\036I\202\221\372\260Ve\3057t\217\324\327B"
 489      498291FA 
 489      B05665C5 
ARM GAS  /tmp/ccr7exbh.s 			page 39


 489      37748FD4 
 489      D742
 490 0ee9 D77E5ABB 		.ascii	"\327~Z\273t\370\277\032\244\006)\254\364\317ueU\276"
 490      74F8BF1A 
 490      A40629AC 
 490      F4CF7565 
 490      55BE
 491 0efb 843441F1 		.ascii	"\2044A\361\245di|\031\226\207\033\021#\311x<\231\250"
 491      A564697C 
 491      1996871B 
 491      1123C978 
 491      3C99A8
 492 0f0e 49256525 		.ascii	"I%e%]\363\300\350GF>2\201\326\245\2421IN\327<4r$\014"
 492      5DF3C0E8 
 492      47463E32 
 492      81D6A5A2 
 492      31494ED7 
 493 0f27 A413E957 		.ascii	"\244\023\351WRr4\031V\236\254\251O\306\245\232\244\242"
 493      52723419 
 493      569EACA9 
 493      4FC6A59A 
 493      A4A2
 494 0f39 246B1E91 		.ascii	"$k\036\221\022JR~H\026S\365\321H\272fL\262A\216HrSx"
 494      124A527E 
 494      481653F5 
 494      D148BA66 
 494      4CB2418E 
 495 0f51 64B2567A 		.ascii	"d\262VzPJ\000-?\211*Rx\\R\016\003z\370\307\017<\370"
 495      504A002D 
 495      3F892A52 
 495      785C520E 
 495      037AF8C7 
 496 0f68 708D28C7 		.ascii	"p\215(\307\357N$\023\322\335\22286\232c(\255\324F\023"
 496      EF4E2413 
 496      D2DD9238 
 496      369A6328 
 496      ADD44613 
 497 0f7c 0A954503 		.ascii	"\012\225E\003\374\375\376\367\302\224\346h2DI\013G\222"
 497      FCFDFEF7 
 497      C294E668 
 497      3244490B 
 497      4792
 498 0f8e 0905B8F8 		.ascii	"\011\005\270\370NI\322\353#IY\002\220\012\354\006@\021"
 498      4E49D2EB 
 498      23495902 
 498      900AEC06 
 498      4011
 499 0fa0 65C2DDEE 		.ascii	"e\302\335\356z\205\307\377 N\207\007\335\001\205a\205"
 499      7A85C7FF 
 499      204E8707 
 499      DD018561 
 499      85
 500 0fb1 97EFE5E5 		.ascii	"\227\357\345\345\177\346\345a\274\374\003^\036\316\313"
 500      7FE6E561 
 500      BCFC035E 
 500      1ECECB
 501 0fc0 FF22C8F7 		.ascii	"\377\"\310\367\014\205\367\036>&\363\351\224\000\320"
ARM GAS  /tmp/ccr7exbh.s 			page 40


 501      0C85F71E 
 501      3E26F3E9 
 501      9400D0
 502 0fcf 6509A951 		.ascii	"e\011\251Q\222\313\222\261ZI\366E\352E\331\227\020\343"
 502      92CB92B1 
 502      5A49F645 
 502      EA45D997 
 502      10E3
 503 0fe1 529FB4F2 		.ascii	"R\237\264\362\264\030\213\326%\302\01223\354^Pl\243"
 503      B4188BD6 
 503      25C20A32 
 503      33EC5E50 
 503      6CA3
 504 0ff3 38564C4B 		.ascii	"8VLK\001%\255\210 \020\305O\177"
 504      0125AD88 
 504      2010C54F 
 504      7F
 505 1000 181E56CA 		.ascii	"\030\036V\312\260\354W\342 0(\215\213\211ui\277\"K\343"
 505      B0EC57E2 
 505      2030288D 
 505      8B897569 
 505      BF224BE3 
 506 1014 D22000FA 		.ascii	"\322 \000\372\247,\236\256\203\346L&\345rm\023T\004"
 506      A72C9EAE 
 506      83E64C26 
 506      E5726D13 
 506      5404
 507 1026 A4095125 		.ascii	"\244\011Q%\002]\312\033\225\344\330_\244\0060\373\201"
 507      025DCA1B 
 507      95E4D85F 
 507      A40630FB 
 507      81
 508 1037 0E920C62 		.ascii	"\016\222\014b\247P\215\212\"\247\374iP\020t\010\201"
 508      A7508D8A 
 508      22A7FC69 
 508      50107408 
 508      81
 509 1048 26D2521C 		.ascii	"&\322R\034\324\004\234\016r\266)\211\212\240,\222P\302"
 509      D4049C0E 
 509      72B62989 
 509      8AA02C92 
 509      50C2
 510 105a 8A0029C0 		.ascii	"\212\000)\300CU*\000\275\343\015\240\001\347\236qe\002"
 510      43552A00 
 510      BDE30DA0 
 510      01E79E71 
 510      6502
 511 106c ED996C4C 		.ascii	"\355\231lLH\262\037\333R\236\025\250NUH\343)\021b\372"
 511      48B21FDB 
 511      529E15A8 
 511      4E5548E3 
 511      291162FA 
 512 1080 69A8921A 		.ascii	"i\250\222\032i\206k\250\324m4\006\216\022V\372\031\254"
 512      69866BA8 
 512      D46D3406 
 512      8E1256FA 
 512      19AC
ARM GAS  /tmp/ccr7exbh.s 			page 41


 513 1092 96D6F81B 		.ascii	"\226\326\370\033\305\250\022M\324\005\200v\264\332\200"
 513      C5A8124D 
 513      D4058076 
 513      B4DA80
 514 10a1 94921260 		.ascii	"\224\222\022`!u~\200\244-@Ob\214ZHY<\225L\306\300\354"
 514      21757E80 
 514      A42D404F 
 514      628C5A48 
 514      593C954C 
 515 10b8 474B75FF 		.ascii	"GKu\377\026\225\323\312O\021\247\037V<\012V\243\225"
 515      1695D3CA 
 515      4F11A71F 
 515      563C0A56 
 515      A395
 516 10ca 7925751B 		.ascii	"y%u\033k\223\250\325\252\036lz\024\264UUP\373X\022\244"
 516      6B93A8D5 
 516      AA1E6C7A 
 516      14B45555 
 516      50FB5812 
 517 10df 2DC9030B 		.ascii	"-\311\003\013~\370\217\244\3744\220\360\000\224\370"
 517      7EF88FA4 
 517      FC3490F0 
 517      0094F8
 518 10ee 46F11F1C 		.ascii	"F\361\037\034\205\3018\001\201\200\334\177Z_;Z\212I"
 518      85C13801 
 518      8180DC7F 
 518      5A5F3B5A 
 518      8A49
 519 1100 A0FCFF2B 		.ascii	"\240\374\377+\307\221\201&\352\237\360[\242!\026+\207"
 519      C7918126 
 519      EA9FF05B 
 519      A221162B 
 519      87
 520 1111 9A483C05 		.ascii	"\232H<\005E\240#\331\350\203\261\307\371R\015\262TA"
 520      45A023D9 
 520      E883B1C7 
 520      F9520DB2 
 520      5441
 521 1123 8D00828E 		.ascii	"\215\000\202\216\004\326\035\314\345C\224\326&\246\207"
 521      04D61DCC 
 521      E54394D6 
 521      26A687
 522 1132 BE509D2F 		.ascii	"\276P\235/\373#\0152\230\223R&\323\322m\343\243\262"
 522      FB230D32 
 522      98935226 
 522      D3D26DE3 
 522      A3B2
 523 1144 D220C6C2 		.ascii	"\322 \306\302J4\016\321\201\365\270\035z\330\374\320"
 523      4A340ED1 
 523      81F5B81D 
 523      7AD8FCD0 
 524 1154 CF54A785 		.ascii	"\317T\247\205%SU\220\216\016\031\346#\367\014\003\223"
 524      25535590 
 524      8E0E19E6 
 524      23F70C03 
 524      93
 525 1165 AD95628A 		.ascii	"\255\225b\212\030\030\257\214kHD\300\374\351\037!%\312"
ARM GAS  /tmp/ccr7exbh.s 			page 42


 525      1818AF8C 
 525      6B4844C0 
 525      FCE91F21 
 525      25CA
 526 1177 81989856 		.ascii	"\201\230\230Vh\333\362\361\012\305\256dL\324Jc\033\352"
 526      68DBF2F1 
 526      0AC5AE64 
 526      4CD44A63 
 526      1BEA
 527 1189 34DB31D6 		.ascii	"4\3331\326\004Sb\"\032\011\203\345\010\265c\353\372"
 527      04536222 
 527      1A0983E5 
 527      08B563EB 
 527      FA
 528 119a C44580D7 		.ascii	"\304E\200\327L R\357\034\215s!\273\236\364\211\326\002"
 528      4C2052EF 
 528      1C8D7321 
 528      BB9EF489 
 528      D602
 529 11ac D3D17151 		.ascii	"\323\321qQp\352g$9\351KG\237\221\374\343\201\265h2\341"
 529      70EA6724 
 529      39E94B47 
 529      9F91FCE3 
 529      81B56832 
 530 11c1 4F29322D 		.ascii	"O)2-\007(A4\323\207i\233\326%\307\215\013S\233\364\323"
 530      07284134 
 530      D387699B 
 530      D625C78D 
 530      0B539BF4 
 531 11d6 0CC48720 		.ascii	"\014\304\207 \375\2131\002s\030'\260\021\015\023!\232"
 531      FD8B3102 
 531      731827B0 
 531      110D1321 
 531      9A
 532 11e7 8150118B 		.ascii	"\201P\021\213\306\243JP+@,\300\034\306\001lIc@\205\206"
 532      C6A34A50 
 532      2B402CC0 
 532      1CC6016C 
 532      49634085 
 533 11fc 2B812B2A 		.ascii	"+\201+*XI\307\006\0152\001P\367\304l\377!r\262VT\304"
 533      5849C706 
 533      0D320150 
 533      F7C46CFF 
 533      2172B256 
 534 1212 217A4511 		.ascii	"!zE\021Oo\242\346\011\030c\232\322?IF\236\016b\300\214"
 534      4F6FA2E6 
 534      0918639A 
 534      D23F4946 
 534      9E0E62C0 
 535 1227 41EE1E9B 		.ascii	"A\356\036\233p\011^T3\362\2211\017\217\311#\304\323"
 535      70095E54 
 535      33F29131 
 535      0F8FC923 
 535      C4D3
 536 1239 D174B82E 		.ascii	"\321t\270.\022\001\224\276a\210-J\370\301\007\306\374"
 536      120194BE 
 536      61882D4A 
ARM GAS  /tmp/ccr7exbh.s 			page 43


 536      F8C107C6 
 536      FC
 537 124a F8B1D10F 		.ascii	"\370\261\321\017\367\025c\215bS\032\202o,\232\220\312"
 537      F715638D 
 537      62531A82 
 537      6F2C9A90 
 537      CA
 538 125b C68BB106 		.ascii	"\306\213\261\006jy0\316\023\011\212\257\205\346\006"
 538      6A7930CE 
 538      13098AAF 
 538      85E606
 539 126a CC07C261 		.ascii	"\314\007\302a\324u\270\257\236\0312\354{\303\356\375"
 539      D475B8AF 
 539      9E1932EC 
 539      7BC3EEFD 
 540 127a 5FC3F3ED 		.ascii	"_\303\363\355x"
 540      78
 541              		.text
 542              		.section	.gnu.lto_.symtab.497d0cb4557e69f4,"",%progbits
 543 0000 63685265 		.ascii	"chRegFirstThread\000\000\000\000\000\000\000\000\000"
 543      67466972 
 543      73745468 
 543      72656164 
 543      00000000 
 544 0019 000000A1 		.ascii	"\000\000\000\241\000\000\000chRegNextThread\000\000"
 544      00000063 
 544      68526567 
 544      4E657874 
 544      54687265 
 545 0031 00000000 		.ascii	"\000\000\000\000\000\000\000\000\000\000Q\001\000\000"
 545      00000000 
 545      00005101 
 545      0000
 546 003f 63685265 		.ascii	"chRegFindThreadByName\000\000\000\000\000\000\000\000"
 546      6746696E 
 546      64546872 
 546      65616442 
 546      794E616D 
 547 005c 00000000 		.ascii	"\000\000\000\000X\001\000\000chRegFindThreadByPoint"
 547      58010000 
 547      63685265 
 547      6746696E 
 547      64546872 
 548 007a 65720000 		.ascii	"er\000\000\000\000\000\000\000\000\000\000\000\000^"
 548      00000000 
 548      00000000 
 548      00005E
 549 0089 01000063 		.ascii	"\001\000\000chRegFindThreadByWorkingArea\000\000\000"
 549      68526567 
 549      46696E64 
 549      54687265 
 549      61644279 
 550 00ab 00000000 		.ascii	"\000\000\000\000\000\000\000\000\000b\001\000\000ch"
 550      00000000 
 550      00620100 
 550      006368
 551 00ba 5F646562 		.ascii	"_debug\000\000\000\000\000\000\000\000\000\000\000\000"
ARM GAS  /tmp/ccr7exbh.s 			page 44


 551      75670000 
 551      00000000 
 551      00000000 
 551      0000
 552 00cc C6010000 		.ascii	"\306\001\000\000ch\000\000\002\000\000\000\000\000\000"
 552      63680000 
 552      02000000 
 552      000000
 553 00db 0000007A 		.ascii	"\000\000\000z\001\000\000chThdRelease\000\000\002\000"
 553      01000063 
 553      68546864 
 553      52656C65 
 553      61736500 
 554 00f2 00000000 		.ascii	"\000\000\000\000\000\000\000\000i\001\000\000"
 554      00000000 
 554      69010000 
 555              		.text
 556              		.section	.gnu.lto_.opts,"",%progbits
 557 0000 272D6D63 		.ascii	"'-mcpu=cortex-m3' '-mno-thumb-interwork' '-mthumb' "
 557      70753D63 
 557      6F727465 
 557      782D6D33 
 557      2720272D 
 558 0033 272D6767 		.ascii	"'-ggdb' '-O2' '-fomit-frame-pointer' '-falign-funct"
 558      64622720 
 558      272D4F32 
 558      2720272D 
 558      666F6D69 
 559 0066 696F6E73 		.ascii	"ions=16' '-ffunction-sections' '-fdata-sections' '-"
 559      3D313627 
 559      20272D66 
 559      66756E63 
 559      74696F6E 
 560 0099 666E6F2D 		.ascii	"fno-common' '-flto'\000"
 560      636F6D6D 
 560      6F6E2720 
 560      272D666C 
 560      746F2700 
 561              		.text
 562              		.cfi_sections	.debug_frame
 563              		.section	.text.chRegFirstThread,"ax",%progbits
 564              		.align	2
 565              		.p2align 4,,15
 566              		.global	chRegFirstThread
 567              		.thumb
 568              		.thumb_func
 569              		.type	chRegFirstThread, %function
 570              	chRegFirstThread:
 571              	.LFB188:
 572              		.file 1 "../../../os/rt/src/chregistry.c"
 573              		.loc 1 134 0
 574              		.cfi_startproc
 575              		@ args = 0, pretend = 0, frame = 0
 576              		@ frame_needed = 0, uses_anonymous_args = 0
 577              		@ link register save eliminated.
 578              	.LVL0:
 579              	.LBB71:
ARM GAS  /tmp/ccr7exbh.s 			page 45


 580              	.LBB72:
 581              	.LBB73:
 582              	.LBB74:
 583              		.file 2 "../../../os/common/ext/CMSIS/include/cmsis_gcc.h"
 584              		.loc 2 264 0
 585 0000 2023     		movs	r3, #32
 586              	@ 264 "../../../os/common/ext/CMSIS/include/cmsis_gcc.h" 1
 587 0002 83F31188 		MSR basepri, r3
 588              	@ 0 "" 2
 589              		.thumb
 590              	.LBE74:
 591              	.LBE73:
 592              	.LBE72:
 593              	.LBE71:
 594              		.loc 1 138 0
 595 0006 40F20003 		movw	r3, #:lower16:ch
 596 000a C0F20003 		movt	r3, #:upper16:ch
 597 000e 1869     		ldr	r0, [r3, #16]
 598              	.LVL1:
 599              	.LBB75:
 600              	.LBB76:
 601              	.LBB77:
 602              	.LBB78:
 603              	.LBB79:
 604              		.loc 2 264 0
 605 0010 0023     		movs	r3, #0
 606              	.LBE79:
 607              	.LBE78:
 608              	.LBE77:
 609              	.LBE76:
 610              	.LBE75:
 611              		.loc 1 140 0
 612 0012 90F82220 		ldrb	r2, [r0, #34]	@ zero_extendqisi2
 613 0016 0132     		adds	r2, r2, #1
 614 0018 80F82220 		strb	r2, [r0, #34]
 615              	.LVL2:
 616              	.LBB84:
 617              	.LBB83:
 618              	.LBB82:
 619              	.LBB81:
 620              	.LBB80:
 621              		.loc 2 264 0
 622              	@ 264 "../../../os/common/ext/CMSIS/include/cmsis_gcc.h" 1
 623 001c 83F31188 		MSR basepri, r3
 624              	@ 0 "" 2
 625              		.thumb
 626              	.LBE80:
 627              	.LBE81:
 628              	.LBE82:
 629              	.LBE83:
 630              	.LBE84:
 631              		.loc 1 145 0
 632 0020 7047     		bx	lr
 633              		.cfi_endproc
 634              	.LFE188:
 635              		.size	chRegFirstThread, .-chRegFirstThread
 636 0022 00BFAFF3 		.section	.text.chRegNextThread,"ax",%progbits
ARM GAS  /tmp/ccr7exbh.s 			page 46


 636      0080AFF3 
 636      0080AFF3 
 636      0080
 637              		.align	2
 638              		.p2align 4,,15
 639              		.global	chRegNextThread
 640              		.thumb
 641              		.thumb_func
 642              		.type	chRegNextThread, %function
 643              	chRegNextThread:
 644              	.LFB189:
 645              		.loc 1 158 0
 646              		.cfi_startproc
 647              		@ args = 0, pretend = 0, frame = 0
 648              		@ frame_needed = 0, uses_anonymous_args = 0
 649              	.LVL3:
 650 0000 10B5     		push	{r4, lr}
 651              		.cfi_def_cfa_offset 8
 652              		.cfi_offset 4, -8
 653              		.cfi_offset 14, -4
 654              	.LBB85:
 655              	.LBB86:
 656              	.LBB87:
 657              	.LBB88:
 658              		.loc 2 264 0
 659 0002 2023     		movs	r3, #32
 660              	@ 264 "../../../os/common/ext/CMSIS/include/cmsis_gcc.h" 1
 661 0004 83F31188 		MSR basepri, r3
 662              	@ 0 "" 2
 663              		.thumb
 664              	.LBE88:
 665              	.LBE87:
 666              	.LBE86:
 667              	.LBE85:
 668              		.loc 1 164 0
 669 0008 40F20003 		movw	r3, #:lower16:ch
 670              		.loc 1 162 0
 671 000c 0469     		ldr	r4, [r0, #16]
 672              	.LVL4:
 673              		.loc 1 164 0
 674 000e C0F20003 		movt	r3, #:upper16:ch
 675 0012 9C42     		cmp	r4, r3
 676              		.loc 1 171 0
 677 0014 17BF     		itett	ne
 678 0016 94F82230 		ldrbne	r3, [r4, #34]	@ zero_extendqisi2
 679              		.loc 1 166 0
 680 001a 0024     		moveq	r4, #0
 681              	.LVL5:
 682              		.loc 1 171 0
 683 001c 0133     		addne	r3, r3, #1
 684 001e 84F82230 		strbne	r3, [r4, #34]
 685              	.LBB89:
 686              	.LBB90:
 687              	.LBB91:
 688              	.LBB92:
 689              	.LBB93:
 690              		.loc 2 264 0
ARM GAS  /tmp/ccr7exbh.s 			page 47


 691 0022 0023     		movs	r3, #0
 692              	@ 264 "../../../os/common/ext/CMSIS/include/cmsis_gcc.h" 1
 693 0024 83F31188 		MSR basepri, r3
 694              	@ 0 "" 2
 695              		.thumb
 696              	.LBE93:
 697              	.LBE92:
 698              	.LBE91:
 699              	.LBE90:
 700              	.LBE89:
 701              		.loc 1 176 0
 702 0028 FFF7FEFF 		bl	chThdRelease
 703              	.LVL6:
 704              		.loc 1 180 0
 705 002c 2046     		mov	r0, r4
 706 002e 10BD     		pop	{r4, pc}
 707              		.cfi_endproc
 708              	.LFE189:
 709              		.size	chRegNextThread, .-chRegNextThread
 710              		.section	.text.chRegFindThreadByName,"ax",%progbits
 711              		.align	2
 712              		.p2align 4,,15
 713              		.global	chRegFindThreadByName
 714              		.thumb
 715              		.thumb_func
 716              		.type	chRegFindThreadByName, %function
 717              	chRegFindThreadByName:
 718              	.LFB190:
 719              		.loc 1 194 0
 720              		.cfi_startproc
 721              		@ args = 0, pretend = 0, frame = 0
 722              		@ frame_needed = 0, uses_anonymous_args = 0
 723              	.LVL7:
 724 0000 38B5     		push	{r3, r4, r5, lr}
 725              		.cfi_def_cfa_offset 16
 726              		.cfi_offset 3, -16
 727              		.cfi_offset 4, -12
 728              		.cfi_offset 5, -8
 729              		.cfi_offset 14, -4
 730              		.loc 1 194 0
 731 0002 0546     		mov	r5, r0
 732              	.LBB94:
 733              	.LBB95:
 734              	.LBB96:
 735              	.LBB97:
 736              	.LBB98:
 737              	.LBB99:
 738              		.loc 2 264 0
 739 0004 2023     		movs	r3, #32
 740              	@ 264 "../../../os/common/ext/CMSIS/include/cmsis_gcc.h" 1
 741 0006 83F31188 		MSR basepri, r3
 742              	@ 0 "" 2
 743              		.thumb
 744              	.LBE99:
 745              	.LBE98:
 746              	.LBE97:
 747              	.LBE96:
ARM GAS  /tmp/ccr7exbh.s 			page 48


 748              		.loc 1 138 0
 749 000a 40F20003 		movw	r3, #:lower16:ch
 750 000e C0F20003 		movt	r3, #:upper16:ch
 751 0012 1C69     		ldr	r4, [r3, #16]
 752              	.LVL8:
 753              	.LBB100:
 754              	.LBB101:
 755              	.LBB102:
 756              	.LBB103:
 757              	.LBB104:
 758              		.loc 2 264 0
 759 0014 0023     		movs	r3, #0
 760              	.LBE104:
 761              	.LBE103:
 762              	.LBE102:
 763              	.LBE101:
 764              	.LBE100:
 765              		.loc 1 140 0
 766 0016 94F82220 		ldrb	r2, [r4, #34]	@ zero_extendqisi2
 767 001a 0132     		adds	r2, r2, #1
 768 001c 84F82220 		strb	r2, [r4, #34]
 769              	.LVL9:
 770              	.LBB109:
 771              	.LBB108:
 772              	.LBB107:
 773              	.LBB106:
 774              	.LBB105:
 775              		.loc 2 264 0
 776              	@ 264 "../../../os/common/ext/CMSIS/include/cmsis_gcc.h" 1
 777 0020 83F31188 		MSR basepri, r3
 778              	@ 0 "" 2
 779              		.thumb
 780 0024 04E0     		b	.L7
 781              	.LVL10:
 782              	.L13:
 783              	.LBE105:
 784              	.LBE106:
 785              	.LBE107:
 786              	.LBE108:
 787              	.LBE109:
 788              	.LBE95:
 789              	.LBE94:
 790              		.loc 1 203 0
 791 0026 2046     		mov	r0, r4
 792 0028 FFF7FEFF 		bl	chRegNextThread
 793              	.LVL11:
 794              		.loc 1 204 0
 795 002c 0446     		mov	r4, r0
 796              	.LVL12:
 797 002e 28B1     		cbz	r0, .L6
 798              	.LVL13:
 799              	.L7:
 800              		.loc 1 200 0
 801 0030 A069     		ldr	r0, [r4, #24]
 802 0032 2946     		mov	r1, r5
 803 0034 FFF7FEFF 		bl	strcmp
 804              	.LVL14:
ARM GAS  /tmp/ccr7exbh.s 			page 49


 805 0038 0028     		cmp	r0, #0
 806 003a F4D1     		bne	.L13
 807              	.LVL15:
 808              	.L6:
 809              		.loc 1 207 0
 810 003c 2046     		mov	r0, r4
 811 003e 38BD     		pop	{r3, r4, r5, pc}
 812              		.cfi_endproc
 813              	.LFE190:
 814              		.size	chRegFindThreadByName, .-chRegFindThreadByName
 815              		.section	.text.chRegFindThreadByPointer,"ax",%progbits
 816              		.align	2
 817              		.p2align 4,,15
 818              		.global	chRegFindThreadByPointer
 819              		.thumb
 820              		.thumb_func
 821              		.type	chRegFindThreadByPointer, %function
 822              	chRegFindThreadByPointer:
 823              	.LFB191:
 824              		.loc 1 221 0
 825              		.cfi_startproc
 826              		@ args = 0, pretend = 0, frame = 0
 827              		@ frame_needed = 0, uses_anonymous_args = 0
 828              	.LVL16:
 829 0000 10B5     		push	{r4, lr}
 830              		.cfi_def_cfa_offset 8
 831              		.cfi_offset 4, -8
 832              		.cfi_offset 14, -4
 833              	.LBB110:
 834              	.LBB111:
 835              	.LBB112:
 836              	.LBB113:
 837              	.LBB114:
 838              	.LBB115:
 839              		.loc 2 264 0
 840 0002 2023     		movs	r3, #32
 841              	.LBE115:
 842              	.LBE114:
 843              	.LBE113:
 844              	.LBE112:
 845              	.LBE111:
 846              	.LBE110:
 847              		.loc 1 221 0
 848 0004 0446     		mov	r4, r0
 849              	.LBB131:
 850              	.LBB130:
 851              	.LBB119:
 852              	.LBB118:
 853              	.LBB117:
 854              	.LBB116:
 855              		.loc 2 264 0
 856              	@ 264 "../../../os/common/ext/CMSIS/include/cmsis_gcc.h" 1
 857 0006 83F31188 		MSR basepri, r3
 858              	@ 0 "" 2
 859              		.thumb
 860              	.LBE116:
 861              	.LBE117:
ARM GAS  /tmp/ccr7exbh.s 			page 50


 862              	.LBE118:
 863              	.LBE119:
 864              		.loc 1 138 0
 865 000a 40F20003 		movw	r3, #:lower16:ch
 866 000e C0F20003 		movt	r3, #:upper16:ch
 867 0012 1869     		ldr	r0, [r3, #16]
 868              	.LVL17:
 869              	.LBB120:
 870              	.LBB121:
 871              	.LBB122:
 872              	.LBB123:
 873              	.LBB124:
 874              		.loc 2 264 0
 875 0014 0023     		movs	r3, #0
 876              	.LBE124:
 877              	.LBE123:
 878              	.LBE122:
 879              	.LBE121:
 880              	.LBE120:
 881              		.loc 1 140 0
 882 0016 90F82220 		ldrb	r2, [r0, #34]	@ zero_extendqisi2
 883 001a 0132     		adds	r2, r2, #1
 884 001c 80F82220 		strb	r2, [r0, #34]
 885              	.LVL18:
 886              	.LBB129:
 887              	.LBB128:
 888              	.LBB127:
 889              	.LBB126:
 890              	.LBB125:
 891              		.loc 2 264 0
 892              	@ 264 "../../../os/common/ext/CMSIS/include/cmsis_gcc.h" 1
 893 0020 83F31188 		MSR basepri, r3
 894              	@ 0 "" 2
 895              	.LVL19:
 896              		.thumb
 897              	.LBE125:
 898              	.LBE126:
 899              	.LBE127:
 900              	.LBE128:
 901              	.LBE129:
 902              	.LBE130:
 903              	.LBE131:
 904              		.loc 1 227 0
 905 0024 8442     		cmp	r4, r0
 906 0026 02D1     		bne	.L16
 907 0028 06E0     		b	.L19
 908              	.LVL20:
 909              	.L17:
 910 002a 8442     		cmp	r4, r0
 911 002c 04D0     		beq	.L19
 912              	.L16:
 913              		.loc 1 230 0
 914 002e FFF7FEFF 		bl	chRegNextThread
 915              	.LVL21:
 916              		.loc 1 231 0
 917 0032 0028     		cmp	r0, #0
 918 0034 F9D1     		bne	.L17
ARM GAS  /tmp/ccr7exbh.s 			page 51


 919 0036 10BD     		pop	{r4, pc}
 920              	.LVL22:
 921              	.L19:
 922              		.loc 1 230 0
 923 0038 2046     		mov	r0, r4
 924              	.LVL23:
 925              		.loc 1 234 0
 926 003a 10BD     		pop	{r4, pc}
 927              		.cfi_endproc
 928              	.LFE191:
 929              		.size	chRegFindThreadByPointer, .-chRegFindThreadByPointer
 930 003c AFF30080 		.section	.text.chRegFindThreadByWorkingArea,"ax",%progbits
 931              		.align	2
 932              		.p2align 4,,15
 933              		.global	chRegFindThreadByWorkingArea
 934              		.thumb
 935              		.thumb_func
 936              		.type	chRegFindThreadByWorkingArea, %function
 937              	chRegFindThreadByWorkingArea:
 938              	.LFB192:
 939              		.loc 1 250 0
 940              		.cfi_startproc
 941              		@ args = 0, pretend = 0, frame = 0
 942              		@ frame_needed = 0, uses_anonymous_args = 0
 943              	.LVL24:
 944 0000 10B5     		push	{r4, lr}
 945              		.cfi_def_cfa_offset 8
 946              		.cfi_offset 4, -8
 947              		.cfi_offset 14, -4
 948              	.LBB132:
 949              	.LBB133:
 950              	.LBB134:
 951              	.LBB135:
 952              	.LBB136:
 953              	.LBB137:
 954              		.loc 2 264 0
 955 0002 2023     		movs	r3, #32
 956              	.LBE137:
 957              	.LBE136:
 958              	.LBE135:
 959              	.LBE134:
 960              	.LBE133:
 961              	.LBE132:
 962              		.loc 1 250 0
 963 0004 0446     		mov	r4, r0
 964              	.LBB153:
 965              	.LBB152:
 966              	.LBB141:
 967              	.LBB140:
 968              	.LBB139:
 969              	.LBB138:
 970              		.loc 2 264 0
 971              	@ 264 "../../../os/common/ext/CMSIS/include/cmsis_gcc.h" 1
 972 0006 83F31188 		MSR basepri, r3
 973              	@ 0 "" 2
 974              		.thumb
 975              	.LBE138:
ARM GAS  /tmp/ccr7exbh.s 			page 52


 976              	.LBE139:
 977              	.LBE140:
 978              	.LBE141:
 979              		.loc 1 138 0
 980 000a 40F20003 		movw	r3, #:lower16:ch
 981 000e C0F20003 		movt	r3, #:upper16:ch
 982 0012 1B69     		ldr	r3, [r3, #16]
 983              	.LVL25:
 984              	.LBB142:
 985              	.LBB143:
 986              	.LBB144:
 987              	.LBB145:
 988              	.LBB146:
 989              		.loc 2 264 0
 990 0014 0022     		movs	r2, #0
 991              	.LBE146:
 992              	.LBE145:
 993              	.LBE144:
 994              	.LBE143:
 995              	.LBE142:
 996              		.loc 1 140 0
 997 0016 93F82210 		ldrb	r1, [r3, #34]	@ zero_extendqisi2
 998 001a 0131     		adds	r1, r1, #1
 999 001c 83F82210 		strb	r1, [r3, #34]
 1000              	.LVL26:
 1001              	.LBB151:
 1002              	.LBB150:
 1003              	.LBB149:
 1004              	.LBB148:
 1005              	.LBB147:
 1006              		.loc 2 264 0
 1007              	@ 264 "../../../os/common/ext/CMSIS/include/cmsis_gcc.h" 1
 1008 0020 82F31188 		MSR basepri, r2
 1009              	@ 0 "" 2
 1010              		.thumb
 1011 0024 03E0     		b	.L22
 1012              	.LVL27:
 1013              	.L26:
 1014              	.LBE147:
 1015              	.LBE148:
 1016              	.LBE149:
 1017              	.LBE150:
 1018              	.LBE151:
 1019              	.LBE152:
 1020              	.LBE153:
 1021              		.loc 1 259 0
 1022 0026 FFF7FEFF 		bl	chRegNextThread
 1023              	.LVL28:
 1024              		.loc 1 260 0
 1025 002a 0346     		mov	r3, r0
 1026 002c 18B1     		cbz	r0, .L21
 1027              	.LVL29:
 1028              	.L22:
 1029              		.loc 1 256 0
 1030 002e DA69     		ldr	r2, [r3, #28]
 1031              		.loc 1 259 0
 1032 0030 1846     		mov	r0, r3
ARM GAS  /tmp/ccr7exbh.s 			page 53


 1033              		.loc 1 256 0
 1034 0032 A242     		cmp	r2, r4
 1035 0034 F7D1     		bne	.L26
 1036              	.LVL30:
 1037              	.L21:
 1038              		.loc 1 263 0
 1039 0036 1846     		mov	r0, r3
 1040              	.LVL31:
 1041 0038 10BD     		pop	{r4, pc}
 1042              		.cfi_endproc
 1043              	.LFE192:
 1044              		.size	chRegFindThreadByWorkingArea, .-chRegFindThreadByWorkingArea
 1045              		.global	ch_debug
 1046 003a 00BFAFF3 		.section	.rodata.ch_debug,"a",%progbits
 1046      0080
 1047              		.align	2
 1048              		.type	ch_debug, %object
 1049              		.size	ch_debug, 22
 1050              	ch_debug:
 1051 0000 6D       		.byte	109
 1052 0001 61       		.byte	97
 1053 0002 69       		.byte	105
 1054 0003 6E       		.byte	110
 1055 0004 00       		.byte	0
 1056 0005 16       		.byte	22
 1057 0006 0220     		.short	8194
 1058 0008 04       		.byte	4
 1059 0009 02       		.byte	2
 1060 000a 44       		.byte	68
 1061 000b 08       		.byte	8
 1062 000c 0C       		.byte	12
 1063 000d 10       		.byte	16
 1064 000e 14       		.byte	20
 1065 000f 18       		.byte	24
 1066 0010 1C       		.byte	28
 1067 0011 20       		.byte	32
 1068 0012 21       		.byte	33
 1069 0013 22       		.byte	34
 1070 0014 00       		.byte	0
 1071 0015 00       		.byte	0
 1072 0016 0000     		.text
 1073              	.Letext0:
 1074              		.file 3 "/home/otto/MentorGraphics/Sourcery_CodeBench_Lite_for_ARM_EABI/lib/gcc/arm-none-eabi/4.8.
 1075              		.file 4 "/home/otto/MentorGraphics/Sourcery_CodeBench_Lite_for_ARM_EABI/arm-none-eabi/include/stdi
 1076              		.file 5 "../../../os/common/ports/ARMCMx/compilers/GCC/chtypes.h"
 1077              		.file 6 "../../../os/rt/include/chsystypes.h"
 1078              		.file 7 "../../../os/rt/include/chschd.h"
 1079              		.file 8 "../../../os/common/ports/ARMCMx/chcore.h"
 1080              		.file 9 "../../../os/common/ports/ARMCMx/chcore_v7m.h"
 1081              		.file 10 "../../../os/rt/include/chsem.h"
 1082              		.file 11 "../../../os/rt/include/chmtx.h"
 1083              		.file 12 "../../../os/rt/include/chregistry.h"
 1084              		.file 13 "../../../os/rt/include/chthreads.h"
 1085              		.file 14 "../../../os/rt/include/chsys.h"
 1086              		.file 15 "../../../os/common/ext/CMSIS/include/core_cm3.h"
 1087              		.file 16 "/home/otto/MentorGraphics/Sourcery_CodeBench_Lite_for_ARM_EABI/arm-none-eabi/include/str