ARM GAS  /tmp/ccQr5yWK.s 			page 1


   1              		.syntax unified
   2              		.cpu cortex-m3
   3              		.fpu softvfp
   4              		.eabi_attribute 20, 1
   5              		.eabi_attribute 21, 1
   6              		.eabi_attribute 23, 3
   7              		.eabi_attribute 24, 1
   8              		.eabi_attribute 25, 1
   9              		.eabi_attribute 26, 1
  10              		.eabi_attribute 30, 2
  11              		.eabi_attribute 34, 1
  12              		.eabi_attribute 18, 4
  13              		.thumb
  14              		.file	"chvt.c"
  15              		.text
  16              	.Ltext0:
  17              		.section	.gnu.lto_.jmpfuncs.86b73c2c7dbdcd3d,"",%progbits
  18 0000 789C6362 		.ascii	"x\234cb`b\300\006d\2404\013\003#\020\002\0251\363\003"
  18      6062C006 
  18      64A0340B 
  18      03231002 
  18      1531F303 
  19 0014 29206261 		.ascii	") badd\006\212\227\001\231\000\011|\000\275"
  19      6464068A 
  19      97019900 
  19      097C00BD 
  20              		.text
  21              		.section	.gnu.lto_.inline.86b73c2c7dbdcd3d,"",%progbits
  22 0000 789C6362 		.ascii	"x\234cb`b\300\006\224\031\031\030\244\2014\013\003\203"
  22      6062C006 
  22      94191918 
  22      A481340B 
  22      0383
  23 0012 9414230B 		.ascii	"\224\024#\013Cz5\303\257\206\216\206\007\213\277Yf2"
  23      437A35C3 
  23      AF868E86 
  23      078BBF59 
  23      6632
  24 0024 326833AC 		.ascii	"2h3\254j\000\002\323LF\306\\F\206$F\2706f\006\206\214"
  24      6A0002D3 
  24      4C46C65C 
  24      46862446 
  24      B8366606 
  25 003a 44C6858C 		.ascii	"D\306\205\214\325 \026#\003\214t`g\355Pg`\357Pgb`|\301"
  25      D5201623 
  25      038C7460 
  25      67ED5067 
  25      60EF5067 
  26 0052 2EC0C400 		.ascii	".\300\304\000\344\0120H}[\302\310\301\300\270\233]\201"
  26      E40A3048 
  26      7D5BC2C8 
  26      C1C0B89B 
  26      5D81
  27 0064 83094281 		.ascii	"\203\011B\201\214`\344\002Y\312\304\315\000\224\232"
  27      8C60E402 
  27      59CAC4CD 
  27      00949A
ARM GAS  /tmp/ccQr5yWK.s 			page 2


  28 0073 E0C7C4C0 		.ascii	"\340\307\304\300\316\306\310\300\304q\300\216\201m\201"
  28      CEC6C8C0 
  28      C471C08E 
  28      816D81
  29 0082 3C13C40E 		.ascii	"<\023\304\016\243K\014\214\314\214)\021\214\231\214"
  29      A34B0C8C 
  29      CC8C2911 
  29      8C998C
  30 0091 4C40E319 		.ascii	"L@\343\031S\341,\220K\230\275\316\377\340`\340[\352"
  30      53E12C90 
  30      4B98BDCE 
  30      FFE060E0 
  30      5BEA
  31 00a3 C6C4C0B2 		.ascii	"\306\304\300\262@^\000\244\005h\032\3300\010\305\302"
  31      405E00A4 
  31      05681AD8 
  31      3008C5C2 
  32 00b3 2022C0C8 		.ascii	" \"\300\310\014v\230\002\262#9\304&Lfd\3408\242\003"
  32      0C769802 
  32      B22339C4 
  32      264C6664 
  32      E038A203 
  33 00c7 74CD2536 		.ascii	"t\315%6\026\010\011\"8\300L\240{.\261\0120\201I$C\031"
  33      16080922 
  33      38C04CA0 
  33      7B2EB10A 
  33      30814924 
  34 00dd A4F4F4F4 		.ascii	"\244\364\364\364!(\277X\277\250D\277\270(Y?9\243\254"
  34      2128BF58 
  34      BFA844BF 
  34      B828593F 
  34      39A3AC
  35 00f0 442F9901 		.ascii	"D/\231\001\000\033\3201\002"
  35      001BD031 
  35      02
  36              		.text
  37              		.section	.gnu.lto_.pureconst.86b73c2c7dbdcd3d,"",%progbits
  38 0000 789C6362 		.ascii	"x\234cb`b\340d\200\000\026\006)&\011f)\026)\000\002"
  38      6062E064 
  38      80001606 
  38      29260966 
  38      29162900 
  39 0015 D80081   		.ascii	"\330\000\201"
  40              		.text
  41              		.section	.gnu.lto_chVTDoResetI.part.0.86b73c2c7dbdcd3d,"",%progbits
  42 0000 789C9555 		.ascii	"x\234\225U]lTU\020\236\271\377\367\356n\267\232h\320"
  42      5D6C5455 
  42      109EB9FF 
  42      F7EE6EB7 
  42      9A68D0
  43 0013 4462F04D 		.ascii	"Db\360Mbo\224\230\310\2231\372BB_d\233\350\213u\275"
  43      626F9498 
  43      C89331FA 
  43      42425F64 
  43      9BE88B75 
  44 0028 DD6C6FB2 		.ascii	"\335lo\262\333%\333\025M|\340,\273!\010&\224&FE+\202"
  44      DB25DB15 
ARM GAS  /tmp/ccQr5yWK.s 			page 3


  44      4D7CE02C 
  44      BB210826 
  44      94264645 
  45 003e 15154C88 		.ascii	"\025\025L\210\232\250\004\002\305\037l!-\222\370\003"
  45      9AA80402 
  45      C51F6C21 
  45      2D92F803 
  46 004e 4D1FFA60 		.ascii	"M\037\372`\370\011A\233\324\027*\260\316\234\373\263"
  46      F809419B 
  46      D4172AB0 
  46      CE9CFBB3 
  47 005e 97D5063C 		.ascii	"\227\325\006<\331{f\31693\337|3\347g\025P\240\263\225"
  47      D97B66CE 
  47      3933DF7C 
  47      33E76715 
  47      50A0B395 
  48 0072 E9FBC800 		.ascii	"\351\373\310\000\370\222$:\200\366\310\014)6*R*\212"
  48      F892243A 
  48      80F6C80C 
  48      29362A52 
  48      2A8A
  49 0084 7A5805E1 		.ascii	"zX\005\341h\277\235\002\020i\025-\236\256[\232b\035"
  49      68BF9D02 
  49      1069152D 
  49      9EAE5B9A 
  49      621D
  50 0096 5D49F3FA 		.ascii	"]I\363\372\317.M\353\212\361\306=42\233kid\240\031\030"
  50      CF2E4DEB 
  50      8AF1C63D 
  50      34329B6B 
  50      6964A019 
  51 00ab 9991B585 		.ascii	"\231\221\265\205\310\012 l\266\025U\323\015\323\302"
  51      C80A206C 
  51      B61555D3 
  51      0DD3C2
  52 00ba CDCF2387 		.ascii	"\315\317#\207\327\312\010\253`\257\020\273\347\1778"
  52      D7CA08AB 
  52      60AF10BB 
  52      E77F38
  53 00c9 FEF98AED 		.ascii	"\376\371\212\355\037\324G\304\315V\013}^\365\020\236"
  53      1FD447C4 
  53      CD560B7D 
  53      5EF5109E 
  54 00d9 230DBBA5 		.ascii	"#\015\273\245P:\310K\267\321\211_f\336Z!\022n\012<\200"
  54      503AC84B 
  54      B7D1895F 
  54      66DE5A21 
  54      126E0A3C 
  55 00ee 77E4298E 		.ascii	"w\344)\216\274\370\211hN\264ZOJ\257\207n\347uH\021\363"
  55      BCF88968 
  55      4EB45A4F 
  55      4AAF876E 
  55      E7754811 
  56 0103 ADD63B1F 		.ascii	"\255\326;\037;\367\"\226\021\025\360QU\251\3234\356"
  56      3BF72296 
  56      1115F051 
  56      55A9D334 
ARM GAS  /tmp/ccQr5yWK.s 			page 4


  56      EE
  57 0114 74EE0CEA 		.ascii	"t\356\014\352t\223:\260xhC\036\307q\0258$\367\221L\361"
  57      74933AB0 
  57      7868431E 
  57      C7711538 
  57      24F7914C 
  58 0129 643A1C64 		.ascii	"d:\034dx@\260:4\205\030y0\260\014\226d\346\324r\324"
  58      7840B03A 
  58      34851879 
  58      30B00C96 
  58      64E6D472 
  59 013e 73E17268 		.ascii	"s\341rh\263T\373((\313i\3302\373\366\3425%\217\373Q"
  59      B354FB28 
  59      28CB69D8 
  59      32FBF6E2 
  59      35258FFB 
  60 0153 87222AAB 		.ascii	"\207\"*\253\341a\"\363.\354\256\013\321\355\243QD\344"
  60      E16122F3 
  60      2EECAE0B 
  60      D1EDA351 
  60      44E4
  61 0165 0C54C9FB 		.ascii	"\014T\311\373%\2142 \277\251\237\234\300k5\034\020\324"
  61      258C3220 
  61      BFA99F9C 
  61      C06B351C 
  61      10D4
  62 0177 D69255A8 		.ascii	"\326\222U\250\246|4c\010\3535X\022\333X\263\313\310"
  62      A67C3463 
  62      08EB3558 
  62      12DB58B3 
  62      CBC8
  63 0189 85603C3B 		.ascii	"\205`<;\304\303P\006\005*\262$\350\245\306\327\357?"
  63      C4C35006 
  63      052AB224 
  63      E8A5C6D7 
  63      EF3F
  64 019b 710BF886 		.ascii	"q\013\370\206\016RJ\222T \2030\342\010-8\241\327Y\322"
  64      0E524A92 
  64      54208330 
  64      E2082D38 
  64      A1D759D2 
  65 01af 4D0A1AC5 		.ascii	"M\012\032\305\211\250\177sn\3612\336\202\237\3611\265"
  65      89A87F73 
  65      6EF132DE 
  65      829FF131 
  65      B5
  66 01c0 6CD29A94 		.ascii	"l\322\232\224<\223be\022\276\277x\342\213l\\\2620p\266"
  66      3C936265 
  66      12BEBF78 
  66      E28B6C5C 
  66      B23070B6 
  67 01d4 1DF7F1FF 		.ascii	"\035\367\361\377\010\033\265>\202=\254\252g\240\261"
  67      081BB53E 
  67      823DACAA 
  67      67A0B1
  68 01e3 30F7EBD6 		.ascii	"0\367\353\326l\270g\321\346M\354\270\372\241\011\020"
  68      6CB867D1 
ARM GAS  /tmp/ccQr5yWK.s 			page 5


  68      E64DECB8 
  68      FAA10910 
  69 01f3 607B917F 		.ascii	"`{\221\177\\\301\264\207\264U_\321\0325\0373\021\244"
  69      5CC1B487 
  69      B4555FD1 
  69      1A351F33 
  69      11A4
  70 0205 0674AB82 		.ascii	"\006t\253\202\315\\\232R#f\341v\220\037,[;\275]\225"
  70      CD5C9A52 
  70      2366E176 
  70      901F2C5B 
  70      3BBD5D95 
  71 0219 D9853827 		.ascii	"\331\2058'M\036\003X\266\"m\257\306\266\306\005\214"
  71      4D1E0358 
  71      B6226DAF 
  71      C6B6C605 
  71      8C
  72 022a DC748A59 		.ascii	"\334t\212Y\344r\021\332\272d}\357\200B\221\3454|;\373"
  72      E47211DA 
  72      BA647DEF 
  72      804291E5 
  72      347C3BFB 
  73 023e DE9F973E 		.ascii	"\336\237\227>\035\305\316\272,\316\216\031\361`\357"
  73      1DC5CEBA 
  73      2CCE8E19 
  73      F160EF
  74 024d 9B639978 		.ascii	"\233c\231xp\372z\303nWL\245O\243O\0170\015\216\337\254"
  74      70FA7AC3 
  74      6E574CA5 
  74      4FA34F0F 
  74      300D8EDF 
  75 0262 CF5F3B39 		.ascii	"\317_;93\212\232\217]\314b\204Yd\231B7\357\226&\267"
  75      338A9A8F 
  75      5DCC6284 
  75      59649942 
  75      37EF9626 
  76 0277 B63B6463 		.ascii	"\266;dc0\326\361\300\237\322\370\243\321\225\307c2;"
  76      30D6F1C0 
  76      9FD2F8A3 
  76      D195C763 
  76      323B
  77 0289 B3C88B5C 		.ascii	"\263\310\213\\\250\271\337\367\274\020\345l\005\245"
  77      A8B9DFF7 
  77      BC10E56C 
  77      05A5
  78 0297 0A777E0F 		.ascii	"\012w~\017\376\357\243o\266k\371z\243\032\301\3322\236"
  78      FEEFA36F 
  78      B66BF97A 
  78      A31AC1DA 
  78      329E
  79 02a9 053005E1 		.ascii	"\0050\005\341\345\014\256u\221\375'\241y\341\304\337"
  79      E50CAE75 
  79      91FD27A1 
  79      79E1C4DF 
  80 02b9 3BD544DD 		.ascii	";\325D\335\355\344\011\323\341\307GT\211wp\374\276\310"
  80      EDE409D3 
  80      E1C74754 
ARM GAS  /tmp/ccQr5yWK.s 			page 6


  80      897770FC 
  80      BEC8
  81 02cb C889EC12 		.ascii	"\310\211\354\022\210\373$\242\023\"\216\215\306\210"
  81      88FB24A2 
  81      13228E8D 
  81      C688
  82 02d9 0E3385E4 		.ascii	"\0163\205\344\361\355\243\344\367\247\325)\3302\277"
  82      F1EDA3E4 
  82      F7A7D529 
  82      D832BF
  83 02e8 F3B29104 		.ascii	"\363\262\221\004`SM\211\315L\016Nf\026\304\001\322\341"
  83      60534D89 
  83      CD4C0E4E 
  83      6616C401 
  83      D2E1
  84 02fa 49B932EE 		.ascii	"I\2712\356F\001R\224\234d\303\013q\330\214\\H'8\206"
  84      46015294 
  84      9C64C30B 
  84      71D88C5C 
  84      48273886 
  85 030e 4FF38D1D 		.ascii	"O\363\215\035\337\241\330.\352\013\255VV\276\261\207"
  85      DFA1D82E 
  85      EA0BAD56 
  85      56BEB187 
  86 031e F0768F6C 		.ascii	"\360v\217l\221\257\307\031h.\314\335<\331\365\257k6"
  86      91AFC719 
  86      682ECCDD 
  86      3CD9F5AF 
  86      6B36
  87 0330 FD979EC7 		.ascii	"\375\227\236\307I\371BFG\307\350\270lwyh\346\361tt\224"
  87      49F94246 
  87      47C7E8B8 
  87      6C777968 
  87      E6F17474 
  88 0345 E889B89B 		.ascii	"\350\211\270\233\265\363\220\246\372\350\237\355*\204"
  88      B5F390A6 
  88      FAE89FED 
  88      2A84
  89 0353 891BD777 		.ascii	"\211\033\327w\2259qK\276\250g\351_\252M\"G4i\226\251"
  89      9539714B 
  89      BEA867E9 
  89      5FAA4D22 
  89      47346996 
  90 0368 DDDFD3E3 		.ascii	"\335\337\323\343\006\277\312\260[\255\271\303U\317\365"
  90      06BFCAB0 
  90      5BADB9C3 
  90      55CFF5
  91 0377 0637D57A 		.ascii	"\0067\325z<\320\007\012\245Z\336\032\252\274\"\0257"
  91      3CD0070A 
  91      A55ADE1A 
  91      AABC2215 
  91      37
  92 0388 69E955CA 		.ascii	"i\351U\312\345\312\220\273\261R\255\015\273O=\333\373"
  92      E5CA90BB 
  92      B152AD0D 
  92      BB4F3DDB 
  92      FB
ARM GAS  /tmp/ccQr5yWK.s 			page 7


  93 0399 74EFABE4 		.ascii	"t\357\253\344\346U\252\205\376\232_.T{\006aM\322~0_"
  93      E655AA85 
  93      FE9A5F2E 
  93      547B0661 
  93      4DD27E30 
  94 03ae 0A8D37E4 		.ascii	"\012\2157\344z\327<\346\256_\377\214\233[\327\273\351"
  94      7AD73CE6 
  94      AE5FFF8C 
  94      9B5BD7BB 
  94      E9
  95 03bf 515EE91F 		.ascii	"Q^\351\037\256\365\227J\003\344\263\262\203\215?\344"
  95      AEF5974A 
  95      03E4B3B2 
  95      838D3FE4 
  96 03cf 955E1E28 		.ascii	"\225^\036(\004\214\006Ac\354\177\000f\340\306\240"
  96      048C0641 
  96      63EC7F00 
  96      66E0C6A0 
  97              		.text
  98              		.section	.gnu.lto__vt_init.86b73c2c7dbdcd3d,"",%progbits
  99 0000 789C6362 		.ascii	"x\234cb`b@\007\222 \014\024\226\001\322\214\314\014"
  99      60624007 
  99      92200C14 
  99      9601D28C 
  99      CC0C
 100 0012 8C4C13CE 		.ascii	"\214L\023\316104r012\202\030\014\214\014\365L\214\365"
 100      31303472 
 100      30313282 
 100      180C8C0C 
 100      F54C8CF5 
 101 0026 918C60B5 		.ascii	"\221\214`\265\353\231\016<\370\377\177\335\257\255\017"
 101      EB990E3C 
 101      F8FF7FDD 
 101      AFAD0F
 102 0035 FB1905D9 		.ascii	"\373\031\005\331\200\002\254\014-\015\015\023\024\030"
 102      8002AC0C 
 102      2D0D0D13 
 102      1418
 103 0043 1892C10A 		.ascii	"\030\222\301\012B\200$HW(#\023\210f>\313\320\364\253"
 103      42802448 
 103      57282313 
 103      88663ECB 
 103      D0F4AB
 104 0056 F9FF65A6 		.ascii	"\371\377e\246D\306\205\214\254\014\332\014\253\032\200"
 104      44C6858C 
 104      AC0CDA0C 
 104      AB1A80
 105 0065 C0329311 		.ascii	"\3002\223\021\306\344\316dd\234\3150\253\261\241A \223"
 105      C6E4CE64 
 105      649CCD30 
 105      ABB1A141 
 105      2093
 106 0077 91A99AE1 		.ascii	"\221\251\232\341WC\007\210\305\234\0136-\202\021\310"
 106      57430788 
 106      C59C0B36 
 106      2D8211C8 
 107 0087 04DB9B04 		.ascii	"\004\333\233\004\261\036HC\030\020\225\015\363\201\012"
ARM GAS  /tmp/ccQr5yWK.s 			page 8


 107      B11E4843 
 107      1810950D 
 107      F3810A
 108 0096 58A0466D 		.ascii	"X\240Fm\005\262\031\201\372`J\301\000l\377\342\036-"
 108      05B21981 
 108      FA604AC1 
 108      006CFFE2 
 108      1E2D
 109 00a8 EAD9CF44 		.ascii	"\352\331\317D\252\375;v<\272\201\341\177V\262\355\207"
 109      AAFD3B76 
 109      3CBA81E1 
 109      7F56B2ED 
 109      87
 110 00b9 F041326C 		.ascii	"\360A2l\377\3773\303\254x\374\201\212V\260 \254\000"
 110      FFFF33C3 
 110      AC78FC81 
 110      8A56B020 
 110      AC00
 111 00cb 312E3234 		.ascii	"1.24>\350W\206\030\017\003!\300x\000\306/(0\244\364"
 111      3EE85786 
 111      180F0321 
 111      C07800C6 
 111      2F2830A4 
 112 00e0 F4F42128 		.ascii	"\364\364!(\277X\277\250D\277\270(Y?9\243\254D/\231\001"
 112      BF58BFA8 
 112      44BFB828 
 112      593F39A3 
 112      AC442F99 
 113 00f5 00BBF58A 		.ascii	"\000\273\365\212f"
 113      66
 114              		.text
 115              		.section	.gnu.lto_chVTDoSetI.86b73c2c7dbdcd3d,"",%progbits
 116 0000 789CAD56 		.ascii	"x\234\255V}h\225U\030?\3179\367\356\275\337[\202\371"
 116      7D689555 
 116      183FCF39 
 116      F7EEBDDF 
 116      5B82F9
 117 0013 B52F876C 		.ascii	"\265/\207ll\312\256k\216\222\350\217\250\177\004\367"
 117      6CCAAE6B 
 117      8E92E88F 
 117      A87F04F7 
 118 0023 4735A1E8 		.ascii	"G5\241\350\017\271\335\215\273\013\273\233l\313\202"
 118      0FB9DD8D 
 118      BB0BBB9B 
 118      6CCB82
 119 0032 02DFEB2E 		.ascii	"\002\337\353.\245i)2\303RA\031VL\231\222\34063\232&"
 119      A5692932 
 119      C3524119 
 119      564C9992 
 119      E036339A 
 120 0047 E892746A 		.ascii	"\350\222tj\342\256E\\\203i\202\310\314\312e\262\333"
 120      E2AE455C 
 120      836982C8 
 120      CCCA65B2 
 120      DB
 121 0058 73BEDEFB 		.ascii	"s\276\336\373\251S\351\345\336\347\274\357s\236\347"
 121      A953E9E5 
ARM GAS  /tmp/ccQr5yWK.s 			page 9


 121      DEE7BCEF 
 121      739EE7
 122 0067 779EAFF3 		.ascii	"w\236\257\363\234C\011%\331\317~\374\207\274\204\034"
 122      9C430925 
 122      D9CF7EFC 
 122      87BC841C 
 123 0077 C2110A09 		.ascii	"\302\021\012\011\320\255g\011\211:(e\233g\023\323e\213"
 123      D0AD6709 
 123      893A2865 
 123      9B6713D3 
 123      658B
 124 0089 2D27A687 		.ascii	"-'\246\207\201M\262m\324>\314\220]p\371\007\202|;\370"
 124      814DB26D 
 124      D43ECC90 
 124      5D70F907 
 124      827C3BF8 
 125 009d 24BF801A 		.ascii	"$\277\200\032\033\252\220\357\340\324c\200K\262\035"
 125      1BAA90EF 
 125      E0D46380 
 125      4BB21D
 126 00ac D4F9D3D3 		.ascii	"\324\371\323\323\310v\035{\026\331N\315v\201\207\277"
 126      C8761D7B 
 126      16D94ECD 
 126      768187BF 
 127 00bc 805B8EC7 		.ascii	"\200[\216\307\035\036\352\336|\012\001]\336\230\201"
 127      1D1EEADE 
 127      7C0A015D 
 127      DE9881
 128 00cb 825E0DEB 		.ascii	"\202^\015\353\003\340/\004\310:\312l\366\002\303\341"
 128      03E02F04 
 128      C83ACA6C 
 128      F602C3E1 
 129 00db 74B93D5E 		.ascii	"t\271=^\037\254{\003\270\361\264\202\3545\315m\211}"
 129      1FAC7B03 
 129      B8F1B482 
 129      EC35CD6D 
 129      897D
 130 00ed 7F24E867 		.ascii	"\177$\350g\346Hl\217y?\231\004\010\003:Z\002$\010\344"
 130      E6486C8F 
 130      793F9904 
 130      08033A5A 
 130      022408E4 
 131 0101 75FC8072 		.ascii	"u\374\200r1P[\246\347Rwd\373\251O\346\232{\242[\315"
 131      31505BA6 
 131      E7527764 
 131      FBA94FE6 
 131      9A7BA25B 
 132 0116 69540D03 		.ascii	"iT\015\003\243\244,\245Y$5\263\302v\220\216$\222\311"
 132      A3A42CA5 
 132      592435B3 
 132      C276908E 
 132      2492C9
 133 0129 CDC37FFE 		.ascii	"\315\303\177\376v\023f=\007$\302\327\013\300^\250 \014"
 133      7613663D 
 133      0724C2D7 
 133      0BC05EA8 
 133      200C
ARM GAS  /tmp/ccQr5yWK.s 			page 10


 134 013b C73E1C0D 		.ascii	"\307>\034\015\210\0008\220P\027\022\346EB|\004\015\233"
 134      88003890 
 134      501712E6 
 134      45427C04 
 134      0D9B
 135 014d 8DC43687 		.ascii	"\215\3046\207\223\271\234\314S\362\363\361\303\276\200"
 135      93B99CCC 
 135      53F2F3F1 
 135      C3BE80
 136 015c 93624E4A 		.ascii	"\223bNJ8)\345\002eJ\240\\-\260\2203+8Y\304I\245\232"
 136      3829E502 
 136      654AA05C 
 136      2DB09033 
 136      2B3859C4 
 137 0173 AE52D3D5 		.ascii	"\256R\323\325j\254\341k-Q\223K\271d\035'\313\220\024"
 137      6AACE16B 
 137      2D51934B 
 137      B9641D27 
 137      CB9014
 138 0186 342061E8 		.ascii	"4 a\350\206\235\304Lsk\271T\220\222\021\300 \005El\233"
 138      869DC44C 
 138      736BB954 
 138      909211C0 
 138      2005456C 
 139 019b 900E1864 		.ascii	"\220\016\030d\025P\034\330\217d\375\231\251;\011\010"
 139      15501CD8 
 139      8F64FD99 
 139      A93B0908 
 140 01ab C03EB093 		.ascii	"\300>\260\223\305\244\337\304\307\033\006c'\371\034"
 140      C5A4DFC4 
 140      C71B0663 
 140      27F91C
 141 01ba 23E40881 		.ascii	"#\344\010\201\301#%\343\363\226\032C\340 \204k\356\370"
 141      C12325E3 
 141      F3961A43 
 141      E020846B 
 141      EEF8
 142 01cc FBF71C4D 		.ascii	"\373\367\034Mg~MP\232.\256y\342\312\261\213g\2679\225"
 142      677E4D50 
 142      9A2EAE79 
 142      E2CAB18B 
 142      67B73995 
 143 01e0 A1DAE291 		.ascii	"\241\332\342\221\353\037\377\314\230\3655\321\273\333"
 143      EB1FFFCC 
 143      98F535D1 
 143      BBDB
 144 01ee 6B7D6CBA 		.ascii	"k}l\272u\333\232)\227\0316\017\231\246]T\006\023\351"
 144      75DB9A29 
 144      9719360F 
 144      99A65D54 
 144      0613E9
 145 0201 FD0A66CA 		.ascii	"\375\012f\312/!\322X\302c\301\205)\376\231\264k\031"
 145      2F21D258 
 145      C263C185 
 145      29FE99B4 
 145      6B19
 146 0213 F720164D 		.ascii	"\367 \026M\354\374\253wE\030\\\350\004\226NQ\030\334"
ARM GAS  /tmp/ccQr5yWK.s 			page 11


 146      ECFCAB77 
 146      45185CE8 
 146      04964E51 
 146      18DC
 147 0225 1CC8C37D 		.ascii	"\034\310\303}\263\011L\217\362\207r\260\375\022\014"
 147      B3094C8F 
 147      F28772B0 
 147      FD120C
 148 0234 4371ABC7 		.ascii	"Cq\253\307\027\200~\374\014A\003\202\0212J\326O\236"
 148      17807EFC 
 148      0C410382 
 148      11324AD6 
 148      4F9E
 149 0246 F8E6FD00 		.ascii	"\370\346\375\000\014 3\000\0071\011\3749Mb\327\216\237"
 149      0C203300 
 149      073109FC 
 149      394D62D7 
 149      8E9F
 150 0258 FFD023F9 		.ascii	"\377\320#\371!\360rL\006i&\256B\213\246\201\241~\342"
 150      21F0724C 
 150      066926AE 
 150      428BA681 
 150      A17EE2
 151 026b 469F21E5 		.ascii	"F\237!\345\"\322-\033\265dl<y(\203\211\300\311\020\017"
 151      22D22D1B 
 151      B5646C3C 
 151      79288389 
 151      C0C9100F 
 152 027f 2F5A7165 		.ascii	"/Zqe\350\337\323\206\206\366-&5\030\177\225\231K\250"
 152      E8DFD386 
 152      86F62D26 
 152      35187F95 
 152      994BA8
 153 0292 EFE55E99 		.ascii	"\357\345^\231\334+\337{\344\236\271\201\277\025F\204"
 153      DC2BDF7B 
 153      E49EB981 
 153      BF154684 
 154 02a2 0F1CBE50 		.ascii	"\017\034\276P\271\306\324\250\367\325ir\362z\264\316"
 154      B9C6D4A8 
 154      F7D56972 
 154      F27AB4CE 
 155 02b2 8295AA66 		.ascii	"\202\225\252f}\030\212\024\366r\204F\030\255\231\366"
 155      7D188A14 
 155      F6728446 
 155      18AD99F6 
 156 02c2 C409A08F 		.ascii	"\304\011\240\217\024\224\365l\327\267\335\334z;\251"
 156      1494F56C 
 156      D7B7DDDC 
 156      7A3BA9
 157 02d1 E195373A 		.ascii	"\341\2257:4=\306$\256Bz\005\203\241^\353\037\333^\273"
 157      343DC624 
 157      AE427A05 
 157      83A15EEB 
 157      1FDB5EBB 
 158 02e5 2AB10659 		.ascii	"*\261\006Y\234\343\323\2234\033\234<1\270M\201\033\022"
 158      9CE3D393 
 158      341B9C3C 
ARM GAS  /tmp/ccQr5yWK.s 			page 12


 158      31B84D81 
 158      1B12
 159 02f7 7CEA7F05 		.ascii	"|\352\177\005/\310\000\277\327sgKu\006x\003\202\347"
 159      2FC800BF 
 159      D773674B 
 159      75067803 
 159      82E7
 160 0309 DF568618 		.ascii	"\337V\206\030UJvC*'\207!OR\004\370\335G\006w<.\370\231"
 160      554A7643 
 160      2A278721 
 160      4F5204F8 
 160      DD470677 
 161 0321 F1E418CD 		.ascii	"\361\344\030\315\006g\371\301\235\312gQ\271=\033z\276"
 161      0667F9C1 
 161      9DCA6751 
 161      B93D1B7A 
 161      BE
 162 0332 EC7D4197 		.ascii	"\354}A\227\330l\344\2124\216\022\205\246zz\362\203\357"
 162      D86CE48A 
 162      348E1285 
 162      A67A7AF2 
 162      83EF
 163 0344 C1FCC88C 		.ascii	"\301\374\310\214N&\223\205b\317\037\230q\317#\032!\347"
 163      4E269385 
 163      62CF1F98 
 163      71CF231A 
 163      21E7
 164 0356 486C72B8 		.ascii	"Hlr\270\357\332\024dw\2343'/\340~9'6\247\\)\250\313"
 164      EFDA1464 
 164      779C3327 
 164      2FE07E39 
 164      2736A75C 
 165 036d DECADB53 		.ascii	"\336\312\333SA\260\007\340\202,/\204\013\303,\275\013"
 165      41B007E0 
 165      822C2F84 
 165      0BC32CBD 
 165      0B
 166 037e 0B484CEC 		.ascii	"\013HL\354\302\304\226\011\320;\2357]\334%r?N}q\225"
 166      C2C49609 
 166      D03B9D37 
 166      5DDC2572 
 166      3F4E7D71 
 167 0393 69AFE688 		.ascii	"i\257\346\210\375\250\313\373\315',o\021\255\215=\355"
 167      FDA8CBFB 
 167      CD272C6F 
 167      11AD8D3D 
 167      ED
 168 03a4 1A75AE68 		.ascii	"\032u\256h8sd\020\255\265\346\211\011H\213\240<\007"
 168      38736410 
 168      ADB5E689 
 168      09488BA0 
 168      3C07
 169 03b6 7046B5AB 		.ascii	"pF\265\253\273\275eZx~\212{\0044s\201\336G\267,\320"
 169      BBBD655A 
 169      787E8A7B 
 169      04347381 
 169      DE47B72C 
ARM GAS  /tmp/ccQr5yWK.s 			page 13


 170 03cb 62BDCE46 		.ascii	"b\275\316F\213U\"\004\213E\217\230H\365\010D,I\245`"
 170      8B552204 
 170      8B458F98 
 170      48F50844 
 170      2C49A560 
 171 03df 1556E909 		.ascii	"\025V\351\011\306D\177\352\037\245Z\250T\306\303\252"
 171      C6447FEA 
 171      1FA55AA8 
 171      54C6C3AA 
 172 03ef 0E5F6E75 		.ascii	"\016_nu(g\327j\2252\341Yi\036\267\312d\274\307\373G"
 172      2867D76A 
 172      9532E159 
 172      691EB7CA 
 172      64BCC7FB 
 173 0404 2D0FCA53 		.ascii	"-\017\312S\335\211\344_\304P\213`\006G\346e\346\257"
 173      DD89E45F 
 173      C4508B60 
 173      0647E665 
 173      E6AF
 174 0416 5C9BEED0 		.ascii	"\\\233\356\320\246\357\330\377\217e\372\302G1\035Cr"
 174      A6EFD8FF 
 174      8F65FAC2 
 174      47311D43 
 174      72
 175 0427 2DFABCA5 		.ascii	"-\372\274\245\"\202\234\012\211\223\364\000\023\205"
 175      22829C0A 
 175      8993F400 
 175      1385
 176 0435 FFDD764B 		.ascii	"\377\335vK\250\002#,\344f(\374\000\214\211\263\353\341"
 176      A802232C 
 176      E46628FC 
 176      008C89B3 
 176      EBE1
 177 0447 855F210A 		.ascii	"\205_!\012\177l\270\317\310)\373\313_c\331\377\232Q"
 177      7F6CB8CF 
 177      C829FBCB 
 177      5F63D9FF 
 177      9A51
 178 0459 F605B965 		.ascii	"\366\005\271e\2172\011]\366\025ie\357\342e\317\233{"
 178      8F32095D 
 178      F6156965 
 178      EFE265CF 
 178      9B7B
 179 046b 35BAEEB8 		.ascii	"5\272\356\270\177\036\013\303\347\344A3\016\\j\216\223"
 179      7F1E0BC3 
 179      E7E44133 
 179      0E5C6A8E 
 179      93
 180 047c 25E882E3 		.ascii	"%\350\202\343\330\3056\0348\267\314\330uIt}7\301\313"
 180      D8C5361C 
 180      38B7CCD8 
 180      7549747D 
 180      37C1CB
 181 048f 2013191D 		.ascii	" \023\031\035\374t\201<\212CP\031\002\026\202E\312\347"
 181      FC74813C 
 181      8A435019 
 181      02168245 
ARM GAS  /tmp/ccQr5yWK.s 			page 14


 181      CAE7
 182 04a1 7D6939AD 		.ascii	"}i9\255T9=\274\\\313V\345kY\364A)54\234Li\2256\337C"
 182      54393DBC 
 182      5CCB56E5 
 182      6B59F441 
 182      2935349C 
 183 04bb F0F209F2 		.ascii	"\360\362\011\362\360\324k1\241\"\030R\232\312\305w\034"
 183      F0D46B31 
 183      A1221852 
 183      9ACAC577 
 183      1C
 184 04cc 8E835E7D 		.ascii	"\216\203^}QV\326\351\003\262>\021\255\267TB\251\016"
 184      5156D6E9 
 184      03B23E11 
 184      ADB75442 
 184      A90E
 185 04de 19273404 		.ascii	"\031'4\004\325.\354lU\356\233\361\3428A\267\227\360"
 185      D52EEC6C 
 185      55EE9BF1 
 185      E23841B7 
 185      97F0
 186 04f0 CF4AF72F 		.ascii	"\317J\367/\3616n\230\227\307\225\237\213\343Gn\344\334"
 186      F1366E98 
 186      97C7959F 
 186      8BE3476E 
 186      E4DC
 187 0502 AB1E7A00 		.ascii	"\253\036z\000X\366N\0359\316\364\3425\362\002\220\337"
 187      58F64E1D 
 187      39CEF4E2 
 187      35F20290 
 187      DF
 188 0513 5E87B5C1 		.ascii	"^\207\265\301\326\217\0362\036q1\207Z\254F]\377\006"
 188      D68F1E32 
 188      1E713187 
 188      5AAC465D 
 188      FF06
 189 0525 E3344333 		.ascii	"\3434C3c\253\325\3443S\035\237C\203\361L\007\2353\030"
 189      63ABD5E4 
 189      33531D9F 
 189      4383F14C 
 189      079D3318 
 190 0539 AA3547C7 		.ascii	"\2525G\307\007o\347\204f\206\023\206\251::z\325J\345"
 190      076FE784 
 190      66861386 
 190      A93A3A7A 
 190      D54AE5
 191 054c 52A95C34 		.ascii	"R\251\\4c:U\267\223Zu\250\250\341V\244\0331\023\016"
 191      633A55B7 
 191      935A75A8 
 191      A8E156A4 
 191      1B31130E 
 192 0560 AA0AA5A1 		.ascii	"\252\012\245\241\251\243\271\021\323'\202\373\261O\004"
 192      A9A3B911 
 192      D32782FB 
 192      B14F04
 193 056f 9718C5DD 		.ascii	"\227\030\305\335\012/\301Vk\361\361\273\341y\022Ml\322"
 193      0A2FC156 
ARM GAS  /tmp/ccQr5yWK.s 			page 15


 193      6BF1F1BB 
 193      E179124D 
 193      6CD2
 194 0581 A7927E9A 		.ascii	"\247\222~\232\360H\0300x\243\230_[\353\227\277\216."
 194      F0481830 
 194      78A3985F 
 194      5BEB97BF 
 194      8E2E
 195 0593 7F67B7BF 		.ascii	"\177g\267\277\2533\350\017\266\256\355\256\015\022X"
 195      AB33E80F 
 195      B6AEEDAE 
 195      0D1258
 196 05a2 636F6E69 		.ascii	"coni\353\016\324\247\213\264\006\332\374k::\273\273"
 196      EB0ED4A7 
 196      8BB406DA 
 196      FC6B3A3A 
 196      BBBB
 197 05b4 FCAF3535 		.ascii	"\374\25755\326?\343_\271\362e\177\323\212\306\265u|"
 197      D63FE35F 
 197      B9F2657F 
 197      D38AC6B5 
 197      757C
 198 05c6 667557F7 		.ascii	"fuW\367\352\266\266\346\332V\342O\327\011vD\"\035\355"
 198      EAB6B6E6 
 198      DA56E24F 
 198      D7097644 
 198      221DED
 199 05d9 4AEDC557 		.ascii	"J\355\305W\033_j|\027\327\010vt\266\254\356\016GZ:Q"
 199      1B5F6A7C 
 199      17D70876 
 199      74B6ACEE 
 199      0E475A3A 
 200 05ee BE34CB8C 		.ascii	"\2764\313\214p{\260\355\355\346\026iJ+a\355\035\357"
 200      707BB0ED 
 200      EDE61669 
 200      4A2B61ED 
 200      1DEF
 201 0600 D8B8EC7F 		.ascii	"\330\270\354\177\035\252FF"
 201      1DAA4646 
 202              		.text
 203              		.section	.gnu.lto_chVTDoResetI.86b73c2c7dbdcd3d,"",%progbits
 204 0000 789CAD93 		.ascii	"x\234\255\2231h\024A\024\206\337{\263\263{\271=5`#\202"
 204      31681441 
 204      1486DF7B 
 204      B3B37BB9 
 204      3D356023 
 205 0015 2016161E 		.ascii	" \026\026\036\334!6Z\210\265`\231\003\355\214\253\304"
 205      DC21365A 
 205      88B56099 
 205      03ED8CAB 
 205      C4
 206 0026 05CF4072 		.ascii	"\005\317@rha\2219sE*9\254D\033\323\211\210ZX\304\356"
 206      68619139 
 206      73452A39 
 206      AC441BD3 
 206      89885A58 
 207 003c CECAA046 		.ascii	"\316\312\240F-\204 \001\305V\215\265A\\\337\233\331"
ARM GAS  /tmp/ccQr5yWK.s 			page 16


 207      2D842001 
 207      C5568DB5 
 207      415CDF9B 
 207      D9
 208 004d B9BD2487 		.ascii	"\271\275$\207i2\334\2757\263;\337\377\336\2747K@\260"
 208      6932DCBD 
 208      37B33BDF 
 208      FFDEBC37 
 208      4B40B0
 209 0060 759CE3FF 		.ascii	"u\234\343\377O\005Pe\217\021 uW\000\332%\"\365\342\025"
 209      4F055065 
 209      8F112075 
 209      5700DA25 
 209      22F5E215 
 210 0074 8029EBB5 		.ascii	"\200)\353\265\030LEQ\340\226\241]\006\030\272m\332M"
 210      184C4551 
 210      E096A15D 
 210      0618BA6D 
 210      DA4D
 211 0086 3044140F 		.ascii	"0D\024\017\010s\244\002\035\342\334\005\264\362\317"
 211      0873A402 
 211      1DE2DC05 
 211      B4F2CF
 212 0095 A8F735CB 		.ascii	"\250\3675\313\236\376y\363\344-.\323~\202\024Aa\023"
 212      9EFE79F3 
 212      E42D2ED3 
 212      7E821441 
 212      6113
 213 00a7 21909916 		.ascii	"!\220\231\026\023\211)\263\301XLE\014\223\032:\306t"
 213      138929B3 
 213      C1584C45 
 213      0C931A3A 
 213      C674
 214 00b9 0F37118F 		.ascii	"\0177\021\217\300\2421w{\237V\356\0340\017\333]\363"
 214      C0A23177 
 214      7B9F56EE 
 214      1C300FDB 
 214      5DF3
 215 00cb 37CB3045 		.ascii	"7\3130E\"8\204\220 \234\347\205\032\267.\330r>G\232"
 215      22388490 
 215      209CE785 
 215      1AB72ED8 
 215      723E479A 
 216 00df 2F171F99 		.ascii	"/\027\037\231N/\313\316X\352\350N\024\310{\036\023l"
 216      4E2FCBCE 
 216      58EAE84E 
 216      14C87B1E 
 216      136C
 217 00f1 E5540D24 		.ascii	"\345T\015$\361\352\035\334\376\274\372\275O\223\270"
 217      F1EA1DDC 
 217      FEBCFABD 
 217      4F93B8
 218 0100 881AA690 		.ascii	"\210\032\246\220\252p\214S\257\302c\303\343D\212\372"
 218      AA708C53 
 218      AFC263C3 
 218      E3448AFA 
 219 0110 01DC6F1B 		.ascii	"\001\334o\0333\236bx\0136\314\202\314\242&\212\274\304"
ARM GAS  /tmp/ccQr5yWK.s 			page 17


 219      339E6278 
 219      0B36CC82 
 219      CCA2268A 
 219      BCC4
 220 0122 89ACF625 		.ascii	"\211\254\366%W\030\366\371\004^C\347G{\317@u\012U\221"
 220      5718F6F9 
 220      045E43E7 
 220      477BCF40 
 220      750A5591 
 221 0136 4983175C 		.ascii	"I\203\027\\y\033\373\336z\037\375\256\300\305\346\200"
 221      791BFBDE 
 221      7A1FFDAE 
 221      C0C5E680 
 222 0146 2C5C6244 		.ascii	",\\bD\002xa\177\036\201>\354\365\210\376\037\242\012"
 222      0278617F 
 222      1E813EEC 
 222      F588FE1F 
 222      A20A
 223 0158 64F979EC 		.ascii	"d\371y\354\220\374`\247\207\241`;\304\312.\324\322P"
 223      90FC60A7 
 223      87A1603B 
 223      C4CA2ED4 
 223      D250
 224 016a 7ED16E04 		.ascii	"~\321n\004\213\266\037\2123\260\334\322\352\372o\334"
 224      8BB61F8A 
 224      33B0DCD2 
 224      EAFA6FDC 
 225 017a 441E4F71 		.ascii	"D\036Oqlt\270\300zy2\346\313\335\337\030\224%r\255\222"
 225      6C74B8C0 
 225      7A7932E6 
 225      CBDDDF18 
 225      942572AD 
 226 018f FE9573A9 		.ascii	"\376\225s\251S\334Jn\233\357\324\246\321`\271\227'\335"
 226      53DC4A6E 
 226      9BEFD4A6 
 226      D160B997 
 226      27DD
 227 01a1 5DF8D557 		.ascii	"]\370\325W^%G\271\3414:}=\334\223}\036\213m\231ht\336"
 227      5E2547B9 
 227      E1343A7D 
 227      3DDC937D 
 227      1E8B6D99 
 228 01b8 0532BF30 		.ascii	"\0052\2770\377mP\332\012Gc\322J\235\035.\301N\301\031"
 228      FF6D50DA 
 228      0A4763D2 
 228      4A9D1D2E 
 228      C14EC119 
 229 01cc F567D0B0 		.ascii	"\365g\320\260\026\253\367\320)9\036`p_\343$\277\227"
 229      16ABF7D0 
 229      29391E60 
 229      705FE324 
 229      BF97
 230 01de 9C4C5A00 		.ascii	"\234LZ\000\241\375\002>\362'_\224b\202w\362Si\314\301"
 230      A1FD023E 
 230      F2275F94 
 230      628277F2 
 230      5369CCC1 
ARM GAS  /tmp/ccQr5yWK.s 			page 18


 231 01f2 5AADEE7E 		.ascii	"Z\255\356~\323\263\365\231V}v&\251'Wo\264j\011\224\256"
 231      D3B3F599 
 231      567D7626 
 231      A927576F 
 231      B46A0994 
 232 0207 4FDFBC7C 		.ascii	"O\337\274|\345ZkR[\373\017#\334\342\360"
 232      E55A6B52 
 232      5BFB0F23 
 232      DCE2F0
 233              		.text
 234              		.section	.gnu.lto_.symbol_nodes.86b73c2c7dbdcd3d,"",%progbits
 235 0000 789C4DC8 		.ascii	"x\234M\310\275\015\302P\030CQ\333_\336c\006\226`EG\242"
 235      BD0DC250 
 235      184351DB 
 235      5FDE6306 
 235      96604547 
 236 0015 20A2A2A1 		.ascii	" \242\242\241$EX\203\037A\220R\221&E\346`\003\220\210"
 236      24455883 
 236      1F419052 
 236      912645E6 
 236      60039088 
 237 0029 08AEEEB1 		.ascii	"\010\256\356\261 \3541M\035\015\354z\300>TLW~\012:\321"
 237      20EC314D 
 237      1D0DEC7A 
 237      C03E544C 
 237      577E0A3A 
 238 003e 9CDEBAA2 		.ascii	"\234\336\272\242\316\264\376x\241c&\037t\361eY\222w"
 238      CEB4FE78 
 238      A163261F 
 238      74F16559 
 238      9277
 239 0050 3ACDBAD1 		.ascii	":\315\272\321\371\247@\306\272\357\226\201\204\343K"
 239      F9A740C6 
 239      BAEF9681 
 239      84E34B
 240 005f 110BB4DB 		.ascii	"\021\013\264\333UDF;<\025\005\320lF\341\015\024S+B"
 240      5544463B 
 240      3C1505D0 
 240      6C46E10D 
 240      14532B42 
 241              		.text
 242              		.section	.gnu.lto_.refs.86b73c2c7dbdcd3d,"",%progbits
 243 0000 789C6362 		.ascii	"x\234cb`b0f\200\000\026\006FF& d`dc\002\261 \230\221"
 243      60623066 
 243      80001606 
 243      46462620 
 243      64606463 
 244 0019 91939901 		.ascii	"\221\223\231\001\312\202\311\003i\026\220\030\003\000"
 244      CA82C903 
 244      69169018 
 244      0300
 245 0027 152A0084 		.ascii	"\025*\000\204"
 246              		.text
 247              		.section	.gnu.lto_.decls.86b73c2c7dbdcd3d,"",%progbits
 248 0000 789CAD5B 		.ascii	"x\234\255[{p\024U\272\357\323=\223\231\220\200\010\253"
 248      7B701455 
 248      BAEFD33D 
ARM GAS  /tmp/ccQr5yWK.s 			page 19


 248      93999080 
 248      08AB
 249 0012 C575BD97 		.ascii	"\305u\275\227p\313\275\327\335Z\011\240\353\262\177"
 249      70CBBDD7 
 249      DD5A09A0 
 249      EBB27F
 250 0021 EC0A060B 		.ascii	"\354\012\006\013\255\222\275V`oQe\335;6\223\226\314"
 250      AD92BD56 
 250      606F5165 
 250      DD3B3693 
 250      96CC
 251 0033 6E92C99D 		.ascii	"n\222\311\235\351\004\250\332*\233\004\"\370\"<\002"
 251      E904A8DA 
 251      2A9B0422 
 251      F8223C02 
 252 0043 01790414 		.ascii	"\001y\004\024\026Q\271\006y,\012qP A\226gx\010\271\220"
 252      1651B906 
 252      792C0A71 
 252      50204196 
 252      677808B9 
 253 0058 78115614 		.ascii	"x\021V\024\225\250\020@\226\354w\276\323=s\272\247{"
 253      95A81040 
 253      96EC77BE 
 253      D33D73BA 
 253      A77B
 254 006a A63B6C17 		.ascii	"\246;l\027\347\344t\3179\277\357\373~\337w\236\335\210"
 254      E7E474CF 
 254      39BFEFFB 
 254      7EDF779E 
 254      DD88
 255 007c 82286C16 		.ascii	"\202(l\026\005\241\027\256\237\377Z\020\216\345\010"
 255      05A117AE 
 255      9FFF5A10 
 255      8EE508
 256 008b 825F1084 		.ascii	"\202_\020\204\337@\222 \255\206\264\006\322VH\004\322"
 256      DF409220 
 256      AD86B406 
 256      D2564804 
 256      D2
 257 009c 7E480148 		.ascii	"~H\001H\015p\263\034R\023\244\215\2206C\332\012\351"
 257      0D70B31C 
 257      5213A48D 
 257      903643DA 
 257      0AE9
 258 00ae 3DC2EAED 		.ascii	"=\302\352\355\240\031w\321\372\203u\234\001\220\362"
 258      A01977D1 
 258      FA83759C 
 258      0190F2
 259 00bd 216DD065 		.ascii	"!m\320eP\2747u9;\241\336.\302\344\266@\372\020\312+"
 259      50BC3775 
 259      393BA1DE 
 259      2EC2E4B6 
 259      40FA10CA 
 260 00d2 207D0469 		.ascii	" }\004i7\244\036H\327 m\203\024\204\337\233u\235\336"
 260      37A41E48 
 260      D7206D83 
 260      1484DF9B 
ARM GAS  /tmp/ccQr5yWK.s 			page 20


 260      759DDE
 261 00e5 80F42E6D 		.ascii	"\200\364.m\017i\013\244\016\370}\237\300\352P\331\327"
 261      0F690BA4 
 261      0EF87D9F 
 261      C0EA50D9 
 261      D7
 262 00f6 751D6F52 		.ascii	"u\035oR\275\300^\011R\216\310t\246:\344Ay)I\327\233"
 262      BDC05E09 
 262      528EC874 
 262      A63AE441 
 262      792949D7 
 263 010b DA18D075 		.ascii	"\332\030\320u\265\352\267U\327\337\317\351\320\012\251"
 263      B5EAB755 
 263      D7DFCFE9 
 263      D00AA9
 264 011a 4D60B289 		.ascii	"M`\262\211\336\336\216\217&\235\217\015\034\037\006"
 264      DEDE8E8F 
 264      269D8F0D 
 264      1C1F06
 265 0129 9E4FE7E4 		.ascii	"\236O\347\344\021\235\027\312\003o\277U\017\203\217"
 265      119D17CA 
 265      036FBF55 
 265      0F838F
 266 0138 3C28EFD1 		.ascii	"<(\357\3219\240\366\033:\355\323\365j\3269\332\242\353"
 266      39A0F61B 
 266      3AEDD3F5 
 266      6AD639DA 
 266      A2EB
 267 014a 18D4F5E0 		.ascii	"\030\324\365\3409\271Sd>4\270\201p\020\326\303\337?"
 267      39B95364 
 267      3E34B881 
 267      7010D6C3 
 267      DF3F
 268 015c 417A0BD2 		.ascii	"Az\013\322\006Hw\211\351\366\320\030\350\317\371\224"
 268      06487789 
 268      E9F6D018 
 268      E8CFF994 
 269 016c F733AFAF 		.ascii	"\3673\257\257a\017\325\373\036\300Y\254\313\340}\330"
 269      610FD5FB 
 269      1EC059AC 
 269      CBE07DD8 
 270 017c CCF951D4 		.ascii	"\314\371Q\324\261\033t?m\"\314WV\371y\302\013\232V\243"
 270      B11B743F 
 270      6D22CC57 
 270      56F979C2 
 270      0B9A56A3 
 271 0190 35D5698F 		.ascii	"5\325i\217\267\015\030$\314\327\340*h\003\015&\023\231"
 271      B70D1824 
 271      CCD7E02A 
 271      68030D26 
 271      1399
 272 01a2 0CC8159E 		.ascii	"\014\310\025\236\301B~.*\364\023\341uM\253\357\332\363"
 272      C1427E2E 
 272      2AF413E1 
 272      754DABEF 
 272      DAF3
 273 01b4 5DC2AF69 		.ascii	"]\302\257iA\231\254!\203@\320\277\023\341g\302\033\320"
ARM GAS  /tmp/ccQr5yWK.s 			page 21


 273      4199AC21 
 273      8340D0BF 
 273      13E167C2 
 273      1BD0
 274 01c6 AE5ED3D6 		.ascii	"\256^\323\326\014\025\322\257l\260\2420\216\0102Y\007"
 274      0C15D2AF 
 274      6CB0A230 
 274      8E083259 
 274      07
 275 01d7 6832594B 		.ascii	"h2YK~\306\344h]={O\314&35\215\260\337\004\375W\233k"
 275      7EC6E468 
 275      5D3D7B4F 
 275      CC263335 
 275      8DB0DF04 
 276 01ef 98D00456 		.ascii	"\230\320\004V$\316,^\361OZ\323\207$\233Q\340<]\374\217"
 276      24CE2C5E 
 276      F14F5AD3 
 276      87249B51 
 276      E03C5DFC 
 277 0204 5256ADFD 		.ascii	"RV\255\375\266\315\207V\275\211V\375\221\230\304eE\021"
 277      B6CD8756 
 277      BD8956FD 
 277      9198C465 
 277      4511
 278 0216 8597086D 		.ascii	"\205\227\010m\2621\335\212\275\206\025\033]Y\261B\267"
 278      B231DD8A 
 278      BD86151B 
 278      5D59B142 
 278      B7
 279 0227 42261BC0 		.ascii	"B&\033\300\022\021\272\261\201\253\013.0\344\322\200"
 279      1211BAB1 
 279      81AB0B2E 
 279      30E4D280 
 280 0237 D78BECD2 		.ascii	"\327\213\354\322+\230\361V\236\310\257\227\015\2605"
 280      2B98F156 
 280      9EC8AF97 
 280      0DB035
 281 0246 9EC10A4C 		.ascii	"\236\301\012L`\315'\226\017\321\232v\221\\a\016\245"
 281      60CD2796 
 281      0FD19A76 
 281      915C610E 
 281      A5
 282 0257 58ABD3EE 		.ascii	"X\253\323\356_\237\242d\240\201 r\274\276z\227\346\223"
 282      5F9FA264 
 282      A0812072 
 282      BCBE7A97 
 282      E693
 283 0269 C956429F 		.ascii	"\311VB\237\376\211\230iu\017\323\376\342\266\321\350"
 283      FE899869 
 283      750FD3FE 
 283      E2B6D1E8 
 284 0279 9EED0854 		.ascii	"\236\355\010T/\232\201d\"%\355N\336\033\025(\032\376"
 284      2F9A8164 
 284      2225ED4E 
 284      DE1B1528 
 284      1AFE
 285 028b AC177A7B 		.ascii	"\254\027z{%\301[eQX*Z\2103)\251\027\203\216^\2000\370"
ARM GAS  /tmp/ccQr5yWK.s 			page 22


 285      25C15B65 
 285      51582A5A 
 285      883329A9 
 285      17838E5E 
 286 02a2 4B035958 		.ascii	"K\003YX\253\265\2150E\347\335B\003\215+\270\321\210"
 286      ABB58D30 
 286      45E7DD42 
 286      038D2BB8 
 286      D188
 287 02b4 2A93DFDC 		.ascii	"*\223\337\334e\353\027\252\342\007\344n,I(\020\036<"
 287      65EB17AA 
 287      E207E46E 
 287      2C492810 
 287      1E3C
 288 02c6 9207D9EF 		.ascii	"\222\007\331\357R\226\3305\324\311\233\375MBD\362Z0"
 288      5296D835 
 288      D4C99BFD 
 288      4D4244F2 
 288      5A30
 289 02d8 085659C8 		.ascii	"\010VY\3103i\304$9i\361\021\311s\010\340\264\337Da\275"
 289      3369C424 
 289      3969F111 
 289      C97308E0 
 289      B4DF4461 
 290 02ed 9533BB60 		.ascii	"\2253\273`\013\232\2257sv`-\343\014\255\025\205\267"
 290      0B9A9537 
 290      7376602D 
 290      E30CAD15 
 290      85B7
 291 02ff DD000EB4 		.ascii	"\335\000\016\264q\202\335\305\367U\231\274C~\002y3\031"
 291      7182DDC5 
 291      F75599BC 
 291      437E0279 
 291      3319
 292 0311 06F9BB98 		.ascii	"\006\371\273\230o\301|'\346{ \317H4\205\243=,\211\275"
 292      6FC17C27 
 292      E67B20CF 
 292      483485A3 
 292      3D2C89BD 
 293 0325 8988FA98 		.ascii	"\211\210\372\230\326\267^{9\325ke\262\3313\230\211\310"
 293      D6B75E7B 
 293      39D56B65 
 293      B2D93398 
 293      89C8
 294 0337 C415BDD7 		.ascii	"\304\025\275\327\262n(\223\035V<o\301\234X\264$\377"
 294      B26E2893 
 294      1D563C6F 
 294      C19C58B4 
 294      24FF
 295 0349 F033469F 		.ascii	"\3603F\237n\026\211G\260\201\231\234\262\216s\312zt"
 295      6E168947 
 295      B081999C 
 295      B28E73CA 
 295      7A74
 296 035b CA1BE882 		.ascii	"\312\033\350\202V\314\3330\337\347\306\035\253S\356"
 296      56CCDB30 
 296      DFE7C61D 
ARM GAS  /tmp/ccQr5yWK.s 			page 23


 296      AB53EE
 297 036a 40B5B544 		.ascii	"@\265\265D\343\323\224R6k\275\007Z\333\014\352Z\300"
 297      E3D39452 
 297      366BBD07 
 297      5ADB0CEA 
 297      5AC0
 298 037c 80A91468 		.ascii	"\200\251\024h\010\357B\343\016X\006\365\304\365e\371"
 298      08EF42E3 
 298      0E5806F5 
 298      C4F565F9 
 299 038c 74503BE0 		.ascii	"tP;\340b@\327\022\363;\226\023:\240\333\210\353J\316"
 299      6240D712 
 299      F33B9613 
 299      3AA0DB88 
 299      EB4ACE
 300 039f 21F70AC9 		.ascii	"!\367\012\311\336z\376\313\313\022\366\326#\250\351"
 300      DE7AFECB 
 300      CB12F6D6 
 300      23A8E9
 301 03ae 7E31EB54 		.ascii	"~1\353Td\206\021\205O\260\311\261\264\251\250\356+c"
 301      64861185 
 301      4FB0C9B1 
 301      B4A9A8EE 
 301      2B63
 302 03c0 2A3AE64A 		.ascii	"*:\346J\363m'\0355\037\303{\326\030f\276\320\247\320"
 302      F36D271D 
 302      351FC37B 
 302      D61866BE 
 302      D0A7D0
 303 03d3 4F50F10B 		.ascii	"OP\361\013\366\2127\215q\202\021\205\253\330\244#}\016"
 303      F68A378D 
 303      71821185 
 303      ABD8A423 
 303      7D0E
 304 03e5 3D54A32B 		.ascii	"=T\243+\336\341j\016=\362\202\313\225\200\317\220?."
 304      DEE16A0E 
 304      3DF282CB 
 304      9580CF90 
 304      3F2E
 305 03f7 65C66743 		.ascii	"e\306gCE\231t\241\011\317K\331\227\001&\010\230\231"
 305      459974A1 
 305      09CF4BD9 
 305      97012608 
 305      9899
 306 0409 B0C9B974 		.ascii	"\260\311\271t\356\317\030&\234s\305}\317\307\214{\203"
 306      EECF1826 
 306      9C73C57D 
 306      CFC78C7B 
 306      83
 307 041a CD65495C 		.ascii	"\315eI\\;\352\262\017(\327>\206\001E\237o\031\037\031"
 307      3BEAB20F 
 307      28D73E86 
 307      01459F6F 
 307      191F19
 308 042d A78CF9AF 		.ascii	"\247\214\371\257\356>BjQ\337\213\330\315OI\266S\267"
 308      EE3E426A 
 308      51DF8BD8 
ARM GAS  /tmp/ccQr5yWK.s 			page 24


 308      CD4F49B6 
 308      53B7
 309 043f 0BA8F617 		.ascii	"\013\250\366\027\217u\223\032\204\272\204P\237J\326"
 309      8F75931A 
 309      84BA8450 
 309      9F4AD6
 310 044e C93B6099 		.ascii	"\311;`\231\274\003\346\3718\220\233*\320\035\327\035"
 310      BC03E6F9 
 310      38909B2A 
 310      D01DD71D 
 311 045e 82D7EAA2 		.ascii	"\202\327\352\242\360\205\225\277\254\223\221\311\037"
 311      F08595BF 
 311      AC9391C9 
 311      1F
 312 046b 10836717 		.ascii	"\020\203g\027\260\311\310\210\343\034'\273E\341\033"
 312      B0C9C888 
 312      E31C27BB 
 312      45E11B
 313 047a 14D66D0D 		.ascii	"\024\326m\015\202\353\235\1771\202\240\333U\034o\371"
 313      82EB9D7F 
 313      3182A0DB 
 313      551C6FF9 
 314 048a 7889BB38 		.ascii	"x\211\2738\026\015\371\367\241\374u>*\377\252U\376\361"
 314      160DF9F7 
 314      A1FC753E 
 314      2AFFAA55 
 314      FEF1
 315 049c 736D4F37 		.ascii	"smO7j\332@\366Sv\361\333O.J\027\357\270J\321\335}\275"
 315      6ADA40F6 
 315      5376F1DB 
 315      4F2E4A17 
 315      EFB84AD1 
 316 04b3 F342B76E 		.ascii	"\363B\267n\344\015\\nt\371\254\356~$\217\027\246/e\270"
 316      E40D5C6E 
 316      74F9ACEE 
 316      7E248F17 
 316      A62F65B8 
 317 04c7 85C3C5A4 		.ascii	"\205\303\305\244\372}\232<\301\316\317\377\353\215M"
 317      FA7D9A3C 
 317      C1CECFFF 
 317      EB8D4D
 318 04d6 9A3637C7 		.ascii	"\23267\307\320\341\222g\304\002\023\023;N\342t\314\300"
 318      D0E19267 
 318      C4021313 
 318      3B4EE274 
 318      CCC0
 319 04e8 BE710396 		.ascii	"\276q\003\226a\372l\341\301\276\365\014f\326\3540\017"
 319      61FA6CE1 
 319      C1BEF50C 
 319      66D6EC30 
 319      0F
 320 04f9 76C50D98 		.ascii	"v\305\015\230\335\002I\007;\312\203]\363\014f\326\354"
 320      DD024907 
 320      3BCA835D 
 320      F30C66D6 
 320      EC
 321 050a 180FF683 		.ascii	"\030\017\366\203\033\260!\316\232\235\340\301z=\203"
ARM GAS  /tmp/ccQr5yWK.s 			page 25


 321      1BB021CE 
 321      9A9DE0C1 
 321      7A3D83
 322 0519 9935FB84 		.ascii	"\2315\373\204\007\253\365\273\000+\260\321,y9\255@\256"
 322      07ABF5BB 
 322      002BB0D1 
 322      2C7939AD 
 322      40AE
 323 052b A45620A2 		.ascii	"\244V \242P\3477\206\004\2171-\2440\346\372\275\216"
 323      50E73786 
 323      048F312D 
 323      A430E6FA 
 323      BD8E
 324 053d 6126BB61 		.ascii	"a&\273a\014\353\\c,\250;\321\370\227\335 f\010\230\372"
 324      0CEB5C63 
 324      2CA83BD1 
 324      F897DD20 
 324      660898FA 
 325 0551 FDC82403 		.ascii	"\375\310$\003[\350\031\314\354\226\225\024\3144\326"
 325      5BE819CC 
 325      EC969514 
 325      CC34D6
 326 0560 E8934CD7 		.ascii	"\350\223L\327\332\304\220\306\324h\0274\260\350a\006"
 326      DAC490C6 
 326      D4681734 
 326      B0E86106 
 327 0570 1BDAEA35 		.ascii	"\033\332\3525MLV\326\206\014\261\257+\223%\"]Q6\212"
 327      4D4C56D6 
 327      860CB1AF 
 327      2B932522 
 327      5D51368A 
 328 0584 B9492D58 		.ascii	"\271I-X\331(\365\022\334\354\371-\307$\306\225\255\251"
 328      D928F512 
 328      DCECF92D 
 328      C724C695 
 328      ADA9
 329 0596 53243488 		.ascii	"S$4\210\\$\254tCS\206\256p\330\211\246D\2356\207\314"
 329      5C24AC74 
 329      435386AE 
 329      70D889A6 
 329      449D3687 
 330 05ab 6CBE37E3 		.ascii	"l\2767\343\"\355z\347\327\253\365\331x\205Hg\343\327"
 330      22ED7AE7 
 330      D7ABF5D9 
 330      78854867 
 330      E3D7
 331 05bd FCB613BB 		.ascii	"\374\266\023\273+\260\366\027o\356\322W\011M\010\266"
 331      2BB0F617 
 331      6FEED257 
 331      094D08B6 
 332 05cd D16F1DEB 		.ascii	"\321o\035\353s-S{\256y\256\316\315M\025z\215\313\314"
 332      732D537B 
 332      AE79AECE 
 332      CD4D157A 
 332      8DCBCC
 333 05e0 BEEB364E 		.ascii	"\276\3536N\354/\347\331\337\346\231}k\037\272\272\200"
 333      EC2FE7D9 
ARM GAS  /tmp/ccQr5yWK.s 			page 26


 333      DFE6997D 
 333      6B1FBABA 
 333      80
 334 05f1 7C57A335 		.ascii	"|W\2435\216\340\342-cp\302b\252\243\345\327\2700^\213"
 334      8EE0E22D 
 334      6370C262 
 334      AAA3E5D7 
 334      B8305E8B 
 335 0605 24B5D833 		.ascii	"$\265\3303\356\002\250\375\305\267\013\021h=\002\265"
 335      EE02A8FD 
 335      C5B70B11 
 335      683D02B5 
 336 0615 A6B14D2C 		.ascii	"\246\261M,l\0233s$7UHc9K]Q8d\245\316\244b\206\2212I"
 336      6C133373 
 336      24375548 
 336      63394B5D 
 336      513864A5 
 337 0630 DD4DEFD4 		.ascii	"\335M\357\324\275\252S\3676Z|<\315\342\365\2427\223"
 337      BDAA53F7 
 337      365A7C3C 
 337      CDE2F5A2 
 337      3793
 338 0642 45E18C67 		.ascii	"E\341\214g3\202f3\352z\373`\306\007\314\214Mh\306\271"
 338      33826633 
 338      EA7AFB60 
 338      C607CC8C 
 338      4D68C6B9 
 339 0656 7F80195F 		.ascii	"\177\200\031_z6c g\006n\252\026\261\311`\260\260 \363"
 339      7A366320 
 339      67066EAA 
 339      16B1C960 
 339      B0B020F3 
 340 066a 8296EAB3 		.ascii	"\202\226\352\263M\034l\336\003\037?H\012\330\343\354"
 340      4D1C6CDE 
 340      031F3F48 
 340      0AD8E3EC 
 341 067a 9B99EF0E 		.ascii	"\233\231\357\016.\307\205$\022\246\271\332\177t$\367"
 341      2EC78524 
 341      12A6B9DA 
 341      7F7424F7 
 342 068a 1FEF2165 		.ascii	"\037\357!e\227\355:\215+\250\366\375\207\216\350#\336"
 342      97ED3A8D 
 342      2BA8F6FD 
 342      878EE823 
 342      DE
 343 069b 4E84BA9A 		.ascii	"N\204\272\232\306~\216\205\374\0343\371pKe]\303q\346"
 343      C67E8E85 
 343      FC1C33F9 
 343      704B655D 
 343      C371E6
 344 06ae 39FD09BD 		.ascii	"9\375\011\275\011\010}n'\012\267P\015J`_V\271tK\371"
 344      09087D6E 
 344      270AB750 
 344      0D4A605F 
 344      56B9744B 
 345 06c3 D9426336 		.ascii	"\331Bc6g\034\315\316\271\035\304\232\304\252y\306\321"
 345      671CCDCE 
ARM GAS  /tmp/ccQr5yWK.s 			page 27


 345      B91DC49A 
 345      C4AA79C6 
 345      D1
 346 06d4 331EB7BD 		.ascii	"3\036\267\275r\233p;\016Y'*\313F\242\313a\0246\316\023"
 346      729B703B 
 346      0E59272A 
 346      CB46A2CB 
 346      611436CE 
 347 06e9 CE75B163 		.ascii	"\316u\261c\313V\221\252\323\220cu['\261l$:\315G\220"
 347      CB5691AA 
 347      D3906375 
 347      5B27B16C 
 347      243ACD47 
 348 06fe 4EB1BC97 		.ascii	"N\261\274\227\237\020\326\337\226\225\264\037]\261\270"
 348      9F10D6DF 
 348      9695B41F 
 348      5DB1B8
 349 070d 61E36DF2 		.ascii	"a\343m\362v}\236\273\323\213g\014,\366\026e+\212=$Z"
 349      767D9EBB 
 349      D38B670C 
 349      2CF61665 
 349      2B8A3D24 
 350 0722 367D4BAE 		.ascii	"6}K\256v\325\351\341O\177\313\336Y;\316\347j\013\362"
 350      76D5E9E1 
 350      4F7FCBDE 
 350      593BCEE7 
 350      6A0BF2
 351 0735 D9B9834C 		.ascii	"\331\271\203L\376\212g\205\264\245\335: +=\211\263J"
 351      FE8A6785 
 351      B4A5DD3A 
 351      202B3D89 
 351      B34A
 352 0747 DB082FDD 		.ascii	"\333\010/\335~\257\321\355\217\261\2212\315\351;\255"
 352      7EAFD1ED 
 352      8FB19132 
 352      CDE93BAD 
 353 0757 23A5A74E 		.ascii	"#\245\247Nw1I\222\333%\264\365r\012\252\203|P}u{!@\337"
 353      77314992 
 353      DB25B4F5 
 353      720AAA83 
 353      7C507D75 
 354 076f 1ABD6EF3 		.ascii	"\032\275n\363\272\300\356\3042y\3667\020%\177\217\222"
 354      BAC0EEC4 
 354      3279F637 
 354      10257F8F 
 354      92
 355 0780 3BAC51F0 		.ascii	";\254Q\360CO\333\363\306\021\232\253(\270b\023\005\035"
 355      434FDBF3 
 355      C6119AAB 
 355      28B86213 
 355      051D
 356 0792 7D8C0208 		.ascii	"}\214\002\010\351\213\373\010\302\261\235\302\212\000"
 356      E98BFB08 
 356      C2B19DC2 
 356      8A00
 357 07a0 31C379DC 		.ascii	"1\303y\334A\337T\274\022\303\342+q\352<\235\264\316"
 357      41DF54BC 
ARM GAS  /tmp/ccQr5yWK.s 			page 28


 357      12C3E22B 
 357      71EA3C9D 
 357      B4CE
 358 07b2 89F444ED 		.ascii	"\211\364D\355\265\2005\264\0303\\h\245h\224\311\031"
 358      B58035B4 
 358      18335C68 
 358      A56894C9 
 358      19
 359 07c3 DC3A9C15 		.ascii	"\334:\234\025\351\001t'\346\237\212.\216"
 359      E9017427 
 359      E69F8A2E 
 359      8E
 360 07d0 A1FF5F4C 		.ascii	"\241\377_L{+\340\305\356\002\227\321w\232\217\2767\003"
 360      7B2BE0C5 
 360      EE0297D1 
 360      779A8FBE 
 360      3703
 361 07e2 B7177D57 		.ascii	"\267\027}W\367\036\364-\325\022\263$\017\347\205\035"
 361      F71EF42D 
 361      D512B324 
 361      0FE7851D 
 362 07f2 7B8C8EFB 		.ascii	"{\214\216\3739v\334Mi\354^\262.N\335\034\333\265\364"
 362      3976DC4D 
 362      69EC5EB2 
 362      2E4EDD1C 
 362      DBB5F4
 363 0805 D594E425 		.ascii	"\325\224\344%\012{\002.\226\374\0056\254''\332\023\213"
 363      0A7B022E 
 363      96FC0536 
 363      AC2727DA 
 363      138B
 364 0817 5C1EFD19 		.ascii	"\\\036\375\031/=/$\330I\370\327\030i\255\026.\\\234"
 364      2F3D2F24 
 364      D849F8D7 
 364      1869AD16 
 364      2E5C9C
 365 082a 209EC026 		.ascii	" \236\300&\335\326n\334S\227:At\321\215k\022\357\276"
 365      DDD66EDC 
 365      53973A41 
 365      74D18D6B 
 365      12EFBE
 366 083d 604CE96C 		.ascii	"`L\351lnd\021\330\2359\0023\362ira7\327A\276\303\016"
 366      6E6411D8 
 366      9D390233 
 366      F2697261 
 366      37D741BE 
 367 0853 F23DDF29 		.ascii	"\362=\337)D\341\202\033\356\357w\012E\030\206\216\232"
 367      44E1821B 
 367      EEEF770A 
 367      4518868E 
 367      9A
 368 0864 8FC1BFB6 		.ascii	"\217\301\277\266\342\331\015D&<\336\2275\211\372v<\260"
 368      E2D90D44 
 368      263CDE97 
 368      3589FA76 
 368      3CB0
 369 0876 6031DAE3 		.ascii	"`1\332\343F\271\021\316`\253\026\032\344\236\306\025"
ARM GAS  /tmp/ccQr5yWK.s 			page 29


 369      46B911CE 
 369      60AB161A 
 369      E49EC615 
 370 0886 8A167481 		.ascii	"\212\026t\2017\332\311\330\232\304\266\366\345:\036"
 370      37DAC9D8 
 370      9AC4B6F6 
 370      E53A1E
 371 0895 3B739FE3 		.ascii	";s\237\343\031\317\254\337\361\205\246\365\334|7pc\\"
 371      19CFACDF 
 371      F185A6F5 
 371      DC7C3770 
 371      635C
 372 08a7 FB3EF58E 		.ascii	"\373>\365\216C&\347\361M\335\005|;\3679\346\2271\257"
 372      4326E7F1 
 372      4DDD057C 
 372      3BF739E6 
 372      9731AF
 373 08ba C7817201 		.ascii	"\307\201r\001\346\2130\177\025\363\3271\177\013\363"
 373      E68B307F 
 373      15F3D731 
 373      7F0BF3
 374 08c9 66CCB762 		.ascii	"f\314\267b\376\025\346W1\277\206\371\015\314ob~\313"
 374      FE15E657 
 374      31BF86F9 
 374      0DCC6F62 
 374      7ECB
 375 08db CD806B59 		.ascii	"\315\200kY\003&\007\335>\277\212=\372q\362\214\313x"
 375      032607DD 
 375      3EBF8A3D 
 375      FA71F28C 
 375      CB78
 376 08ed 15EB05AC 		.ascii	"\025\353\005\254 \023\207\035\034\207g\220\303\263\310"
 376      2013871D 
 376      1C876790 
 376      C3B3C8
 377 08fc 9B260DE3 		.ascii	"\233&\015\343\253\261\351\367X\237_\376l?\311\007\226"
 377      ABB1E9F7 
 377      589F5FFE 
 377      6C3FC907 
 377      96
 378 090d 4CBEB1E2 		.ascii	"L\276\261\342y\232\1775\3438\234\275\340\230'z\0053"
 378      799A7F35 
 378      E3389CBD 
 378      E098277A 
 378      0533
 379 091f 4769FB12 		.ascii	"Gi\373\022\363\0205\337\015^\2063I\375\334\231\201-"
 379      F31035DF 
 379      0D5E8633 
 379      49FDDC99 
 379      812D
 380 0931 F40C6656 		.ascii	"\364\014fV\356\364I\356\200sI\220d\007\263;\271\263"
 380      EEF449EE 
 380      80734990 
 380      6407B33B 
 380      B9B3
 381 0943 77FE31CE 		.ascii	"w\3761\316\371'\320\371'\321\3713%\232\327`^\213\371"
 381      F927D0F9 
ARM GAS  /tmp/ccQr5yWK.s 			page 30


 381      27D1F933 
 381      259AD760 
 381      5E8BF9
 382 0956 2CCC674B 		.ascii	",\314gK\246\241uU\320x7\255\0133\277\006\316\020\025"
 382      A6A17555 
 382      D07837AD 
 382      0B33BF06 
 382      CE1015
 383 0969 32D90F82 		.ascii	"2\331\017\202t_6w\260\330p;\267\235\277\232`s\333\\"
 383      745F3677 
 383      B0D8703B 
 383      B79DBF9A 
 383      6073DB5C 
 384 097d 890EC86B 		.ascii	"\211\016\310k\203\236\347\266\315\330\344%)mn\273e\274"
 384      839EE7B6 
 384      CDD8E425 
 384      296D6EBB 
 384      65BC
 385 098f 9EA6BF65 		.ascii	"\236\246\277e\231\333f\325&\226.[\227\332'\325&w\225"
 385      99DB66D5 
 385      26962E5B 
 385      97DA27D5 
 385      267795
 386 09a2 8B616C77 		.ascii	"\213alw\032\034L\007\261\273\223z\374C\346\302\224A"
 386      1A1C4C07 
 386      B1BB937A 
 386      FC43E6C2 
 386      9441
 387 09b4 327945A2 		.ascii	"2yE\242\356\234gv\330A\253\303<\316\205\333;\214\271"
 387      EE9C6776 
 387      D841ABC3 
 387      3CCE85DB 
 387      3B8CB9
 388 09c7 90BD9D3E 		.ascii	"\220\275\235>j\3053\277\213\3160\031&/\375\261i'i\027"
 388      6AC533BF 
 388      8BCE3019 
 388      262FFDB1 
 388      69276917 
 389 09db C77ABBA1 		.ascii	"\307z\273\241\302J-q\271\353\207u\335\205\213kk\332"
 389      C24A2D71 
 389      B9EB8775 
 389      DD858B6B 
 389      6BDA
 390 09ed B4CB7495 		.ascii	"\264\313t\225\346\376\033\246\305\222\345\033&\366y"
 390      E6FE1BA6 
 390      C592E51B 
 390      26F679
 391 09fc 0BF71193 		.ascii	"\013\367\021\223(\\\263\304\323}\302k\232\266@[\252"
 391      285CB3C4 
 391      D37DC26B 
 391      9AB6405B 
 391      AA
 392 0a0d 3C6E7CC3 		.ascii	"<n|\303\366R.\255\321 \015\265\225\223\374\016\347\337"
 392      F6522EAD 
 392      D1200DB5 
 392      9593FC0E 
 392      E7DF
ARM GAS  /tmp/ccQr5yWK.s 			page 31


 393 0a1f 84B5F4BD 		.ascii	"\204\265\364\275\300\313\332\354\201\004\265\022\364"
 393      C0CBDAEC 
 393      8104B512 
 393      F4
 394 0a2c 5626A735 		.ascii	"V&\2475J\"\377\200\032\330\324\225\270\2410\333\334"
 394      4A22FF80 
 394      1AD8D495 
 394      B8A130DB 
 394      DC
 395 0a3d 9BB64237 		.ascii	"\233\266B7-e\215(\324\347\022K\014\243Np\255\327\244"
 395      2D658D28 
 395      D4E7124B 
 395      0CA34E70 
 395      ADD7A4
 396 0a50 A44ACBAD 		.ascii	"\244J\313\255*\255LW\251\353r\342\326\336\374\372\231"
 396      2AAD4C57 
 396      A9EB72E2 
 396      D6DEFCFA 
 396      99
 397 0a61 5DBDBD43 		.ascii	"]\275\275C\335\353\264\332\216\356\344\315V\266\034"
 397      DDEBB4DA 
 397      8EEEE4CD 
 397      56B61C
 398 0a70 4FDEB730 		.ascii	"O\336\2670\332\370\357\313L\366\240IKsm\275\323`xG&"
 398      DAF8EFCB 
 398      4CF6A049 
 398      4B736DBD 
 398      D3607847 
 399 0a85 CB243AE0 		.ascii	"\313$:\3406e\366\216\336\254]\276\337\370\212\350u\004"
 399      3665F68E 
 399      DEAC5DBE 
 399      DFF88AE8 
 399      7504
 400 0a97 E69A99BE 		.ascii	"\346\232\231\276\"\322\265e\315\022\363\237\247\023"
 400      22D2B565 
 400      CD12F39F 
 400      A713
 401 0aa5 86687CCE 		.ascii	"\206h|\316\266\301\332\324\"\261\205\223\330L\025\305"
 401      B6C1DAD4 
 401      22B18593 
 401      D84C15C5 
 402 0ab5 D7CD7B49 		.ascii	"\327\315{If=\037I\005\221\226\350\255\253m\"ZN\322g"
 402      663D1F49 
 402      059196E8 
 402      ADAB6D22 
 402      5A4ED267 
 403 0ac9 4D569FAD 		.ascii	"MV\237\255\263\365\331\315\375\314g\253\306\270w\332"
 403      B3F5D9CD 
 403      FDCC67AB 
 403      C6B877DA 
 404 0ad9 FFBAE823 		.ascii	"\377\272\350#\315\366^Xj\365\302FW}D\263\364\221\215"
 404      CDF65E58 
 404      6AF5C246 
 404      577D44B3 
 404      F4918D
 405 0aec 56E39A6D 		.ascii	"V\343\232m\214\253\357\372\333\233\273~\334\270I\233"
 405      8CABEFFA 
ARM GAS  /tmp/ccQr5yWK.s 			page 32


 405      DB9BBB7E 
 405      DCB8499B 
 406 0afc 3557BBD5 		.ascii	"5W\273\325\373\034a=@\024\272\322b\236al\261\303H|\273"
 406      FB1C613D 
 406      4014BAD2 
 406      629E616C 
 406      B1C3487C 
 407 0b11 F7258D78 		.ascii	"\367%\215x\015\353mV\206\330Gm&\206.9\250\261\335V\215"
 407      0DEB6D56 
 407      86D8476D 
 407      26862E39 
 407      A8B1DD56 
 408 0b26 B3293518 		.ascii	"\263)5\030<l\015\034\000\3367\003\374\253\260\232r\321"
 408      3C6C0D1C 
 408      00DE3703 
 408      FCABB09A 
 408      72D1
 409 0b38 5377BC95 		.ascii	"Sw\274\225,\320\232\332h\254\364\222\241Y\277,3N8o\034"
 409      2CD09ADA 
 409      68ACF492 
 409      A159BF2C 
 409      334E386F 
 410 0b4d 669F7AED 		.ascii	"f\237z\355\304\271tV?\353\236\231}a\306\311?\300\255"
 410      C4B97456 
 410      3FEB9E99 
 410      7D61C6C9 
 410      3FC0AD
 411 0b60 190EE19A 		.ascii	"\031\016\341\232\3410\256\031\366c>\007\327\011\013"
 411      E130AE19 
 411      F6633E07 
 411      D7090B
 412 0b6f CDD34E7D 		.ascii	"\315\323N}\022\325V\025\212\232HYe9\242\335\3510;\322"
 412      12D55615 
 412      8A9A4859 
 412      6539A2DD 
 412      E9303BD2 
 413 0b83 56BBA43C 		.ascii	"V\273\244<\207V4\026\234Z}\230j\205\307\013\265\031"
 413      87563416 
 413      9C5A7D98 
 413      6A85C70B 
 413      B519
 414 0b95 8F17604B 		.ascii	"\217\027`K\200Vf?+\260\343<\307\200z&\305\371\311M\335"
 414      8056663F 
 414      2BB0E33C 
 414      C7807A26 
 414      C5F9C94D 
 415 0baa 15ECA062 		.ascii	"\025\354\240b7\222\276\267\237\355\002\306\031\207*"
 415      3792BEB7 
 415      9FED02C6 
 415      19872A
 416 0bb9 D56A59BC 		.ascii	"\325jY\274$\026v\340\027\201\255\256\026.\015\035\306"
 416      241676E0 
 416      1781ADAE 
 416      162E0D1D 
 416      C6
 417 0bca 72FC2389 		.ascii	"r\374#\211\016pGQ\205V\357\013\021\035oq\007.R\031\330"
 417      0E704751 
ARM GAS  /tmp/ccQr5yWK.s 			page 33


 417      8556EF0B 
 417      111D6F71 
 417      072E5219 
 418 0bdf 09CF6005 		.ascii	"\011\317`\005&\260F\036\354\264\0330\247\215\002\200"
 418      26B0461E 
 418      ECB41B30 
 418      A78D0280 
 419 0bef 2DE3C13A 		.ascii	"-\343\301:=\203\2315[\316\203}\346\006\314i\227\000"
 419      3D839935 
 419      5BCE837D 
 419      E606CC69 
 419      9700
 420 0c01 602B79B0 		.ascii	"`+y\260\277z\0063k\366\016\017\366\245\0330\247\367"
 420      BF7A0633 
 420      6BF60E0F 
 420      F6A51B30 
 420      A7F7
 421 0c13 FB00B689 		.ascii	"\373\000\266\211\007\353\366\014f\326l3\017\326\343"
 421      07EBF60C 
 421      66D66C33 
 421      0FD6E3
 422 0c22 06ACC059 		.ascii	"\006\254\300Y\263\255<\330M\317`f\315\376\314\203iy"
 422      B3AD3CD8 
 422      4DCF6066 
 422      CDFECC83 
 422      6979
 423 0c34 2EC09C96 		.ascii	".\300\234\226\306\000\366\036\0176\3133\230Y\263\035"
 423      C600F61E 
 423      0F36CB33 
 423      9859B31D 
 424 0c44 3CD81C37 		.ascii	"<\330\0347`#\2344\233\231hy\272^\276S\250\327\207\024"
 424      60239C34 
 424      9B996879 
 424      BA5EBE53 
 424      A8D78714 
 425 0c58 866A0C2B 		.ascii	"\206j\014+\304\034Z|5zX\352PM&\347\245;\261dz\257\202"
 425      C41C5A7C 
 425      357A58EA 
 425      504D26E7 
 425      A53BB164 
 426 0c6f 359C06DD 		.ascii	"5\234\006\335\013R\352\263\225\374\334T\201\377\217"
 426      0B52EAB3 
 426      95FCDC54 
 426      81FF8F
 427 0c7e 10A95A74 		.ascii	"\020\251Zt\221m5\333\254\205\235\335f\022\017\363$\326"
 427      916D35DB 
 427      AC859DDD 
 427      66120FF3 
 427      24D6
 428 0c90 BB21718C 		.ascii	"\273!q\2143\330Q\036\254\301\015\330\343\316\261r\214"
 428      33D8511E 
 428      ACC10DD8 
 428      E3CEB172 
 428      8C
 429 0ca1 075BEA19 		.ascii	"\007[\352\031\314\254\331\011\036l\245\033\260\247\234"
 429      CCACD909 
 429      1E6CA51B 
ARM GAS  /tmp/ccQr5yWK.s 			page 34


 429      B0A79C
 430 0cb0 35FB8407 		.ascii	"5\373\204\007[\355\031\214\327lf\342t*\360\350'\327"
 430      5BED198C 
 430      D76C66E2 
 430      742AF0E8 
 430      27D7
 431 0cc2 A6C8331D 		.ascii	"\246\3103\035\037%\003\217U\343\"\317RM&\337{\016\274"
 431      1F25038F 
 431      55E322CF 
 431      524D26DF 
 431      7B0EBC
 432 0cd5 2B0E81C7 		.ascii	"+\016\201\307\177|\222\252E\377\213\220\325l\273\243"
 432      7F7C92AA 
 432      45FF8B90 
 432      D56CBBA3 
 433 0ce5 AEC9361C 		.ascii	"\256\3116\034\332]\374D-\2236\334\224\357\3035\322~"
 433      DA5DFC44 
 433      2D9336DC 
 433      94EFC335 
 433      D27E
 434 0cf7 CC0F607E 		.ascii	"\314\017`~\010\363#\230\267c~\034\363\223\230\237\302"
 434      08F32398 
 434      B7637E1C 
 434      F393989F 
 434      C2
 435 0d08 BC03F333 		.ascii	"\274\003\3633\230wb\376)\346\3470\377\034\363/0\277"
 435      987762FE 
 435      29E6E730 
 435      FF1CF32F 
 435      30BF
 436 0d1a 84F9D798 		.ascii	"\204\371\327\230_\306\374[~=fY)\355\316\260\276\352"
 436      5FC6FC5B 
 436      7E3D6659 
 436      29EDCEB0 
 436      BEEA
 437 0d2c 715C5F6D 		.ascii	"q\\_m\313\260\276\272\226j\245o\327\267\277\277\357"
 437      CBB0BEBA 
 437      966AA56F 
 437      D7B7BFBF 
 437      EF
 438 0d3d 9EB7E8E7 		.ascii	"\236\267\350\347\260t\245>s\0261\326\352\377\227\347"
 438      B074A53E 
 438      731631D6 
 438      EAFF97E7 
 439 0d4d 667F7ADD 		.ascii	"f\177z\335\272\035\270\221\276\206\006!\307?\330\025"
 439      BA1DB891 
 439      BE860621 
 439      C73FD815 
 440 0d5d D9CE09B1 		.ascii	"\331\316\011\261\254\347\267\022\347\030\371\233\315"
 440      ACE7B712 
 440      E718F99B 
 440      CD
 441 0d6a DE797EBE 		.ascii	"\336y~\276\255n5\332;\3535\277\261y\225\311M\207\015"
 441      AD6E35DA 
 441      3BEB35BF 
 441      B17995C9 
 441      4D870D
ARM GAS  /tmp/ccQr5yWK.s 			page 35


 442 0d7d A38E77CB 		.ascii	"\243\216w\313V\325?\277\277\357\237\351\353-\255\267"
 442      56D53FBF 
 442      BFEF9FE9 
 442      EB2DADB7 
 443 0d8d F7B9614C 		.ascii	"\367\271aL<l@\335\011\324|\031\005\316\364\331\011\274"
 443      3C6C40DD 
 443      09D47C19 
 443      05CEF4D9 
 443      09BC
 444 0d9f 7CEED44F 		.ascii	"|\356\324O\323\004^r'\2606\263\300Y\266\002\267\277"
 444      D3045E72 
 444      27B036B3 
 444      C059B602 
 444      B7BF
 445 0db1 7FF1C766 		.ascii	"\177\361\307f\217\263]M\257E\246\276q<\231\332\207/"
 445      8FB35D4D 
 445      AF45A6BE 
 445      713C99DA 
 445      872F
 446 0dc3 EA4F6BD4 		.ascii	"\352Ok\3249\010M\236\032\350\201rJ{jH2Ph#S\240<\357"
 446      39084D9E 
 446      1AE88172 
 446      4A7B6A48 
 446      32506823 
 447 0ddb 4BDB2B1D 		.ascii	"K\333+\035>\334\365\303\272}\243\027j5\215\332,\334"
 447      3EDCF5C3 
 447      BA7DA317 
 447      6A358DDA 
 447      2CDC
 448 0ded 2A19935E 		.ascii	"*\031\223^\243\371\344\256\324\020\333\037\333\362\265"
 448      A3F9E4AE 
 448      D410DB1F 
 448      DBF2B5
 449 0dfc 1A1D6BC9 		.ascii	"\032\035k\311\344e\237\327\001\352\025\237\375\000\225"
 449      E4659FD7 
 449      01EA159F 
 449      FD0095
 450 0e0b 6F32C5A8 		.ascii	"o2\305\250Eg\014d\210\333Z[\224\020\2055\375\211\336"
 450      45670C64 
 450      88DB5A5B 
 450      94108535 
 450      FD89DE
 451 0e1e 0C964829 		.ascii	"\014\226H)\227\\\037b\347\222w\372\333\272\244\303p"
 451      975C1F62 
 451      E79277FA 
 451      DBBAA4C3 
 451      70
 452 0e2f 894CE6FA 		.ascii	"\211L\346\372\350^~~_\\2\337\352\222\005\016.\271xo"
 452      E85E7E7E 
 452      5F5C32DF 
 452      EA92050E 
 452      2EB9786F 
 453 0e43 76974C36 		.ascii	"v\227L6\304\346er\211\245\226L\226xvI\243\203K\372\231"
 453      C4E66572 
 453      89A5964C 
 453      96787649 
 453      A3834BFA 
ARM GAS  /tmp/ccQr5yWK.s 			page 36


 454 0e58 4C316A41 		.ascii	"L1jAq\236\317r\226cQB\024ZM.\261\214\246\2133\214\246"
 454      719ECF72 
 454      96635142 
 454      145A4D2E 
 454      B18CA68B 
 455 0e6f CB7CA94F 		.ascii	"\313|\251O\214\356\033>\274\220\375\213\306\013cja\244"
 455      8CEE1B3E 
 455      BC90FD8B 
 455      C60B636A 
 455      61A4
 456 0e81 225C5655 		.ascii	"\"\\VU\242\024\206K\3433\342\352\214J%>\274T\270\253"
 456      A214864B 
 456      E333E2EA 
 456      8C4A253E 
 456      BC54B8AB 
 457 0e95 3A1253AB 		.ascii	":\022S\253\344\262\220\032)Wb\361PY$\256\206\324\234"
 457      E4B2901A 
 457      295762F1 
 457      505924AE 
 457      86D49C
 458 0ea8 F1BFFD5D 		.ascii	"\361\277\375]A\221pw\2704d\363{\2013p\270\264\004@\357"
 458      41917077 
 458      B83464F3 
 458      7B813370 
 458      B8B40440 
 459 0ebd 30350AA9 		.ascii	"05\012\251\003\2558\276\012e\272\352\253\214)\325\271"
 459      03AD38BE 
 459      0A65BAEA 
 459      AB8C29D5 
 459      B9
 460 0ece 54177814 		.ascii	"T\027x\024R\377\273\2604Z\256\024FU5Z8A\251P\243\261"
 460      52FFBBB0 
 460      345AAE14 
 460      4655355A 
 460      3841A950 
 461 0ee4 F131B9B2 		.ascii	"\3611\271\2624\022\216\027N\214V\305\302JlF\250(Z\242"
 461      34128E17 
 461      4E8C56C5 
 461      C24A6C46 
 461      A8285AA2 
 462 0ef8 3CAA5400 		.ascii	"<\252T\000\334\223\021U\011=\033\215\205\306\026O\010"
 462      DC931155 
 462      093D1B8D 
 462      85C6164F 
 462      08
 463 0f09 3D36F6D1 		.ascii	"=6\366\321'\012\345X\371\003\025\321\012\345\001E\236"
 463      270AE558 
 463      F90315D1 
 463      0AE50145 
 463      9E
 464 0f1a 1249EA14 		.ascii	"\022I\352\024WK\"\025*\350\024\254\202\277#\037\016"
 464      574B2215 
 464      2AE814AC 
 464      82BF231F 
 464      0E
 465 0f2b A9FE12A5 		.ascii	"\251\376\022\245L\225\203\325\352\263U\025\341\220\352"
 465      4C9583D5 
ARM GAS  /tmp/ccQr5yWK.s 			page 37


 465      EAB35515 
 465      E190EA
 466 0f3a A37FA44A 		.ascii	"\243\177\244J9\026,\223\343*U%\247Z\245V\346\202\024"
 466      39162C93 
 466      E32A5525 
 466      A75AA556 
 466      E68214
 467 0f4d AA9C529E 		.ascii	"\252\234R\236\037S\344\222\031:5\375\341q\352\376\016"
 467      1F53E492 
 467      193A35FD 
 467      E171EAFE 
 467      0E
 468 0f5e B594DEC4 		.ascii	"\265\224\336\304C\377S\245T)\314R\323\243 \273\013!"
 468      43FF53A5 
 468      5429CC52 
 468      D3A320BB 
 468      0B21
 469 0f70 1C2BFBF1 		.ascii	"\034+\373\361\207\321<\211\341hyy\264\242\2602\032S"
 469      87D13C89 
 469      E1687979 
 469      B4A2B032 
 469      1A53
 470 0f82 E3856051 		.ascii	"\343\205`Q\321\204\351\364Ye\244\0148/\034_T\004\334"
 470      D184E9F4 
 470      5965A40C 
 470      382F1C5F 
 470      5404DC
 471 0f95 1A1E0BA8 		.ascii	"\032\036\013\250\225\261H4\244\242A"
 471      95B14834 
 471      A4A241
 472 0fa0 0F8E0A51 		.ascii	"\017\216\012Q\036#\321|\3326\024\216V\250\300\354O\263"
 472      1E23D17C 
 472      DA36148E 
 472      56A8C0EC 
 472      4FB3
 473 0fb2 629786A3 		.ascii	"b\227\206\2431\005\300\362\260\031\000\205\325\351\017"
 473      3105C0F2 
 473      B0190085 
 473      D5E90F
 474 0fc1 B86B15AA 		.ascii	"\270k\025\252\376e9\3453\246L\005\312C\252\030{H\214"
 474      FE6539E5 
 474      33A64C05 
 474      CA43AA18 
 474      7B488C
 475 0fd4 FD428C3D 		.ascii	"\375B\214=,\306~)\306F\213\261_I\261\221# \215\024\313"
 475      2CC67E29 
 475      C6468BB1 
 475      5F49B191 
 475      23208D14 
 476 0fe9 6262BC52 		.ascii	"bb\274R\002h\177\2052M\211\371\243e%\340\373p\251\014"
 476      02687F85 
 476      324D89F9 
 476      A36525E0 
 476      FB70A90C 
 477 0ffd 012097   		.ascii	"\001 \227"
 478 1000 2BFDE2EA 		.ascii	"+\375\342\352\037\344\262\310\324\012\335\230\207\037"
 478      1FE4B2C8 
ARM GAS  /tmp/ccQr5yWK.s 			page 38


 478      D40ADD98 
 478      871F
 479 100e 82C89B26 		.ascii	"\202\310\233&O\221\343@[\\\225\301\303j\200\3760\032"
 479      4F91E340 
 479      5B5C95C1 
 479      C36A80FE 
 479      301A
 480 1020 BC86F701 		.ascii	"\274\206\367\001\265\034\"\000\356\236-\223\247\306"
 480      B51C2200 
 480      EE9E2D93 
 480      A7C6
 481 102e 036A4C79 		.ascii	"\003jLy6\016\004\320?\376\362\370T\250\256s\222\023"
 481      360E04D0 
 481      3FFEF2F8 
 481      54A8AE73 
 481      9213
 482 1040 2B99010F 		.ascii	"+\231\001\017\202\312\364\210\032\206&9\323\324\350"
 482      82CAF488 
 482      1A862639 
 482      D3D4E8
 483 104f 94DF570E 		.ascii	"\224\337W\016\322\275\001\015\224\030\304\021\205\232"
 483      D2BD010D 
 483      9418C411 
 483      859A
 484 105d A6AAB1CA 		.ascii	"\246\252\261\312@\034\"\016\032\344S\247+\345\020w`"
 484      401C220E 
 484      1AE453A7 
 484      2BE51077 
 484      60
 485 106e E950E738 		.ascii	"\351P\3478W(\005\376p\005\004\204\0049\300\303\243\312"
 485      572805FE 
 485      70050484 
 485      0439C0C3 
 485      A3CA
 486 1080 20B42EAF 		.ascii	" \264.\257\002\0178\267,W\247\323\226\321i\025J,\200"
 486      020F38B7 
 486      2C57A7D3 
 486      96D16915 
 486      4A2C80
 487 1093 75A9CD2A 		.ascii	"u\251\315*<\256\314S\252\251\022r\374\017\360H\231F"
 487      3CAECC53 
 487      AAA91272 
 487      FC0FF048 
 487      9946
 488 10a5 0BA46A80 		.ascii	"\013\244j\200\021M,\372\356\340\342\213>\011L\223#j"
 488      114D2CFA 
 488      EEE0E28B 
 488      3E094C93 
 488      236A
 489 10b7 A4626A10 		.ascii	"\244bj\020tg\361\246T*\025\020\362S\003\000Ik\200\237"
 489      7467F1A6 
 489      542A1510 
 489      F2530300 
 489      496B809F 
 490 10cb E4321A21 		.ascii	"\3442\032!\376\362\312h\264,\020\256\212\201\345\252"
 490      FEF2CA68 
 490      B42C10AE 
ARM GAS  /tmp/ccQr5yWK.s 			page 39


 490      8A81E5AA 
 491 10db 3F467F1C 		.ascii	"?F\177\034\300\002<T\242L\251\232\312\320\371'\271\225"
 491      C0023C54 
 491      A24CA99A 
 491      CAD0F927 
 491      B995
 492 10ed 7245241C 		.ascii	"rE$\034\002l\251d\312\324~\3452\260\213\302\357\261"
 492      026CA964 
 492      CAD47EE5 
 492      32B08BC2 
 492      EFB1
 493 10ff D8178F85 		.ascii	"\330\027\217\205\301\266juxX\030\034.\375\317I\343\242"
 493      C1B66A75 
 493      7858181C 
 493      2EFDCF49 
 493      E3A2
 494 1111 C54A5C51 		.ascii	"\305J\\Q\237\030\016\375J\035>B\252V+\203\241j\032h"
 494      9F180EFD 
 494      4A1D3E42 
 494      AA562B83 
 494      A16A1A68 
 495 1125 11B51FAB 		.ascii	"\021\265\037\2530\021~\246]Q\236\221\303\272b>\337p"
 495      30117EA6 
 495      5D519E91 
 495      C3BA623E 
 495      DF70
 496 1137 182FA054 		.ascii	"\030/\240T.K2\010\345P\234\366\347\274\270:Q\215V\216"
 496      2E4B3208 
 496      E5509CF6 
 496      E7BCB83A 
 496      518D568E 
 497 114b 2D832084 		.ascii	"-\203 \204@\0028,\346\323\307 \024o\362R\366\250b\270"
 497      4002382C 
 497      E6D3C720 
 497      146FF252 
 497      F6A862B8 
 498 115f 74941594 		.ascii	"t\224\025\224E\367\304I\023\036\034U\370\344\223\343"
 498      45F7C449 
 498      131E1C55 
 498      F8E493E3 
 499 116f 0A273D31 		.ascii	"\012'=1\241z$\014\031\3454\204\"\345L\212~\003\216."
 499      A17A240C 
 499      19E53484 
 499      22E54C8A 
 499      7E038E2E 
 500 1183 2A1E0969 		.ascii	"*\036\011i\224o\342\204\242b\337\270'\036+\026'\026"
 500      946FE284 
 500      A262DFB8 
 500      271E2B16 
 500      2716
 501 1195 4B8F8D2F 		.ascii	"K\217\215/\366\027\025M(\036\211\371(_Q\321c\305R\321"
 501      F617154D 
 501      281E89F9 
 501      285F51D1 
 501      63C552D1 
 502 11a9 6F27494F 		.ascii	"o'IOM,\222\306\026\027K\305Ep\017\015\036\0357\251X"
 502      4D2C92C6 
ARM GAS  /tmp/ccQr5yWK.s 			page 40


 502      16174BC5 
 502      45700F0D 
 502      1E1D37A9 
 503 11be 1A475B4E 		.ascii	"\032G[N\030[,\376\007k\365 \324\237\\\\\350\262\347"
 503      185B2CFE 
 503      076BF520 
 503      D49F5C5C 
 503      E8B2E7
 504 11d1 E1D84907 		.ascii	"\341\330I\007m\354\265lp\215\003\011!\231Z\373/\216"
 504      6DECB56C 
 504      708D0309 
 504      21995AFB 
 504      2F8E
 505 11e3 41574D09 		.ascii	"AWM\011\033D\371\035\257\250\023\221\220I\320x\362`"
 505      1B44F91D 
 505      AFA81391 
 505      9049D078 
 505      F260
 506 11f5 0E67AAC2 		.ascii	"\016g\252\302J\017\272#\211\371!TVF\307\373A\254\204"
 506      4A0FBA23 
 506      89F92154 
 506      5646C7FB 
 506      41AC84
 507 1208 18E16815 		.ascii	"\030\341h\025\214A\261\037\361*\302c\324\320G\357\203"
 507      8C41B11F 
 507      F12AC263 
 507      D4D047EF 
 507      83
 508 1219 A1108EBC 		.ascii	"\241\020\216\274\241\376Fa\370/~5j\324\335&\233\300"
 508      A1FE4661 
 508      F82F7E35 
 508      6AD4DD26 
 508      9BC0
 509 122b 83AC095F 		.ascii	"\203\254\011_i\344C\177\007\216g\312\\"
 509      69E4437F 
 509      078E67CA 
 509      5C
 510              		.text
 511              		.section	.gnu.lto_.symtab.86b73c2c7dbdcd3d,"",%progbits
 512 0000 5F76745F 		.ascii	"_vt_init\000\000\000\000\000\000\000\000\000\000\000"
 512      696E6974 
 512      00000000 
 512      00000000 
 512      000000
 513 0013 009C0100 		.ascii	"\000\234\001\000\000chVTDoSetI\000\000\000\000\000\000"
 513      00636856 
 513      54446F53 
 513      65744900 
 513      00000000 
 514 0028 00000000 		.ascii	"\000\000\000\000\000\000\240\001\000\000chVTDoReset"
 514      0000A001 
 514      00006368 
 514      5654446F 
 514      52657365 
 515 003d 49000000 		.ascii	"I\000\000\000\000\000\000\000\000\000\000\000\000\256"
 515      00000000 
 515      00000000 
ARM GAS  /tmp/ccQr5yWK.s 			page 41


 515      00AE
 516 004b 01000063 		.ascii	"\001\000\000ch\000\000\002\000\000\000\000\000\000\000"
 516      68000002 
 516      00000000 
 516      000000
 517 005a 0000BC01 		.ascii	"\000\000\274\001\000\000stStopAlarm\000\000\002\000"
 517      00007374 
 517      53746F70 
 517      416C6172 
 517      6D000002 
 518 006f 00000000 		.ascii	"\000\000\000\000\000\000\000\000\264\001\000\000stS"
 518      00000000 
 518      B4010000 
 518      737453
 519 007e 6574416C 		.ascii	"etAlarm\000\000\002\000\000\000\000\000\000\000\000"
 519      61726D00 
 519      00020000 
 519      00000000 
 519      0000
 520 0090 00B60100 		.ascii	"\000\266\001\000\000stStartAlarm\000\000\002\000\000"
 520      00737453 
 520      74617274 
 520      416C6172 
 520      6D000002 
 521 00a6 00000000 		.ascii	"\000\000\000\000\000\000\000\272\001\000\000"
 521      000000BA 
 521      010000
 522              		.text
 523              		.section	.gnu.lto_.opts,"",%progbits
 524 0000 272D6D63 		.ascii	"'-mcpu=cortex-m3' '-mno-thumb-interwork' '-mthumb' "
 524      70753D63 
 524      6F727465 
 524      782D6D33 
 524      2720272D 
 525 0033 272D6767 		.ascii	"'-ggdb' '-O2' '-fomit-frame-pointer' '-falign-funct"
 525      64622720 
 525      272D4F32 
 525      2720272D 
 525      666F6D69 
 526 0066 696F6E73 		.ascii	"ions=16' '-ffunction-sections' '-fdata-sections' '-"
 526      3D313627 
 526      20272D66 
 526      66756E63 
 526      74696F6E 
 527 0099 666E6F2D 		.ascii	"fno-common' '-flto'\000"
 527      636F6D6D 
 527      6F6E2720 
 527      272D666C 
 527      746F2700 
 528              		.text
 529              		.cfi_sections	.debug_frame
 530              		.section	.text._vt_init,"ax",%progbits
 531              		.align	2
 532              		.p2align 4,,15
 533              		.global	_vt_init
 534              		.thumb
 535              		.thumb_func
ARM GAS  /tmp/ccQr5yWK.s 			page 42


 536              		.type	_vt_init, %function
 537              	_vt_init:
 538              	.LFB188:
 539              		.file 1 "../../../os/rt/src/chvt.c"
 540              		.loc 1 61 0
 541              		.cfi_startproc
 542              		@ args = 0, pretend = 0, frame = 0
 543              		@ frame_needed = 0, uses_anonymous_args = 0
 544              		@ link register save eliminated.
 545              		.loc 1 63 0
 546 0000 40F20003 		movw	r3, #:lower16:ch
 547 0004 C0F20003 		movt	r3, #:upper16:ch
 548 0008 03F11C02 		add	r2, r3, #28
 549              		.loc 1 65 0
 550 000c 4FF6FF70 		movw	r0, #65535
 551              		.loc 1 69 0
 552 0010 0021     		movs	r1, #0
 553              		.loc 1 65 0
 554 0012 9884     		strh	r0, [r3, #36]	@ movhi
 555              		.loc 1 69 0
 556 0014 D984     		strh	r1, [r3, #38]	@ movhi
 557              		.loc 1 63 0
 558 0016 DA61     		str	r2, [r3, #28]
 559              		.loc 1 64 0
 560 0018 1A62     		str	r2, [r3, #32]
 561 001a 7047     		bx	lr
 562              		.cfi_endproc
 563              	.LFE188:
 564              		.size	_vt_init, .-_vt_init
 565 001c AFF30080 		.section	.text.chVTDoSetI,"ax",%progbits
 566              		.align	2
 567              		.p2align 4,,15
 568              		.global	chVTDoSetI
 569              		.thumb
 570              		.thumb_func
 571              		.type	chVTDoSetI, %function
 572              	chVTDoSetI:
 573              	.LFB189:
 574              		.loc 1 96 0
 575              		.cfi_startproc
 576              		@ args = 0, pretend = 0, frame = 0
 577              		@ frame_needed = 0, uses_anonymous_args = 0
 578              	.LVL0:
 579 0000 F8B5     		push	{r3, r4, r5, r6, r7, lr}
 580              		.cfi_def_cfa_offset 24
 581              		.cfi_offset 3, -24
 582              		.cfi_offset 4, -20
 583              		.cfi_offset 5, -16
 584              		.cfi_offset 6, -12
 585              		.cfi_offset 7, -8
 586              		.cfi_offset 14, -4
 587              	.LBB35:
 588              		.loc 1 117 0
 589 0002 40F20007 		movw	r7, #:lower16:ch
 590 0006 C0F20007 		movt	r7, #:upper16:ch
 591 000a BC46     		mov	ip, r7
 592 000c 5CF81C4F 		ldr	r4, [ip, #28]!
ARM GAS  /tmp/ccQr5yWK.s 			page 43


 593              	.LBB36:
 594              	.LBB37:
 595              	.LBB38:
 596              	.LBB39:
 597              		.file 2 "../../../os/hal/ports/STM32/LLD/TIMv1/hal_st_lld.h"
 598              		.loc 2 141 0
 599 0010 4FF08045 		mov	r5, #1073741824
 600 0014 6D6A     		ldr	r5, [r5, #36]
 601              	.LBE39:
 602              	.LBE38:
 603              	.LBE37:
 604              	.LBE36:
 605              		.loc 1 113 0
 606 0016 0129     		cmp	r1, #1
 607 0018 98BF     		it	ls
 608 001a 0221     		movls	r1, #2
 609              	.LVL1:
 610              		.loc 1 117 0
 611 001c 6445     		cmp	r4, ip
 612              	.LBE35:
 613              		.loc 1 103 0
 614 001e 0361     		str	r3, [r0, #16]
 615              		.loc 1 96 0
 616 0020 0646     		mov	r6, r0
 617              		.loc 1 104 0
 618 0022 C260     		str	r2, [r0, #12]
 619              	.LBB50:
 620              	.LBB43:
 621              	.LBB42:
 622              	.LBB41:
 623              	.LBB40:
 624              		.loc 2 141 0
 625 0024 ABB2     		uxth	r3, r5
 626              	.LVL2:
 627              	.LBE40:
 628              	.LBE41:
 629              	.LBE42:
 630              	.LBE43:
 631              		.loc 1 117 0
 632 0026 27D0     		beq	.L14
 633              	.LVL3:
 634              		.loc 1 139 0
 635 0028 FA8C     		ldrh	r2, [r7, #38]
 636              	.LVL4:
 637 002a 9B1A     		subs	r3, r3, r2
 638 002c CD18     		adds	r5, r1, r3
 639 002e ADB2     		uxth	r5, r5
 640              	.LVL5:
 641              		.loc 1 141 0
 642 0030 9D42     		cmp	r5, r3
 643              		.loc 1 145 0
 644 0032 2389     		ldrh	r3, [r4, #8]
 645              		.loc 1 141 0
 646 0034 15DB     		blt	.L15
 647              		.loc 1 148 0
 648 0036 9D42     		cmp	r5, r3
 649 0038 04D2     		bcs	.L12
ARM GAS  /tmp/ccQr5yWK.s 			page 44


 650 003a 17E0     		b	.L17
 651              	.LVL6:
 652              	.L9:
 653              	.LBE50:
 654              		.loc 1 166 0
 655 003c 2468     		ldr	r4, [r4]
 656              	.LVL7:
 657              		.loc 1 165 0
 658 003e ED1A     		subs	r5, r5, r3
 659              	.LVL8:
 660              		.loc 1 164 0
 661 0040 2389     		ldrh	r3, [r4, #8]
 662              		.loc 1 165 0
 663 0042 ADB2     		uxth	r5, r5
 664              	.L12:
 665              	.LVL9:
 666              		.loc 1 164 0
 667 0044 AB42     		cmp	r3, r5
 668 0046 F9D3     		bcc	.L9
 669              		.loc 1 171 0
 670 0048 6368     		ldr	r3, [r4, #4]
 671              		.loc 1 170 0
 672 004a 3460     		str	r4, [r6]
 673              		.loc 1 171 0
 674 004c 7360     		str	r3, [r6, #4]
 675              		.loc 1 172 0
 676 004e 1E60     		str	r6, [r3]
 677              		.loc 1 173 0
 678 0050 6660     		str	r6, [r4, #4]
 679              		.loc 1 174 0
 680 0052 3581     		strh	r5, [r6, #8]	@ movhi
 681              		.loc 1 178 0
 682 0054 2289     		ldrh	r2, [r4, #8]
 683              		.loc 1 179 0
 684 0056 4FF6FF73 		movw	r3, #65535
 685              		.loc 1 178 0
 686 005a 551B     		subs	r5, r2, r5
 687              	.LVL10:
 688 005c 2581     		strh	r5, [r4, #8]	@ movhi
 689              		.loc 1 179 0
 690 005e BB84     		strh	r3, [r7, #36]	@ movhi
 691 0060 F8BD     		pop	{r3, r4, r5, r6, r7, pc}
 692              	.LVL11:
 693              	.L15:
 694              	.LBB51:
 695              		.loc 1 146 0
 696 0062 2468     		ldr	r4, [r4]
 697              	.LVL12:
 698              		.loc 1 145 0
 699 0064 ED1A     		subs	r5, r5, r3
 700              	.LVL13:
 701 0066 ADB2     		uxth	r5, r5
 702              	.LVL14:
 703 0068 2389     		ldrh	r3, [r4, #8]
 704 006a EBE7     		b	.L12
 705              	.L17:
 706              	.LVL15:
ARM GAS  /tmp/ccQr5yWK.s 			page 45


 707              		.loc 1 151 0
 708 006c A818     		adds	r0, r5, r2
 709              	.LVL16:
 710              	.LBB44:
 711              	.LBB45:
 712              		.file 3 "../../../os/common/ports/ARMCMx/chcore_timer.h"
 713              		.loc 3 95 0
 714 006e 80B2     		uxth	r0, r0
 715 0070 FFF7FEFF 		bl	stSetAlarm
 716              	.LVL17:
 717 0074 2389     		ldrh	r3, [r4, #8]
 718 0076 E5E7     		b	.L12
 719              	.LVL18:
 720              	.L14:
 721              	.LBE45:
 722              	.LBE44:
 723              		.loc 1 129 0
 724 0078 C818     		adds	r0, r1, r3
 725              	.LVL19:
 726              		.loc 1 121 0
 727 007a FB84     		strh	r3, [r7, #38]	@ movhi
 728              		.loc 1 122 0
 729 007c FE61     		str	r6, [r7, #28]
 730              		.loc 1 123 0
 731 007e 3E62     		str	r6, [r7, #32]
 732              	.LBB46:
 733              	.LBB47:
 734              		.loc 3 73 0
 735 0080 80B2     		uxth	r0, r0
 736              	.LBE47:
 737              	.LBE46:
 738              		.loc 1 124 0
 739 0082 3460     		str	r4, [r6]
 740              		.loc 1 125 0
 741 0084 7460     		str	r4, [r6, #4]
 742              		.loc 1 126 0
 743 0086 3181     		strh	r1, [r6, #8]	@ movhi
 744              	.LVL20:
 745              	.LBE51:
 746              		.loc 1 180 0
 747 0088 BDE8F840 		pop	{r3, r4, r5, r6, r7, lr}
 748              	.LVL21:
 749              	.LBB52:
 750              	.LBB49:
 751              	.LBB48:
 752              		.loc 3 73 0
 753 008c FFF7FEBF 		b	stStartAlarm
 754              	.LVL22:
 755              	.LBE48:
 756              	.LBE49:
 757              	.LBE52:
 758              		.cfi_endproc
 759              	.LFE189:
 760              		.size	chVTDoSetI, .-chVTDoSetI
 761              		.section	.text.chVTDoResetI,"ax",%progbits
 762              		.align	2
 763              		.p2align 4,,15
ARM GAS  /tmp/ccQr5yWK.s 			page 46


 764              		.global	chVTDoResetI
 765              		.thumb
 766              		.thumb_func
 767              		.type	chVTDoResetI, %function
 768              	chVTDoResetI:
 769              	.LFB190:
 770              		.loc 1 190 0
 771              		.cfi_startproc
 772              		@ args = 0, pretend = 0, frame = 0
 773              		@ frame_needed = 0, uses_anonymous_args = 0
 774              		@ link register save eliminated.
 775              	.LVL23:
 776              		.loc 1 214 0
 777 0000 40F20003 		movw	r3, #:lower16:ch
 778 0004 C0F20003 		movt	r3, #:upper16:ch
 779 0008 DA69     		ldr	r2, [r3, #28]
 780              		.loc 1 190 0
 781 000a 70B4     		push	{r4, r5, r6}
 782              		.cfi_def_cfa_offset 12
 783              		.cfi_offset 4, -12
 784              		.cfi_offset 5, -8
 785              		.cfi_offset 6, -4
 786              		.loc 1 214 0
 787 000c 8242     		cmp	r2, r0
 788 000e 0FD0     		beq	.L19
 789              		.loc 1 216 0
 790 0010 0268     		ldr	r2, [r0]
 791 0012 4168     		ldr	r1, [r0, #4]
 792              		.loc 1 221 0
 793 0014 1C33     		adds	r3, r3, #28
 794              		.loc 1 216 0
 795 0016 0A60     		str	r2, [r1]
 796              		.loc 1 217 0
 797 0018 0268     		ldr	r2, [r0]
 798              		.loc 1 218 0
 799 001a 0024     		movs	r4, #0
 800              		.loc 1 221 0
 801 001c 9A42     		cmp	r2, r3
 802              		.loc 1 217 0
 803 001e 5160     		str	r1, [r2, #4]
 804              		.loc 1 218 0
 805 0020 C460     		str	r4, [r0, #12]
 806              		.loc 1 221 0
 807 0022 03D0     		beq	.L18
 808              		.loc 1 222 0
 809 0024 0189     		ldrh	r1, [r0, #8]
 810 0026 1389     		ldrh	r3, [r2, #8]
 811 0028 0B44     		add	r3, r3, r1
 812 002a 1381     		strh	r3, [r2, #8]	@ movhi
 813              	.LVL24:
 814              	.L18:
 815              		.loc 1 268 0
 816 002c 70BC     		pop	{r4, r5, r6}
 817 002e 7047     		bx	lr
 818              	.LVL25:
 819              	.L19:
 820              	.LBB63:
ARM GAS  /tmp/ccQr5yWK.s 			page 47


 821              	.LBB64:
 822              		.loc 1 228 0
 823 0030 1168     		ldr	r1, [r2]
 824 0032 1846     		mov	r0, r3
 825              	.LVL26:
 826 0034 40F81C1F 		str	r1, [r0, #28]!
 827              		.loc 1 230 0
 828 0038 0024     		movs	r4, #0
 829              		.loc 1 233 0
 830 003a 8142     		cmp	r1, r0
 831              		.loc 1 229 0
 832 003c 4860     		str	r0, [r1, #4]
 833              		.loc 1 230 0
 834 003e D460     		str	r4, [r2, #12]
 835              		.loc 1 233 0
 836 0040 17D0     		beq	.L26
 837              	.LBB65:
 838              	.LBB66:
 839              	.LBB67:
 840              	.LBB68:
 841              		.loc 2 141 0
 842 0042 4FF08040 		mov	r0, #1073741824
 843 0046 466A     		ldr	r6, [r0, #36]
 844              	.LBE68:
 845              	.LBE67:
 846              	.LBE66:
 847              	.LBE65:
 848              		.loc 1 240 0
 849 0048 1589     		ldrh	r5, [r2, #8]
 850              		.loc 1 249 0
 851 004a D88C     		ldrh	r0, [r3, #38]
 852              		.loc 1 240 0
 853 004c 0C89     		ldrh	r4, [r1, #8]
 854              	.LBB72:
 855              	.LBB71:
 856              	.LBB70:
 857              	.LBB69:
 858              		.loc 2 141 0
 859 004e B2B2     		uxth	r2, r6
 860              	.LVL27:
 861              	.LBE69:
 862              	.LBE70:
 863              	.LBE71:
 864              	.LBE72:
 865              		.loc 1 240 0
 866 0050 2B19     		adds	r3, r5, r4
 867              		.loc 1 249 0
 868 0052 101A     		subs	r0, r2, r0
 869              		.loc 1 240 0
 870 0054 9BB2     		uxth	r3, r3
 871              		.loc 1 249 0
 872 0056 80B2     		uxth	r0, r0
 873              	.LVL28:
 874              		.loc 1 253 0
 875 0058 8342     		cmp	r3, r0
 876              		.loc 1 240 0
 877 005a 0B81     		strh	r3, [r1, #8]	@ movhi
ARM GAS  /tmp/ccQr5yWK.s 			page 48


 878              		.loc 1 253 0
 879 005c E6D9     		bls	.L18
 880              	.LBE64:
 881              	.LBE63:
 882              		.loc 1 268 0
 883 005e 70BC     		pop	{r4, r5, r6}
 884              	.LBB79:
 885              	.LBB77:
 886              		.loc 1 258 0
 887 0060 1B1A     		subs	r3, r3, r0
 888 0062 9BB2     		uxth	r3, r3
 889              	.LVL29:
 890              		.loc 1 263 0
 891 0064 012B     		cmp	r3, #1
 892 0066 98BF     		it	ls
 893 0068 0223     		movls	r3, #2
 894              	.LVL30:
 895              		.loc 1 266 0
 896 006a 9818     		adds	r0, r3, r2
 897              	.LVL31:
 898              	.LBB73:
 899              	.LBB74:
 900              		.loc 3 95 0
 901 006c 80B2     		uxth	r0, r0
 902 006e FFF7FEBF 		b	stSetAlarm
 903              	.LVL32:
 904              	.L26:
 905              	.LBE74:
 906              	.LBE73:
 907              	.LBE77:
 908              	.LBE79:
 909              		.loc 1 268 0
 910 0072 70BC     		pop	{r4, r5, r6}
 911              	.LBB80:
 912              	.LBB78:
 913              	.LBB75:
 914              	.LBB76:
 915              		.loc 3 83 0
 916 0074 FFF7FEBF 		b	stStopAlarm
 917              	.LVL33:
 918              	.LBE76:
 919              	.LBE75:
 920              	.LBE78:
 921              	.LBE80:
 922              		.cfi_endproc
 923              	.LFE190:
 924              		.size	chVTDoResetI, .-chVTDoResetI
 925 0078 AFF30080 		.text
 925      AFF30080 
 926              	.Letext0:
 927              		.file 4 "/home/otto/MentorGraphics/Sourcery_CodeBench_Lite_for_ARM_EABI/arm-none-eabi/include/stdi
 928              		.file 5 "../../../os/common/ports/ARMCMx/compilers/GCC/chtypes.h"
 929              		.file 6 "../../../os/rt/include/chsystypes.h"
 930              		.file 7 "../../../os/rt/include/chschd.h"
 931              		.file 8 "../../../os/common/ports/ARMCMx/chcore.h"
 932              		.file 9 "../../../os/common/ports/ARMCMx/chcore_v7m.h"
 933              		.file 10 "../../../os/hal/ports/STM32/LLD/TIMv1/stm32_tim.h"
ARM GAS  /tmp/ccQr5yWK.s 			page 49


 934              		.file 11 "../../../os/rt/include/chsem.h"
 935              		.file 12 "../../../os/rt/include/chmtx.h"
 936              		.file 13 "../../../os/rt/include/chvt.h"
 937              		.file 14 "../../../os/hal/include/hal_st.h"
 938              		.file 15 "../../../os/common/ext/CMSIS/include/core_cm3.h"
 939              		.section	.debug_info,"",%progbits
 940              	.Ldebug_info0:
 941 0000 D0090000 		.4byte	0x9d0
 942 0004 0400     		.2byte	0x4
 943 0006 00000000 		.4byte	.Ldebug_abbrev0
 944 000a 04       		.byte	0x4
 945 000b 01       		.uleb128 0x1
 946 000c 89020000 		.4byte	.LASF108
 947 0010 01       		.byte	0x1
 948 0011 66030000 		.4byte	.LASF109
 949 0015 17000000 		.4byte	.LASF110
 950 0019 90000000 		.4byte	.Ldebug_ranges0+0x90
 951 001d 00000000 		.4byte	0
 952 0021 00000000 		.4byte	.Ldebug_line0
 953 0025 02       		.uleb128 0x2
 954 0026 04       		.byte	0x4
 955 0027 05       		.byte	0x5
 956 0028 696E7400 		.ascii	"int\000"
 957 002c 03       		.uleb128 0x3
 958 002d 04       		.byte	0x4
 959 002e 07       		.byte	0x7
 960 002f B0000000 		.4byte	.LASF0
 961 0033 03       		.uleb128 0x3
 962 0034 01       		.byte	0x1
 963 0035 06       		.byte	0x6
 964 0036 5A050000 		.4byte	.LASF1
 965 003a 04       		.uleb128 0x4
 966 003b 5E030000 		.4byte	.LASF4
 967 003f 04       		.byte	0x4
 968 0040 2A       		.byte	0x2a
 969 0041 45000000 		.4byte	0x45
 970 0045 03       		.uleb128 0x3
 971 0046 01       		.byte	0x1
 972 0047 08       		.byte	0x8
 973 0048 0F050000 		.4byte	.LASF2
 974 004c 03       		.uleb128 0x3
 975 004d 02       		.byte	0x2
 976 004e 05       		.byte	0x5
 977 004f 2F040000 		.4byte	.LASF3
 978 0053 04       		.uleb128 0x4
 979 0054 21040000 		.4byte	.LASF5
 980 0058 04       		.byte	0x4
 981 0059 36       		.byte	0x36
 982 005a 5E000000 		.4byte	0x5e
 983 005e 03       		.uleb128 0x3
 984 005f 02       		.byte	0x2
 985 0060 07       		.byte	0x7
 986 0061 6C050000 		.4byte	.LASF6
 987 0065 04       		.uleb128 0x4
 988 0066 F9040000 		.4byte	.LASF7
 989 006a 04       		.byte	0x4
 990 006b 4F       		.byte	0x4f
ARM GAS  /tmp/ccQr5yWK.s 			page 50


 991 006c 70000000 		.4byte	0x70
 992 0070 03       		.uleb128 0x3
 993 0071 04       		.byte	0x4
 994 0072 05       		.byte	0x5
 995 0073 39040000 		.4byte	.LASF8
 996 0077 04       		.uleb128 0x4
 997 0078 52010000 		.4byte	.LASF9
 998 007c 04       		.byte	0x4
 999 007d 50       		.byte	0x50
 1000 007e 82000000 		.4byte	0x82
 1001 0082 03       		.uleb128 0x3
 1002 0083 04       		.byte	0x4
 1003 0084 07       		.byte	0x7
 1004 0085 C9040000 		.4byte	.LASF10
 1005 0089 03       		.uleb128 0x3
 1006 008a 08       		.byte	0x8
 1007 008b 05       		.byte	0x5
 1008 008c BE030000 		.4byte	.LASF11
 1009 0090 04       		.uleb128 0x4
 1010 0091 8E040000 		.4byte	.LASF12
 1011 0095 04       		.byte	0x4
 1012 0096 78       		.byte	0x78
 1013 0097 9B000000 		.4byte	0x9b
 1014 009b 03       		.uleb128 0x3
 1015 009c 08       		.byte	0x8
 1016 009d 07       		.byte	0x7
 1017 009e D2010000 		.4byte	.LASF13
 1018 00a2 04       		.uleb128 0x4
 1019 00a3 F9030000 		.4byte	.LASF14
 1020 00a7 05       		.byte	0x5
 1021 00a8 3C       		.byte	0x3c
 1022 00a9 3A000000 		.4byte	0x3a
 1023 00ad 04       		.uleb128 0x4
 1024 00ae 55030000 		.4byte	.LASF15
 1025 00b2 05       		.byte	0x5
 1026 00b3 3D       		.byte	0x3d
 1027 00b4 3A000000 		.4byte	0x3a
 1028 00b8 04       		.uleb128 0x4
 1029 00b9 AB040000 		.4byte	.LASF16
 1030 00bd 05       		.byte	0x5
 1031 00be 3E       		.byte	0x3e
 1032 00bf 3A000000 		.4byte	0x3a
 1033 00c3 04       		.uleb128 0x4
 1034 00c4 A7010000 		.4byte	.LASF17
 1035 00c8 05       		.byte	0x5
 1036 00c9 40       		.byte	0x40
 1037 00ca 77000000 		.4byte	0x77
 1038 00ce 04       		.uleb128 0x4
 1039 00cf CC030000 		.4byte	.LASF18
 1040 00d3 05       		.byte	0x5
 1041 00d4 41       		.byte	0x41
 1042 00d5 65000000 		.4byte	0x65
 1043 00d9 04       		.uleb128 0x4
 1044 00da 7C010000 		.4byte	.LASF19
 1045 00de 05       		.byte	0x5
 1046 00df 43       		.byte	0x43
 1047 00e0 77000000 		.4byte	0x77
ARM GAS  /tmp/ccQr5yWK.s 			page 51


 1048 00e4 04       		.uleb128 0x4
 1049 00e5 FC010000 		.4byte	.LASF20
 1050 00e9 05       		.byte	0x5
 1051 00ea 45       		.byte	0x45
 1052 00eb 65000000 		.4byte	0x65
 1053 00ef 04       		.uleb128 0x4
 1054 00f0 8D000000 		.4byte	.LASF21
 1055 00f4 06       		.byte	0x6
 1056 00f5 35       		.byte	0x35
 1057 00f6 53000000 		.4byte	0x53
 1058 00fa 04       		.uleb128 0x4
 1059 00fb 45020000 		.4byte	.LASF22
 1060 00ff 06       		.byte	0x6
 1061 0100 3F       		.byte	0x3f
 1062 0101 05010000 		.4byte	0x105
 1063 0105 05       		.uleb128 0x5
 1064 0106 8E030000 		.4byte	.LASF40
 1065 010a 44       		.byte	0x44
 1066 010b 07       		.byte	0x7
 1067 010c 9A       		.byte	0x9a
 1068 010d E3010000 		.4byte	0x1e3
 1069 0111 06       		.uleb128 0x6
 1070 0112 F3040000 		.4byte	.LASF23
 1071 0116 07       		.byte	0x7
 1072 0117 9B       		.byte	0x9b
 1073 0118 18020000 		.4byte	0x218
 1074 011c 00       		.byte	0
 1075 011d 06       		.uleb128 0x6
 1076 011e 2C030000 		.4byte	.LASF24
 1077 0122 07       		.byte	0x7
 1078 0123 9C       		.byte	0x9c
 1079 0124 C3000000 		.4byte	0xc3
 1080 0128 08       		.byte	0x8
 1081 0129 07       		.uleb128 0x7
 1082 012a 63747800 		.ascii	"ctx\000"
 1083 012e 07       		.byte	0x7
 1084 012f 9D       		.byte	0x9d
 1085 0130 29040000 		.4byte	0x429
 1086 0134 0C       		.byte	0xc
 1087 0135 06       		.uleb128 0x6
 1088 0136 09050000 		.4byte	.LASF25
 1089 013a 07       		.byte	0x7
 1090 013b 9F       		.byte	0x9f
 1091 013c EE010000 		.4byte	0x1ee
 1092 0140 10       		.byte	0x10
 1093 0141 06       		.uleb128 0x6
 1094 0142 92050000 		.4byte	.LASF26
 1095 0146 07       		.byte	0x7
 1096 0147 A0       		.byte	0xa0
 1097 0148 EE010000 		.4byte	0x1ee
 1098 014c 14       		.byte	0x14
 1099 014d 06       		.uleb128 0x6
 1100 014e 9D040000 		.4byte	.LASF27
 1101 0152 07       		.byte	0x7
 1102 0153 A7       		.byte	0xa7
 1103 0154 B0060000 		.4byte	0x6b0
 1104 0158 18       		.byte	0x18
ARM GAS  /tmp/ccQr5yWK.s 			page 52


 1105 0159 06       		.uleb128 0x6
 1106 015a 4E030000 		.4byte	.LASF28
 1107 015e 07       		.byte	0x7
 1108 015f B0       		.byte	0xb0
 1109 0160 C2060000 		.4byte	0x6c2
 1110 0164 1C       		.byte	0x1c
 1111 0165 06       		.uleb128 0x6
 1112 0166 3B050000 		.4byte	.LASF29
 1113 016a 07       		.byte	0x7
 1114 016b B5       		.byte	0xb5
 1115 016c AD000000 		.4byte	0xad
 1116 0170 20       		.byte	0x20
 1117 0171 06       		.uleb128 0x6
 1118 0172 87000000 		.4byte	.LASF30
 1119 0176 07       		.byte	0x7
 1120 0177 B9       		.byte	0xb9
 1121 0178 A2000000 		.4byte	0xa2
 1122 017c 21       		.byte	0x21
 1123 017d 06       		.uleb128 0x6
 1124 017e E4000000 		.4byte	.LASF31
 1125 0182 07       		.byte	0x7
 1126 0183 BE       		.byte	0xbe
 1127 0184 B8000000 		.4byte	0xb8
 1128 0188 22       		.byte	0x22
 1129 0189 08       		.uleb128 0x8
 1130 018a 7500     		.ascii	"u\000"
 1131 018c 07       		.byte	0x7
 1132 018d 0F01     		.2byte	0x10f
 1133 018f E5050000 		.4byte	0x5e5
 1134 0193 24       		.byte	0x24
 1135 0194 09       		.uleb128 0x9
 1136 0195 1D050000 		.4byte	.LASF32
 1137 0199 07       		.byte	0x7
 1138 019a 1401     		.2byte	0x114
 1139 019c F4010000 		.4byte	0x1f4
 1140 01a0 28       		.byte	0x28
 1141 01a1 09       		.uleb128 0x9
 1142 01a2 80030000 		.4byte	.LASF33
 1143 01a6 07       		.byte	0x7
 1144 01a7 1A01     		.2byte	0x11a
 1145 01a9 18020000 		.4byte	0x218
 1146 01ad 2C       		.byte	0x2c
 1147 01ae 09       		.uleb128 0x9
 1148 01af A7000000 		.4byte	.LASF34
 1149 01b3 07       		.byte	0x7
 1150 01b4 2001     		.2byte	0x120
 1151 01b6 D9000000 		.4byte	0xd9
 1152 01ba 34       		.byte	0x34
 1153 01bb 09       		.uleb128 0x9
 1154 01bc 26020000 		.4byte	.LASF35
 1155 01c0 07       		.byte	0x7
 1156 01c1 2701     		.2byte	0x127
 1157 01c3 AA060000 		.4byte	0x6aa
 1158 01c7 38       		.byte	0x38
 1159 01c8 09       		.uleb128 0x9
 1160 01c9 97000000 		.4byte	.LASF36
 1161 01cd 07       		.byte	0x7
ARM GAS  /tmp/ccQr5yWK.s 			page 53


 1162 01ce 2B01     		.2byte	0x12b
 1163 01d0 C3000000 		.4byte	0xc3
 1164 01d4 3C       		.byte	0x3c
 1165 01d5 09       		.uleb128 0x9
 1166 01d6 A1050000 		.4byte	.LASF37
 1167 01da 07       		.byte	0x7
 1168 01db 3201     		.2byte	0x132
 1169 01dd CB020000 		.4byte	0x2cb
 1170 01e1 40       		.byte	0x40
 1171 01e2 00       		.byte	0
 1172 01e3 04       		.uleb128 0x4
 1173 01e4 3B030000 		.4byte	.LASF38
 1174 01e8 06       		.byte	0x6
 1175 01e9 44       		.byte	0x44
 1176 01ea EE010000 		.4byte	0x1ee
 1177 01ee 0A       		.uleb128 0xa
 1178 01ef 04       		.byte	0x4
 1179 01f0 FA000000 		.4byte	0xfa
 1180 01f4 04       		.uleb128 0x4
 1181 01f5 D5000000 		.4byte	.LASF39
 1182 01f9 06       		.byte	0x6
 1183 01fa 49       		.byte	0x49
 1184 01fb FF010000 		.4byte	0x1ff
 1185 01ff 05       		.uleb128 0x5
 1186 0200 00000000 		.4byte	.LASF41
 1187 0204 04       		.byte	0x4
 1188 0205 07       		.byte	0x7
 1189 0206 88       		.byte	0x88
 1190 0207 18020000 		.4byte	0x218
 1191 020b 06       		.uleb128 0x6
 1192 020c BD000000 		.4byte	.LASF42
 1193 0210 07       		.byte	0x7
 1194 0211 89       		.byte	0x89
 1195 0212 EE010000 		.4byte	0x1ee
 1196 0216 00       		.byte	0
 1197 0217 00       		.byte	0
 1198 0218 04       		.uleb128 0x4
 1199 0219 16020000 		.4byte	.LASF43
 1200 021d 06       		.byte	0x6
 1201 021e 50       		.byte	0x50
 1202 021f 23020000 		.4byte	0x223
 1203 0223 05       		.uleb128 0x5
 1204 0224 23010000 		.4byte	.LASF44
 1205 0228 08       		.byte	0x8
 1206 0229 07       		.byte	0x7
 1207 022a 8F       		.byte	0x8f
 1208 022b 48020000 		.4byte	0x248
 1209 022f 06       		.uleb128 0x6
 1210 0230 BD000000 		.4byte	.LASF42
 1211 0234 07       		.byte	0x7
 1212 0235 90       		.byte	0x90
 1213 0236 EE010000 		.4byte	0x1ee
 1214 023a 00       		.byte	0
 1215 023b 06       		.uleb128 0x6
 1216 023c 1E010000 		.4byte	.LASF45
 1217 0240 07       		.byte	0x7
 1218 0241 91       		.byte	0x91
ARM GAS  /tmp/ccQr5yWK.s 			page 54


 1219 0242 EE010000 		.4byte	0x1ee
 1220 0246 04       		.byte	0x4
 1221 0247 00       		.byte	0
 1222 0248 04       		.uleb128 0x4
 1223 0249 E6040000 		.4byte	.LASF46
 1224 024d 06       		.byte	0x6
 1225 024e 57       		.byte	0x57
 1226 024f 53020000 		.4byte	0x253
 1227 0253 0B       		.uleb128 0xb
 1228 0254 04010000 		.4byte	.LASF47
 1229 0258 1C       		.byte	0x1c
 1230 0259 07       		.byte	0x7
 1231 025a 6A01     		.2byte	0x16a
 1232 025c AF020000 		.4byte	0x2af
 1233 0260 09       		.uleb128 0x9
 1234 0261 F3040000 		.4byte	.LASF23
 1235 0265 07       		.byte	0x7
 1236 0266 6B01     		.2byte	0x16b
 1237 0268 18020000 		.4byte	0x218
 1238 026c 00       		.byte	0
 1239 026d 09       		.uleb128 0x9
 1240 026e 2C030000 		.4byte	.LASF24
 1241 0272 07       		.byte	0x7
 1242 0273 6C01     		.2byte	0x16c
 1243 0275 C3000000 		.4byte	0xc3
 1244 0279 08       		.byte	0x8
 1245 027a 08       		.uleb128 0x8
 1246 027b 63747800 		.ascii	"ctx\000"
 1247 027f 07       		.byte	0x7
 1248 0280 6E01     		.2byte	0x16e
 1249 0282 29040000 		.4byte	0x429
 1250 0286 0C       		.byte	0xc
 1251 0287 09       		.uleb128 0x9
 1252 0288 09050000 		.4byte	.LASF25
 1253 028c 07       		.byte	0x7
 1254 028d 7101     		.2byte	0x171
 1255 028f EE010000 		.4byte	0x1ee
 1256 0293 10       		.byte	0x10
 1257 0294 09       		.uleb128 0x9
 1258 0295 92050000 		.4byte	.LASF26
 1259 0299 07       		.byte	0x7
 1260 029a 7201     		.2byte	0x172
 1261 029c EE010000 		.4byte	0x1ee
 1262 02a0 14       		.byte	0x14
 1263 02a1 09       		.uleb128 0x9
 1264 02a2 8A050000 		.4byte	.LASF48
 1265 02a6 07       		.byte	0x7
 1266 02a7 7501     		.2byte	0x175
 1267 02a9 EE010000 		.4byte	0x1ee
 1268 02ad 18       		.byte	0x18
 1269 02ae 00       		.byte	0
 1270 02af 04       		.uleb128 0x4
 1271 02b0 39010000 		.4byte	.LASF49
 1272 02b4 06       		.byte	0x6
 1273 02b5 5C       		.byte	0x5c
 1274 02b6 BA020000 		.4byte	0x2ba
 1275 02ba 0A       		.uleb128 0xa
ARM GAS  /tmp/ccQr5yWK.s 			page 55


 1276 02bb 04       		.byte	0x4
 1277 02bc C0020000 		.4byte	0x2c0
 1278 02c0 0C       		.uleb128 0xc
 1279 02c1 CB020000 		.4byte	0x2cb
 1280 02c5 0D       		.uleb128 0xd
 1281 02c6 CB020000 		.4byte	0x2cb
 1282 02ca 00       		.byte	0
 1283 02cb 0E       		.uleb128 0xe
 1284 02cc 04       		.byte	0x4
 1285 02cd 04       		.uleb128 0x4
 1286 02ce DF030000 		.4byte	.LASF50
 1287 02d2 06       		.byte	0x6
 1288 02d3 61       		.byte	0x61
 1289 02d4 D8020000 		.4byte	0x2d8
 1290 02d8 0B       		.uleb128 0xb
 1291 02d9 AF010000 		.4byte	.LASF51
 1292 02dd 14       		.byte	0x14
 1293 02de 07       		.byte	0x7
 1294 02df 4501     		.2byte	0x145
 1295 02e1 27030000 		.4byte	0x327
 1296 02e5 09       		.uleb128 0x9
 1297 02e6 BD000000 		.4byte	.LASF42
 1298 02ea 07       		.byte	0x7
 1299 02eb 4601     		.2byte	0x146
 1300 02ed C8060000 		.4byte	0x6c8
 1301 02f1 00       		.byte	0
 1302 02f2 09       		.uleb128 0x9
 1303 02f3 1E010000 		.4byte	.LASF45
 1304 02f7 07       		.byte	0x7
 1305 02f8 4701     		.2byte	0x147
 1306 02fa C8060000 		.4byte	0x6c8
 1307 02fe 04       		.byte	0x4
 1308 02ff 09       		.uleb128 0x9
 1309 0300 66050000 		.4byte	.LASF52
 1310 0304 07       		.byte	0x7
 1311 0305 4801     		.2byte	0x148
 1312 0307 EF000000 		.4byte	0xef
 1313 030b 08       		.byte	0x8
 1314 030c 09       		.uleb128 0x9
 1315 030d 12010000 		.4byte	.LASF53
 1316 0311 07       		.byte	0x7
 1317 0312 4901     		.2byte	0x149
 1318 0314 AF020000 		.4byte	0x2af
 1319 0318 0C       		.byte	0xc
 1320 0319 08       		.uleb128 0x8
 1321 031a 70617200 		.ascii	"par\000"
 1322 031e 07       		.byte	0x7
 1323 031f 4B01     		.2byte	0x14b
 1324 0321 CB020000 		.4byte	0x2cb
 1325 0325 10       		.byte	0x10
 1326 0326 00       		.byte	0
 1327 0327 04       		.uleb128 0x4
 1328 0328 25050000 		.4byte	.LASF54
 1329 032c 06       		.byte	0x6
 1330 032d 66       		.byte	0x66
 1331 032e 32030000 		.4byte	0x332
 1332 0332 0B       		.uleb128 0xb
ARM GAS  /tmp/ccQr5yWK.s 			page 56


 1333 0333 2E020000 		.4byte	.LASF55
 1334 0337 0C       		.byte	0xc
 1335 0338 07       		.byte	0x7
 1336 0339 5501     		.2byte	0x155
 1337 033b 74030000 		.4byte	0x374
 1338 033f 09       		.uleb128 0x9
 1339 0340 BD000000 		.4byte	.LASF42
 1340 0344 07       		.byte	0x7
 1341 0345 5601     		.2byte	0x156
 1342 0347 C8060000 		.4byte	0x6c8
 1343 034b 00       		.byte	0
 1344 034c 09       		.uleb128 0x9
 1345 034d 1E010000 		.4byte	.LASF45
 1346 0351 07       		.byte	0x7
 1347 0352 5801     		.2byte	0x158
 1348 0354 C8060000 		.4byte	0x6c8
 1349 0358 04       		.byte	0x4
 1350 0359 09       		.uleb128 0x9
 1351 035a 66050000 		.4byte	.LASF52
 1352 035e 07       		.byte	0x7
 1353 035f 5A01     		.2byte	0x15a
 1354 0361 EF000000 		.4byte	0xef
 1355 0365 08       		.byte	0x8
 1356 0366 09       		.uleb128 0x9
 1357 0367 85040000 		.4byte	.LASF56
 1358 036b 07       		.byte	0x7
 1359 036c 6201     		.2byte	0x162
 1360 036e EF000000 		.4byte	0xef
 1361 0372 0A       		.byte	0xa
 1362 0373 00       		.byte	0
 1363 0374 04       		.uleb128 0x4
 1364 0375 AF030000 		.4byte	.LASF57
 1365 0379 06       		.byte	0x6
 1366 037a 6B       		.byte	0x6b
 1367 037b 7F030000 		.4byte	0x37f
 1368 037f 0B       		.uleb128 0xb
 1369 0380 42010000 		.4byte	.LASF58
 1370 0384 04       		.byte	0x4
 1371 0385 07       		.byte	0x7
 1372 0386 7C01     		.2byte	0x17c
 1373 0388 9A030000 		.4byte	0x39a
 1374 038c 09       		.uleb128 0x9
 1375 038d EF030000 		.4byte	.LASF59
 1376 0391 07       		.byte	0x7
 1377 0392 8401     		.2byte	0x184
 1378 0394 CE060000 		.4byte	0x6ce
 1379 0398 00       		.byte	0
 1380 0399 00       		.byte	0
 1381 039a 04       		.uleb128 0x4
 1382 039b 41050000 		.4byte	.LASF60
 1383 039f 06       		.byte	0x6
 1384 03a0 70       		.byte	0x70
 1385 03a1 A5030000 		.4byte	0x3a5
 1386 03a5 0B       		.uleb128 0xb
 1387 03a6 61040000 		.4byte	.LASF61
 1388 03aa 70       		.byte	0x70
 1389 03ab 07       		.byte	0x7
ARM GAS  /tmp/ccQr5yWK.s 			page 57


 1390 03ac 9C01     		.2byte	0x19c
 1391 03ae E7030000 		.4byte	0x3e7
 1392 03b2 09       		.uleb128 0x9
 1393 03b3 97040000 		.4byte	.LASF62
 1394 03b7 07       		.byte	0x7
 1395 03b8 A001     		.2byte	0x1a0
 1396 03ba 48020000 		.4byte	0x248
 1397 03be 00       		.byte	0
 1398 03bf 09       		.uleb128 0x9
 1399 03c0 F0000000 		.4byte	.LASF63
 1400 03c4 07       		.byte	0x7
 1401 03c5 A401     		.2byte	0x1a4
 1402 03c7 27030000 		.4byte	0x327
 1403 03cb 1C       		.byte	0x1c
 1404 03cc 08       		.uleb128 0x8
 1405 03cd 64626700 		.ascii	"dbg\000"
 1406 03d1 07       		.byte	0x7
 1407 03d2 A801     		.2byte	0x1a8
 1408 03d4 74030000 		.4byte	0x374
 1409 03d8 28       		.byte	0x28
 1410 03d9 09       		.uleb128 0x9
 1411 03da 01040000 		.4byte	.LASF64
 1412 03de 07       		.byte	0x7
 1413 03df AC01     		.2byte	0x1ac
 1414 03e1 FA000000 		.4byte	0xfa
 1415 03e5 2C       		.byte	0x2c
 1416 03e6 00       		.byte	0
 1417 03e7 03       		.uleb128 0x3
 1418 03e8 04       		.byte	0x4
 1419 03e9 07       		.byte	0x7
 1420 03ea A2040000 		.4byte	.LASF65
 1421 03ee 0F       		.uleb128 0xf
 1422 03ef 77000000 		.4byte	0x77
 1423 03f3 10       		.uleb128 0x10
 1424 03f4 77000000 		.4byte	0x77
 1425 03f8 03040000 		.4byte	0x403
 1426 03fc 11       		.uleb128 0x11
 1427 03fd E7030000 		.4byte	0x3e7
 1428 0401 01       		.byte	0x1
 1429 0402 00       		.byte	0
 1430 0403 10       		.uleb128 0x10
 1431 0404 77000000 		.4byte	0x77
 1432 0408 13040000 		.4byte	0x413
 1433 040c 11       		.uleb128 0x11
 1434 040d E7030000 		.4byte	0x3e7
 1435 0411 03       		.byte	0x3
 1436 0412 00       		.byte	0
 1437 0413 04       		.uleb128 0x4
 1438 0414 75000000 		.4byte	.LASF66
 1439 0418 08       		.byte	0x8
 1440 0419 65       		.byte	0x65
 1441 041a CB020000 		.4byte	0x2cb
 1442 041e 04       		.uleb128 0x4
 1443 041f 7F050000 		.4byte	.LASF67
 1444 0423 08       		.byte	0x8
 1445 0424 6D       		.byte	0x6d
 1446 0425 90000000 		.4byte	0x90
ARM GAS  /tmp/ccQr5yWK.s 			page 58


 1447 0429 05       		.uleb128 0x5
 1448 042a F7000000 		.4byte	.LASF68
 1449 042e 04       		.byte	0x4
 1450 042f 08       		.byte	0x8
 1451 0430 89       		.byte	0x89
 1452 0431 41040000 		.4byte	0x441
 1453 0435 07       		.uleb128 0x7
 1454 0436 737000   		.ascii	"sp\000"
 1455 0439 08       		.byte	0x8
 1456 043a 8A       		.byte	0x8a
 1457 043b BD040000 		.4byte	0x4bd
 1458 043f 00       		.byte	0
 1459 0440 00       		.byte	0
 1460 0441 0B       		.uleb128 0xb
 1461 0442 42040000 		.4byte	.LASF69
 1462 0446 24       		.byte	0x24
 1463 0447 09       		.byte	0x9
 1464 0448 5901     		.2byte	0x159
 1465 044a BD040000 		.4byte	0x4bd
 1466 044e 08       		.uleb128 0x8
 1467 044f 723400   		.ascii	"r4\000"
 1468 0452 09       		.byte	0x9
 1469 0453 6C01     		.2byte	0x16c
 1470 0455 13040000 		.4byte	0x413
 1471 0459 00       		.byte	0
 1472 045a 08       		.uleb128 0x8
 1473 045b 723500   		.ascii	"r5\000"
 1474 045e 09       		.byte	0x9
 1475 045f 6D01     		.2byte	0x16d
 1476 0461 13040000 		.4byte	0x413
 1477 0465 04       		.byte	0x4
 1478 0466 08       		.uleb128 0x8
 1479 0467 723600   		.ascii	"r6\000"
 1480 046a 09       		.byte	0x9
 1481 046b 6E01     		.2byte	0x16e
 1482 046d 13040000 		.4byte	0x413
 1483 0471 08       		.byte	0x8
 1484 0472 08       		.uleb128 0x8
 1485 0473 723700   		.ascii	"r7\000"
 1486 0476 09       		.byte	0x9
 1487 0477 6F01     		.2byte	0x16f
 1488 0479 13040000 		.4byte	0x413
 1489 047d 0C       		.byte	0xc
 1490 047e 08       		.uleb128 0x8
 1491 047f 723800   		.ascii	"r8\000"
 1492 0482 09       		.byte	0x9
 1493 0483 7001     		.2byte	0x170
 1494 0485 13040000 		.4byte	0x413
 1495 0489 10       		.byte	0x10
 1496 048a 08       		.uleb128 0x8
 1497 048b 723900   		.ascii	"r9\000"
 1498 048e 09       		.byte	0x9
 1499 048f 7101     		.2byte	0x171
 1500 0491 13040000 		.4byte	0x413
 1501 0495 14       		.byte	0x14
 1502 0496 08       		.uleb128 0x8
 1503 0497 72313000 		.ascii	"r10\000"
ARM GAS  /tmp/ccQr5yWK.s 			page 59


 1504 049b 09       		.byte	0x9
 1505 049c 7201     		.2byte	0x172
 1506 049e 13040000 		.4byte	0x413
 1507 04a2 18       		.byte	0x18
 1508 04a3 08       		.uleb128 0x8
 1509 04a4 72313100 		.ascii	"r11\000"
 1510 04a8 09       		.byte	0x9
 1511 04a9 7301     		.2byte	0x173
 1512 04ab 13040000 		.4byte	0x413
 1513 04af 1C       		.byte	0x1c
 1514 04b0 08       		.uleb128 0x8
 1515 04b1 6C7200   		.ascii	"lr\000"
 1516 04b4 09       		.byte	0x9
 1517 04b5 7401     		.2byte	0x174
 1518 04b7 13040000 		.4byte	0x413
 1519 04bb 20       		.byte	0x20
 1520 04bc 00       		.byte	0
 1521 04bd 0A       		.uleb128 0xa
 1522 04be 04       		.byte	0x4
 1523 04bf 41040000 		.4byte	0x441
 1524 04c3 12       		.uleb128 0x12
 1525 04c4 60       		.byte	0x60
 1526 04c5 0A       		.byte	0xa
 1527 04c6 A101     		.2byte	0x1a1
 1528 04c8 CF050000 		.4byte	0x5cf
 1529 04cc 08       		.uleb128 0x8
 1530 04cd 43523100 		.ascii	"CR1\000"
 1531 04d1 0A       		.byte	0xa
 1532 04d2 A201     		.2byte	0x1a2
 1533 04d4 EE030000 		.4byte	0x3ee
 1534 04d8 00       		.byte	0
 1535 04d9 08       		.uleb128 0x8
 1536 04da 43523200 		.ascii	"CR2\000"
 1537 04de 0A       		.byte	0xa
 1538 04df A301     		.2byte	0x1a3
 1539 04e1 EE030000 		.4byte	0x3ee
 1540 04e5 04       		.byte	0x4
 1541 04e6 09       		.uleb128 0x9
 1542 04e7 89030000 		.4byte	.LASF70
 1543 04eb 0A       		.byte	0xa
 1544 04ec A401     		.2byte	0x1a4
 1545 04ee EE030000 		.4byte	0x3ee
 1546 04f2 08       		.byte	0x8
 1547 04f3 09       		.uleb128 0x9
 1548 04f4 70020000 		.4byte	.LASF71
 1549 04f8 0A       		.byte	0xa
 1550 04f9 A501     		.2byte	0x1a5
 1551 04fb EE030000 		.4byte	0x3ee
 1552 04ff 0C       		.byte	0xc
 1553 0500 08       		.uleb128 0x8
 1554 0501 535200   		.ascii	"SR\000"
 1555 0504 0A       		.byte	0xa
 1556 0505 A601     		.2byte	0x1a6
 1557 0507 EE030000 		.4byte	0x3ee
 1558 050b 10       		.byte	0x10
 1559 050c 08       		.uleb128 0x8
 1560 050d 45475200 		.ascii	"EGR\000"
ARM GAS  /tmp/ccQr5yWK.s 			page 60


 1561 0511 0A       		.byte	0xa
 1562 0512 A701     		.2byte	0x1a7
 1563 0514 EE030000 		.4byte	0x3ee
 1564 0518 14       		.byte	0x14
 1565 0519 09       		.uleb128 0x9
 1566 051a C0010000 		.4byte	.LASF72
 1567 051e 0A       		.byte	0xa
 1568 051f A801     		.2byte	0x1a8
 1569 0521 EE030000 		.4byte	0x3ee
 1570 0525 18       		.byte	0x18
 1571 0526 09       		.uleb128 0x9
 1572 0527 C6010000 		.4byte	.LASF73
 1573 052b 0A       		.byte	0xa
 1574 052c A901     		.2byte	0x1a9
 1575 052e EE030000 		.4byte	0x3ee
 1576 0532 1C       		.byte	0x1c
 1577 0533 09       		.uleb128 0x9
 1578 0534 31030000 		.4byte	.LASF74
 1579 0538 0A       		.byte	0xa
 1580 0539 AA01     		.2byte	0x1aa
 1581 053b EE030000 		.4byte	0x3ee
 1582 053f 20       		.byte	0x20
 1583 0540 08       		.uleb128 0x8
 1584 0541 434E5400 		.ascii	"CNT\000"
 1585 0545 0A       		.byte	0xa
 1586 0546 AB01     		.2byte	0x1ab
 1587 0548 EE030000 		.4byte	0x3ee
 1588 054c 24       		.byte	0x24
 1589 054d 08       		.uleb128 0x8
 1590 054e 50534300 		.ascii	"PSC\000"
 1591 0552 0A       		.byte	0xa
 1592 0553 AC01     		.2byte	0x1ac
 1593 0555 EE030000 		.4byte	0x3ee
 1594 0559 28       		.byte	0x28
 1595 055a 08       		.uleb128 0x8
 1596 055b 41525200 		.ascii	"ARR\000"
 1597 055f 0A       		.byte	0xa
 1598 0560 AD01     		.2byte	0x1ad
 1599 0562 EE030000 		.4byte	0x3ee
 1600 0566 2C       		.byte	0x2c
 1601 0567 08       		.uleb128 0x8
 1602 0568 52435200 		.ascii	"RCR\000"
 1603 056c 0A       		.byte	0xa
 1604 056d AE01     		.2byte	0x1ae
 1605 056f EE030000 		.4byte	0x3ee
 1606 0573 30       		.byte	0x30
 1607 0574 08       		.uleb128 0x8
 1608 0575 43435200 		.ascii	"CCR\000"
 1609 0579 0A       		.byte	0xa
 1610 057a AF01     		.2byte	0x1af
 1611 057c CF050000 		.4byte	0x5cf
 1612 0580 34       		.byte	0x34
 1613 0581 09       		.uleb128 0x9
 1614 0582 88010000 		.4byte	.LASF75
 1615 0586 0A       		.byte	0xa
 1616 0587 B001     		.2byte	0x1b0
 1617 0589 EE030000 		.4byte	0x3ee
ARM GAS  /tmp/ccQr5yWK.s 			page 61


 1618 058d 44       		.byte	0x44
 1619 058e 08       		.uleb128 0x8
 1620 058f 44435200 		.ascii	"DCR\000"
 1621 0593 0A       		.byte	0xa
 1622 0594 B101     		.2byte	0x1b1
 1623 0596 EE030000 		.4byte	0x3ee
 1624 059a 48       		.byte	0x48
 1625 059b 09       		.uleb128 0x9
 1626 059c 34010000 		.4byte	.LASF76
 1627 05a0 0A       		.byte	0xa
 1628 05a1 B201     		.2byte	0x1b2
 1629 05a3 EE030000 		.4byte	0x3ee
 1630 05a7 4C       		.byte	0x4c
 1631 05a8 08       		.uleb128 0x8
 1632 05a9 4F5200   		.ascii	"OR\000"
 1633 05ac 0A       		.byte	0xa
 1634 05ad B301     		.2byte	0x1b3
 1635 05af EE030000 		.4byte	0x3ee
 1636 05b3 50       		.byte	0x50
 1637 05b4 09       		.uleb128 0x9
 1638 05b5 CC010000 		.4byte	.LASF77
 1639 05b9 0A       		.byte	0xa
 1640 05ba B401     		.2byte	0x1b4
 1641 05bc EE030000 		.4byte	0x3ee
 1642 05c0 54       		.byte	0x54
 1643 05c1 09       		.uleb128 0x9
 1644 05c2 2A040000 		.4byte	.LASF78
 1645 05c6 0A       		.byte	0xa
 1646 05c7 B501     		.2byte	0x1b5
 1647 05c9 D4050000 		.4byte	0x5d4
 1648 05cd 58       		.byte	0x58
 1649 05ce 00       		.byte	0
 1650 05cf 0F       		.uleb128 0xf
 1651 05d0 03040000 		.4byte	0x403
 1652 05d4 0F       		.uleb128 0xf
 1653 05d5 F3030000 		.4byte	0x3f3
 1654 05d9 13       		.uleb128 0x13
 1655 05da 55020000 		.4byte	.LASF79
 1656 05de 0A       		.byte	0xa
 1657 05df B601     		.2byte	0x1b6
 1658 05e1 C3040000 		.4byte	0x4c3
 1659 05e5 14       		.uleb128 0x14
 1660 05e6 04       		.byte	0x4
 1661 05e7 07       		.byte	0x7
 1662 05e8 D2       		.byte	0xd2
 1663 05e9 48060000 		.4byte	0x648
 1664 05ed 15       		.uleb128 0x15
 1665 05ee 4E020000 		.4byte	.LASF80
 1666 05f2 07       		.byte	0x7
 1667 05f3 D9       		.byte	0xd9
 1668 05f4 CE000000 		.4byte	0xce
 1669 05f8 15       		.uleb128 0x15
 1670 05f9 98050000 		.4byte	.LASF81
 1671 05fd 07       		.byte	0x7
 1672 05fe E0       		.byte	0xe0
 1673 05ff CE000000 		.4byte	0xce
 1674 0603 15       		.uleb128 0x15
ARM GAS  /tmp/ccQr5yWK.s 			page 62


 1675 0604 E9000000 		.4byte	.LASF82
 1676 0608 07       		.byte	0x7
 1677 0609 E7       		.byte	0xe7
 1678 060a CB020000 		.4byte	0x2cb
 1679 060e 15       		.uleb128 0x15
 1680 060f 54050000 		.4byte	.LASF83
 1681 0613 07       		.byte	0x7
 1682 0614 EE       		.byte	0xee
 1683 0615 48060000 		.4byte	0x648
 1684 0619 15       		.uleb128 0x15
 1685 061a 66010000 		.4byte	.LASF84
 1686 061e 07       		.byte	0x7
 1687 061f F3       		.byte	0xf3
 1688 0620 CE000000 		.4byte	0xce
 1689 0624 15       		.uleb128 0x15
 1690 0625 4D050000 		.4byte	.LASF85
 1691 0629 07       		.byte	0x7
 1692 062a FC       		.byte	0xfc
 1693 062b 73060000 		.4byte	0x673
 1694 062f 16       		.uleb128 0x16
 1695 0630 10000000 		.4byte	.LASF86
 1696 0634 07       		.byte	0x7
 1697 0635 0501     		.2byte	0x105
 1698 0637 AA060000 		.4byte	0x6aa
 1699 063b 16       		.uleb128 0x16
 1700 063c 17010000 		.4byte	.LASF87
 1701 0640 07       		.byte	0x7
 1702 0641 0D01     		.2byte	0x10d
 1703 0643 D9000000 		.4byte	0xd9
 1704 0647 00       		.byte	0
 1705 0648 0A       		.uleb128 0xa
 1706 0649 04       		.byte	0x4
 1707 064a E3010000 		.4byte	0x1e3
 1708 064e 05       		.uleb128 0x5
 1709 064f 9A010000 		.4byte	.LASF88
 1710 0653 0C       		.byte	0xc
 1711 0654 0B       		.byte	0xb
 1712 0655 34       		.byte	0x34
 1713 0656 73060000 		.4byte	0x673
 1714 065a 06       		.uleb128 0x6
 1715 065b F3040000 		.4byte	.LASF23
 1716 065f 0B       		.byte	0xb
 1717 0660 35       		.byte	0x35
 1718 0661 18020000 		.4byte	0x218
 1719 0665 00       		.byte	0
 1720 0666 07       		.uleb128 0x7
 1721 0667 636E7400 		.ascii	"cnt\000"
 1722 066b 0B       		.byte	0xb
 1723 066c 37       		.byte	0x37
 1724 066d E4000000 		.4byte	0xe4
 1725 0671 08       		.byte	0x8
 1726 0672 00       		.byte	0
 1727 0673 0A       		.uleb128 0xa
 1728 0674 04       		.byte	0x4
 1729 0675 4E060000 		.4byte	0x64e
 1730 0679 05       		.uleb128 0x5
 1731 067a 67020000 		.4byte	.LASF89
ARM GAS  /tmp/ccQr5yWK.s 			page 63


 1732 067e 10       		.byte	0x10
 1733 067f 0C       		.byte	0xc
 1734 0680 39       		.byte	0x39
 1735 0681 AA060000 		.4byte	0x6aa
 1736 0685 06       		.uleb128 0x6
 1737 0686 F3040000 		.4byte	.LASF23
 1738 068a 0C       		.byte	0xc
 1739 068b 3A       		.byte	0x3a
 1740 068c 18020000 		.4byte	0x218
 1741 0690 00       		.byte	0
 1742 0691 06       		.uleb128 0x6
 1743 0692 10020000 		.4byte	.LASF90
 1744 0696 0C       		.byte	0xc
 1745 0697 3C       		.byte	0x3c
 1746 0698 EE010000 		.4byte	0x1ee
 1747 069c 08       		.byte	0x8
 1748 069d 06       		.uleb128 0x6
 1749 069e BD000000 		.4byte	.LASF42
 1750 06a2 0C       		.byte	0xc
 1751 06a3 3E       		.byte	0x3e
 1752 06a4 DE060000 		.4byte	0x6de
 1753 06a8 0C       		.byte	0xc
 1754 06a9 00       		.byte	0
 1755 06aa 0A       		.uleb128 0xa
 1756 06ab 04       		.byte	0x4
 1757 06ac 79060000 		.4byte	0x679
 1758 06b0 0A       		.uleb128 0xa
 1759 06b1 04       		.byte	0x4
 1760 06b2 B6060000 		.4byte	0x6b6
 1761 06b6 17       		.uleb128 0x17
 1762 06b7 BB060000 		.4byte	0x6bb
 1763 06bb 03       		.uleb128 0x3
 1764 06bc 01       		.byte	0x1
 1765 06bd 08       		.byte	0x8
 1766 06be 36030000 		.4byte	.LASF91
 1767 06c2 0A       		.uleb128 0xa
 1768 06c3 04       		.byte	0x4
 1769 06c4 1E040000 		.4byte	0x41e
 1770 06c8 0A       		.uleb128 0xa
 1771 06c9 04       		.byte	0x4
 1772 06ca CD020000 		.4byte	0x2cd
 1773 06ce 0F       		.uleb128 0xf
 1774 06cf B0060000 		.4byte	0x6b0
 1775 06d3 04       		.uleb128 0x4
 1776 06d4 01050000 		.4byte	.LASF92
 1777 06d8 0C       		.byte	0xc
 1778 06d9 34       		.byte	0x34
 1779 06da 79060000 		.4byte	0x679
 1780 06de 0A       		.uleb128 0xa
 1781 06df 04       		.byte	0x4
 1782 06e0 D3060000 		.4byte	0x6d3
 1783 06e4 03       		.uleb128 0x3
 1784 06e5 01       		.byte	0x1
 1785 06e6 02       		.byte	0x2
 1786 06e7 61020000 		.4byte	.LASF93
 1787 06eb 18       		.uleb128 0x18
 1788 06ec E9010000 		.4byte	.LASF94
ARM GAS  /tmp/ccQr5yWK.s 			page 64


 1789 06f0 02       		.byte	0x2
 1790 06f1 8B       		.byte	0x8b
 1791 06f2 EF000000 		.4byte	0xef
 1792 06f6 03       		.byte	0x3
 1793 06f7 18       		.uleb128 0x18
 1794 06f8 75020000 		.4byte	.LASF95
 1795 06fc 03       		.byte	0x3
 1796 06fd 69       		.byte	0x69
 1797 06fe EF000000 		.4byte	0xef
 1798 0702 03       		.byte	0x3
 1799 0703 19       		.uleb128 0x19
 1800 0704 C2000000 		.4byte	.LASF96
 1801 0708 0D       		.byte	0xd
 1802 0709 8801     		.2byte	0x188
 1803 070b EF000000 		.4byte	0xef
 1804 070f 03       		.byte	0x3
 1805 0710 1A       		.uleb128 0x1a
 1806 0711 98030000 		.4byte	.LASF97
 1807 0715 03       		.byte	0x3
 1808 0716 47       		.byte	0x47
 1809 0717 03       		.byte	0x3
 1810 0718 28070000 		.4byte	0x728
 1811 071c 1B       		.uleb128 0x1b
 1812 071d 0B020000 		.4byte	.LASF99
 1813 0721 03       		.byte	0x3
 1814 0722 47       		.byte	0x47
 1815 0723 EF000000 		.4byte	0xef
 1816 0727 00       		.byte	0
 1817 0728 1A       		.uleb128 0x1a
 1818 0729 0C040000 		.4byte	.LASF98
 1819 072d 03       		.byte	0x3
 1820 072e 5D       		.byte	0x5d
 1821 072f 03       		.byte	0x3
 1822 0730 40070000 		.4byte	0x740
 1823 0734 1B       		.uleb128 0x1b
 1824 0735 0B020000 		.4byte	.LASF99
 1825 0739 03       		.byte	0x3
 1826 073a 5D       		.byte	0x5d
 1827 073b EF000000 		.4byte	0xef
 1828 073f 00       		.byte	0
 1829 0740 1C       		.uleb128 0x1c
 1830 0741 B3040000 		.4byte	.LASF111
 1831 0745 03       		.byte	0x3
 1832 0746 51       		.byte	0x51
 1833 0747 03       		.byte	0x3
 1834 0748 1D       		.uleb128 0x1d
 1835 0749 D2030000 		.4byte	.LASF105
 1836 074d 01       		.byte	0x1
 1837 074e BE       		.byte	0xbe
 1838 074f 01       		.byte	0x1
 1839 0750 83070000 		.4byte	0x783
 1840 0754 1E       		.uleb128 0x1e
 1841 0755 76747000 		.ascii	"vtp\000"
 1842 0759 01       		.byte	0x1
 1843 075a BE       		.byte	0xbe
 1844 075b C8060000 		.4byte	0x6c8
 1845 075f 1F       		.uleb128 0x1f
ARM GAS  /tmp/ccQr5yWK.s 			page 65


 1846 0760 6B040000 		.4byte	.LASF100
 1847 0764 93070000 		.4byte	0x793
 1848 0768 D2030000 		.4byte	.LASF105
 1849 076c 20       		.uleb128 0x20
 1850 076d 02020000 		.4byte	.LASF101
 1851 0771 01       		.byte	0x1
 1852 0772 D2       		.byte	0xd2
 1853 0773 EF000000 		.4byte	0xef
 1854 0777 20       		.uleb128 0x20
 1855 0778 66050000 		.4byte	.LASF52
 1856 077c 01       		.byte	0x1
 1857 077d D2       		.byte	0xd2
 1858 077e EF000000 		.4byte	0xef
 1859 0782 00       		.byte	0
 1860 0783 10       		.uleb128 0x10
 1861 0784 BB060000 		.4byte	0x6bb
 1862 0788 93070000 		.4byte	0x793
 1863 078c 11       		.uleb128 0x11
 1864 078d E7030000 		.4byte	0x3e7
 1865 0791 0C       		.byte	0xc
 1866 0792 00       		.byte	0
 1867 0793 17       		.uleb128 0x17
 1868 0794 83070000 		.4byte	0x783
 1869 0798 21       		.uleb128 0x21
 1870 0799 7E000000 		.4byte	.LASF112
 1871 079d 01       		.byte	0x1
 1872 079e 3D       		.byte	0x3d
 1873 079f 00000000 		.4byte	.LFB188
 1874 07a3 1C000000 		.4byte	.LFE188-.LFB188
 1875 07a7 01       		.uleb128 0x1
 1876 07a8 9C       		.byte	0x9c
 1877 07a9 22       		.uleb128 0x22
 1878 07aa DB040000 		.4byte	.LASF113
 1879 07ae 01       		.byte	0x1
 1880 07af 5F       		.byte	0x5f
 1881 07b0 00000000 		.4byte	.LFB189
 1882 07b4 90000000 		.4byte	.LFE189-.LFB189
 1883 07b8 01       		.uleb128 0x1
 1884 07b9 9C       		.byte	0x9c
 1885 07ba AD080000 		.4byte	0x8ad
 1886 07be 23       		.uleb128 0x23
 1887 07bf 76747000 		.ascii	"vtp\000"
 1888 07c3 01       		.byte	0x1
 1889 07c4 5F       		.byte	0x5f
 1890 07c5 C8060000 		.4byte	0x6c8
 1891 07c9 00000000 		.4byte	.LLST0
 1892 07cd 24       		.uleb128 0x24
 1893 07ce 5B040000 		.4byte	.LASF102
 1894 07d2 01       		.byte	0x1
 1895 07d3 5F       		.byte	0x5f
 1896 07d4 EF000000 		.4byte	0xef
 1897 07d8 64000000 		.4byte	.LLST1
 1898 07dc 24       		.uleb128 0x24
 1899 07dd A0000000 		.4byte	.LASF103
 1900 07e1 01       		.byte	0x1
 1901 07e2 60       		.byte	0x60
 1902 07e3 AF020000 		.4byte	0x2af
ARM GAS  /tmp/ccQr5yWK.s 			page 66


 1903 07e7 A6000000 		.4byte	.LLST2
 1904 07eb 23       		.uleb128 0x23
 1905 07ec 70617200 		.ascii	"par\000"
 1906 07f0 01       		.byte	0x1
 1907 07f1 60       		.byte	0x60
 1908 07f2 CB020000 		.4byte	0x2cb
 1909 07f6 12010000 		.4byte	.LLST3
 1910 07fa 25       		.uleb128 0x25
 1911 07fb 7000     		.ascii	"p\000"
 1912 07fd 01       		.byte	0x1
 1913 07fe 61       		.byte	0x61
 1914 07ff C8060000 		.4byte	0x6c8
 1915 0803 9A010000 		.4byte	.LLST4
 1916 0807 26       		.uleb128 0x26
 1917 0808 66050000 		.4byte	.LASF52
 1918 080c 01       		.byte	0x1
 1919 080d 62       		.byte	0x62
 1920 080e EF000000 		.4byte	0xef
 1921 0812 CF010000 		.4byte	.LLST5
 1922 0816 27       		.uleb128 0x27
 1923 0817 6E010000 		.4byte	.LASF114
 1924 081b BD080000 		.4byte	0x8bd
 1925 081f 28       		.uleb128 0x28
 1926 0820 00000000 		.4byte	.Ldebug_ranges0+0
 1927 0824 29       		.uleb128 0x29
 1928 0825 6E6F7700 		.ascii	"now\000"
 1929 0829 01       		.byte	0x1
 1930 082a 6C       		.byte	0x6c
 1931 082b EF000000 		.4byte	0xef
 1932 082f 2A       		.uleb128 0x2a
 1933 0830 03070000 		.4byte	0x703
 1934 0834 10000000 		.4byte	.LBB36
 1935 0838 28000000 		.4byte	.Ldebug_ranges0+0x28
 1936 083c 01       		.byte	0x1
 1937 083d 6C       		.byte	0x6c
 1938 083e 63080000 		.4byte	0x863
 1939 0842 2B       		.uleb128 0x2b
 1940 0843 F7060000 		.4byte	0x6f7
 1941 0847 10000000 		.4byte	.LBB37
 1942 084b 28000000 		.4byte	.Ldebug_ranges0+0x28
 1943 084f 0D       		.byte	0xd
 1944 0850 8D01     		.2byte	0x18d
 1945 0852 2C       		.uleb128 0x2c
 1946 0853 EB060000 		.4byte	0x6eb
 1947 0857 10000000 		.4byte	.LBB38
 1948 085b 28000000 		.4byte	.Ldebug_ranges0+0x28
 1949 085f 03       		.byte	0x3
 1950 0860 6B       		.byte	0x6b
 1951 0861 00       		.byte	0
 1952 0862 00       		.byte	0
 1953 0863 2D       		.uleb128 0x2d
 1954 0864 28070000 		.4byte	0x728
 1955 0868 6E000000 		.4byte	.LBB44
 1956 086c 0A000000 		.4byte	.LBE44-.LBB44
 1957 0870 01       		.byte	0x1
 1958 0871 97       		.byte	0x97
 1959 0872 89080000 		.4byte	0x889
ARM GAS  /tmp/ccQr5yWK.s 			page 67


 1960 0876 2E       		.uleb128 0x2e
 1961 0877 34070000 		.4byte	0x734
 1962 087b 03020000 		.4byte	.LLST6
 1963 087f 2F       		.uleb128 0x2f
 1964 0880 74000000 		.4byte	.LVL17
 1965 0884 AA090000 		.4byte	0x9aa
 1966 0888 00       		.byte	0
 1967 0889 30       		.uleb128 0x30
 1968 088a 10070000 		.4byte	0x710
 1969 088e 80000000 		.4byte	.LBB46
 1970 0892 40000000 		.4byte	.Ldebug_ranges0+0x40
 1971 0896 01       		.byte	0x1
 1972 0897 81       		.byte	0x81
 1973 0898 2E       		.uleb128 0x2e
 1974 0899 1C070000 		.4byte	0x71c
 1975 089d 1B020000 		.4byte	.LLST7
 1976 08a1 31       		.uleb128 0x31
 1977 08a2 90000000 		.4byte	.LVL22
 1978 08a6 BB090000 		.4byte	0x9bb
 1979 08aa 00       		.byte	0
 1980 08ab 00       		.byte	0
 1981 08ac 00       		.byte	0
 1982 08ad 10       		.uleb128 0x10
 1983 08ae BB060000 		.4byte	0x6bb
 1984 08b2 BD080000 		.4byte	0x8bd
 1985 08b6 11       		.uleb128 0x11
 1986 08b7 E7030000 		.4byte	0x3e7
 1987 08bb 0A       		.byte	0xa
 1988 08bc 00       		.byte	0
 1989 08bd 17       		.uleb128 0x17
 1990 08be AD080000 		.4byte	0x8ad
 1991 08c2 32       		.uleb128 0x32
 1992 08c3 48070000 		.4byte	0x748
 1993 08c7 00000000 		.4byte	.LFB190
 1994 08cb 78000000 		.4byte	.LFE190-.LFB190
 1995 08cf 01       		.uleb128 0x1
 1996 08d0 9C       		.byte	0x9c
 1997 08d1 8E090000 		.4byte	0x98e
 1998 08d5 2E       		.uleb128 0x2e
 1999 08d6 54070000 		.4byte	0x754
 2000 08da 33020000 		.4byte	.LLST8
 2001 08de 33       		.uleb128 0x33
 2002 08df 5F070000 		.4byte	0x75f
 2003 08e3 33       		.uleb128 0x33
 2004 08e4 6C070000 		.4byte	0x76c
 2005 08e8 33       		.uleb128 0x33
 2006 08e9 77070000 		.4byte	0x777
 2007 08ed 28       		.uleb128 0x28
 2008 08ee 58000000 		.4byte	.Ldebug_ranges0+0x58
 2009 08f2 2E       		.uleb128 0x2e
 2010 08f3 54070000 		.4byte	0x754
 2011 08f7 6D020000 		.4byte	.LLST9
 2012 08fb 28       		.uleb128 0x28
 2013 08fc 58000000 		.4byte	.Ldebug_ranges0+0x58
 2014 0900 34       		.uleb128 0x34
 2015 0901 6C070000 		.4byte	0x76c
 2016 0905 8B020000 		.4byte	.LLST10
ARM GAS  /tmp/ccQr5yWK.s 			page 68


 2017 0909 34       		.uleb128 0x34
 2018 090a 77070000 		.4byte	0x777
 2019 090e 9E020000 		.4byte	.LLST11
 2020 0912 33       		.uleb128 0x33
 2021 0913 5F070000 		.4byte	0x75f
 2022 0917 2A       		.uleb128 0x2a
 2023 0918 03070000 		.4byte	0x703
 2024 091c 42000000 		.4byte	.LBB65
 2025 0920 78000000 		.4byte	.Ldebug_ranges0+0x78
 2026 0924 01       		.byte	0x1
 2027 0925 F9       		.byte	0xf9
 2028 0926 4B090000 		.4byte	0x94b
 2029 092a 2B       		.uleb128 0x2b
 2030 092b F7060000 		.4byte	0x6f7
 2031 092f 42000000 		.4byte	.LBB66
 2032 0933 78000000 		.4byte	.Ldebug_ranges0+0x78
 2033 0937 0D       		.byte	0xd
 2034 0938 8D01     		.2byte	0x18d
 2035 093a 2C       		.uleb128 0x2c
 2036 093b EB060000 		.4byte	0x6eb
 2037 093f 42000000 		.4byte	.LBB67
 2038 0943 78000000 		.4byte	.Ldebug_ranges0+0x78
 2039 0947 03       		.byte	0x3
 2040 0948 6B       		.byte	0x6b
 2041 0949 00       		.byte	0
 2042 094a 00       		.byte	0
 2043 094b 35       		.uleb128 0x35
 2044 094c 28070000 		.4byte	0x728
 2045 0950 6C000000 		.4byte	.LBB73
 2046 0954 06000000 		.4byte	.LBE73-.LBB73
 2047 0958 01       		.byte	0x1
 2048 0959 0A01     		.2byte	0x10a
 2049 095b 72090000 		.4byte	0x972
 2050 095f 2E       		.uleb128 0x2e
 2051 0960 34070000 		.4byte	0x734
 2052 0964 B1020000 		.4byte	.LLST12
 2053 0968 31       		.uleb128 0x31
 2054 0969 72000000 		.4byte	.LVL32
 2055 096d AA090000 		.4byte	0x9aa
 2056 0971 00       		.byte	0
 2057 0972 36       		.uleb128 0x36
 2058 0973 40070000 		.4byte	0x740
 2059 0977 74000000 		.4byte	.LBB75
 2060 097b 04000000 		.4byte	.LBE75-.LBB75
 2061 097f 01       		.byte	0x1
 2062 0980 EA       		.byte	0xea
 2063 0981 31       		.uleb128 0x31
 2064 0982 78000000 		.4byte	.LVL33
 2065 0986 CC090000 		.4byte	0x9cc
 2066 098a 00       		.byte	0
 2067 098b 00       		.byte	0
 2068 098c 00       		.byte	0
 2069 098d 00       		.byte	0
 2070 098e 37       		.uleb128 0x37
 2071 098f 4E040000 		.4byte	.LASF104
 2072 0993 0F       		.byte	0xf
 2073 0994 9606     		.2byte	0x696
ARM GAS  /tmp/ccQr5yWK.s 			page 69


 2074 0996 9A090000 		.4byte	0x99a
 2075 099a 0F       		.uleb128 0xf
 2076 099b 65000000 		.4byte	0x65
 2077 099f 38       		.uleb128 0x38
 2078 09a0 636800   		.ascii	"ch\000"
 2079 09a3 07       		.byte	0x7
 2080 09a4 D201     		.2byte	0x1d2
 2081 09a6 9A030000 		.4byte	0x39a
 2082 09aa 39       		.uleb128 0x39
 2083 09ab 5B010000 		.4byte	.LASF106
 2084 09af 0E       		.byte	0xe
 2085 09b0 59       		.byte	0x59
 2086 09b1 BB090000 		.4byte	0x9bb
 2087 09b5 0D       		.uleb128 0xd
 2088 09b6 EF000000 		.4byte	0xef
 2089 09ba 00       		.byte	0
 2090 09bb 39       		.uleb128 0x39
 2091 09bc 8D010000 		.4byte	.LASF107
 2092 09c0 0E       		.byte	0xe
 2093 09c1 57       		.byte	0x57
 2094 09c2 CC090000 		.4byte	0x9cc
 2095 09c6 0D       		.uleb128 0xd
 2096 09c7 EF000000 		.4byte	0xef
 2097 09cb 00       		.byte	0
 2098 09cc 3A       		.uleb128 0x3a
 2099 09cd 79040000 		.4byte	.LASF115
 2100 09d1 0E       		.byte	0xe
 2101 09d2 58       		.byte	0x58
 2102 09d3 00       		.byte	0
 2103              		.section	.debug_abbrev,"",%progbits
 2104              	.Ldebug_abbrev0:
 2105 0000 01       		.uleb128 0x1
 2106 0001 11       		.uleb128 0x11
 2107 0002 01       		.byte	0x1
 2108 0003 25       		.uleb128 0x25
 2109 0004 0E       		.uleb128 0xe
 2110 0005 13       		.uleb128 0x13
 2111 0006 0B       		.uleb128 0xb
 2112 0007 03       		.uleb128 0x3
 2113 0008 0E       		.uleb128 0xe
 2114 0009 1B       		.uleb128 0x1b
 2115 000a 0E       		.uleb128 0xe
 2116 000b 55       		.uleb128 0x55
 2117 000c 17       		.uleb128 0x17
 2118 000d 11       		.uleb128 0x11
 2119 000e 01       		.uleb128 0x1
 2120 000f 10       		.uleb128 0x10
 2121 0010 17       		.uleb128 0x17
 2122 0011 00       		.byte	0
 2123 0012 00       		.byte	0
 2124 0013 02       		.uleb128 0x2
 2125 0014 24       		.uleb128 0x24
 2126 0015 00       		.byte	0
 2127 0016 0B       		.uleb128 0xb
 2128 0017 0B       		.uleb128 0xb
 2129 0018 3E       		.uleb128 0x3e
 2130 0019 0B       		.uleb128 0xb
ARM GAS  /tmp/ccQr5yWK.s 			page 70


 2131 001a 03       		.uleb128 0x3
 2132 001b 08       		.uleb128 0x8
 2133 001c 00       		.byte	0
 2134 001d 00       		.byte	0
 2135 001e 03       		.uleb128 0x3
 2136 001f 24       		.uleb128 0x24
 2137 0020 00       		.byte	0
 2138 0021 0B       		.uleb128 0xb
 2139 0022 0B       		.uleb128 0xb
 2140 0023 3E       		.uleb128 0x3e
 2141 0024 0B       		.uleb128 0xb
 2142 0025 03       		.uleb128 0x3
 2143 0026 0E       		.uleb128 0xe
 2144 0027 00       		.byte	0
 2145 0028 00       		.byte	0
 2146 0029 04       		.uleb128 0x4
 2147 002a 16       		.uleb128 0x16
 2148 002b 00       		.byte	0
 2149 002c 03       		.uleb128 0x3
 2150 002d 0E       		.uleb128 0xe
 2151 002e 3A       		.uleb128 0x3a
 2152 002f 0B       		.uleb128 0xb
 2153 0030 3B       		.uleb128 0x3b
 2154 0031 0B       		.uleb128 0xb
 2155 0032 49       		.uleb128 0x49
 2156 0033 13       		.uleb128 0x13
 2157 0034 00       		.byte	0
 2158 0035 00       		.byte	0
 2159 0036 05       		.uleb128 0x5
 2160 0037 13       		.uleb128 0x13
 2161 0038 01       		.byte	0x1
 2162 0039 03       		.uleb128 0x3
 2163 003a 0E       		.uleb128 0xe
 2164 003b 0B       		.uleb128 0xb
 2165 003c 0B       		.uleb128 0xb
 2166 003d 3A       		.uleb128 0x3a
 2167 003e 0B       		.uleb128 0xb
 2168 003f 3B       		.uleb128 0x3b
 2169 0040 0B       		.uleb128 0xb
 2170 0041 01       		.uleb128 0x1
 2171 0042 13       		.uleb128 0x13
 2172 0043 00       		.byte	0
 2173 0044 00       		.byte	0
 2174 0045 06       		.uleb128 0x6
 2175 0046 0D       		.uleb128 0xd
 2176 0047 00       		.byte	0
 2177 0048 03       		.uleb128 0x3
 2178 0049 0E       		.uleb128 0xe
 2179 004a 3A       		.uleb128 0x3a
 2180 004b 0B       		.uleb128 0xb
 2181 004c 3B       		.uleb128 0x3b
 2182 004d 0B       		.uleb128 0xb
 2183 004e 49       		.uleb128 0x49
 2184 004f 13       		.uleb128 0x13
 2185 0050 38       		.uleb128 0x38
 2186 0051 0B       		.uleb128 0xb
 2187 0052 00       		.byte	0
ARM GAS  /tmp/ccQr5yWK.s 			page 71


 2188 0053 00       		.byte	0
 2189 0054 07       		.uleb128 0x7
 2190 0055 0D       		.uleb128 0xd
 2191 0056 00       		.byte	0
 2192 0057 03       		.uleb128 0x3
 2193 0058 08       		.uleb128 0x8
 2194 0059 3A       		.uleb128 0x3a
 2195 005a 0B       		.uleb128 0xb
 2196 005b 3B       		.uleb128 0x3b
 2197 005c 0B       		.uleb128 0xb
 2198 005d 49       		.uleb128 0x49
 2199 005e 13       		.uleb128 0x13
 2200 005f 38       		.uleb128 0x38
 2201 0060 0B       		.uleb128 0xb
 2202 0061 00       		.byte	0
 2203 0062 00       		.byte	0
 2204 0063 08       		.uleb128 0x8
 2205 0064 0D       		.uleb128 0xd
 2206 0065 00       		.byte	0
 2207 0066 03       		.uleb128 0x3
 2208 0067 08       		.uleb128 0x8
 2209 0068 3A       		.uleb128 0x3a
 2210 0069 0B       		.uleb128 0xb
 2211 006a 3B       		.uleb128 0x3b
 2212 006b 05       		.uleb128 0x5
 2213 006c 49       		.uleb128 0x49
 2214 006d 13       		.uleb128 0x13
 2215 006e 38       		.uleb128 0x38
 2216 006f 0B       		.uleb128 0xb
 2217 0070 00       		.byte	0
 2218 0071 00       		.byte	0
 2219 0072 09       		.uleb128 0x9
 2220 0073 0D       		.uleb128 0xd
 2221 0074 00       		.byte	0
 2222 0075 03       		.uleb128 0x3
 2223 0076 0E       		.uleb128 0xe
 2224 0077 3A       		.uleb128 0x3a
 2225 0078 0B       		.uleb128 0xb
 2226 0079 3B       		.uleb128 0x3b
 2227 007a 05       		.uleb128 0x5
 2228 007b 49       		.uleb128 0x49
 2229 007c 13       		.uleb128 0x13
 2230 007d 38       		.uleb128 0x38
 2231 007e 0B       		.uleb128 0xb
 2232 007f 00       		.byte	0
 2233 0080 00       		.byte	0
 2234 0081 0A       		.uleb128 0xa
 2235 0082 0F       		.uleb128 0xf
 2236 0083 00       		.byte	0
 2237 0084 0B       		.uleb128 0xb
 2238 0085 0B       		.uleb128 0xb
 2239 0086 49       		.uleb128 0x49
 2240 0087 13       		.uleb128 0x13
 2241 0088 00       		.byte	0
 2242 0089 00       		.byte	0
 2243 008a 0B       		.uleb128 0xb
 2244 008b 13       		.uleb128 0x13
ARM GAS  /tmp/ccQr5yWK.s 			page 72


 2245 008c 01       		.byte	0x1
 2246 008d 03       		.uleb128 0x3
 2247 008e 0E       		.uleb128 0xe
 2248 008f 0B       		.uleb128 0xb
 2249 0090 0B       		.uleb128 0xb
 2250 0091 3A       		.uleb128 0x3a
 2251 0092 0B       		.uleb128 0xb
 2252 0093 3B       		.uleb128 0x3b
 2253 0094 05       		.uleb128 0x5
 2254 0095 01       		.uleb128 0x1
 2255 0096 13       		.uleb128 0x13
 2256 0097 00       		.byte	0
 2257 0098 00       		.byte	0
 2258 0099 0C       		.uleb128 0xc
 2259 009a 15       		.uleb128 0x15
 2260 009b 01       		.byte	0x1
 2261 009c 27       		.uleb128 0x27
 2262 009d 19       		.uleb128 0x19
 2263 009e 01       		.uleb128 0x1
 2264 009f 13       		.uleb128 0x13
 2265 00a0 00       		.byte	0
 2266 00a1 00       		.byte	0
 2267 00a2 0D       		.uleb128 0xd
 2268 00a3 05       		.uleb128 0x5
 2269 00a4 00       		.byte	0
 2270 00a5 49       		.uleb128 0x49
 2271 00a6 13       		.uleb128 0x13
 2272 00a7 00       		.byte	0
 2273 00a8 00       		.byte	0
 2274 00a9 0E       		.uleb128 0xe
 2275 00aa 0F       		.uleb128 0xf
 2276 00ab 00       		.byte	0
 2277 00ac 0B       		.uleb128 0xb
 2278 00ad 0B       		.uleb128 0xb
 2279 00ae 00       		.byte	0
 2280 00af 00       		.byte	0
 2281 00b0 0F       		.uleb128 0xf
 2282 00b1 35       		.uleb128 0x35
 2283 00b2 00       		.byte	0
 2284 00b3 49       		.uleb128 0x49
 2285 00b4 13       		.uleb128 0x13
 2286 00b5 00       		.byte	0
 2287 00b6 00       		.byte	0
 2288 00b7 10       		.uleb128 0x10
 2289 00b8 01       		.uleb128 0x1
 2290 00b9 01       		.byte	0x1
 2291 00ba 49       		.uleb128 0x49
 2292 00bb 13       		.uleb128 0x13
 2293 00bc 01       		.uleb128 0x1
 2294 00bd 13       		.uleb128 0x13
 2295 00be 00       		.byte	0
 2296 00bf 00       		.byte	0
 2297 00c0 11       		.uleb128 0x11
 2298 00c1 21       		.uleb128 0x21
 2299 00c2 00       		.byte	0
 2300 00c3 49       		.uleb128 0x49
 2301 00c4 13       		.uleb128 0x13
ARM GAS  /tmp/ccQr5yWK.s 			page 73


 2302 00c5 2F       		.uleb128 0x2f
 2303 00c6 0B       		.uleb128 0xb
 2304 00c7 00       		.byte	0
 2305 00c8 00       		.byte	0
 2306 00c9 12       		.uleb128 0x12
 2307 00ca 13       		.uleb128 0x13
 2308 00cb 01       		.byte	0x1
 2309 00cc 0B       		.uleb128 0xb
 2310 00cd 0B       		.uleb128 0xb
 2311 00ce 3A       		.uleb128 0x3a
 2312 00cf 0B       		.uleb128 0xb
 2313 00d0 3B       		.uleb128 0x3b
 2314 00d1 05       		.uleb128 0x5
 2315 00d2 01       		.uleb128 0x1
 2316 00d3 13       		.uleb128 0x13
 2317 00d4 00       		.byte	0
 2318 00d5 00       		.byte	0
 2319 00d6 13       		.uleb128 0x13
 2320 00d7 16       		.uleb128 0x16
 2321 00d8 00       		.byte	0
 2322 00d9 03       		.uleb128 0x3
 2323 00da 0E       		.uleb128 0xe
 2324 00db 3A       		.uleb128 0x3a
 2325 00dc 0B       		.uleb128 0xb
 2326 00dd 3B       		.uleb128 0x3b
 2327 00de 05       		.uleb128 0x5
 2328 00df 49       		.uleb128 0x49
 2329 00e0 13       		.uleb128 0x13
 2330 00e1 00       		.byte	0
 2331 00e2 00       		.byte	0
 2332 00e3 14       		.uleb128 0x14
 2333 00e4 17       		.uleb128 0x17
 2334 00e5 01       		.byte	0x1
 2335 00e6 0B       		.uleb128 0xb
 2336 00e7 0B       		.uleb128 0xb
 2337 00e8 3A       		.uleb128 0x3a
 2338 00e9 0B       		.uleb128 0xb
 2339 00ea 3B       		.uleb128 0x3b
 2340 00eb 0B       		.uleb128 0xb
 2341 00ec 01       		.uleb128 0x1
 2342 00ed 13       		.uleb128 0x13
 2343 00ee 00       		.byte	0
 2344 00ef 00       		.byte	0
 2345 00f0 15       		.uleb128 0x15
 2346 00f1 0D       		.uleb128 0xd
 2347 00f2 00       		.byte	0
 2348 00f3 03       		.uleb128 0x3
 2349 00f4 0E       		.uleb128 0xe
 2350 00f5 3A       		.uleb128 0x3a
 2351 00f6 0B       		.uleb128 0xb
 2352 00f7 3B       		.uleb128 0x3b
 2353 00f8 0B       		.uleb128 0xb
 2354 00f9 49       		.uleb128 0x49
 2355 00fa 13       		.uleb128 0x13
 2356 00fb 00       		.byte	0
 2357 00fc 00       		.byte	0
 2358 00fd 16       		.uleb128 0x16
ARM GAS  /tmp/ccQr5yWK.s 			page 74


 2359 00fe 0D       		.uleb128 0xd
 2360 00ff 00       		.byte	0
 2361 0100 03       		.uleb128 0x3
 2362 0101 0E       		.uleb128 0xe
 2363 0102 3A       		.uleb128 0x3a
 2364 0103 0B       		.uleb128 0xb
 2365 0104 3B       		.uleb128 0x3b
 2366 0105 05       		.uleb128 0x5
 2367 0106 49       		.uleb128 0x49
 2368 0107 13       		.uleb128 0x13
 2369 0108 00       		.byte	0
 2370 0109 00       		.byte	0
 2371 010a 17       		.uleb128 0x17
 2372 010b 26       		.uleb128 0x26
 2373 010c 00       		.byte	0
 2374 010d 49       		.uleb128 0x49
 2375 010e 13       		.uleb128 0x13
 2376 010f 00       		.byte	0
 2377 0110 00       		.byte	0
 2378 0111 18       		.uleb128 0x18
 2379 0112 2E       		.uleb128 0x2e
 2380 0113 00       		.byte	0
 2381 0114 03       		.uleb128 0x3
 2382 0115 0E       		.uleb128 0xe
 2383 0116 3A       		.uleb128 0x3a
 2384 0117 0B       		.uleb128 0xb
 2385 0118 3B       		.uleb128 0x3b
 2386 0119 0B       		.uleb128 0xb
 2387 011a 27       		.uleb128 0x27
 2388 011b 19       		.uleb128 0x19
 2389 011c 49       		.uleb128 0x49
 2390 011d 13       		.uleb128 0x13
 2391 011e 20       		.uleb128 0x20
 2392 011f 0B       		.uleb128 0xb
 2393 0120 00       		.byte	0
 2394 0121 00       		.byte	0
 2395 0122 19       		.uleb128 0x19
 2396 0123 2E       		.uleb128 0x2e
 2397 0124 00       		.byte	0
 2398 0125 03       		.uleb128 0x3
 2399 0126 0E       		.uleb128 0xe
 2400 0127 3A       		.uleb128 0x3a
 2401 0128 0B       		.uleb128 0xb
 2402 0129 3B       		.uleb128 0x3b
 2403 012a 05       		.uleb128 0x5
 2404 012b 27       		.uleb128 0x27
 2405 012c 19       		.uleb128 0x19
 2406 012d 49       		.uleb128 0x49
 2407 012e 13       		.uleb128 0x13
 2408 012f 20       		.uleb128 0x20
 2409 0130 0B       		.uleb128 0xb
 2410 0131 00       		.byte	0
 2411 0132 00       		.byte	0
 2412 0133 1A       		.uleb128 0x1a
 2413 0134 2E       		.uleb128 0x2e
 2414 0135 01       		.byte	0x1
 2415 0136 03       		.uleb128 0x3
ARM GAS  /tmp/ccQr5yWK.s 			page 75


 2416 0137 0E       		.uleb128 0xe
 2417 0138 3A       		.uleb128 0x3a
 2418 0139 0B       		.uleb128 0xb
 2419 013a 3B       		.uleb128 0x3b
 2420 013b 0B       		.uleb128 0xb
 2421 013c 27       		.uleb128 0x27
 2422 013d 19       		.uleb128 0x19
 2423 013e 20       		.uleb128 0x20
 2424 013f 0B       		.uleb128 0xb
 2425 0140 01       		.uleb128 0x1
 2426 0141 13       		.uleb128 0x13
 2427 0142 00       		.byte	0
 2428 0143 00       		.byte	0
 2429 0144 1B       		.uleb128 0x1b
 2430 0145 05       		.uleb128 0x5
 2431 0146 00       		.byte	0
 2432 0147 03       		.uleb128 0x3
 2433 0148 0E       		.uleb128 0xe
 2434 0149 3A       		.uleb128 0x3a
 2435 014a 0B       		.uleb128 0xb
 2436 014b 3B       		.uleb128 0x3b
 2437 014c 0B       		.uleb128 0xb
 2438 014d 49       		.uleb128 0x49
 2439 014e 13       		.uleb128 0x13
 2440 014f 00       		.byte	0
 2441 0150 00       		.byte	0
 2442 0151 1C       		.uleb128 0x1c
 2443 0152 2E       		.uleb128 0x2e
 2444 0153 00       		.byte	0
 2445 0154 03       		.uleb128 0x3
 2446 0155 0E       		.uleb128 0xe
 2447 0156 3A       		.uleb128 0x3a
 2448 0157 0B       		.uleb128 0xb
 2449 0158 3B       		.uleb128 0x3b
 2450 0159 0B       		.uleb128 0xb
 2451 015a 27       		.uleb128 0x27
 2452 015b 19       		.uleb128 0x19
 2453 015c 20       		.uleb128 0x20
 2454 015d 0B       		.uleb128 0xb
 2455 015e 00       		.byte	0
 2456 015f 00       		.byte	0
 2457 0160 1D       		.uleb128 0x1d
 2458 0161 2E       		.uleb128 0x2e
 2459 0162 01       		.byte	0x1
 2460 0163 3F       		.uleb128 0x3f
 2461 0164 19       		.uleb128 0x19
 2462 0165 03       		.uleb128 0x3
 2463 0166 0E       		.uleb128 0xe
 2464 0167 3A       		.uleb128 0x3a
 2465 0168 0B       		.uleb128 0xb
 2466 0169 3B       		.uleb128 0x3b
 2467 016a 0B       		.uleb128 0xb
 2468 016b 27       		.uleb128 0x27
 2469 016c 19       		.uleb128 0x19
 2470 016d 20       		.uleb128 0x20
 2471 016e 0B       		.uleb128 0xb
 2472 016f 01       		.uleb128 0x1
ARM GAS  /tmp/ccQr5yWK.s 			page 76


 2473 0170 13       		.uleb128 0x13
 2474 0171 00       		.byte	0
 2475 0172 00       		.byte	0
 2476 0173 1E       		.uleb128 0x1e
 2477 0174 05       		.uleb128 0x5
 2478 0175 00       		.byte	0
 2479 0176 03       		.uleb128 0x3
 2480 0177 08       		.uleb128 0x8
 2481 0178 3A       		.uleb128 0x3a
 2482 0179 0B       		.uleb128 0xb
 2483 017a 3B       		.uleb128 0x3b
 2484 017b 0B       		.uleb128 0xb
 2485 017c 49       		.uleb128 0x49
 2486 017d 13       		.uleb128 0x13
 2487 017e 00       		.byte	0
 2488 017f 00       		.byte	0
 2489 0180 1F       		.uleb128 0x1f
 2490 0181 34       		.uleb128 0x34
 2491 0182 00       		.byte	0
 2492 0183 03       		.uleb128 0x3
 2493 0184 0E       		.uleb128 0xe
 2494 0185 49       		.uleb128 0x49
 2495 0186 13       		.uleb128 0x13
 2496 0187 34       		.uleb128 0x34
 2497 0188 19       		.uleb128 0x19
 2498 0189 1C       		.uleb128 0x1c
 2499 018a 0E       		.uleb128 0xe
 2500 018b 00       		.byte	0
 2501 018c 00       		.byte	0
 2502 018d 20       		.uleb128 0x20
 2503 018e 34       		.uleb128 0x34
 2504 018f 00       		.byte	0
 2505 0190 03       		.uleb128 0x3
 2506 0191 0E       		.uleb128 0xe
 2507 0192 3A       		.uleb128 0x3a
 2508 0193 0B       		.uleb128 0xb
 2509 0194 3B       		.uleb128 0x3b
 2510 0195 0B       		.uleb128 0xb
 2511 0196 49       		.uleb128 0x49
 2512 0197 13       		.uleb128 0x13
 2513 0198 00       		.byte	0
 2514 0199 00       		.byte	0
 2515 019a 21       		.uleb128 0x21
 2516 019b 2E       		.uleb128 0x2e
 2517 019c 00       		.byte	0
 2518 019d 3F       		.uleb128 0x3f
 2519 019e 19       		.uleb128 0x19
 2520 019f 03       		.uleb128 0x3
 2521 01a0 0E       		.uleb128 0xe
 2522 01a1 3A       		.uleb128 0x3a
 2523 01a2 0B       		.uleb128 0xb
 2524 01a3 3B       		.uleb128 0x3b
 2525 01a4 0B       		.uleb128 0xb
 2526 01a5 27       		.uleb128 0x27
 2527 01a6 19       		.uleb128 0x19
 2528 01a7 11       		.uleb128 0x11
 2529 01a8 01       		.uleb128 0x1
ARM GAS  /tmp/ccQr5yWK.s 			page 77


 2530 01a9 12       		.uleb128 0x12
 2531 01aa 06       		.uleb128 0x6
 2532 01ab 40       		.uleb128 0x40
 2533 01ac 18       		.uleb128 0x18
 2534 01ad 9742     		.uleb128 0x2117
 2535 01af 19       		.uleb128 0x19
 2536 01b0 00       		.byte	0
 2537 01b1 00       		.byte	0
 2538 01b2 22       		.uleb128 0x22
 2539 01b3 2E       		.uleb128 0x2e
 2540 01b4 01       		.byte	0x1
 2541 01b5 3F       		.uleb128 0x3f
 2542 01b6 19       		.uleb128 0x19
 2543 01b7 03       		.uleb128 0x3
 2544 01b8 0E       		.uleb128 0xe
 2545 01b9 3A       		.uleb128 0x3a
 2546 01ba 0B       		.uleb128 0xb
 2547 01bb 3B       		.uleb128 0x3b
 2548 01bc 0B       		.uleb128 0xb
 2549 01bd 27       		.uleb128 0x27
 2550 01be 19       		.uleb128 0x19
 2551 01bf 11       		.uleb128 0x11
 2552 01c0 01       		.uleb128 0x1
 2553 01c1 12       		.uleb128 0x12
 2554 01c2 06       		.uleb128 0x6
 2555 01c3 40       		.uleb128 0x40
 2556 01c4 18       		.uleb128 0x18
 2557 01c5 9742     		.uleb128 0x2117
 2558 01c7 19       		.uleb128 0x19
 2559 01c8 01       		.uleb128 0x1
 2560 01c9 13       		.uleb128 0x13
 2561 01ca 00       		.byte	0
 2562 01cb 00       		.byte	0
 2563 01cc 23       		.uleb128 0x23
 2564 01cd 05       		.uleb128 0x5
 2565 01ce 00       		.byte	0
 2566 01cf 03       		.uleb128 0x3
 2567 01d0 08       		.uleb128 0x8
 2568 01d1 3A       		.uleb128 0x3a
 2569 01d2 0B       		.uleb128 0xb
 2570 01d3 3B       		.uleb128 0x3b
 2571 01d4 0B       		.uleb128 0xb
 2572 01d5 49       		.uleb128 0x49
 2573 01d6 13       		.uleb128 0x13
 2574 01d7 02       		.uleb128 0x2
 2575 01d8 17       		.uleb128 0x17
 2576 01d9 00       		.byte	0
 2577 01da 00       		.byte	0
 2578 01db 24       		.uleb128 0x24
 2579 01dc 05       		.uleb128 0x5
 2580 01dd 00       		.byte	0
 2581 01de 03       		.uleb128 0x3
 2582 01df 0E       		.uleb128 0xe
 2583 01e0 3A       		.uleb128 0x3a
 2584 01e1 0B       		.uleb128 0xb
 2585 01e2 3B       		.uleb128 0x3b
 2586 01e3 0B       		.uleb128 0xb
ARM GAS  /tmp/ccQr5yWK.s 			page 78


 2587 01e4 49       		.uleb128 0x49
 2588 01e5 13       		.uleb128 0x13
 2589 01e6 02       		.uleb128 0x2
 2590 01e7 17       		.uleb128 0x17
 2591 01e8 00       		.byte	0
 2592 01e9 00       		.byte	0
 2593 01ea 25       		.uleb128 0x25
 2594 01eb 34       		.uleb128 0x34
 2595 01ec 00       		.byte	0
 2596 01ed 03       		.uleb128 0x3
 2597 01ee 08       		.uleb128 0x8
 2598 01ef 3A       		.uleb128 0x3a
 2599 01f0 0B       		.uleb128 0xb
 2600 01f1 3B       		.uleb128 0x3b
 2601 01f2 0B       		.uleb128 0xb
 2602 01f3 49       		.uleb128 0x49
 2603 01f4 13       		.uleb128 0x13
 2604 01f5 02       		.uleb128 0x2
 2605 01f6 17       		.uleb128 0x17
 2606 01f7 00       		.byte	0
 2607 01f8 00       		.byte	0
 2608 01f9 26       		.uleb128 0x26
 2609 01fa 34       		.uleb128 0x34
 2610 01fb 00       		.byte	0
 2611 01fc 03       		.uleb128 0x3
 2612 01fd 0E       		.uleb128 0xe
 2613 01fe 3A       		.uleb128 0x3a
 2614 01ff 0B       		.uleb128 0xb
 2615 0200 3B       		.uleb128 0x3b
 2616 0201 0B       		.uleb128 0xb
 2617 0202 49       		.uleb128 0x49
 2618 0203 13       		.uleb128 0x13
 2619 0204 02       		.uleb128 0x2
 2620 0205 17       		.uleb128 0x17
 2621 0206 00       		.byte	0
 2622 0207 00       		.byte	0
 2623 0208 27       		.uleb128 0x27
 2624 0209 34       		.uleb128 0x34
 2625 020a 00       		.byte	0
 2626 020b 03       		.uleb128 0x3
 2627 020c 0E       		.uleb128 0xe
 2628 020d 49       		.uleb128 0x49
 2629 020e 13       		.uleb128 0x13
 2630 020f 34       		.uleb128 0x34
 2631 0210 19       		.uleb128 0x19
 2632 0211 00       		.byte	0
 2633 0212 00       		.byte	0
 2634 0213 28       		.uleb128 0x28
 2635 0214 0B       		.uleb128 0xb
 2636 0215 01       		.byte	0x1
 2637 0216 55       		.uleb128 0x55
 2638 0217 17       		.uleb128 0x17
 2639 0218 00       		.byte	0
 2640 0219 00       		.byte	0
 2641 021a 29       		.uleb128 0x29
 2642 021b 34       		.uleb128 0x34
 2643 021c 00       		.byte	0
ARM GAS  /tmp/ccQr5yWK.s 			page 79


 2644 021d 03       		.uleb128 0x3
 2645 021e 08       		.uleb128 0x8
 2646 021f 3A       		.uleb128 0x3a
 2647 0220 0B       		.uleb128 0xb
 2648 0221 3B       		.uleb128 0x3b
 2649 0222 0B       		.uleb128 0xb
 2650 0223 49       		.uleb128 0x49
 2651 0224 13       		.uleb128 0x13
 2652 0225 00       		.byte	0
 2653 0226 00       		.byte	0
 2654 0227 2A       		.uleb128 0x2a
 2655 0228 1D       		.uleb128 0x1d
 2656 0229 01       		.byte	0x1
 2657 022a 31       		.uleb128 0x31
 2658 022b 13       		.uleb128 0x13
 2659 022c 52       		.uleb128 0x52
 2660 022d 01       		.uleb128 0x1
 2661 022e 55       		.uleb128 0x55
 2662 022f 17       		.uleb128 0x17
 2663 0230 58       		.uleb128 0x58
 2664 0231 0B       		.uleb128 0xb
 2665 0232 59       		.uleb128 0x59
 2666 0233 0B       		.uleb128 0xb
 2667 0234 01       		.uleb128 0x1
 2668 0235 13       		.uleb128 0x13
 2669 0236 00       		.byte	0
 2670 0237 00       		.byte	0
 2671 0238 2B       		.uleb128 0x2b
 2672 0239 1D       		.uleb128 0x1d
 2673 023a 01       		.byte	0x1
 2674 023b 31       		.uleb128 0x31
 2675 023c 13       		.uleb128 0x13
 2676 023d 52       		.uleb128 0x52
 2677 023e 01       		.uleb128 0x1
 2678 023f 55       		.uleb128 0x55
 2679 0240 17       		.uleb128 0x17
 2680 0241 58       		.uleb128 0x58
 2681 0242 0B       		.uleb128 0xb
 2682 0243 59       		.uleb128 0x59
 2683 0244 05       		.uleb128 0x5
 2684 0245 00       		.byte	0
 2685 0246 00       		.byte	0
 2686 0247 2C       		.uleb128 0x2c
 2687 0248 1D       		.uleb128 0x1d
 2688 0249 00       		.byte	0
 2689 024a 31       		.uleb128 0x31
 2690 024b 13       		.uleb128 0x13
 2691 024c 52       		.uleb128 0x52
 2692 024d 01       		.uleb128 0x1
 2693 024e 55       		.uleb128 0x55
 2694 024f 17       		.uleb128 0x17
 2695 0250 58       		.uleb128 0x58
 2696 0251 0B       		.uleb128 0xb
 2697 0252 59       		.uleb128 0x59
 2698 0253 0B       		.uleb128 0xb
 2699 0254 00       		.byte	0
 2700 0255 00       		.byte	0
ARM GAS  /tmp/ccQr5yWK.s 			page 80


 2701 0256 2D       		.uleb128 0x2d
 2702 0257 1D       		.uleb128 0x1d
 2703 0258 01       		.byte	0x1
 2704 0259 31       		.uleb128 0x31
 2705 025a 13       		.uleb128 0x13
 2706 025b 11       		.uleb128 0x11
 2707 025c 01       		.uleb128 0x1
 2708 025d 12       		.uleb128 0x12
 2709 025e 06       		.uleb128 0x6
 2710 025f 58       		.uleb128 0x58
 2711 0260 0B       		.uleb128 0xb
 2712 0261 59       		.uleb128 0x59
 2713 0262 0B       		.uleb128 0xb
 2714 0263 01       		.uleb128 0x1
 2715 0264 13       		.uleb128 0x13
 2716 0265 00       		.byte	0
 2717 0266 00       		.byte	0
 2718 0267 2E       		.uleb128 0x2e
 2719 0268 05       		.uleb128 0x5
 2720 0269 00       		.byte	0
 2721 026a 31       		.uleb128 0x31
 2722 026b 13       		.uleb128 0x13
 2723 026c 02       		.uleb128 0x2
 2724 026d 17       		.uleb128 0x17
 2725 026e 00       		.byte	0
 2726 026f 00       		.byte	0
 2727 0270 2F       		.uleb128 0x2f
 2728 0271 898201   		.uleb128 0x4109
 2729 0274 00       		.byte	0
 2730 0275 11       		.uleb128 0x11
 2731 0276 01       		.uleb128 0x1
 2732 0277 31       		.uleb128 0x31
 2733 0278 13       		.uleb128 0x13
 2734 0279 00       		.byte	0
 2735 027a 00       		.byte	0
 2736 027b 30       		.uleb128 0x30
 2737 027c 1D       		.uleb128 0x1d
 2738 027d 01       		.byte	0x1
 2739 027e 31       		.uleb128 0x31
 2740 027f 13       		.uleb128 0x13
 2741 0280 52       		.uleb128 0x52
 2742 0281 01       		.uleb128 0x1
 2743 0282 55       		.uleb128 0x55
 2744 0283 17       		.uleb128 0x17
 2745 0284 58       		.uleb128 0x58
 2746 0285 0B       		.uleb128 0xb
 2747 0286 59       		.uleb128 0x59
 2748 0287 0B       		.uleb128 0xb
 2749 0288 00       		.byte	0
 2750 0289 00       		.byte	0
 2751 028a 31       		.uleb128 0x31
 2752 028b 898201   		.uleb128 0x4109
 2753 028e 00       		.byte	0
 2754 028f 11       		.uleb128 0x11
 2755 0290 01       		.uleb128 0x1
 2756 0291 9542     		.uleb128 0x2115
 2757 0293 19       		.uleb128 0x19
ARM GAS  /tmp/ccQr5yWK.s 			page 81


 2758 0294 31       		.uleb128 0x31
 2759 0295 13       		.uleb128 0x13
 2760 0296 00       		.byte	0
 2761 0297 00       		.byte	0
 2762 0298 32       		.uleb128 0x32
 2763 0299 2E       		.uleb128 0x2e
 2764 029a 01       		.byte	0x1
 2765 029b 31       		.uleb128 0x31
 2766 029c 13       		.uleb128 0x13
 2767 029d 11       		.uleb128 0x11
 2768 029e 01       		.uleb128 0x1
 2769 029f 12       		.uleb128 0x12
 2770 02a0 06       		.uleb128 0x6
 2771 02a1 40       		.uleb128 0x40
 2772 02a2 18       		.uleb128 0x18
 2773 02a3 9742     		.uleb128 0x2117
 2774 02a5 19       		.uleb128 0x19
 2775 02a6 01       		.uleb128 0x1
 2776 02a7 13       		.uleb128 0x13
 2777 02a8 00       		.byte	0
 2778 02a9 00       		.byte	0
 2779 02aa 33       		.uleb128 0x33
 2780 02ab 34       		.uleb128 0x34
 2781 02ac 00       		.byte	0
 2782 02ad 31       		.uleb128 0x31
 2783 02ae 13       		.uleb128 0x13
 2784 02af 00       		.byte	0
 2785 02b0 00       		.byte	0
 2786 02b1 34       		.uleb128 0x34
 2787 02b2 34       		.uleb128 0x34
 2788 02b3 00       		.byte	0
 2789 02b4 31       		.uleb128 0x31
 2790 02b5 13       		.uleb128 0x13
 2791 02b6 02       		.uleb128 0x2
 2792 02b7 17       		.uleb128 0x17
 2793 02b8 00       		.byte	0
 2794 02b9 00       		.byte	0
 2795 02ba 35       		.uleb128 0x35
 2796 02bb 1D       		.uleb128 0x1d
 2797 02bc 01       		.byte	0x1
 2798 02bd 31       		.uleb128 0x31
 2799 02be 13       		.uleb128 0x13
 2800 02bf 11       		.uleb128 0x11
 2801 02c0 01       		.uleb128 0x1
 2802 02c1 12       		.uleb128 0x12
 2803 02c2 06       		.uleb128 0x6
 2804 02c3 58       		.uleb128 0x58
 2805 02c4 0B       		.uleb128 0xb
 2806 02c5 59       		.uleb128 0x59
 2807 02c6 05       		.uleb128 0x5
 2808 02c7 01       		.uleb128 0x1
 2809 02c8 13       		.uleb128 0x13
 2810 02c9 00       		.byte	0
 2811 02ca 00       		.byte	0
 2812 02cb 36       		.uleb128 0x36
 2813 02cc 1D       		.uleb128 0x1d
 2814 02cd 01       		.byte	0x1
ARM GAS  /tmp/ccQr5yWK.s 			page 82


 2815 02ce 31       		.uleb128 0x31
 2816 02cf 13       		.uleb128 0x13
 2817 02d0 11       		.uleb128 0x11
 2818 02d1 01       		.uleb128 0x1
 2819 02d2 12       		.uleb128 0x12
 2820 02d3 06       		.uleb128 0x6
 2821 02d4 58       		.uleb128 0x58
 2822 02d5 0B       		.uleb128 0xb
 2823 02d6 59       		.uleb128 0x59
 2824 02d7 0B       		.uleb128 0xb
 2825 02d8 00       		.byte	0
 2826 02d9 00       		.byte	0
 2827 02da 37       		.uleb128 0x37
 2828 02db 34       		.uleb128 0x34
 2829 02dc 00       		.byte	0
 2830 02dd 03       		.uleb128 0x3
 2831 02de 0E       		.uleb128 0xe
 2832 02df 3A       		.uleb128 0x3a
 2833 02e0 0B       		.uleb128 0xb
 2834 02e1 3B       		.uleb128 0x3b
 2835 02e2 05       		.uleb128 0x5
 2836 02e3 49       		.uleb128 0x49
 2837 02e4 13       		.uleb128 0x13
 2838 02e5 3F       		.uleb128 0x3f
 2839 02e6 19       		.uleb128 0x19
 2840 02e7 3C       		.uleb128 0x3c
 2841 02e8 19       		.uleb128 0x19
 2842 02e9 00       		.byte	0
 2843 02ea 00       		.byte	0
 2844 02eb 38       		.uleb128 0x38
 2845 02ec 34       		.uleb128 0x34
 2846 02ed 00       		.byte	0
 2847 02ee 03       		.uleb128 0x3
 2848 02ef 08       		.uleb128 0x8
 2849 02f0 3A       		.uleb128 0x3a
 2850 02f1 0B       		.uleb128 0xb
 2851 02f2 3B       		.uleb128 0x3b
 2852 02f3 05       		.uleb128 0x5
 2853 02f4 49       		.uleb128 0x49
 2854 02f5 13       		.uleb128 0x13
 2855 02f6 3F       		.uleb128 0x3f
 2856 02f7 19       		.uleb128 0x19
 2857 02f8 3C       		.uleb128 0x3c
 2858 02f9 19       		.uleb128 0x19
 2859 02fa 00       		.byte	0
 2860 02fb 00       		.byte	0
 2861 02fc 39       		.uleb128 0x39
 2862 02fd 2E       		.uleb128 0x2e
 2863 02fe 01       		.byte	0x1
 2864 02ff 3F       		.uleb128 0x3f
 2865 0300 19       		.uleb128 0x19
 2866 0301 03       		.uleb128 0x3
 2867 0302 0E       		.uleb128 0xe
 2868 0303 3A       		.uleb128 0x3a
 2869 0304 0B       		.uleb128 0xb
 2870 0305 3B       		.uleb128 0x3b
 2871 0306 0B       		.uleb128 0xb
ARM GAS  /tmp/ccQr5yWK.s 			page 83


 2872 0307 27       		.uleb128 0x27
 2873 0308 19       		.uleb128 0x19
 2874 0309 3C       		.uleb128 0x3c
 2875 030a 19       		.uleb128 0x19
 2876 030b 01       		.uleb128 0x1
 2877 030c 13       		.uleb128 0x13
 2878 030d 00       		.byte	0
 2879 030e 00       		.byte	0
 2880 030f 3A       		.uleb128 0x3a
 2881 0310 2E       		.uleb128 0x2e
 2882 0311 00       		.byte	0
 2883 0312 3F       		.uleb128 0x3f
 2884 0313 19       		.uleb128 0x19
 2885 0314 03       		.uleb128 0x3
 2886 0315 0E       		.uleb128 0xe
 2887 0316 3A       		.uleb128 0x3a
 2888 0317 0B       		.uleb128 0xb
 2889 0318 3B       		.uleb128 0x3b
 2890 0319 0B       		.uleb128 0xb
 2891 031a 27       		.uleb128 0x27
 2892 031b 19       		.uleb128 0x19
 2893 031c 3C       		.uleb128 0x3c
 2894 031d 19       		.uleb128 0x19
 2895 031e 00       		.byte	0
 2896 031f 00       		.byte	0
 2897 0320 00       		.byte	0
 2898              		.section	.debug_loc,"",%progbits
 2899              	.Ldebug_loc0:
 2900              	.LLST0:
 2901 0000 00000000 		.4byte	.LVL0
 2902 0004 3C000000 		.4byte	.LVL6
 2903 0008 0100     		.2byte	0x1
 2904 000a 50       		.byte	0x50
 2905 000b 3C000000 		.4byte	.LVL6
 2906 000f 62000000 		.4byte	.LVL11
 2907 0013 0100     		.2byte	0x1
 2908 0015 56       		.byte	0x56
 2909 0016 62000000 		.4byte	.LVL11
 2910 001a 6E000000 		.4byte	.LVL16
 2911 001e 0100     		.2byte	0x1
 2912 0020 50       		.byte	0x50
 2913 0021 6E000000 		.4byte	.LVL16
 2914 0025 78000000 		.4byte	.LVL18
 2915 0029 0100     		.2byte	0x1
 2916 002b 56       		.byte	0x56
 2917 002c 78000000 		.4byte	.LVL18
 2918 0030 7A000000 		.4byte	.LVL19
 2919 0034 0100     		.2byte	0x1
 2920 0036 50       		.byte	0x50
 2921 0037 7A000000 		.4byte	.LVL19
 2922 003b 8C000000 		.4byte	.LVL21
 2923 003f 0100     		.2byte	0x1
 2924 0041 56       		.byte	0x56
 2925 0042 8C000000 		.4byte	.LVL21
 2926 0046 8F000000 		.4byte	.LVL22-1
 2927 004a 0200     		.2byte	0x2
 2928 004c 7C       		.byte	0x7c
ARM GAS  /tmp/ccQr5yWK.s 			page 84


 2929 004d 00       		.sleb128 0
 2930 004e 8F000000 		.4byte	.LVL22-1
 2931 0052 90000000 		.4byte	.LFE189
 2932 0056 0400     		.2byte	0x4
 2933 0058 F3       		.byte	0xf3
 2934 0059 01       		.uleb128 0x1
 2935 005a 50       		.byte	0x50
 2936 005b 9F       		.byte	0x9f
 2937 005c 00000000 		.4byte	0
 2938 0060 00000000 		.4byte	0
 2939              	.LLST1:
 2940 0064 00000000 		.4byte	.LVL0
 2941 0068 1C000000 		.4byte	.LVL1
 2942 006c 0100     		.2byte	0x1
 2943 006e 51       		.byte	0x51
 2944 006f 1C000000 		.4byte	.LVL1
 2945 0073 26000000 		.4byte	.LVL2
 2946 0077 0400     		.2byte	0x4
 2947 0079 F3       		.byte	0xf3
 2948 007a 01       		.uleb128 0x1
 2949 007b 51       		.byte	0x51
 2950 007c 9F       		.byte	0x9f
 2951 007d 26000000 		.4byte	.LVL2
 2952 0081 3C000000 		.4byte	.LVL6
 2953 0085 0100     		.2byte	0x1
 2954 0087 51       		.byte	0x51
 2955 0088 62000000 		.4byte	.LVL11
 2956 008c 73000000 		.4byte	.LVL17-1
 2957 0090 0100     		.2byte	0x1
 2958 0092 51       		.byte	0x51
 2959 0093 78000000 		.4byte	.LVL18
 2960 0097 8F000000 		.4byte	.LVL22-1
 2961 009b 0100     		.2byte	0x1
 2962 009d 51       		.byte	0x51
 2963 009e 00000000 		.4byte	0
 2964 00a2 00000000 		.4byte	0
 2965              	.LLST2:
 2966 00a6 00000000 		.4byte	.LVL0
 2967 00aa 2A000000 		.4byte	.LVL4
 2968 00ae 0100     		.2byte	0x1
 2969 00b0 52       		.byte	0x52
 2970 00b1 2A000000 		.4byte	.LVL4
 2971 00b5 3C000000 		.4byte	.LVL6
 2972 00b9 0200     		.2byte	0x2
 2973 00bb 70       		.byte	0x70
 2974 00bc 0C       		.sleb128 12
 2975 00bd 3C000000 		.4byte	.LVL6
 2976 00c1 62000000 		.4byte	.LVL11
 2977 00c5 0400     		.2byte	0x4
 2978 00c7 F3       		.byte	0xf3
 2979 00c8 01       		.uleb128 0x1
 2980 00c9 52       		.byte	0x52
 2981 00ca 9F       		.byte	0x9f
 2982 00cb 62000000 		.4byte	.LVL11
 2983 00cf 6E000000 		.4byte	.LVL16
 2984 00d3 0200     		.2byte	0x2
 2985 00d5 70       		.byte	0x70
ARM GAS  /tmp/ccQr5yWK.s 			page 85


 2986 00d6 0C       		.sleb128 12
 2987 00d7 6E000000 		.4byte	.LVL16
 2988 00db 73000000 		.4byte	.LVL17-1
 2989 00df 0200     		.2byte	0x2
 2990 00e1 76       		.byte	0x76
 2991 00e2 0C       		.sleb128 12
 2992 00e3 73000000 		.4byte	.LVL17-1
 2993 00e7 78000000 		.4byte	.LVL18
 2994 00eb 0400     		.2byte	0x4
 2995 00ed F3       		.byte	0xf3
 2996 00ee 01       		.uleb128 0x1
 2997 00ef 52       		.byte	0x52
 2998 00f0 9F       		.byte	0x9f
 2999 00f1 78000000 		.4byte	.LVL18
 3000 00f5 8F000000 		.4byte	.LVL22-1
 3001 00f9 0100     		.2byte	0x1
 3002 00fb 52       		.byte	0x52
 3003 00fc 8F000000 		.4byte	.LVL22-1
 3004 0100 90000000 		.4byte	.LFE189
 3005 0104 0400     		.2byte	0x4
 3006 0106 F3       		.byte	0xf3
 3007 0107 01       		.uleb128 0x1
 3008 0108 52       		.byte	0x52
 3009 0109 9F       		.byte	0x9f
 3010 010a 00000000 		.4byte	0
 3011 010e 00000000 		.4byte	0
 3012              	.LLST3:
 3013 0112 00000000 		.4byte	.LVL0
 3014 0116 26000000 		.4byte	.LVL2
 3015 011a 0100     		.2byte	0x1
 3016 011c 53       		.byte	0x53
 3017 011d 26000000 		.4byte	.LVL2
 3018 0121 3C000000 		.4byte	.LVL6
 3019 0125 0200     		.2byte	0x2
 3020 0127 70       		.byte	0x70
 3021 0128 10       		.sleb128 16
 3022 0129 3C000000 		.4byte	.LVL6
 3023 012d 62000000 		.4byte	.LVL11
 3024 0131 0400     		.2byte	0x4
 3025 0133 F3       		.byte	0xf3
 3026 0134 01       		.uleb128 0x1
 3027 0135 53       		.byte	0x53
 3028 0136 9F       		.byte	0x9f
 3029 0137 62000000 		.4byte	.LVL11
 3030 013b 6E000000 		.4byte	.LVL16
 3031 013f 0200     		.2byte	0x2
 3032 0141 70       		.byte	0x70
 3033 0142 10       		.sleb128 16
 3034 0143 6E000000 		.4byte	.LVL16
 3035 0147 73000000 		.4byte	.LVL17-1
 3036 014b 0200     		.2byte	0x2
 3037 014d 76       		.byte	0x76
 3038 014e 10       		.sleb128 16
 3039 014f 73000000 		.4byte	.LVL17-1
 3040 0153 78000000 		.4byte	.LVL18
 3041 0157 0400     		.2byte	0x4
 3042 0159 F3       		.byte	0xf3
ARM GAS  /tmp/ccQr5yWK.s 			page 86


 3043 015a 01       		.uleb128 0x1
 3044 015b 53       		.byte	0x53
 3045 015c 9F       		.byte	0x9f
 3046 015d 78000000 		.4byte	.LVL18
 3047 0161 7A000000 		.4byte	.LVL19
 3048 0165 0200     		.2byte	0x2
 3049 0167 70       		.byte	0x70
 3050 0168 10       		.sleb128 16
 3051 0169 7A000000 		.4byte	.LVL19
 3052 016d 8C000000 		.4byte	.LVL21
 3053 0171 0200     		.2byte	0x2
 3054 0173 76       		.byte	0x76
 3055 0174 10       		.sleb128 16
 3056 0175 8C000000 		.4byte	.LVL21
 3057 0179 8F000000 		.4byte	.LVL22-1
 3058 017d 0500     		.2byte	0x5
 3059 017f 7C       		.byte	0x7c
 3060 0180 00       		.sleb128 0
 3061 0181 06       		.byte	0x6
 3062 0182 23       		.byte	0x23
 3063 0183 10       		.uleb128 0x10
 3064 0184 8F000000 		.4byte	.LVL22-1
 3065 0188 90000000 		.4byte	.LFE189
 3066 018c 0400     		.2byte	0x4
 3067 018e F3       		.byte	0xf3
 3068 018f 01       		.uleb128 0x1
 3069 0190 53       		.byte	0x53
 3070 0191 9F       		.byte	0x9f
 3071 0192 00000000 		.4byte	0
 3072 0196 00000000 		.4byte	0
 3073              	.LLST4:
 3074 019a 28000000 		.4byte	.LVL3
 3075 019e 3E000000 		.4byte	.LVL7
 3076 01a2 0100     		.2byte	0x1
 3077 01a4 54       		.byte	0x54
 3078 01a5 44000000 		.4byte	.LVL9
 3079 01a9 64000000 		.4byte	.LVL12
 3080 01ad 0100     		.2byte	0x1
 3081 01af 54       		.byte	0x54
 3082 01b0 64000000 		.4byte	.LVL12
 3083 01b4 68000000 		.4byte	.LVL14
 3084 01b8 0200     		.2byte	0x2
 3085 01ba 7C       		.byte	0x7c
 3086 01bb 00       		.sleb128 0
 3087 01bc 68000000 		.4byte	.LVL14
 3088 01c0 78000000 		.4byte	.LVL18
 3089 01c4 0100     		.2byte	0x1
 3090 01c6 54       		.byte	0x54
 3091 01c7 00000000 		.4byte	0
 3092 01cb 00000000 		.4byte	0
 3093              	.LLST5:
 3094 01cf 30000000 		.4byte	.LVL5
 3095 01d3 40000000 		.4byte	.LVL8
 3096 01d7 0100     		.2byte	0x1
 3097 01d9 55       		.byte	0x55
 3098 01da 44000000 		.4byte	.LVL9
 3099 01de 5C000000 		.4byte	.LVL10
ARM GAS  /tmp/ccQr5yWK.s 			page 87


 3100 01e2 0100     		.2byte	0x1
 3101 01e4 55       		.byte	0x55
 3102 01e5 62000000 		.4byte	.LVL11
 3103 01e9 66000000 		.4byte	.LVL13
 3104 01ed 0100     		.2byte	0x1
 3105 01ef 55       		.byte	0x55
 3106 01f0 68000000 		.4byte	.LVL14
 3107 01f4 78000000 		.4byte	.LVL18
 3108 01f8 0100     		.2byte	0x1
 3109 01fa 55       		.byte	0x55
 3110 01fb 00000000 		.4byte	0
 3111 01ff 00000000 		.4byte	0
 3112              	.LLST6:
 3113 0203 6C000000 		.4byte	.LVL15
 3114 0207 73000000 		.4byte	.LVL17-1
 3115 020b 0600     		.2byte	0x6
 3116 020d 75       		.byte	0x75
 3117 020e 00       		.sleb128 0
 3118 020f 72       		.byte	0x72
 3119 0210 00       		.sleb128 0
 3120 0211 22       		.byte	0x22
 3121 0212 9F       		.byte	0x9f
 3122 0213 00000000 		.4byte	0
 3123 0217 00000000 		.4byte	0
 3124              	.LLST7:
 3125 021b 88000000 		.4byte	.LVL20
 3126 021f 8C000000 		.4byte	.LVL21
 3127 0223 0600     		.2byte	0x6
 3128 0225 71       		.byte	0x71
 3129 0226 00       		.sleb128 0
 3130 0227 73       		.byte	0x73
 3131 0228 00       		.sleb128 0
 3132 0229 22       		.byte	0x22
 3133 022a 9F       		.byte	0x9f
 3134 022b 00000000 		.4byte	0
 3135 022f 00000000 		.4byte	0
 3136              	.LLST8:
 3137 0233 00000000 		.4byte	.LVL23
 3138 0237 2C000000 		.4byte	.LVL24
 3139 023b 0100     		.2byte	0x1
 3140 023d 50       		.byte	0x50
 3141 023e 2C000000 		.4byte	.LVL24
 3142 0242 30000000 		.4byte	.LVL25
 3143 0246 0400     		.2byte	0x4
 3144 0248 F3       		.byte	0xf3
 3145 0249 01       		.uleb128 0x1
 3146 024a 50       		.byte	0x50
 3147 024b 9F       		.byte	0x9f
 3148 024c 30000000 		.4byte	.LVL25
 3149 0250 34000000 		.4byte	.LVL26
 3150 0254 0100     		.2byte	0x1
 3151 0256 50       		.byte	0x50
 3152 0257 34000000 		.4byte	.LVL26
 3153 025b 78000000 		.4byte	.LFE190
 3154 025f 0400     		.2byte	0x4
 3155 0261 F3       		.byte	0xf3
 3156 0262 01       		.uleb128 0x1
ARM GAS  /tmp/ccQr5yWK.s 			page 88


 3157 0263 50       		.byte	0x50
 3158 0264 9F       		.byte	0x9f
 3159 0265 00000000 		.4byte	0
 3160 0269 00000000 		.4byte	0
 3161              	.LLST9:
 3162 026d 30000000 		.4byte	.LVL25
 3163 0271 50000000 		.4byte	.LVL27
 3164 0275 0100     		.2byte	0x1
 3165 0277 52       		.byte	0x52
 3166 0278 72000000 		.4byte	.LVL32
 3167 027c 77000000 		.4byte	.LVL33-1
 3168 0280 0100     		.2byte	0x1
 3169 0282 52       		.byte	0x52
 3170 0283 00000000 		.4byte	0
 3171 0287 00000000 		.4byte	0
 3172              	.LLST10:
 3173 028b 58000000 		.4byte	.LVL28
 3174 028f 6C000000 		.4byte	.LVL31
 3175 0293 0100     		.2byte	0x1
 3176 0295 50       		.byte	0x50
 3177 0296 00000000 		.4byte	0
 3178 029a 00000000 		.4byte	0
 3179              	.LLST11:
 3180 029e 64000000 		.4byte	.LVL29
 3181 02a2 71000000 		.4byte	.LVL32-1
 3182 02a6 0100     		.2byte	0x1
 3183 02a8 53       		.byte	0x53
 3184 02a9 00000000 		.4byte	0
 3185 02ad 00000000 		.4byte	0
 3186              	.LLST12:
 3187 02b1 6A000000 		.4byte	.LVL30
 3188 02b5 71000000 		.4byte	.LVL32-1
 3189 02b9 0600     		.2byte	0x6
 3190 02bb 73       		.byte	0x73
 3191 02bc 00       		.sleb128 0
 3192 02bd 72       		.byte	0x72
 3193 02be 00       		.sleb128 0
 3194 02bf 22       		.byte	0x22
 3195 02c0 9F       		.byte	0x9f
 3196 02c1 00000000 		.4byte	0
 3197 02c5 00000000 		.4byte	0
 3198              		.section	.debug_aranges,"",%progbits
 3199 0000 2C000000 		.4byte	0x2c
 3200 0004 0200     		.2byte	0x2
 3201 0006 00000000 		.4byte	.Ldebug_info0
 3202 000a 04       		.byte	0x4
 3203 000b 00       		.byte	0
 3204 000c 0000     		.2byte	0
 3205 000e 0000     		.2byte	0
 3206 0010 00000000 		.4byte	.LFB188
 3207 0014 1C000000 		.4byte	.LFE188-.LFB188
 3208 0018 00000000 		.4byte	.LFB189
 3209 001c 90000000 		.4byte	.LFE189-.LFB189
 3210 0020 00000000 		.4byte	.LFB190
 3211 0024 78000000 		.4byte	.LFE190-.LFB190
 3212 0028 00000000 		.4byte	0
 3213 002c 00000000 		.4byte	0
ARM GAS  /tmp/ccQr5yWK.s 			page 89


 3214              		.section	.debug_ranges,"",%progbits
 3215              	.Ldebug_ranges0:
 3216 0000 02000000 		.4byte	.LBB35
 3217 0004 1E000000 		.4byte	.LBE35
 3218 0008 24000000 		.4byte	.LBB50
 3219 000c 3C000000 		.4byte	.LBE50
 3220 0010 62000000 		.4byte	.LBB51
 3221 0014 88000000 		.4byte	.LBE51
 3222 0018 8C000000 		.4byte	.LBB52
 3223 001c 90000000 		.4byte	.LBE52
 3224 0020 00000000 		.4byte	0
 3225 0024 00000000 		.4byte	0
 3226 0028 10000000 		.4byte	.LBB36
 3227 002c 16000000 		.4byte	.LBE36
 3228 0030 24000000 		.4byte	.LBB43
 3229 0034 26000000 		.4byte	.LBE43
 3230 0038 00000000 		.4byte	0
 3231 003c 00000000 		.4byte	0
 3232 0040 80000000 		.4byte	.LBB46
 3233 0044 82000000 		.4byte	.LBE46
 3234 0048 8C000000 		.4byte	.LBB49
 3235 004c 90000000 		.4byte	.LBE49
 3236 0050 00000000 		.4byte	0
 3237 0054 00000000 		.4byte	0
 3238 0058 30000000 		.4byte	.LBB63
 3239 005c 5E000000 		.4byte	.LBE63
 3240 0060 60000000 		.4byte	.LBB79
 3241 0064 72000000 		.4byte	.LBE79
 3242 0068 74000000 		.4byte	.LBB80
 3243 006c 78000000 		.4byte	.LBE80
 3244 0070 00000000 		.4byte	0
 3245 0074 00000000 		.4byte	0
 3246 0078 42000000 		.4byte	.LBB65
 3247 007c 48000000 		.4byte	.LBE65
 3248 0080 4E000000 		.4byte	.LBB72
 3249 0084 50000000 		.4byte	.LBE72
 3250 0088 00000000 		.4byte	0
 3251 008c 00000000 		.4byte	0
 3252 0090 00000000 		.4byte	.LFB188
 3253 0094 1C000000 		.4byte	.LFE188
 3254 0098 00000000 		.4byte	.LFB189
 3255 009c 90000000 		.4byte	.LFE189
 3256 00a0 00000000 		.4byte	.LFB190
 3257 00a4 78000000 		.4byte	.LFE190
 3258 00a8 00000000 		.4byte	0
 3259 00ac 00000000 		.4byte	0
 3260              		.section	.debug_line,"",%progbits
 3261              	.Ldebug_line0:
 3262 0000 0D030000 		.section	.debug_str,"MS",%progbits,1
 3262      02000902 
 3262      00000201 
 3262      FB0E0D00 
 3262      01010101 
 3263              	.LASF41:
 3264 0000 63685F74 		.ascii	"ch_threads_list\000"
 3264      68726561 
 3264      64735F6C 
ARM GAS  /tmp/ccQr5yWK.s 			page 90


 3264      69737400 
 3265              	.LASF86:
 3266 0010 77746D74 		.ascii	"wtmtxp\000"
 3266      787000
 3267              	.LASF110:
 3268 0017 2F686F6D 		.ascii	"/home/otto/Escritorio/Semestre12/Embebidos/ChibiOS_"
 3268      652F6F74 
 3268      746F2F45 
 3268      73637269 
 3268      746F7269 
 3269 004a 31372E36 		.ascii	"17.6.2/demos/STM32/NIL-STM32F100-DISCOVERY\000"
 3269      2E322F64 
 3269      656D6F73 
 3269      2F53544D 
 3269      33322F4E 
 3270              	.LASF66:
 3271 0075 72656761 		.ascii	"regarm_t\000"
 3271      726D5F74 
 3271      00
 3272              	.LASF112:
 3273 007e 5F76745F 		.ascii	"_vt_init\000"
 3273      696E6974 
 3273      00
 3274              	.LASF30:
 3275 0087 666C6167 		.ascii	"flags\000"
 3275      7300
 3276              	.LASF21:
 3277 008d 73797374 		.ascii	"systime_t\000"
 3277      696D655F 
 3277      7400
 3278              	.LASF36:
 3279 0097 7265616C 		.ascii	"realprio\000"
 3279      7072696F 
 3279      00
 3280              	.LASF103:
 3281 00a0 76746675 		.ascii	"vtfunc\000"
 3281      6E6300
 3282              	.LASF34:
 3283 00a7 6570656E 		.ascii	"epending\000"
 3283      64696E67 
 3283      00
 3284              	.LASF0:
 3285 00b0 756E7369 		.ascii	"unsigned int\000"
 3285      676E6564 
 3285      20696E74 
 3285      00
 3286              	.LASF42:
 3287 00bd 6E657874 		.ascii	"next\000"
 3287      00
 3288              	.LASF96:
 3289 00c2 63685654 		.ascii	"chVTGetSystemTimeX\000"
 3289      47657453 
 3289      79737465 
 3289      6D54696D 
 3289      655800
 3290              	.LASF39:
 3291 00d5 74687265 		.ascii	"threads_list_t\000"
ARM GAS  /tmp/ccQr5yWK.s 			page 91


 3291      6164735F 
 3291      6C697374 
 3291      5F7400
 3292              	.LASF31:
 3293 00e4 72656673 		.ascii	"refs\000"
 3293      00
 3294              	.LASF82:
 3295 00e9 77746F62 		.ascii	"wtobjp\000"
 3295      6A7000
 3296              	.LASF63:
 3297 00f0 76746C69 		.ascii	"vtlist\000"
 3297      737400
 3298              	.LASF68:
 3299 00f7 706F7274 		.ascii	"port_context\000"
 3299      5F636F6E 
 3299      74657874 
 3299      00
 3300              	.LASF47:
 3301 0104 63685F72 		.ascii	"ch_ready_list\000"
 3301      65616479 
 3301      5F6C6973 
 3301      7400
 3302              	.LASF53:
 3303 0112 66756E63 		.ascii	"func\000"
 3303      00
 3304              	.LASF87:
 3305 0117 65776D61 		.ascii	"ewmask\000"
 3305      736B00
 3306              	.LASF45:
 3307 011e 70726576 		.ascii	"prev\000"
 3307      00
 3308              	.LASF44:
 3309 0123 63685F74 		.ascii	"ch_threads_queue\000"
 3309      68726561 
 3309      64735F71 
 3309      75657565 
 3309      00
 3310              	.LASF76:
 3311 0134 444D4152 		.ascii	"DMAR\000"
 3311      00
 3312              	.LASF49:
 3313 0139 76746675 		.ascii	"vtfunc_t\000"
 3313      6E635F74 
 3313      00
 3314              	.LASF58:
 3315 0142 63685F73 		.ascii	"ch_system_debug\000"
 3315      79737465 
 3315      6D5F6465 
 3315      62756700 
 3316              	.LASF9:
 3317 0152 75696E74 		.ascii	"uint32_t\000"
 3317      33325F74 
 3317      00
 3318              	.LASF106:
 3319 015b 73745365 		.ascii	"stSetAlarm\000"
 3319      74416C61 
 3319      726D00
ARM GAS  /tmp/ccQr5yWK.s 			page 92


 3320              	.LASF84:
 3321 0166 73656E74 		.ascii	"sentmsg\000"
 3321      6D736700 
 3322              	.LASF114:
 3323 016e 5F5F6675 		.ascii	"__func__.5914\000"
 3323      6E635F5F 
 3323      2E353931 
 3323      3400
 3324              	.LASF19:
 3325 017c 6576656E 		.ascii	"eventmask_t\000"
 3325      746D6173 
 3325      6B5F7400 
 3326              	.LASF75:
 3327 0188 42445452 		.ascii	"BDTR\000"
 3327      00
 3328              	.LASF107:
 3329 018d 73745374 		.ascii	"stStartAlarm\000"
 3329      61727441 
 3329      6C61726D 
 3329      00
 3330              	.LASF88:
 3331 019a 63685F73 		.ascii	"ch_semaphore\000"
 3331      656D6170 
 3331      686F7265 
 3331      00
 3332              	.LASF17:
 3333 01a7 74707269 		.ascii	"tprio_t\000"
 3333      6F5F7400 
 3334              	.LASF51:
 3335 01af 63685F76 		.ascii	"ch_virtual_timer\000"
 3335      69727475 
 3335      616C5F74 
 3335      696D6572 
 3335      00
 3336              	.LASF72:
 3337 01c0 43434D52 		.ascii	"CCMR1\000"
 3337      3100
 3338              	.LASF73:
 3339 01c6 43434D52 		.ascii	"CCMR2\000"
 3339      3200
 3340              	.LASF77:
 3341 01cc 43434D52 		.ascii	"CCMR3\000"
 3341      3300
 3342              	.LASF13:
 3343 01d2 6C6F6E67 		.ascii	"long long unsigned int\000"
 3343      206C6F6E 
 3343      6720756E 
 3343      7369676E 
 3343      65642069 
 3344              	.LASF94:
 3345 01e9 73745F6C 		.ascii	"st_lld_get_counter\000"
 3345      6C645F67 
 3345      65745F63 
 3345      6F756E74 
 3345      657200
 3346              	.LASF20:
 3347 01fc 636E745F 		.ascii	"cnt_t\000"
ARM GAS  /tmp/ccQr5yWK.s 			page 93


 3347      7400
 3348              	.LASF101:
 3349 0202 6E6F7764 		.ascii	"nowdelta\000"
 3349      656C7461 
 3349      00
 3350              	.LASF99:
 3351 020b 74696D65 		.ascii	"time\000"
 3351      00
 3352              	.LASF90:
 3353 0210 6F776E65 		.ascii	"owner\000"
 3353      7200
 3354              	.LASF43:
 3355 0216 74687265 		.ascii	"threads_queue_t\000"
 3355      6164735F 
 3355      71756575 
 3355      655F7400 
 3356              	.LASF35:
 3357 0226 6D74786C 		.ascii	"mtxlist\000"
 3357      69737400 
 3358              	.LASF55:
 3359 022e 63685F76 		.ascii	"ch_virtual_timers_list\000"
 3359      69727475 
 3359      616C5F74 
 3359      696D6572 
 3359      735F6C69 
 3360              	.LASF22:
 3361 0245 74687265 		.ascii	"thread_t\000"
 3361      61645F74 
 3361      00
 3362              	.LASF80:
 3363 024e 7264796D 		.ascii	"rdymsg\000"
 3363      736700
 3364              	.LASF79:
 3365 0255 73746D33 		.ascii	"stm32_tim_t\000"
 3365      325F7469 
 3365      6D5F7400 
 3366              	.LASF93:
 3367 0261 5F426F6F 		.ascii	"_Bool\000"
 3367      6C00
 3368              	.LASF89:
 3369 0267 63685F6D 		.ascii	"ch_mutex\000"
 3369      75746578 
 3369      00
 3370              	.LASF71:
 3371 0270 44494552 		.ascii	"DIER\000"
 3371      00
 3372              	.LASF95:
 3373 0275 706F7274 		.ascii	"port_timer_get_time\000"
 3373      5F74696D 
 3373      65725F67 
 3373      65745F74 
 3373      696D6500 
 3374              	.LASF108:
 3375 0289 474E5520 		.ascii	"GNU C 4.8.1 -mcpu=cortex-m3 -mno-thumb-interwork -m"
 3375      4320342E 
 3375      382E3120 
 3375      2D6D6370 
ARM GAS  /tmp/ccQr5yWK.s 			page 94


 3375      753D636F 
 3376 02bc 7468756D 		.ascii	"thumb -ggdb -O2 -fomit-frame-pointer -falign-functi"
 3376      62202D67 
 3376      67646220 
 3376      2D4F3220 
 3376      2D666F6D 
 3377 02ef 6F6E733D 		.ascii	"ons=16 -ffunction-sections -fdata-sections -fno-com"
 3377      3136202D 
 3377      6666756E 
 3377      6374696F 
 3377      6E2D7365 
 3378 0322 6D6F6E20 		.ascii	"mon -flto\000"
 3378      2D666C74 
 3378      6F00
 3379              	.LASF24:
 3380 032c 7072696F 		.ascii	"prio\000"
 3380      00
 3381              	.LASF74:
 3382 0331 43434552 		.ascii	"CCER\000"
 3382      00
 3383              	.LASF91:
 3384 0336 63686172 		.ascii	"char\000"
 3384      00
 3385              	.LASF38:
 3386 033b 74687265 		.ascii	"thread_reference_t\000"
 3386      61645F72 
 3386      65666572 
 3386      656E6365 
 3386      5F7400
 3387              	.LASF28:
 3388 034e 77616261 		.ascii	"wabase\000"
 3388      736500
 3389              	.LASF15:
 3390 0355 74737461 		.ascii	"tstate_t\000"
 3390      74655F74 
 3390      00
 3391              	.LASF4:
 3392 035e 75696E74 		.ascii	"uint8_t\000"
 3392      385F7400 
 3393              	.LASF109:
 3394 0366 2E2E2F2E 		.ascii	"../../../os/rt/src/chvt.c\000"
 3394      2E2F2E2E 
 3394      2F6F732F 
 3394      72742F73 
 3394      72632F63 
 3395              	.LASF33:
 3396 0380 6D736771 		.ascii	"msgqueue\000"
 3396      75657565 
 3396      00
 3397              	.LASF70:
 3398 0389 534D4352 		.ascii	"SMCR\000"
 3398      00
 3399              	.LASF40:
 3400 038e 63685F74 		.ascii	"ch_thread\000"
 3400      68726561 
 3400      6400
 3401              	.LASF97:
ARM GAS  /tmp/ccQr5yWK.s 			page 95


 3402 0398 706F7274 		.ascii	"port_timer_start_alarm\000"
 3402      5F74696D 
 3402      65725F73 
 3402      74617274 
 3402      5F616C61 
 3403              	.LASF57:
 3404 03af 73797374 		.ascii	"system_debug_t\000"
 3404      656D5F64 
 3404      65627567 
 3404      5F7400
 3405              	.LASF11:
 3406 03be 6C6F6E67 		.ascii	"long long int\000"
 3406      206C6F6E 
 3406      6720696E 
 3406      7400
 3407              	.LASF18:
 3408 03cc 6D73675F 		.ascii	"msg_t\000"
 3408      7400
 3409              	.LASF105:
 3410 03d2 63685654 		.ascii	"chVTDoResetI\000"
 3410      446F5265 
 3410      73657449 
 3410      00
 3411              	.LASF50:
 3412 03df 76697274 		.ascii	"virtual_timer_t\000"
 3412      75616C5F 
 3412      74696D65 
 3412      725F7400 
 3413              	.LASF59:
 3414 03ef 70616E69 		.ascii	"panic_msg\000"
 3414      635F6D73 
 3414      6700
 3415              	.LASF14:
 3416 03f9 746D6F64 		.ascii	"tmode_t\000"
 3416      655F7400 
 3417              	.LASF64:
 3418 0401 6D61696E 		.ascii	"mainthread\000"
 3418      74687265 
 3418      616400
 3419              	.LASF98:
 3420 040c 706F7274 		.ascii	"port_timer_set_alarm\000"
 3420      5F74696D 
 3420      65725F73 
 3420      65745F61 
 3420      6C61726D 
 3421              	.LASF5:
 3422 0421 75696E74 		.ascii	"uint16_t\000"
 3422      31365F74 
 3422      00
 3423              	.LASF78:
 3424 042a 43435852 		.ascii	"CCXR\000"
 3424      00
 3425              	.LASF3:
 3426 042f 73686F72 		.ascii	"short int\000"
 3426      7420696E 
 3426      7400
 3427              	.LASF8:
ARM GAS  /tmp/ccQr5yWK.s 			page 96


 3428 0439 6C6F6E67 		.ascii	"long int\000"
 3428      20696E74 
 3428      00
 3429              	.LASF69:
 3430 0442 706F7274 		.ascii	"port_intctx\000"
 3430      5F696E74 
 3430      63747800 
 3431              	.LASF104:
 3432 044e 49544D5F 		.ascii	"ITM_RxBuffer\000"
 3432      52784275 
 3432      66666572 
 3432      00
 3433              	.LASF102:
 3434 045b 64656C61 		.ascii	"delay\000"
 3434      7900
 3435              	.LASF61:
 3436 0461 63685F73 		.ascii	"ch_system\000"
 3436      79737465 
 3436      6D00
 3437              	.LASF100:
 3438 046b 5F5F6675 		.ascii	"__func__.5922\000"
 3438      6E635F5F 
 3438      2E353932 
 3438      3200
 3439              	.LASF115:
 3440 0479 73745374 		.ascii	"stStopAlarm\000"
 3440      6F70416C 
 3440      61726D00 
 3441              	.LASF56:
 3442 0485 6C617374 		.ascii	"lasttime\000"
 3442      74696D65 
 3442      00
 3443              	.LASF12:
 3444 048e 75696E74 		.ascii	"uint64_t\000"
 3444      36345F74 
 3444      00
 3445              	.LASF62:
 3446 0497 726C6973 		.ascii	"rlist\000"
 3446      7400
 3447              	.LASF27:
 3448 049d 6E616D65 		.ascii	"name\000"
 3448      00
 3449              	.LASF65:
 3450 04a2 73697A65 		.ascii	"sizetype\000"
 3450      74797065 
 3450      00
 3451              	.LASF16:
 3452 04ab 74726566 		.ascii	"trefs_t\000"
 3452      735F7400 
 3453              	.LASF111:
 3454 04b3 706F7274 		.ascii	"port_timer_stop_alarm\000"
 3454      5F74696D 
 3454      65725F73 
 3454      746F705F 
 3454      616C6172 
 3455              	.LASF10:
 3456 04c9 6C6F6E67 		.ascii	"long unsigned int\000"
ARM GAS  /tmp/ccQr5yWK.s 			page 97


 3456      20756E73 
 3456      69676E65 
 3456      6420696E 
 3456      7400
 3457              	.LASF113:
 3458 04db 63685654 		.ascii	"chVTDoSetI\000"
 3458      446F5365 
 3458      744900
 3459              	.LASF46:
 3460 04e6 72656164 		.ascii	"ready_list_t\000"
 3460      795F6C69 
 3460      73745F74 
 3460      00
 3461              	.LASF23:
 3462 04f3 71756575 		.ascii	"queue\000"
 3462      6500
 3463              	.LASF7:
 3464 04f9 696E7433 		.ascii	"int32_t\000"
 3464      325F7400 
 3465              	.LASF92:
 3466 0501 6D757465 		.ascii	"mutex_t\000"
 3466      785F7400 
 3467              	.LASF25:
 3468 0509 6E657765 		.ascii	"newer\000"
 3468      7200
 3469              	.LASF2:
 3470 050f 756E7369 		.ascii	"unsigned char\000"
 3470      676E6564 
 3470      20636861 
 3470      7200
 3471              	.LASF32:
 3472 051d 77616974 		.ascii	"waiting\000"
 3472      696E6700 
 3473              	.LASF54:
 3474 0525 76697274 		.ascii	"virtual_timers_list_t\000"
 3474      75616C5F 
 3474      74696D65 
 3474      72735F6C 
 3474      6973745F 
 3475              	.LASF29:
 3476 053b 73746174 		.ascii	"state\000"
 3476      6500
 3477              	.LASF60:
 3478 0541 63685F73 		.ascii	"ch_system_t\000"
 3478      79737465 
 3478      6D5F7400 
 3479              	.LASF85:
 3480 054d 77747365 		.ascii	"wtsemp\000"
 3480      6D7000
 3481              	.LASF83:
 3482 0554 77747472 		.ascii	"wttrp\000"
 3482      7000
 3483              	.LASF1:
 3484 055a 7369676E 		.ascii	"signed char\000"
 3484      65642063 
 3484      68617200 
 3485              	.LASF52:
ARM GAS  /tmp/ccQr5yWK.s 			page 98


 3486 0566 64656C74 		.ascii	"delta\000"
 3486      6100
 3487              	.LASF6:
 3488 056c 73686F72 		.ascii	"short unsigned int\000"
 3488      7420756E 
 3488      7369676E 
 3488      65642069 
 3488      6E7400
 3489              	.LASF67:
 3490 057f 73746B61 		.ascii	"stkalign_t\000"
 3490      6C69676E 
 3490      5F7400
 3491              	.LASF48:
 3492 058a 63757272 		.ascii	"current\000"
 3492      656E7400 
 3493              	.LASF26:
 3494 0592 6F6C6465 		.ascii	"older\000"
 3494      7200
 3495              	.LASF81:
 3496 0598 65786974 		.ascii	"exitcode\000"
 3496      636F6465 
 3496      00
 3497              	.LASF37:
 3498 05a1 6D706F6F 		.ascii	"mpool\000"
 3498      6C00
 3499              		.comm	__gnu_lto_v1,1,1
 3500              		.ident	"GCC: (Sourcery CodeBench Lite 2013.11-24) 4.8.1"
ARM GAS  /tmp/ccQr5yWK.s 			page 99


DEFINED SYMBOLS
                            *ABS*:00000000 chvt.c
     /tmp/ccQr5yWK.s:531    .text._vt_init:00000000 $t
     /tmp/ccQr5yWK.s:537    .text._vt_init:00000000 _vt_init
     /tmp/ccQr5yWK.s:566    .text.chVTDoSetI:00000000 $t
     /tmp/ccQr5yWK.s:572    .text.chVTDoSetI:00000000 chVTDoSetI
     /tmp/ccQr5yWK.s:762    .text.chVTDoResetI:00000000 $t
     /tmp/ccQr5yWK.s:768    .text.chVTDoResetI:00000000 chVTDoResetI
                            *COM*:00000001 __gnu_lto_v1
                     .debug_frame:00000010 $d

UNDEFINED SYMBOLS
ch
stSetAlarm
stStartAlarm
stStopAlarm
