ARM GAS  /tmp/ccWYFA6r.s 			page 1


   1              		.syntax unified
   2              		.cpu cortex-m3
   3              		.fpu softvfp
   4              		.eabi_attribute 20, 1
   5              		.eabi_attribute 21, 1
   6              		.eabi_attribute 23, 3
   7              		.eabi_attribute 24, 1
   8              		.eabi_attribute 25, 1
   9              		.eabi_attribute 26, 1
  10              		.eabi_attribute 30, 2
  11              		.eabi_attribute 34, 1
  12              		.eabi_attribute 18, 4
  13              		.thumb
  14              		.file	"hal_lld.c"
  15              		.text
  16              	.Ltext0:
  17              		.section	.gnu.lto_.jmpfuncs.db30f1c3996dc74d,"",%progbits
  18 0000 789C6362 		.ascii	"x\234cb`b\300\006\330\2404P\226\221\201\001\000\001"
  18      6062C006 
  18      D8A03450 
  18      96918101 
  18      0001
  19 0012 1D000E   		.ascii	"\035\000\016"
  20              		.text
  21              		.section	.gnu.lto_.inline.db30f1c3996dc74d,"",%progbits
  22 0000 789C6362 		.ascii	"x\234cb`b\300\006\264\2414PVH\220\221\201In\303+F\006"
  22      6062C006 
  22      B4A13450 
  22      56489091 
  22      81496EC3 
  23 0017 B605F260 		.ascii	"\266\005\362`\325\214\014:_\031\201\202A+n\310\302\005"
  23      D58C0C3A 
  23      5F198182 
  23      412B6EC8 
  23      C205
  24 0029 190094D5 		.ascii	"\031\000\224\325\006\264"
  24      06B4
  25              		.text
  26              		.section	.gnu.lto_.pureconst.db30f1c3996dc74d,"",%progbits
  27 0000 789C6362 		.ascii	"x\234cb`b`e\200\000&\006)F)\000\001\006\000A"
  27      60626065 
  27      80002606 
  27      29462900 
  27      01060041 
  28              		.text
  29              		.section	.gnu.lto_hal_lld_init.db30f1c3996dc74d,"",%progbits
  30 0000 789CAD93 		.ascii	"x\234\255\223\277K\303P\020\307\357^\032m\265\322\342"
  30      BF4BC350 
  30      10C7EF5E 
  30      1A6DB5D2 
  30      E2
  31 0011 D64D0427 		.ascii	"\326M\004'\241\365\307\242\203\342$88YA'\251\025\264"
  31      A1F5C7A2 
  31      83E22438 
  31      38594127 
  31      A915B4
  32 0024 50A8A848 		.ascii	"P\250\250H\235\372b;\024q\010\342\242.JQ\301EG\253\213"
ARM GAS  /tmp/ccWYFA6r.s 			page 2


  32      9DFA623B 
  32      147108E2 
  32      A22E4A51 
  32      C14547AB 
  33 0039 388A0A5D 		.ascii	"8\212\012]\025\244\202\242\177\202\223\361.\257\251"
  33      15A482A2 
  33      7F8293F1 
  33      2EAFA9
  34 0048 D80EB6D6 		.ascii	"\330\016\266\326#\271{\371q\337\373|\037\211\000\001"
  34      23B97BF9 
  34      71DFFB7C 
  34      1F890001 
  35 0058 9511A073 		.ascii	"\225\021\240s\315\0050L\0255@a\336\003\030n\201\310"
  35      CD05304C 
  35      15354061 
  35      DE03186E 
  35      81C8
  36 006a 0B404809 		.ascii	"\013@H\011LM#\277*:\341@\312\255\342kn'\260\261\277"
  36      4C4D23BF 
  36      2A3AE140 
  36      CAADE26B 
  36      6E27B0B1 
  37 007f 6ECA4FCB 		.ascii	"n\312O\313\302\030\222h?B\024a\212.\260\303.\302\365"
  37      C2189268 
  37      3F421461 
  37      8A2EB0C3 
  37      2EC2F5
  38 0092 738AEABC 		.ascii	"s\212\352\274:\273\331l1\215\254\264\254\224\3357\370"
  38      3ABBD96C 
  38      318DACB4 
  38      AC94DD37 
  38      F8
  39 00a3 5BDFA9B8 		.ascii	"[\337\251\270*Z\326m\341\3459\217\355\355\002\"x\200"
  39      2A5AD66D 
  39      E1E5398F 
  39      EDED0222 
  39      7880
  40 00b5 9DA053CD 		.ascii	"\235\240S\315Qu\003\251x8\265r\362r\362q\362s\242\320"
  40      517503A9 
  40      7838B572 
  40      F272F271 
  40      F273A2D0 
  41 00c9 2123A5D9 		.ascii	"!#\245\331\001<\205\"L\231]M\242\340\252\335\301\365"
  41      013C8522 
  41      4C995D4D 
  41      A2E0AADD 
  41      C1F5
  42 00db C3472E10 		.ascii	"\303G.\020\301C\324a\036E7\234\310\214\341\217\241\266"
  42      C143D461 
  42      1E45379C 
  42      C88CE18F 
  42      A1B6
  43 00ed 07BB44E3 		.ascii	"\007\273D\343b$]\356g\245\313\246\323m\246Yt\350\250"
  43      62245DEE 
  43      67A5CBA6 
  43      D36DA659 
  43      74E8A8
ARM GAS  /tmp/ccWYFA6r.s 			page 3


  44 0100 7F4035D7 		.ascii	"\177@5\327\327\311w\300\242\360U\213`\035\032Z\011\342"
  44      D7C977C0 
  44      A2F0558B 
  44      601D1A5A 
  44      09E2
  45 0112 217B848E 		.ascii	"!{\204\216\011\275V\024\374\263\011\374\007\023Xm\342"
  45      09BD5614 
  45      FCB309FC 
  45      0713586D 
  45      E2
  46 0123 FDDB84BB 		.ascii	"\375\333\204\273V\024Q6\221\316kN\267\207\004l:I\201"
  46      56145136 
  46      91CE6B4E 
  46      B787046C 
  46      3A4981
  47 0136 4A7DAC3E 		.ascii	"J}\254>\213J\227\244J\373{\\Fkm\010\315K\002\016\332"
  47      8B4A97A4 
  47      4AFB7B5C 
  47      466B6D08 
  47      CD4B020E 
  48 014b 4843645E 		.ascii	"HCd^Ev\376\324V\376\310\325BZ\333C\000J4\252\366y\036"
  48      4576FED4 
  48      56FEC8D5 
  48      425ADB43 
  48      004A34AA 
  49 0162 7D3FE40D 		.ascii	"}?\344\015S\322\252\211e\233e\321(Mh.M\320\270\373R"
  49      53D2AA89 
  49      659B65D1 
  49      284D682E 
  49      4DD0B8FB 
  50 0177 0D64F8F4 		.ascii	"\015d\370\364\333#\271\277\260\371\375$\245\370E\231"
  50      DB23B9BF 
  50      B0F9FD24 
  50      A5F84599 
  51 0187 FEA292BE 		.ascii	"\376\242\222\276Vy\222\003(\200Q\314w)\\'\302\204M\377"
  51      56799203 
  51      288051CC 
  51      77295C27 
  51      C2844DFF 
  52 019b 278FE809 		.ascii	"'\217\350\011\006C\352H,\207\026\"\361\320bbie94\021"
  52      0643EA48 
  52      2C871622 
  52      F1D06262 
  52      69653934 
  53 01b0 1EEFEF53 		.ascii	"\036\357\357Sy\2647\231\344'3\361\370\\0\012\372j\""
  53      79B43799 
  53      E42733F1 
  53      F85C300A 
  53      FA6A22
  54 01c3 1EECB173 		.ascii	"\036\354\261s\357\027\365e\016\311"
  54      EF17F565 
  54      0EC9
  55              		.text
  56              		.section	.gnu.lto_stm32_clock_init.db30f1c3996dc74d,"",%progbits
  57 0000 789CA554 		.ascii	"x\234\245T\301k\323P\034\376\375^\232&m\2234i\331\330"
  57      C16BD350 
  57      1CFEFD5E 
ARM GAS  /tmp/ccWYFA6r.s 			page 4


  57      9A266D93 
  57      3469D9D8 
  58 0014 60651504 		.ascii	"`e\025\004\017B\353\266\277\240\027\301\203';\320\223"
  58      0F42EBB6 
  58      BFA017C1 
  58      83273BD0 
  58      93
  59 0025 CC097530 		.ascii	"\314\011u0\2308\017\273-\245=x\360\260\343P\020\275"
  59      98380FBB 
  59      2DA53D78 
  59      F0B0E350 
  59      10BD
  60 0037 8A28ECE0 		.ascii	"\212(\354\340\342\206l\014AA&x\253=\355\2649\024d;\271"
  60      E2866C0C 
  60      41412678 
  60      AB3DEDB4 
  60      3914643B 
  61 004c D37CBFF7 		.ascii	"\323|\277\367\222\227\316M\334\226\320~I~\337{_~\357"
  61      9297CE4D 
  61      DC96D07E 
  61      497EDF7B 
  61      5F7EEF
  62 005f FB5EC280 		.ascii	"\373^\302\200\301\337\307'\376\277h\002\214\3623\026"
  62      C1DFC727 
  62      FEBF6802 
  62      8CF23316 
  63 006f 00D9C217 		.ascii	"\000\331\302\027\200\246\311P\223\027\032\363\036\177"
  63      80A6C950 
  63      93171AF3 
  63      1E7F
  64 007d 04F0B3A9 		.ascii	"\004\360\263\251\266\001\276\345\311z-\205\272\344u"
  64      B601BEE5 
  64      C97A2D85 
  64      BAE475
  65 008c E64A3E2D 		.ascii	"\346J>-xW\326ki4$o\260\274\344M\301\347e\275fbF\362"
  65      7857D66B 
  65      6934246F 
  65      B0BCE44D 
  65      C1E765BD 
  66 00a4 19E6483E 		.ascii	"\031\346H>+xG\326kY\314I>\307l\311[\202\267e\275f!\322"
  66      2B7847D6 
  66      6B59CC49 
  66      3EC76CC9 
  66      5B82B765 
  67 00bc 1910E699 		.ascii	"\031\020\346\231\346\245t7m\344\315\214\223\315\331"
  67      E6A57437 
  67      6DE4CD8C 
  67      93CDD9
  68 00cb 16CEDF42 		.ascii	"\026\316\337B\261\2647l}\353\360\360\365\322\347g\257"
  68      B1B4376C 
  68      7DEBF0F0 
  68      F5D2E767 
  68      AF
  69 00dc F03DBBC0 		.ascii	"\360=\273\300`\012A#\320\011\322\004\006\201I\220#\260"
  69      600A4123 
  69      D009D204 
  69      06814990 
ARM GAS  /tmp/ccWYFA6r.s 			page 5


  69      23B0
  70 00ee 086C0287 		.ascii	"\010l\002\207\300%\360\010\012\004E\202>\202~\202\001"
  70      C025F008 
  70      0A044582 
  70      3E827E82 
  70      01
  71 00ff 82418221 		.ascii	"\202A\202!\202\022\3010A\231\200\037:\264}\177\241\014"
  71      8212C130 
  71      4199801F 
  71      3AB47D7F 
  71      A10C
  72 0111 30296EEB 		.ascii	"0)n\353\034\371\032\306\221\361\223\266\011\033\335"
  72      1CF91AC6 
  72      91F193B6 
  72      091BDD
  73 0120 CEF2379C 		.ascii	"\316\3627\234\300\027\250C\003\331ex\351\267\233\356"
  73      C017A843 
  73      03D96578 
  73      E9B79BEE 
  74 0130 14E25378 		.ascii	"\024\342Sx\202S\310nr\320\374\347\217\374\024\210K\261"
  74      8253C86E 
  74      72D0FCE7 
  74      8FFC1488 
  74      4BB1
  75 0142 A63B1805 		.ascii	"\246;\030\005\267\011\255wZ4[k\310\361\200\202\331\270"
  75      B709AD77 
  75      5A345B6B 
  75      C8F18082 
  75      D9B8
  76 0154 2689B369 		.ascii	"&\211\263i6\302{\336\242\006\334]\321\343\357\345\003"
  76      36C27BDE 
  76      A206DC5D 
  76      D1E3EFE5 
  76      03
  77 0165 D5A32EF4 		.ascii	"\325\243.\364\360,-\256\266\226\324\3644W\020M2\261"
  77      F02C2DAE 
  77      B696D4F4 
  77      3457104D 
  77      32B1
  78 0177 EF3EEC34 		.ascii	"\357>\3544\307\024%\352\275G\035=\340\301\3438\246\""
  78      C71425EA 
  78      BD471D3D 
  78      E0C1E338 
  78      A622
  79 0189 BB8295D8 		.ascii	"\273\202\225\330.\343\034v\255*\273L. \236x\220\314"
  79      2EE31C76 
  79      AD2ABB4C 
  79      2E209E78 
  79      90CC
  80 019b 2F534C0E 		.ascii	"/SL\016:+\273\330+\340\333\377U\220\022TQ\035\216\363"
  80      3A2BBBD8 
  80      2BE0DBFF 
  80      55901254 
  80      511D8EF3 
  81 01af F9CAF595 		.ascii	"\371\312\365\225=\265\324\334)]\307\236\225\266\336"
  81      3DB5D4DC 
  81      295DC79E 
ARM GAS  /tmp/ccWYFA6r.s 			page 6


  81      95B6DE
  82 01be AAE91657 		.ascii	"\252\351\026W\020k\265\204\353\355\237\261\353\326\011"
  82      106BB584 
  82      EBED9FB1 
  82      EBD609
  83 01cd AEBBA1EB 		.ascii	"\256\273\241\353\351\310\365\305\265\330u;\321&u\270"
  83      E9C8F5C5 
  83      B5D8753B 
  83      D12675B8 
  84 01dd 8078A2CF 		.ascii	"\200x\242\317G'\261\335\211\0143\224a\301Z\274M\335"
  84      4727B1DD 
  84      890C3394 
  84      61C15ABC 
  84      4DDD
  85 01ef 64DBD4E3 		.ascii	"d\333\324\343\012a\233\346\261\215\352\235`Y>\264\314"
  85      0A619BE6 
  85      B18DEA9D 
  85      60593EB4 
  85      CC
  86 0200 54EFF5F6 		.ascii	"T\357\365\366\256R+\234vq=\361\305\226\025\271@\"\313"
  86      AE522B9C 
  86      76713DF1 
  86      C59615B9 
  86      4022CB
  87 0213 30B4AC28 		.ascii	"0\264\254(&w\277o\253\306\372\022e\331\317\005\302\306"
  87      2677BF6F 
  87      ABC6FA12 
  87      65D9CF05 
  87      C2C6
  88 0225 844BE70F 		.ascii	"\204K\347\017\263?\0123\243\302\\\334\211\303\034H\026"
  88      B33F0A33 
  88      A3C25CDC 
  88      89C31C48 
  88      16
  89 0236 E6205788 		.ascii	"\346 W\210\372t\217\2459xB\232N\230f6L3\350\374H\362"
  89      FA748FA5 
  89      3978429A 
  89      4E986636 
  89      4C33E8FC 
  90 024c 76ABE082 		.ascii	"v\253\340\202\305_{GuF\224N\212\206\352\376z\244\243"
  90      C55F7B47 
  90      7546944E 
  90      8A86EAFE 
  90      7AA4A3
  91 025f 873A2CD6 		.ascii	"\207:,\326q\245J7\330\217\367\326P\242\275U\342\002"
  91      71A54A37 
  91      D88FF7D6 
  91      50A2BD55 
  91      E202
  92 0271 EA737CFE 		.ascii	"\352s|\376\235U\212\362\313\251\374:\373\361\327k8\331"
  92      9D558AF2 
  92      CBA9FC3A 
  92      FBF1D76B 
  92      38D9
  93 0283 D7ABCC15 		.ascii	"\327\253\314\025\376\361\365*\213\272y$<;\014\317\242"
  93      FEF1F52A 
  93      8BBA7924 
ARM GAS  /tmp/ccWYFA6r.s 			page 7


  93      3C3B0CCF 
  93      A2
  94 0294 F0BE4273 		.ascii	"\360\276Bs\253{I\016\217\207 \247h\305W*\225\252\374"
  94      AB7B490E 
  94      8F8720A7 
  94      68C5572A 
  94      95AAFC
  95 02a7 CDCC56EF 		.ascii	"\315\314V\357MLW\357\317<x8[\275Q\277>6*\361\352\310"
  95      4D4C57EF 
  95      CF3C7838 
  95      5BBD51BF 
  95      3E362AF1 
  96 02bd DC1C31B7 		.ascii	"\334\0341\267\247\247\357V&\341\017\324\327\337s"
  96      A7A7EF56 
  96      26E10FD4 
  96      D7DF73
  97              		.text
  98              		.section	.gnu.lto_.symbol_nodes.db30f1c3996dc74d,"",%progbits
  99 0000 789C6362 		.ascii	"x\234cb`bPg\200\002\246\273\214\365\014\014\023\316"
  99      60625067 
  99      8002A6BB 
  99      8CF50C0C 
  99      13CE
 100 0012 3130D4D7 		.ascii	"10\324\327\317\353`d\272\307X\317\210\340\262\336fd"
 100      CFEB6064 
 100      BAC758CF 
 100      88E0B2DE 
 100      6664
 101 0024 6005CA03 		.ascii	"`\005\312\003\000\361\225\013W"
 101      00F1950B 
 101      57
 102              		.text
 103              		.section	.gnu.lto_.refs.db30f1c3996dc74d,"",%progbits
 104 0000 789C6362 		.ascii	"x\234cb`b`d\200\002\000\000F\000\006"
 104      60626064 
 104      80020000 
 104      460006
 105              		.text
 106              		.section	.gnu.lto_.decls.db30f1c3996dc74d,"",%progbits
 107 0000 789C9D96 		.ascii	"x\234\235\226ml\024E\030\307g\356j{\227\036\205\220"
 107      6D6C1445 
 107      18C767EE 
 107      6A7B971E 
 107      8590
 108 0012 40D40FF6 		.ascii	"@\324\017\366@1\206\204\333\276D\343'\344n{}\211\024"
 108      40318684 
 108      DBBE44E3 
 108      27E46E7B 
 108      7D8914
 109 0025 9ABD22F8 		.ascii	"\232\275\"\370\305\313\366n\233^\350\3356\327m\322~"
 109      C5CBF66E 
 109      9B5EE8DD 
 109      36D76DD2 
 109      7E
 110 0036 1B8B10E3 		.ascii	"\033\213\020\343\007R\233J\210\012\\\005\253H\204\002"
 110      07529B4A 
 110      880A5C05 
ARM GAS  /tmp/ccWYFA6r.s 			page 8


 110      AB488402 
 111 0046 E24908E9 		.ascii	"\342I\010\351YR-!\324\226B\261/\342\305\370\222\306"
 111      59522D21 
 111      D49642B1 
 111      2FE2C5F8 
 111      92C6
 112 0058 1720C60F 		.ascii	"\027 \306\017\250\361|v\366\266\235=\356\256{L\356y"
 112      A8F17C76 
 112      F6B69D3D 
 112      EEAE7B4C 
 112      EE79
 113 006a 766E77E7 		.ascii	"vnw\3477\377yf\346\231\265 \013\232D\010\245\240<\275"
 113      37FF7966 
 113      E699B520 
 113      0B9A4408 
 113      A5A03CBD 
 114 007e 0AA1198C 		.ascii	"\012\241\031\214\220\025\376oE\313\305\0026\0106\004"
 114      9015FE6F 
 114      45CBC502 
 114      36083604 
 115 008e 068FD149 		.ascii	"\006\217\321Id,\3523\033X\011X\031\230\003\354\014\330"
 115      642CEA33 
 115      1B580958 
 115      199803EC 
 115      0CD8
 116 00a0 30D875B0 		.ascii	"0\330u\260\011\260[`E`\227\301.\201]\001\233f\3303\350"
 116      09B05B60 
 116      456097C1 
 116      2E815D01 
 116      9B66D833 
 117 00b5 E1A2F657 		.ascii	"\341\242\366W\234\346\262\274Y\260\273H\323y\001,\016"
 117      9CE6B2BC 
 117      59B0BB48 
 117      D379012C 
 117      0E
 118 00c6 7627AD6D 		.ascii	"v'\255m(\013\247\034\035%\261dr\377\361\263O\220Xo\""
 118      280BA71C 
 118      1D25B164 
 118      72FFF1B3 
 118      4F90586F 
 119 00db 957A09AD 		.ascii	"\225z\011\255G\357\020(\261\003\204`E\304[\327\241="
 119      47EF1028 
 119      B1038460 
 119      45C45BD7 
 119      A13D
 120 00ed 58C46576 		.ascii	"X\304ev\344\244\025\207\235\212EH\304\037\340\365\351"
 120      E4A41587 
 120      9D8A4548 
 120      C41FE0F5 
 120      E9
 121 00fe DA2EAB1E 		.ascii	"\332.\253\036\216j\2146\243\223\320\276\217\220\336"
 121      8E6A8C36 
 121      A393D0BE 
 121      8F90DE
 122 010d 8D384B97 		.ascii	"\2158K\227\010=\213>T{ \037\023+\345\253\204A\\\316"
 122      083D8B3E 
 122      547B201F 
ARM GAS  /tmp/ccWYFA6r.s 			page 9


 122      132BE5AB 
 122      84415CCE 
 123 0121 BE22E2E3 		.ascii	"\276\"\342\343\330\362\260\320\304\271k\216\276\327"
 123      D8F2B0D0 
 123      C4B96B8E 
 123      BED7
 124 012f 93A954B9 		.ascii	"\223\251T\271\326\273\005\325ax\367\004\336\234\027"
 124      D6BB05D5 
 124      6178F704 
 124      DE9C17
 125 013e 3E9409FF 		.ascii	">\224\011\377\310\010\337\210\006Il4qlq\034\223~B\356"
 125      C808DF88 
 125      06496C34 
 125      716C711C 
 125      937E42EE 
 126 0152 A552ABED 		.ascii	"\245R\253\355\350M\030\200\032\205\372q\230\270l!\330"
 126      E84D1880 
 126      1A85FA71 
 126      98B86C21 
 126      D8
 127 0163 844EC030 		.ascii	"\204N\3000\223\367\017\334\274\217{!X\"\376\004\333"
 127      93F70FDC 
 127      BC8F7B21 
 127      5822FE04 
 127      DB
 128 0174 41521C1B 		.ascii	"AR\034\0335\211\270\304n\354\036\376\353/\250<\3728"
 128      3589B8C4 
 128      6EEC1EFE 
 128      EB2FA83C 
 128      FA38
 129 0186 5D5117DB 		.ascii	"]Q\027\333j5\220\211%J\256\360\177\012\203x\012M\342"
 129      6A359089 
 129      254AAEF0 
 129      7F0A8378 
 129      0A4DE2
 130 0199 23C446EF 		.ascii	"#\304F\357\354I+ \277}Q\212\020\035\300\276\274\003"
 130      EC492B20 
 130      BF7D518A 
 130      101DC0BE 
 130      BC03
 131 01ab 10F129BC 		.ascii	"\020\361)\274\311\224\234\265\350m5\246N\206D\254:\252"
 131      C9949CB5 
 131      E86D35A6 
 131      4E8644AC 
 131      3AAA
 132 01bd 62391647 		.ascii	"b9\026G\276\371\343\005Bl\"\036\306ka\014\307,\306H"
 132      BEF9E305 
 132      426C221E 
 132      C66B610C 
 132      C72CC648 
 133 01d1 AC885135 		.ascii	"\254\210Q5\235\207\246Z#\012%\211\177\346\034\244H\273"
 133      9D87A65A 
 133      230A2589 
 133      7FE61CA4 
 133      48BB
 134 01e3 8F32269B 		.ascii	"\2172&\233)\033P\214\274\261/\221\232\033\200\225<\012"
 134      291B508C 
ARM GAS  /tmp/ccWYFA6r.s 			page 10


 134      BCB12F91 
 134      9A1B8095 
 134      3C0A
 135 01f5 C8337432 		.ascii	"\3103t2NQ\011j\333l\021HW\321R\374\312\354\031\274\276"
 135      4E51096A 
 135      DB6C1148 
 135      57D152FC 
 135      CAEC19BC 
 136 020a 79479FA8 		.ascii	"yG\237\250\303N\027\014s\032`\375,\354\274\031\230-"
 136      C34E170C 
 136      731A60FD 
 136      2CECBC19 
 136      982D
 137 021c B7B20116 		.ascii	"\267\262\001\026\026/\030fTv\210\205%\314\300\326\344"
 137      162F1866 
 137      54768885 
 137      25CCC0D6 
 137      E4
 138 022d 56769885 		.ascii	"Vv\230\205]-\030fT\366.\013\2334\003{<\267\262\367Y"
 138      5D2D1866 
 138      54F62E0B 
 138      9B34037B 
 138      3CB7B2F7 
 139 0242 D8B705C3 		.ascii	"\330\267\005\303\214\312\216\262\260\244\031\2303\267"
 139      8CCA8EB2 
 139      B0A41998 
 139      33B7
 140 0250 B26116F6 		.ascii	"\262a\026\366S\3010F\031\351M\304\337;\230\336\004Z"
 140      53C13046 
 140      19E94DC4 
 140      DF3B98DE 
 140      045A
 141 0262 465A34C3 		.ascii	"FZ4\303{.\267\270\213\363\306M\365g\301<'\312Y\330\035"
 141      7B2EB7B8 
 141      8BF3C64D 
 141      F567C13C 
 141      27CA59D8 
 142 0277 2FE2CF68 		.ascii	"/\342\317hF\272\2007\200\217S\177\221\372K\324_\246"
 142      46BA8037 
 142      808F537F 
 142      91FA4BD4 
 142      5FA6
 143 0289 7E84FA2F 		.ascii	"~\204\372/\251\277B\375\030\365_S\177\225\372k\340\227"
 143      A9BF42FD 
 143      18F55F53 
 143      7F95FA6B 
 143      E097
 144 029b 4A297A6B 		.ascii	"J)zk9\231k\311)WR\275\216K\365V\351l\025\333\306\244"
 144      39996BC9 
 144      295752BD 
 144      8E4BF556 
 144      E96C15DB 
 145 02b1 AB6DEC5E 		.ascii	"\253m\354^\322\222^\342\3739\354\024\361\004\315x\017"
 145      D2925EE2 
 145      FB39EC14 
 145      F104CD78 
 145      0F
ARM GAS  /tmp/ccWYFA6r.s 			page 11


 146 02c2 B267BCDC 		.ascii	"\262g\274\334\014\265\317\251\314\214w[\313xS\2462\336"
 146      0CB5CFA9 
 146      CC8C775B 
 146      CB7853A6 
 146      32DE
 147 02d4 BC21E389 		.ascii	"\274!\343\211\370s8\026\264\266\217\226\361\026\346"
 147      F8733816 
 147      B4B68F96 
 147      F116E6
 148 02e3 9656A288 		.ascii	"\226V\242\210\307\013\206\345\235\351)f\246o\320\231"
 148      C70B86E5 
 148      9DE92966 
 148      A66FD099 
 149 02f3 9EA6B375 		.ascii	"\236\246\263u3\317lM\344\231\255[\313\263\245~ $\356"
 149      33CF6C4D 
 149      E499AD5B 
 149      CBB3A57E 
 149      2024EE
 150 0306 25C7E60F 		.ascii	"%\307\346\017\246\277dF\010F\372W\302~\253\231\317\204"
 150      A6BF6446 
 150      0846FA57 
 150      C27EAB99 
 150      CF84
 151 0318 99CCCF84 		.ascii	"\231\314\317\204\333\306\317\204,\307W\314\242Kz\006"
 151      DBC6CF84 
 151      2CC757CC 
 151      A24B7A06 
 152 0328 31A7E057 		.ascii	"1\247\340W\317\323Sp\226\256\211\230u\305S\320\210Q"
 152      CFD35370 
 152      96AE8998 
 152      75C553D0 
 152      8851
 153 033a BB5EC85C 		.ascii	"\273^\310\\\023\177M\3235\261`jM<\2306n\330\323T\302"
 153      137F4DD3 
 153      35B1606A 
 153      4D3C9836 
 153      6ED8D354 
 154 034f C223AF89 		.ascii	"\302#\257\211\277\247\231\354t\256`\230\323\000\373"
 154      BFA799EC 
 154      74AE6098 
 154      D300FB
 155 035e 9785C5CD 		.ascii	"\227\205\305\315\300\362\234\202\377\261\260\221\202"
 155      C0F29C82 
 155      FFB1B091 
 155      82
 156 036b 6146657D 		.ascii	"aFe}3\314\322\327\366\321\012\260<\247`\377\014\243"
 156      33CCD2D7 
 156      F6D10AB0 
 156      3CA760FF 
 156      0CA3
 157 037d 6CD48CB2 		.ascii	"l\324\214\262<\247\340\000\013\0333\003\313s\012\036"
 157      3CA7E000 
 157      0B1B3303 
 157      CB730A1E 
 158 038d 62611305 		.ascii	"ba\023\005\303\214\312\016\263\260\033f`\316,\312\262"
 158      C38CCA0E 
 158      B3B01B66 
ARM GAS  /tmp/ccWYFA6r.s 			page 12


 158      60CE2CCA 
 158      B2
 159 039e 15761388 		.ascii	"\025v\023\210\370;\232.\356\320t\221\244\376\007\352"
 159      F83B9A2E 
 159      EED07491 
 159      A4FE07EA 
 160 03ae 7FA4FE67 		.ascii	"\177\244\376g\352\177\241~\221\372_\251\377=Ob\231\315"
 160      EA7FA17E 
 160      91FA5FA9 
 160      FF3D4F62 
 160      99CD
 161 03c0 9358EE2E 		.ascii	"\223X\356.'\026T\341rq\332O\356\344\332\304v\256C\216"
 161      271654E1 
 161      7271DA4F 
 161      EEE4DAC4 
 161      76AE438E 
 162 03d4 2A9D9CAF 		.ascii	"*\235\234\257\271\261\272J\363\265\225\335\335\352\023"
 162      B9B1BA4A 
 162      F3B595DD 
 162      DDEA13
 163 03e3 7F7B7BD0 		.ascii	"\177{{\320\025@\216t\325\037\212\204\224\342\272\035"
 163      15408E74 
 163      D51F8A84 
 163      94E2BA1D 
 164 03f3 BB9C3C5A 		.ascii	"\273\234<Z\323\251\204\253\253\374\201v9\260\227\336"
 164      D3A984AB 
 164      ABFC8176 
 164      39B097DE 
 165 0403 7F8D6B93 		.ascii	"\177\215k\223\303\022'+\212\3145J\021E\216\326E\305"
 165      C312272B 
 165      8ACC354A 
 165      11458ED6 
 165      45C5
 166 0415 8EB65000 		.ascii	"\216\266P\000\310rW4 E{\374\274\034\224<R$\320\346\337"
 166      C8725734 
 166      20457BFC 
 166      BC1C943C 
 166      5224D0E6 
 167 042a 1E52247F 		.ascii	"\036R$\177\253\034\365\273\205F\277\327\355i\340\304"
 167      AB1CF5BB 
 167      8546BFD7 
 167      ED69E0C4 
 168 043a 68784B44 		.ascii	"hxKD\216H[$\261%\304\205\"\201\366\256\240\304u*\301"
 168      8E485B24 
 168      B125C485 
 168      2281F6AE 
 168      A0C4752A 
 169 044f 504471B5 		.ascii	"PDq\265![\027\\\241Ce\265\257\247S\221\302\274\034\225"
 169      215B175C 
 169      A14365B5 
 169      AFA75391 
 169      C2BC1C95 
 170 0463 78B5F375 		.ascii	"x\265\363u\256\240\250\210\256\214\273/\262c\014\310"
 170      AEA0A888 
 170      AE8CBB2F 
 170      B2630CC8 
 171 0473 E1B01CE1 		.ascii	"\341\260\034\341\244n\205\343\033}\015>\030$3N:\220"
ARM GAS  /tmp/ccWYFA6r.s 			page 13


 171      A46E85E3 
 171      1B7D0D3E 
 171      1824334E 
 171      3A90
 172 0485 D6CA8A8A 		.ascii	"\326\312\212\212\356\026\350\247T\340y\177sO\207T#\265"
 172      EE16E8A7 
 172      54E0797F 
 172      734F8754 
 172      23B5
 173 0497 5A78A188 		.ascii	"Zx\241\210\257\255\023\254|\203`s7y\252\004_3\255T\252"
 173      AFAD13AC 
 173      7C836073 
 173      3779AA04 
 173      5F33AD54 
 174 04ac 956277BD 		.ascii	"\225bw\275\307\273C(Q\037\244\257\225p-\362\324\360"
 174      C7BB4328 
 174      511FA4AF 
 174      95702DF2 
 174      D4F0
 175 04be D0C227D8 		.ascii	"\320\302'\330\005\257\317+\274\342\255\251xL\205T\225"
 175      05AFCF2B 
 175      BCE2ADA9 
 175      784C8554 
 175      95
 176 04cf 36ED1674 		.ascii	"6\355\026t\362\223zD[\304\300\336\256\016\177P\016\213"
 176      F2937A44 
 176      5BC4C0DE 
 176      AE0E7F50 
 176      0E8B
 177 04e1 A1088DE3 		.ascii	"\241\010\215\343\252\332\355n_\275\376\242\325\015\032"
 177      AADAED6E 
 177      5FBDFEA2 
 177      D50D1A
 178 04f0 5EF6BE2A 		.ascii	"^\366\276*\224\354ljV\257\026\237`q\0136\235m\335\351"
 178      94EC6C6A 
 178      56AF169F 
 178      60710B36 
 178      9D6DDDE9 
 179 0504 118A760B 		.ascii	"\021\212v\013M\302\377\013\262\374\315"
 179      4DC2FF0B 
 179      B2FCCD
 180              		.text
 181              		.section	.gnu.lto_.symtab.db30f1c3996dc74d,"",%progbits
 182 0000 68616C5F 		.ascii	"hal_lld_init\000\000\000\000\000\000\000\000\000\000"
 182      6C6C645F 
 182      696E6974 
 182      00000000 
 182      00000000 
 183 0016 0000A100 		.ascii	"\000\000\241\000\000\000stm32_clock_init\000\000\000"
 183      00007374 
 183      6D33325F 
 183      636C6F63 
 183      6B5F696E 
 184 002f 00000000 		.ascii	"\000\000\000\000\000\000\000\000\000\246\000\000\000"
 184      00000000 
 184      00A60000 
 184      00
ARM GAS  /tmp/ccWYFA6r.s 			page 14


 185 003c 53797374 		.ascii	"SystemCoreClock\000\000\000\000\000\000\000\000\000"
 185      656D436F 
 185      7265436C 
 185      6F636B00 
 185      00000000 
 186 0054 000000A9 		.ascii	"\000\000\000\251\000\000\000"
 186      000000
 187              		.text
 188              		.section	.gnu.lto_.opts,"",%progbits
 189 0000 272D6D63 		.ascii	"'-mcpu=cortex-m3' '-mno-thumb-interwork' '-mthumb' "
 189      70753D63 
 189      6F727465 
 189      782D6D33 
 189      2720272D 
 190 0033 272D6767 		.ascii	"'-ggdb' '-O2' '-fomit-frame-pointer' '-falign-funct"
 190      64622720 
 190      272D4F32 
 190      2720272D 
 190      666F6D69 
 191 0066 696F6E73 		.ascii	"ions=16' '-ffunction-sections' '-fdata-sections' '-"
 191      3D313627 
 191      20272D66 
 191      66756E63 
 191      74696F6E 
 192 0099 666E6F2D 		.ascii	"fno-common' '-flto'\000"
 192      636F6D6D 
 192      6F6E2720 
 192      272D666C 
 192      746F2700 
 193              		.text
 194              		.cfi_sections	.debug_frame
 195              		.section	.text.hal_lld_init,"ax",%progbits
 196              		.align	2
 197              		.p2align 4,,15
 198              		.global	hal_lld_init
 199              		.thumb
 200              		.thumb_func
 201              		.type	hal_lld_init, %function
 202              	hal_lld_init:
 203              	.LFB220:
 204              		.file 1 "../../../os/hal/ports/STM32/STM32F1xx/hal_lld.c"
 205              		.loc 1 132 0
 206              		.cfi_startproc
 207              		@ args = 0, pretend = 0, frame = 0
 208              		@ frame_needed = 0, uses_anonymous_args = 0
 209              		@ link register save eliminated.
 210              		.loc 1 135 0
 211 0000 4FF48053 		mov	r3, #4096
 212 0004 C4F20203 		movt	r3, 16386
 213 0008 4FF0FF31 		mov	r1, #-1
 214 000c 0022     		movs	r2, #0
 215 000e 1869     		ldr	r0, [r3, #16]
 216 0010 1961     		str	r1, [r3, #16]
 217 0012 1A61     		str	r2, [r3, #16]
 218              		.loc 1 136 0
 219 0014 D868     		ldr	r0, [r3, #12]
 220 0016 D960     		str	r1, [r3, #12]
ARM GAS  /tmp/ccWYFA6r.s 			page 15


 221 0018 DA60     		str	r2, [r3, #12]
 222              		.loc 1 139 0
 223 001a D969     		ldr	r1, [r3, #28]
 224              	.LBB4:
 225              	.LBB5:
 226              		.loc 1 57 0
 227 001c 4FF4E042 		mov	r2, #28672
 228              	.LBE5:
 229              	.LBE4:
 230              		.loc 1 139 0
 231 0020 41F08051 		orr	r1, r1, #268435456
 232 0024 D961     		str	r1, [r3, #28]
 233              		.loc 1 140 0
 234 0026 D969     		ldr	r1, [r3, #28]
 235              	.LBB8:
 236              	.LBB6:
 237              		.loc 1 57 0
 238 0028 C4F20002 		movt	r2, 16384
 239              	.LBE6:
 240              	.LBE8:
 241              		.loc 1 140 0
 242 002c 41F00061 		orr	r1, r1, #134217728
 243 0030 D961     		str	r1, [r3, #28]
 244              	.LBB9:
 245              	.LBB7:
 246              		.loc 1 57 0
 247 0032 1368     		ldr	r3, [r2]
 248 0034 43F48073 		orr	r3, r3, #256
 249 0038 1360     		str	r3, [r2]
 250 003a 7047     		bx	lr
 251              	.LBE7:
 252              	.LBE9:
 253              		.cfi_endproc
 254              	.LFE220:
 255              		.size	hal_lld_init, .-hal_lld_init
 256 003c AFF30080 		.section	.text.stm32_clock_init,"ax",%progbits
 257              		.align	2
 258              		.p2align 4,,15
 259              		.global	stm32_clock_init
 260              		.thumb
 261              		.thumb_func
 262              		.type	stm32_clock_init, %function
 263              	stm32_clock_init:
 264              	.LFB221:
 265              		.loc 1 169 0
 266              		.cfi_startproc
 267              		@ args = 0, pretend = 0, frame = 0
 268              		@ frame_needed = 0, uses_anonymous_args = 0
 269              		@ link register save eliminated.
 270              		.loc 1 174 0
 271 0000 4FF48053 		mov	r3, #4096
 272 0004 C4F20203 		movt	r3, 16386
 273 0008 1A68     		ldr	r2, [r3]
 274              		.loc 1 175 0
 275 000a 1946     		mov	r1, r3
 276              		.loc 1 174 0
 277 000c 42F00102 		orr	r2, r2, #1
ARM GAS  /tmp/ccWYFA6r.s 			page 16


 278 0010 1A60     		str	r2, [r3]
 279              	.L4:
 280              		.loc 1 175 0 discriminator 1
 281 0012 0A68     		ldr	r2, [r1]
 282 0014 4FF48053 		mov	r3, #4096
 283 0018 9207     		lsls	r2, r2, #30
 284 001a C4F20203 		movt	r3, 16386
 285 001e F8D5     		bpl	.L4
 286              		.loc 1 177 0
 287 0020 1968     		ldr	r1, [r3]
 288              		.loc 1 178 0
 289 0022 0022     		movs	r2, #0
 290              		.loc 1 177 0
 291 0024 01F0F901 		and	r1, r1, #249
 292 0028 1960     		str	r1, [r3]
 293              		.loc 1 179 0
 294 002a 1946     		mov	r1, r3
 295              		.loc 1 178 0
 296 002c 5A60     		str	r2, [r3, #4]
 297              	.L6:
 298              		.loc 1 179 0 discriminator 1
 299 002e 4A68     		ldr	r2, [r1, #4]
 300 0030 4FF48053 		mov	r3, #4096
 301 0034 12F00C0F 		tst	r2, #12
 302 0038 C4F20203 		movt	r3, 16386
 303 003c F7D1     		bne	.L6
 304              		.loc 1 188 0
 305 003e 1A68     		ldr	r2, [r3]
 306              		.loc 1 189 0
 307 0040 1946     		mov	r1, r3
 308              		.loc 1 188 0
 309 0042 42F48032 		orr	r2, r2, #65536
 310 0046 1A60     		str	r2, [r3]
 311              	.L8:
 312              		.loc 1 189 0 discriminator 1
 313 0048 0A68     		ldr	r2, [r1]
 314 004a 4FF48053 		mov	r3, #4096
 315 004e 9003     		lsls	r0, r2, #14
 316 0050 C4F20203 		movt	r3, 16386
 317 0054 F8D5     		bpl	.L8
 318              		.loc 1 202 0
 319 0056 5A68     		ldr	r2, [r3, #4]
 320              		.loc 1 204 0
 321 0058 1946     		mov	r1, r3
 322              		.loc 1 202 0
 323 005a 42F48032 		orr	r2, r2, #65536
 324 005e 5A60     		str	r2, [r3, #4]
 325              		.loc 1 203 0
 326 0060 1A68     		ldr	r2, [r3]
 327 0062 42F08072 		orr	r2, r2, #16777216
 328 0066 1A60     		str	r2, [r3]
 329              	.L10:
 330              		.loc 1 204 0 discriminator 1
 331 0068 0A68     		ldr	r2, [r1]
 332 006a 4FF48053 		mov	r3, #4096
 333 006e 9201     		lsls	r2, r2, #6
 334 0070 C4F20203 		movt	r3, 16386
ARM GAS  /tmp/ccWYFA6r.s 			page 17


 335 0074 F8D5     		bpl	.L10
 336              		.loc 1 220 0
 337 0076 4FF40052 		mov	r2, #8192
 338 007a C4F20202 		movt	r2, 16386
 339 007e 1021     		movs	r1, #16
 340              		.loc 1 214 0
 341 0080 4FF48030 		mov	r0, #65536
 342 0084 5860     		str	r0, [r3, #4]
 343              		.loc 1 220 0
 344 0086 1160     		str	r1, [r2]
 345              		.loc 1 225 0
 346 0088 5968     		ldr	r1, [r3, #4]
 347              		.loc 1 226 0
 348 008a 1A46     		mov	r2, r3
 349              		.loc 1 225 0
 350 008c 41F00201 		orr	r1, r1, #2
 351 0090 5960     		str	r1, [r3, #4]
 352              	.L12:
 353              		.loc 1 226 0 discriminator 1
 354 0092 5368     		ldr	r3, [r2, #4]
 355 0094 03F00C03 		and	r3, r3, #12
 356 0098 082B     		cmp	r3, #8
 357 009a FAD1     		bne	.L12
 358              		.loc 1 234 0
 359 009c 7047     		bx	lr
 360              		.cfi_endproc
 361              	.LFE221:
 362              		.size	stm32_clock_init, .-stm32_clock_init
 363              		.global	SystemCoreClock
 364 009e 00BF     		.section	.data.SystemCoreClock,"aw",%progbits
 365              		.align	2
 366              		.type	SystemCoreClock, %object
 367              		.size	SystemCoreClock, 4
 368              	SystemCoreClock:
 369 0000 00366E01 		.word	24000000
 370              		.text
 371              	.Letext0:
 372              		.file 2 "/home/otto/MentorGraphics/Sourcery_CodeBench_Lite_for_ARM_EABI/arm-none-eabi/include/stdi
 373              		.file 3 "../../../os/common/ports/ARMCMx/compilers/GCC/chtypes.h"
 374              		.file 4 "../../../os/rt/include/chsystypes.h"
 375              		.file 5 "../../../os/rt/include/chschd.h"
 376              		.file 6 "../../../os/common/ext/CMSIS/ST/STM32F1xx/stm32f100xb.h"
 377              		.file 7 "../../../os/common/ports/ARMCMx/chcore.h"
 378              		.file 8 "../../../os/common/ports/ARMCMx/chcore_v7m.h"
 379              		.file 9 "../../../os/rt/include/chsem.h"
 380              		.file 10 "../../../os/rt/include/chmtx.h"
 381              		.file 11 "../../../os/common/ext/CMSIS/include/core_cm3.h"
 382              		.section	.debug_info,"",%progbits
 383              	.Ldebug_info0:
 384 0000 79070000 		.4byte	0x779
 385 0004 0400     		.2byte	0x4
 386 0006 00000000 		.4byte	.Ldebug_abbrev0
 387 000a 04       		.byte	0x4
 388 000b 01       		.uleb128 0x1
 389 000c 4E020000 		.4byte	.LASF102
 390 0010 01       		.byte	0x1
 391 0011 26050000 		.4byte	.LASF103
ARM GAS  /tmp/ccWYFA6r.s 			page 18


 392 0015 38000000 		.4byte	.LASF104
 393 0019 20000000 		.4byte	.Ldebug_ranges0+0x20
 394 001d 00000000 		.4byte	0
 395 0021 00000000 		.4byte	.Ldebug_line0
 396 0025 02       		.uleb128 0x2
 397 0026 04       		.byte	0x4
 398 0027 05       		.byte	0x5
 399 0028 696E7400 		.ascii	"int\000"
 400 002c 03       		.uleb128 0x3
 401 002d 04       		.byte	0x4
 402 002e 07       		.byte	0x7
 403 002f CA000000 		.4byte	.LASF0
 404 0033 03       		.uleb128 0x3
 405 0034 01       		.byte	0x1
 406 0035 06       		.byte	0x6
 407 0036 C8040000 		.4byte	.LASF1
 408 003a 04       		.uleb128 0x4
 409 003b 2E030000 		.4byte	.LASF4
 410 003f 02       		.byte	0x2
 411 0040 2A       		.byte	0x2a
 412 0041 45000000 		.4byte	0x45
 413 0045 03       		.uleb128 0x3
 414 0046 01       		.byte	0x1
 415 0047 08       		.byte	0x8
 416 0048 84040000 		.4byte	.LASF2
 417 004c 03       		.uleb128 0x3
 418 004d 02       		.byte	0x2
 419 004e 05       		.byte	0x5
 420 004f C0030000 		.4byte	.LASF3
 421 0053 04       		.uleb128 0x4
 422 0054 AD030000 		.4byte	.LASF5
 423 0058 02       		.byte	0x2
 424 0059 36       		.byte	0x36
 425 005a 5E000000 		.4byte	0x5e
 426 005e 03       		.uleb128 0x3
 427 005f 02       		.byte	0x2
 428 0060 07       		.byte	0x7
 429 0061 DA040000 		.4byte	.LASF6
 430 0065 04       		.uleb128 0x4
 431 0066 67040000 		.4byte	.LASF7
 432 006a 02       		.byte	0x2
 433 006b 4F       		.byte	0x4f
 434 006c 70000000 		.4byte	0x70
 435 0070 03       		.uleb128 0x3
 436 0071 04       		.byte	0x4
 437 0072 05       		.byte	0x5
 438 0073 D6030000 		.4byte	.LASF8
 439 0077 04       		.uleb128 0x4
 440 0078 74010000 		.4byte	.LASF9
 441 007c 02       		.byte	0x2
 442 007d 50       		.byte	0x50
 443 007e 82000000 		.4byte	0x82
 444 0082 03       		.uleb128 0x3
 445 0083 04       		.byte	0x4
 446 0084 07       		.byte	0x7
 447 0085 35040000 		.4byte	.LASF10
 448 0089 03       		.uleb128 0x3
ARM GAS  /tmp/ccWYFA6r.s 			page 19


 449 008a 08       		.byte	0x8
 450 008b 05       		.byte	0x5
 451 008c 58030000 		.4byte	.LASF11
 452 0090 04       		.uleb128 0x4
 453 0091 0B040000 		.4byte	.LASF12
 454 0095 02       		.byte	0x2
 455 0096 78       		.byte	0x78
 456 0097 9B000000 		.4byte	0x9b
 457 009b 03       		.uleb128 0x3
 458 009c 08       		.byte	0x8
 459 009d 07       		.byte	0x7
 460 009e B7010000 		.4byte	.LASF13
 461 00a2 04       		.uleb128 0x4
 462 00a3 9A030000 		.4byte	.LASF14
 463 00a7 03       		.byte	0x3
 464 00a8 3C       		.byte	0x3c
 465 00a9 3A000000 		.4byte	0x3a
 466 00ad 04       		.uleb128 0x4
 467 00ae 1E030000 		.4byte	.LASF15
 468 00b2 03       		.byte	0x3
 469 00b3 3D       		.byte	0x3d
 470 00b4 3A000000 		.4byte	0x3a
 471 00b8 04       		.uleb128 0x4
 472 00b9 2D040000 		.4byte	.LASF16
 473 00bd 03       		.byte	0x3
 474 00be 3E       		.byte	0x3e
 475 00bf 3A000000 		.4byte	0x3a
 476 00c3 04       		.uleb128 0x4
 477 00c4 9E010000 		.4byte	.LASF17
 478 00c8 03       		.byte	0x3
 479 00c9 40       		.byte	0x40
 480 00ca 77000000 		.4byte	0x77
 481 00ce 04       		.uleb128 0x4
 482 00cf 66030000 		.4byte	.LASF18
 483 00d3 03       		.byte	0x3
 484 00d4 41       		.byte	0x41
 485 00d5 65000000 		.4byte	0x65
 486 00d9 04       		.uleb128 0x4
 487 00da 85010000 		.4byte	.LASF19
 488 00de 03       		.byte	0x3
 489 00df 43       		.byte	0x43
 490 00e0 77000000 		.4byte	0x77
 491 00e4 04       		.uleb128 0x4
 492 00e5 D6010000 		.4byte	.LASF20
 493 00e9 03       		.byte	0x3
 494 00ea 45       		.byte	0x45
 495 00eb 65000000 		.4byte	0x65
 496 00ef 04       		.uleb128 0x4
 497 00f0 AE000000 		.4byte	.LASF21
 498 00f4 04       		.byte	0x4
 499 00f5 35       		.byte	0x35
 500 00f6 53000000 		.4byte	0x53
 501 00fa 04       		.uleb128 0x4
 502 00fb 16020000 		.4byte	.LASF22
 503 00ff 04       		.byte	0x4
 504 0100 3F       		.byte	0x3f
 505 0101 05010000 		.4byte	0x105
ARM GAS  /tmp/ccWYFA6r.s 			page 20


 506 0105 05       		.uleb128 0x5
 507 0106 3F030000 		.4byte	.LASF40
 508 010a 44       		.byte	0x44
 509 010b 05       		.byte	0x5
 510 010c 9A       		.byte	0x9a
 511 010d E3010000 		.4byte	0x1e3
 512 0111 06       		.uleb128 0x6
 513 0112 61040000 		.4byte	.LASF23
 514 0116 05       		.byte	0x5
 515 0117 9B       		.byte	0x9b
 516 0118 18020000 		.4byte	0x218
 517 011c 00       		.byte	0
 518 011d 06       		.uleb128 0x6
 519 011e FA020000 		.4byte	.LASF24
 520 0122 05       		.byte	0x5
 521 0123 9C       		.byte	0x9c
 522 0124 C3000000 		.4byte	0xc3
 523 0128 08       		.byte	0x8
 524 0129 07       		.uleb128 0x7
 525 012a 63747800 		.ascii	"ctx\000"
 526 012e 05       		.byte	0x5
 527 012f 9D       		.byte	0x9d
 528 0130 71050000 		.4byte	0x571
 529 0134 0C       		.byte	0xc
 530 0135 06       		.uleb128 0x6
 531 0136 7E040000 		.4byte	.LASF25
 532 013a 05       		.byte	0x5
 533 013b 9F       		.byte	0x9f
 534 013c EE010000 		.4byte	0x1ee
 535 0140 10       		.byte	0x10
 536 0141 06       		.uleb128 0x6
 537 0142 00050000 		.4byte	.LASF26
 538 0146 05       		.byte	0x5
 539 0147 A0       		.byte	0xa0
 540 0148 EE010000 		.4byte	0x1ee
 541 014c 14       		.byte	0x14
 542 014d 06       		.uleb128 0x6
 543 014e 1F040000 		.4byte	.LASF27
 544 0152 05       		.byte	0x5
 545 0153 A7       		.byte	0xa7
 546 0154 D6060000 		.4byte	0x6d6
 547 0158 18       		.byte	0x18
 548 0159 06       		.uleb128 0x6
 549 015a 17030000 		.4byte	.LASF28
 550 015e 05       		.byte	0x5
 551 015f B0       		.byte	0xb0
 552 0160 E8060000 		.4byte	0x6e8
 553 0164 1C       		.byte	0x1c
 554 0165 06       		.uleb128 0x6
 555 0166 B0040000 		.4byte	.LASF29
 556 016a 05       		.byte	0x5
 557 016b B5       		.byte	0xb5
 558 016c AD000000 		.4byte	0xad
 559 0170 20       		.byte	0x20
 560 0171 06       		.uleb128 0x6
 561 0172 A8000000 		.4byte	.LASF30
 562 0176 05       		.byte	0x5
ARM GAS  /tmp/ccWYFA6r.s 			page 21


 563 0177 B9       		.byte	0xb9
 564 0178 A2000000 		.4byte	0xa2
 565 017c 21       		.byte	0x21
 566 017d 06       		.uleb128 0x6
 567 017e F0000000 		.4byte	.LASF31
 568 0182 05       		.byte	0x5
 569 0183 BE       		.byte	0xbe
 570 0184 B8000000 		.4byte	0xb8
 571 0188 22       		.byte	0x22
 572 0189 08       		.uleb128 0x8
 573 018a 7500     		.ascii	"u\000"
 574 018c 05       		.byte	0x5
 575 018d 0F01     		.2byte	0x10f
 576 018f 0B060000 		.4byte	0x60b
 577 0193 24       		.byte	0x24
 578 0194 09       		.uleb128 0x9
 579 0195 92040000 		.4byte	.LASF32
 580 0199 05       		.byte	0x5
 581 019a 1401     		.2byte	0x114
 582 019c F4010000 		.4byte	0x1f4
 583 01a0 28       		.byte	0x28
 584 01a1 09       		.uleb128 0x9
 585 01a2 36030000 		.4byte	.LASF33
 586 01a6 05       		.byte	0x5
 587 01a7 1A01     		.2byte	0x11a
 588 01a9 18020000 		.4byte	0x218
 589 01ad 2C       		.byte	0x2c
 590 01ae 09       		.uleb128 0x9
 591 01af C1000000 		.4byte	.LASF34
 592 01b3 05       		.byte	0x5
 593 01b4 2001     		.2byte	0x120
 594 01b6 D9000000 		.4byte	0xd9
 595 01ba 34       		.byte	0x34
 596 01bb 09       		.uleb128 0x9
 597 01bc F7010000 		.4byte	.LASF35
 598 01c0 05       		.byte	0x5
 599 01c1 2701     		.2byte	0x127
 600 01c3 D0060000 		.4byte	0x6d0
 601 01c7 38       		.byte	0x38
 602 01c8 09       		.uleb128 0x9
 603 01c9 B8000000 		.4byte	.LASF36
 604 01cd 05       		.byte	0x5
 605 01ce 2B01     		.2byte	0x12b
 606 01d0 C3000000 		.4byte	0xc3
 607 01d4 3C       		.byte	0x3c
 608 01d5 09       		.uleb128 0x9
 609 01d6 20050000 		.4byte	.LASF37
 610 01da 05       		.byte	0x5
 611 01db 3201     		.2byte	0x132
 612 01dd CB020000 		.4byte	0x2cb
 613 01e1 40       		.byte	0x40
 614 01e2 00       		.byte	0
 615 01e3 04       		.uleb128 0x4
 616 01e4 04030000 		.4byte	.LASF38
 617 01e8 04       		.byte	0x4
 618 01e9 44       		.byte	0x44
 619 01ea EE010000 		.4byte	0x1ee
ARM GAS  /tmp/ccWYFA6r.s 			page 22


 620 01ee 0A       		.uleb128 0xa
 621 01ef 04       		.byte	0x4
 622 01f0 FA000000 		.4byte	0xfa
 623 01f4 04       		.uleb128 0x4
 624 01f5 DC000000 		.4byte	.LASF39
 625 01f9 04       		.byte	0x4
 626 01fa 49       		.byte	0x49
 627 01fb FF010000 		.4byte	0x1ff
 628 01ff 05       		.uleb128 0x5
 629 0200 00000000 		.4byte	.LASF41
 630 0204 04       		.byte	0x4
 631 0205 05       		.byte	0x5
 632 0206 88       		.byte	0x88
 633 0207 18020000 		.4byte	0x218
 634 020b 06       		.uleb128 0x6
 635 020c D7000000 		.4byte	.LASF42
 636 0210 05       		.byte	0x5
 637 0211 89       		.byte	0x89
 638 0212 EE010000 		.4byte	0x1ee
 639 0216 00       		.byte	0
 640 0217 00       		.byte	0
 641 0218 04       		.uleb128 0x4
 642 0219 E7010000 		.4byte	.LASF43
 643 021d 04       		.byte	0x4
 644 021e 50       		.byte	0x50
 645 021f 23020000 		.4byte	0x223
 646 0223 05       		.uleb128 0x5
 647 0224 2F010000 		.4byte	.LASF44
 648 0228 08       		.byte	0x8
 649 0229 05       		.byte	0x5
 650 022a 8F       		.byte	0x8f
 651 022b 48020000 		.4byte	0x248
 652 022f 06       		.uleb128 0x6
 653 0230 D7000000 		.4byte	.LASF42
 654 0234 05       		.byte	0x5
 655 0235 90       		.byte	0x90
 656 0236 EE010000 		.4byte	0x1ee
 657 023a 00       		.byte	0
 658 023b 06       		.uleb128 0x6
 659 023c 2A010000 		.4byte	.LASF45
 660 0240 05       		.byte	0x5
 661 0241 91       		.byte	0x91
 662 0242 EE010000 		.4byte	0x1ee
 663 0246 04       		.byte	0x4
 664 0247 00       		.byte	0
 665 0248 04       		.uleb128 0x4
 666 0249 54040000 		.4byte	.LASF46
 667 024d 04       		.byte	0x4
 668 024e 57       		.byte	0x57
 669 024f 53020000 		.4byte	0x253
 670 0253 0B       		.uleb128 0xb
 671 0254 10010000 		.4byte	.LASF47
 672 0258 1C       		.byte	0x1c
 673 0259 05       		.byte	0x5
 674 025a 6A01     		.2byte	0x16a
 675 025c AF020000 		.4byte	0x2af
 676 0260 09       		.uleb128 0x9
ARM GAS  /tmp/ccWYFA6r.s 			page 23


 677 0261 61040000 		.4byte	.LASF23
 678 0265 05       		.byte	0x5
 679 0266 6B01     		.2byte	0x16b
 680 0268 18020000 		.4byte	0x218
 681 026c 00       		.byte	0
 682 026d 09       		.uleb128 0x9
 683 026e FA020000 		.4byte	.LASF24
 684 0272 05       		.byte	0x5
 685 0273 6C01     		.2byte	0x16c
 686 0275 C3000000 		.4byte	0xc3
 687 0279 08       		.byte	0x8
 688 027a 08       		.uleb128 0x8
 689 027b 63747800 		.ascii	"ctx\000"
 690 027f 05       		.byte	0x5
 691 0280 6E01     		.2byte	0x16e
 692 0282 71050000 		.4byte	0x571
 693 0286 0C       		.byte	0xc
 694 0287 09       		.uleb128 0x9
 695 0288 7E040000 		.4byte	.LASF25
 696 028c 05       		.byte	0x5
 697 028d 7101     		.2byte	0x171
 698 028f EE010000 		.4byte	0x1ee
 699 0293 10       		.byte	0x10
 700 0294 09       		.uleb128 0x9
 701 0295 00050000 		.4byte	.LASF26
 702 0299 05       		.byte	0x5
 703 029a 7201     		.2byte	0x172
 704 029c EE010000 		.4byte	0x1ee
 705 02a0 14       		.byte	0x14
 706 02a1 09       		.uleb128 0x9
 707 02a2 F8040000 		.4byte	.LASF48
 708 02a6 05       		.byte	0x5
 709 02a7 7501     		.2byte	0x175
 710 02a9 EE010000 		.4byte	0x1ee
 711 02ad 18       		.byte	0x18
 712 02ae 00       		.byte	0
 713 02af 04       		.uleb128 0x4
 714 02b0 40010000 		.4byte	.LASF49
 715 02b4 04       		.byte	0x4
 716 02b5 5C       		.byte	0x5c
 717 02b6 BA020000 		.4byte	0x2ba
 718 02ba 0A       		.uleb128 0xa
 719 02bb 04       		.byte	0x4
 720 02bc C0020000 		.4byte	0x2c0
 721 02c0 0C       		.uleb128 0xc
 722 02c1 CB020000 		.4byte	0x2cb
 723 02c5 0D       		.uleb128 0xd
 724 02c6 CB020000 		.4byte	0x2cb
 725 02ca 00       		.byte	0
 726 02cb 0E       		.uleb128 0xe
 727 02cc 04       		.byte	0x4
 728 02cd 04       		.uleb128 0x4
 729 02ce 6C030000 		.4byte	.LASF50
 730 02d2 04       		.byte	0x4
 731 02d3 61       		.byte	0x61
 732 02d4 D8020000 		.4byte	0x2d8
 733 02d8 0B       		.uleb128 0xb
ARM GAS  /tmp/ccWYFA6r.s 			page 24


 734 02d9 A6010000 		.4byte	.LASF51
 735 02dd 14       		.byte	0x14
 736 02de 05       		.byte	0x5
 737 02df 4501     		.2byte	0x145
 738 02e1 27030000 		.4byte	0x327
 739 02e5 09       		.uleb128 0x9
 740 02e6 D7000000 		.4byte	.LASF42
 741 02ea 05       		.byte	0x5
 742 02eb 4601     		.2byte	0x146
 743 02ed EE060000 		.4byte	0x6ee
 744 02f1 00       		.byte	0
 745 02f2 09       		.uleb128 0x9
 746 02f3 2A010000 		.4byte	.LASF45
 747 02f7 05       		.byte	0x5
 748 02f8 4701     		.2byte	0x147
 749 02fa EE060000 		.4byte	0x6ee
 750 02fe 04       		.byte	0x4
 751 02ff 09       		.uleb128 0x9
 752 0300 D4040000 		.4byte	.LASF52
 753 0304 05       		.byte	0x5
 754 0305 4801     		.2byte	0x148
 755 0307 EF000000 		.4byte	0xef
 756 030b 08       		.byte	0x8
 757 030c 09       		.uleb128 0x9
 758 030d 1E010000 		.4byte	.LASF53
 759 0311 05       		.byte	0x5
 760 0312 4901     		.2byte	0x149
 761 0314 AF020000 		.4byte	0x2af
 762 0318 0C       		.byte	0xc
 763 0319 08       		.uleb128 0x8
 764 031a 70617200 		.ascii	"par\000"
 765 031e 05       		.byte	0x5
 766 031f 4B01     		.2byte	0x14b
 767 0321 CB020000 		.4byte	0x2cb
 768 0325 10       		.byte	0x10
 769 0326 00       		.byte	0
 770 0327 04       		.uleb128 0x4
 771 0328 9A040000 		.4byte	.LASF54
 772 032c 04       		.byte	0x4
 773 032d 66       		.byte	0x66
 774 032e 32030000 		.4byte	0x332
 775 0332 0B       		.uleb128 0xb
 776 0333 FF010000 		.4byte	.LASF55
 777 0337 0C       		.byte	0xc
 778 0338 05       		.byte	0x5
 779 0339 5501     		.2byte	0x155
 780 033b 74030000 		.4byte	0x374
 781 033f 09       		.uleb128 0x9
 782 0340 D7000000 		.4byte	.LASF42
 783 0344 05       		.byte	0x5
 784 0345 5601     		.2byte	0x156
 785 0347 EE060000 		.4byte	0x6ee
 786 034b 00       		.byte	0
 787 034c 09       		.uleb128 0x9
 788 034d 2A010000 		.4byte	.LASF45
 789 0351 05       		.byte	0x5
 790 0352 5801     		.2byte	0x158
ARM GAS  /tmp/ccWYFA6r.s 			page 25


 791 0354 EE060000 		.4byte	0x6ee
 792 0358 04       		.byte	0x4
 793 0359 09       		.uleb128 0x9
 794 035a D4040000 		.4byte	.LASF52
 795 035e 05       		.byte	0x5
 796 035f 5A01     		.2byte	0x15a
 797 0361 EF000000 		.4byte	0xef
 798 0365 08       		.byte	0x8
 799 0366 09       		.uleb128 0x9
 800 0367 02040000 		.4byte	.LASF56
 801 036b 05       		.byte	0x5
 802 036c 6201     		.2byte	0x162
 803 036e EF000000 		.4byte	0xef
 804 0372 0A       		.byte	0xa
 805 0373 00       		.byte	0
 806 0374 04       		.uleb128 0x4
 807 0375 49030000 		.4byte	.LASF57
 808 0379 04       		.byte	0x4
 809 037a 6B       		.byte	0x6b
 810 037b 7F030000 		.4byte	0x37f
 811 037f 0B       		.uleb128 0xb
 812 0380 49010000 		.4byte	.LASF58
 813 0384 04       		.byte	0x4
 814 0385 05       		.byte	0x5
 815 0386 7C01     		.2byte	0x17c
 816 0388 9A030000 		.4byte	0x39a
 817 038c 09       		.uleb128 0x9
 818 038d 8A030000 		.4byte	.LASF59
 819 0391 05       		.byte	0x5
 820 0392 8401     		.2byte	0x184
 821 0394 F4060000 		.4byte	0x6f4
 822 0398 00       		.byte	0
 823 0399 00       		.byte	0
 824 039a 04       		.uleb128 0x4
 825 039b B6040000 		.4byte	.LASF60
 826 039f 04       		.byte	0x4
 827 03a0 70       		.byte	0x70
 828 03a1 A5030000 		.4byte	0x3a5
 829 03a5 0B       		.uleb128 0xb
 830 03a6 F8030000 		.4byte	.LASF61
 831 03aa 70       		.byte	0x70
 832 03ab 05       		.byte	0x5
 833 03ac 9C01     		.2byte	0x19c
 834 03ae E7030000 		.4byte	0x3e7
 835 03b2 09       		.uleb128 0x9
 836 03b3 19040000 		.4byte	.LASF62
 837 03b7 05       		.byte	0x5
 838 03b8 A001     		.2byte	0x1a0
 839 03ba 48020000 		.4byte	0x248
 840 03be 00       		.byte	0
 841 03bf 09       		.uleb128 0x9
 842 03c0 FC000000 		.4byte	.LASF63
 843 03c4 05       		.byte	0x5
 844 03c5 A401     		.2byte	0x1a4
 845 03c7 27030000 		.4byte	0x327
 846 03cb 1C       		.byte	0x1c
 847 03cc 08       		.uleb128 0x8
ARM GAS  /tmp/ccWYFA6r.s 			page 26


 848 03cd 64626700 		.ascii	"dbg\000"
 849 03d1 05       		.byte	0x5
 850 03d2 A801     		.2byte	0x1a8
 851 03d4 74030000 		.4byte	0x374
 852 03d8 28       		.byte	0x28
 853 03d9 09       		.uleb128 0x9
 854 03da A2030000 		.4byte	.LASF64
 855 03de 05       		.byte	0x5
 856 03df AC01     		.2byte	0x1ac
 857 03e1 FA000000 		.4byte	0xfa
 858 03e5 2C       		.byte	0x2c
 859 03e6 00       		.byte	0
 860 03e7 03       		.uleb128 0x3
 861 03e8 04       		.byte	0x4
 862 03e9 07       		.byte	0x7
 863 03ea 24040000 		.4byte	.LASF65
 864 03ee 0F       		.uleb128 0xf
 865 03ef 77000000 		.4byte	0x77
 866 03f3 10       		.uleb128 0x10
 867 03f4 24       		.byte	0x24
 868 03f5 06       		.byte	0x6
 869 03f6 3A01     		.2byte	0x13a
 870 03f8 6F040000 		.4byte	0x46f
 871 03fc 08       		.uleb128 0x8
 872 03fd 41435200 		.ascii	"ACR\000"
 873 0401 06       		.byte	0x6
 874 0402 3C01     		.2byte	0x13c
 875 0404 EE030000 		.4byte	0x3ee
 876 0408 00       		.byte	0
 877 0409 09       		.uleb128 0x9
 878 040a DC010000 		.4byte	.LASF66
 879 040e 06       		.byte	0x6
 880 040f 3D01     		.2byte	0x13d
 881 0411 EE030000 		.4byte	0x3ee
 882 0415 04       		.byte	0x4
 883 0416 09       		.uleb128 0x9
 884 0417 CE010000 		.4byte	.LASF67
 885 041b 06       		.byte	0x6
 886 041c 3E01     		.2byte	0x13e
 887 041e EE030000 		.4byte	0x3ee
 888 0422 08       		.byte	0x8
 889 0423 08       		.uleb128 0x8
 890 0424 535200   		.ascii	"SR\000"
 891 0427 06       		.byte	0x6
 892 0428 3F01     		.2byte	0x13f
 893 042a EE030000 		.4byte	0x3ee
 894 042e 0C       		.byte	0xc
 895 042f 08       		.uleb128 0x8
 896 0430 435200   		.ascii	"CR\000"
 897 0433 06       		.byte	0x6
 898 0434 4001     		.2byte	0x140
 899 0436 EE030000 		.4byte	0x3ee
 900 043a 10       		.byte	0x10
 901 043b 08       		.uleb128 0x8
 902 043c 415200   		.ascii	"AR\000"
 903 043f 06       		.byte	0x6
 904 0440 4101     		.2byte	0x141
ARM GAS  /tmp/ccWYFA6r.s 			page 27


 905 0442 EE030000 		.4byte	0x3ee
 906 0446 14       		.byte	0x14
 907 0447 09       		.uleb128 0x9
 908 0448 10000000 		.4byte	.LASF68
 909 044c 06       		.byte	0x6
 910 044d 4201     		.2byte	0x142
 911 044f EE030000 		.4byte	0x3ee
 912 0453 18       		.byte	0x18
 913 0454 08       		.uleb128 0x8
 914 0455 4F425200 		.ascii	"OBR\000"
 915 0459 06       		.byte	0x6
 916 045a 4301     		.2byte	0x143
 917 045c EE030000 		.4byte	0x3ee
 918 0460 1C       		.byte	0x1c
 919 0461 09       		.uleb128 0x9
 920 0462 1F020000 		.4byte	.LASF69
 921 0466 06       		.byte	0x6
 922 0467 4401     		.2byte	0x144
 923 0469 EE030000 		.4byte	0x3ee
 924 046d 20       		.byte	0x20
 925 046e 00       		.byte	0
 926 046f 11       		.uleb128 0x11
 927 0470 2B020000 		.4byte	.LASF70
 928 0474 06       		.byte	0x6
 929 0475 4501     		.2byte	0x145
 930 0477 F3030000 		.4byte	0x3f3
 931 047b 10       		.uleb128 0x10
 932 047c 08       		.byte	0x8
 933 047d 06       		.byte	0x6
 934 047e 9301     		.2byte	0x193
 935 0480 9E040000 		.4byte	0x49e
 936 0484 08       		.uleb128 0x8
 937 0485 435200   		.ascii	"CR\000"
 938 0488 06       		.byte	0x6
 939 0489 9501     		.2byte	0x195
 940 048b EE030000 		.4byte	0x3ee
 941 048f 00       		.byte	0
 942 0490 08       		.uleb128 0x8
 943 0491 43535200 		.ascii	"CSR\000"
 944 0495 06       		.byte	0x6
 945 0496 9601     		.2byte	0x196
 946 0498 EE030000 		.4byte	0x3ee
 947 049c 04       		.byte	0x4
 948 049d 00       		.byte	0
 949 049e 11       		.uleb128 0x11
 950 049f CA030000 		.4byte	.LASF71
 951 04a3 06       		.byte	0x6
 952 04a4 9701     		.2byte	0x197
 953 04a6 7B040000 		.4byte	0x47b
 954 04aa 10       		.uleb128 0x10
 955 04ab 30       		.byte	0x30
 956 04ac 06       		.byte	0x6
 957 04ad 9D01     		.2byte	0x19d
 958 04af 4F050000 		.4byte	0x54f
 959 04b3 08       		.uleb128 0x8
 960 04b4 435200   		.ascii	"CR\000"
 961 04b7 06       		.byte	0x6
ARM GAS  /tmp/ccWYFA6r.s 			page 28


 962 04b8 9F01     		.2byte	0x19f
 963 04ba EE030000 		.4byte	0x3ee
 964 04be 00       		.byte	0
 965 04bf 09       		.uleb128 0x9
 966 04c0 14040000 		.4byte	.LASF72
 967 04c4 06       		.byte	0x6
 968 04c5 A001     		.2byte	0x1a0
 969 04c7 EE030000 		.4byte	0x3ee
 970 04cb 04       		.byte	0x4
 971 04cc 08       		.uleb128 0x8
 972 04cd 43495200 		.ascii	"CIR\000"
 973 04d1 06       		.byte	0x6
 974 04d2 A101     		.2byte	0x1a1
 975 04d4 EE030000 		.4byte	0x3ee
 976 04d8 08       		.byte	0x8
 977 04d9 09       		.uleb128 0x9
 978 04da 9F000000 		.4byte	.LASF73
 979 04de 06       		.byte	0x6
 980 04df A201     		.2byte	0x1a2
 981 04e1 EE030000 		.4byte	0x3ee
 982 04e5 0C       		.byte	0xc
 983 04e6 09       		.uleb128 0x9
 984 04e7 F1020000 		.4byte	.LASF74
 985 04eb 06       		.byte	0x6
 986 04ec A301     		.2byte	0x1a3
 987 04ee EE030000 		.4byte	0x3ee
 988 04f2 10       		.byte	0x10
 989 04f3 09       		.uleb128 0x9
 990 04f4 27030000 		.4byte	.LASF75
 991 04f8 06       		.byte	0x6
 992 04f9 A401     		.2byte	0x1a4
 993 04fb EE030000 		.4byte	0x3ee
 994 04ff 14       		.byte	0x14
 995 0500 09       		.uleb128 0x9
 996 0501 82030000 		.4byte	.LASF76
 997 0505 06       		.byte	0x6
 998 0506 A501     		.2byte	0x1a5
 999 0508 EE030000 		.4byte	0x3ee
 1000 050c 18       		.byte	0x18
 1001 050d 09       		.uleb128 0x9
 1002 050e 19000000 		.4byte	.LASF77
 1003 0512 06       		.byte	0x6
 1004 0513 A601     		.2byte	0x1a6
 1005 0515 EE030000 		.4byte	0x3ee
 1006 0519 1C       		.byte	0x1c
 1007 051a 09       		.uleb128 0x9
 1008 051b EB000000 		.4byte	.LASF78
 1009 051f 06       		.byte	0x6
 1010 0520 A701     		.2byte	0x1a7
 1011 0522 EE030000 		.4byte	0x3ee
 1012 0526 20       		.byte	0x20
 1013 0527 08       		.uleb128 0x8
 1014 0528 43535200 		.ascii	"CSR\000"
 1015 052c 06       		.byte	0x6
 1016 052d A801     		.2byte	0x1a8
 1017 052f EE030000 		.4byte	0x3ee
 1018 0533 24       		.byte	0x24
ARM GAS  /tmp/ccWYFA6r.s 			page 29


 1019 0534 09       		.uleb128 0x9
 1020 0535 B6030000 		.4byte	.LASF79
 1021 0539 06       		.byte	0x6
 1022 053a AB01     		.2byte	0x1ab
 1023 053c 77000000 		.4byte	0x77
 1024 0540 28       		.byte	0x28
 1025 0541 09       		.uleb128 0x9
 1026 0542 7C030000 		.4byte	.LASF80
 1027 0546 06       		.byte	0x6
 1028 0547 AC01     		.2byte	0x1ac
 1029 0549 EE030000 		.4byte	0x3ee
 1030 054d 2C       		.byte	0x2c
 1031 054e 00       		.byte	0
 1032 054f 11       		.uleb128 0x11
 1033 0550 39020000 		.4byte	.LASF81
 1034 0554 06       		.byte	0x6
 1035 0555 AD01     		.2byte	0x1ad
 1036 0557 AA040000 		.4byte	0x4aa
 1037 055b 04       		.uleb128 0x4
 1038 055c 96000000 		.4byte	.LASF82
 1039 0560 07       		.byte	0x7
 1040 0561 65       		.byte	0x65
 1041 0562 CB020000 		.4byte	0x2cb
 1042 0566 04       		.uleb128 0x4
 1043 0567 ED040000 		.4byte	.LASF83
 1044 056b 07       		.byte	0x7
 1045 056c 6D       		.byte	0x6d
 1046 056d 90000000 		.4byte	0x90
 1047 0571 05       		.uleb128 0x5
 1048 0572 03010000 		.4byte	.LASF84
 1049 0576 04       		.byte	0x4
 1050 0577 07       		.byte	0x7
 1051 0578 89       		.byte	0x89
 1052 0579 89050000 		.4byte	0x589
 1053 057d 07       		.uleb128 0x7
 1054 057e 737000   		.ascii	"sp\000"
 1055 0581 07       		.byte	0x7
 1056 0582 8A       		.byte	0x8a
 1057 0583 05060000 		.4byte	0x605
 1058 0587 00       		.byte	0
 1059 0588 00       		.byte	0
 1060 0589 0B       		.uleb128 0xb
 1061 058a DF030000 		.4byte	.LASF85
 1062 058e 24       		.byte	0x24
 1063 058f 08       		.byte	0x8
 1064 0590 5901     		.2byte	0x159
 1065 0592 05060000 		.4byte	0x605
 1066 0596 08       		.uleb128 0x8
 1067 0597 723400   		.ascii	"r4\000"
 1068 059a 08       		.byte	0x8
 1069 059b 6C01     		.2byte	0x16c
 1070 059d 5B050000 		.4byte	0x55b
 1071 05a1 00       		.byte	0
 1072 05a2 08       		.uleb128 0x8
 1073 05a3 723500   		.ascii	"r5\000"
 1074 05a6 08       		.byte	0x8
 1075 05a7 6D01     		.2byte	0x16d
ARM GAS  /tmp/ccWYFA6r.s 			page 30


 1076 05a9 5B050000 		.4byte	0x55b
 1077 05ad 04       		.byte	0x4
 1078 05ae 08       		.uleb128 0x8
 1079 05af 723600   		.ascii	"r6\000"
 1080 05b2 08       		.byte	0x8
 1081 05b3 6E01     		.2byte	0x16e
 1082 05b5 5B050000 		.4byte	0x55b
 1083 05b9 08       		.byte	0x8
 1084 05ba 08       		.uleb128 0x8
 1085 05bb 723700   		.ascii	"r7\000"
 1086 05be 08       		.byte	0x8
 1087 05bf 6F01     		.2byte	0x16f
 1088 05c1 5B050000 		.4byte	0x55b
 1089 05c5 0C       		.byte	0xc
 1090 05c6 08       		.uleb128 0x8
 1091 05c7 723800   		.ascii	"r8\000"
 1092 05ca 08       		.byte	0x8
 1093 05cb 7001     		.2byte	0x170
 1094 05cd 5B050000 		.4byte	0x55b
 1095 05d1 10       		.byte	0x10
 1096 05d2 08       		.uleb128 0x8
 1097 05d3 723900   		.ascii	"r9\000"
 1098 05d6 08       		.byte	0x8
 1099 05d7 7101     		.2byte	0x171
 1100 05d9 5B050000 		.4byte	0x55b
 1101 05dd 14       		.byte	0x14
 1102 05de 08       		.uleb128 0x8
 1103 05df 72313000 		.ascii	"r10\000"
 1104 05e3 08       		.byte	0x8
 1105 05e4 7201     		.2byte	0x172
 1106 05e6 5B050000 		.4byte	0x55b
 1107 05ea 18       		.byte	0x18
 1108 05eb 08       		.uleb128 0x8
 1109 05ec 72313100 		.ascii	"r11\000"
 1110 05f0 08       		.byte	0x8
 1111 05f1 7301     		.2byte	0x173
 1112 05f3 5B050000 		.4byte	0x55b
 1113 05f7 1C       		.byte	0x1c
 1114 05f8 08       		.uleb128 0x8
 1115 05f9 6C7200   		.ascii	"lr\000"
 1116 05fc 08       		.byte	0x8
 1117 05fd 7401     		.2byte	0x174
 1118 05ff 5B050000 		.4byte	0x55b
 1119 0603 20       		.byte	0x20
 1120 0604 00       		.byte	0
 1121 0605 0A       		.uleb128 0xa
 1122 0606 04       		.byte	0x4
 1123 0607 89050000 		.4byte	0x589
 1124 060b 12       		.uleb128 0x12
 1125 060c 04       		.byte	0x4
 1126 060d 05       		.byte	0x5
 1127 060e D2       		.byte	0xd2
 1128 060f 6E060000 		.4byte	0x66e
 1129 0613 13       		.uleb128 0x13
 1130 0614 24020000 		.4byte	.LASF86
 1131 0618 05       		.byte	0x5
 1132 0619 D9       		.byte	0xd9
ARM GAS  /tmp/ccWYFA6r.s 			page 31


 1133 061a CE000000 		.4byte	0xce
 1134 061e 13       		.uleb128 0x13
 1135 061f 17050000 		.4byte	.LASF87
 1136 0623 05       		.byte	0x5
 1137 0624 E0       		.byte	0xe0
 1138 0625 CE000000 		.4byte	0xce
 1139 0629 13       		.uleb128 0x13
 1140 062a F5000000 		.4byte	.LASF88
 1141 062e 05       		.byte	0x5
 1142 062f E7       		.byte	0xe7
 1143 0630 CB020000 		.4byte	0x2cb
 1144 0634 13       		.uleb128 0x13
 1145 0635 C2040000 		.4byte	.LASF89
 1146 0639 05       		.byte	0x5
 1147 063a EE       		.byte	0xee
 1148 063b 6E060000 		.4byte	0x66e
 1149 063f 13       		.uleb128 0x13
 1150 0640 7D010000 		.4byte	.LASF90
 1151 0644 05       		.byte	0x5
 1152 0645 F3       		.byte	0xf3
 1153 0646 CE000000 		.4byte	0xce
 1154 064a 13       		.uleb128 0x13
 1155 064b 6F040000 		.4byte	.LASF91
 1156 064f 05       		.byte	0x5
 1157 0650 FC       		.byte	0xfc
 1158 0651 99060000 		.4byte	0x699
 1159 0655 14       		.uleb128 0x14
 1160 0656 31000000 		.4byte	.LASF92
 1161 065a 05       		.byte	0x5
 1162 065b 0501     		.2byte	0x105
 1163 065d D0060000 		.4byte	0x6d0
 1164 0661 14       		.uleb128 0x14
 1165 0662 23010000 		.4byte	.LASF93
 1166 0666 05       		.byte	0x5
 1167 0667 0D01     		.2byte	0x10d
 1168 0669 D9000000 		.4byte	0xd9
 1169 066d 00       		.byte	0
 1170 066e 0A       		.uleb128 0xa
 1171 066f 04       		.byte	0x4
 1172 0670 E3010000 		.4byte	0x1e3
 1173 0674 05       		.uleb128 0x5
 1174 0675 91010000 		.4byte	.LASF94
 1175 0679 0C       		.byte	0xc
 1176 067a 09       		.byte	0x9
 1177 067b 34       		.byte	0x34
 1178 067c 99060000 		.4byte	0x699
 1179 0680 06       		.uleb128 0x6
 1180 0681 61040000 		.4byte	.LASF23
 1181 0685 09       		.byte	0x9
 1182 0686 35       		.byte	0x35
 1183 0687 18020000 		.4byte	0x218
 1184 068b 00       		.byte	0
 1185 068c 07       		.uleb128 0x7
 1186 068d 636E7400 		.ascii	"cnt\000"
 1187 0691 09       		.byte	0x9
 1188 0692 37       		.byte	0x37
 1189 0693 E4000000 		.4byte	0xe4
ARM GAS  /tmp/ccWYFA6r.s 			page 32


 1190 0697 08       		.byte	0x8
 1191 0698 00       		.byte	0
 1192 0699 0A       		.uleb128 0xa
 1193 069a 04       		.byte	0x4
 1194 069b 74060000 		.4byte	0x674
 1195 069f 05       		.uleb128 0x5
 1196 06a0 45020000 		.4byte	.LASF95
 1197 06a4 10       		.byte	0x10
 1198 06a5 0A       		.byte	0xa
 1199 06a6 39       		.byte	0x39
 1200 06a7 D0060000 		.4byte	0x6d0
 1201 06ab 06       		.uleb128 0x6
 1202 06ac 61040000 		.4byte	.LASF23
 1203 06b0 0A       		.byte	0xa
 1204 06b1 3A       		.byte	0x3a
 1205 06b2 18020000 		.4byte	0x218
 1206 06b6 00       		.byte	0
 1207 06b7 06       		.uleb128 0x6
 1208 06b8 E1010000 		.4byte	.LASF96
 1209 06bc 0A       		.byte	0xa
 1210 06bd 3C       		.byte	0x3c
 1211 06be EE010000 		.4byte	0x1ee
 1212 06c2 08       		.byte	0x8
 1213 06c3 06       		.uleb128 0x6
 1214 06c4 D7000000 		.4byte	.LASF42
 1215 06c8 0A       		.byte	0xa
 1216 06c9 3E       		.byte	0x3e
 1217 06ca 04070000 		.4byte	0x704
 1218 06ce 0C       		.byte	0xc
 1219 06cf 00       		.byte	0
 1220 06d0 0A       		.uleb128 0xa
 1221 06d1 04       		.byte	0x4
 1222 06d2 9F060000 		.4byte	0x69f
 1223 06d6 0A       		.uleb128 0xa
 1224 06d7 04       		.byte	0x4
 1225 06d8 DC060000 		.4byte	0x6dc
 1226 06dc 15       		.uleb128 0x15
 1227 06dd E1060000 		.4byte	0x6e1
 1228 06e1 03       		.uleb128 0x3
 1229 06e2 01       		.byte	0x1
 1230 06e3 08       		.byte	0x8
 1231 06e4 FF020000 		.4byte	.LASF97
 1232 06e8 0A       		.uleb128 0xa
 1233 06e9 04       		.byte	0x4
 1234 06ea 66050000 		.4byte	0x566
 1235 06ee 0A       		.uleb128 0xa
 1236 06ef 04       		.byte	0x4
 1237 06f0 CD020000 		.4byte	0x2cd
 1238 06f4 0F       		.uleb128 0xf
 1239 06f5 D6060000 		.4byte	0x6d6
 1240 06f9 04       		.uleb128 0x4
 1241 06fa 76040000 		.4byte	.LASF98
 1242 06fe 0A       		.byte	0xa
 1243 06ff 34       		.byte	0x34
 1244 0700 9F060000 		.4byte	0x69f
 1245 0704 0A       		.uleb128 0xa
 1246 0705 04       		.byte	0x4
ARM GAS  /tmp/ccWYFA6r.s 			page 33


 1247 0706 F9060000 		.4byte	0x6f9
 1248 070a 03       		.uleb128 0x3
 1249 070b 01       		.byte	0x1
 1250 070c 02       		.byte	0x2
 1251 070d 94030000 		.4byte	.LASF99
 1252 0711 16       		.uleb128 0x16
 1253 0712 59010000 		.4byte	.LASF105
 1254 0716 01       		.byte	0x1
 1255 0717 36       		.byte	0x36
 1256 0718 01       		.byte	0x1
 1257 0719 17       		.uleb128 0x17
 1258 071a 47040000 		.4byte	.LASF106
 1259 071e 01       		.byte	0x1
 1260 071f 84       		.byte	0x84
 1261 0720 00000000 		.4byte	.LFB220
 1262 0724 3C000000 		.4byte	.LFE220-.LFB220
 1263 0728 01       		.uleb128 0x1
 1264 0729 9C       		.byte	0x9c
 1265 072a 3E070000 		.4byte	0x73e
 1266 072e 18       		.uleb128 0x18
 1267 072f 11070000 		.4byte	0x711
 1268 0733 1C000000 		.4byte	.LBB4
 1269 0737 00000000 		.4byte	.Ldebug_ranges0+0
 1270 073b 01       		.byte	0x1
 1271 073c 8F       		.byte	0x8f
 1272 073d 00       		.byte	0
 1273 073e 19       		.uleb128 0x19
 1274 073f 06050000 		.4byte	.LASF107
 1275 0743 01       		.byte	0x1
 1276 0744 A9       		.byte	0xa9
 1277 0745 00000000 		.4byte	.LFB221
 1278 0749 9E000000 		.4byte	.LFE221-.LFB221
 1279 074d 01       		.uleb128 0x1
 1280 074e 9C       		.byte	0x9c
 1281 074f 1A       		.uleb128 0x1a
 1282 0750 EB030000 		.4byte	.LASF100
 1283 0754 0B       		.byte	0xb
 1284 0755 9606     		.2byte	0x696
 1285 0757 5B070000 		.4byte	0x75b
 1286 075b 0F       		.uleb128 0xf
 1287 075c 65000000 		.4byte	0x65
 1288 0760 1B       		.uleb128 0x1b
 1289 0761 21000000 		.4byte	.LASF101
 1290 0765 01       		.byte	0x1
 1291 0766 27       		.byte	0x27
 1292 0767 77000000 		.4byte	0x77
 1293 076b 05       		.uleb128 0x5
 1294 076c 03       		.byte	0x3
 1295 076d 00000000 		.4byte	SystemCoreClock
 1296 0771 1C       		.uleb128 0x1c
 1297 0772 636800   		.ascii	"ch\000"
 1298 0775 05       		.byte	0x5
 1299 0776 D201     		.2byte	0x1d2
 1300 0778 9A030000 		.4byte	0x39a
 1301 077c 00       		.byte	0
 1302              		.section	.debug_abbrev,"",%progbits
 1303              	.Ldebug_abbrev0:
ARM GAS  /tmp/ccWYFA6r.s 			page 34


 1304 0000 01       		.uleb128 0x1
 1305 0001 11       		.uleb128 0x11
 1306 0002 01       		.byte	0x1
 1307 0003 25       		.uleb128 0x25
 1308 0004 0E       		.uleb128 0xe
 1309 0005 13       		.uleb128 0x13
 1310 0006 0B       		.uleb128 0xb
 1311 0007 03       		.uleb128 0x3
 1312 0008 0E       		.uleb128 0xe
 1313 0009 1B       		.uleb128 0x1b
 1314 000a 0E       		.uleb128 0xe
 1315 000b 55       		.uleb128 0x55
 1316 000c 17       		.uleb128 0x17
 1317 000d 11       		.uleb128 0x11
 1318 000e 01       		.uleb128 0x1
 1319 000f 10       		.uleb128 0x10
 1320 0010 17       		.uleb128 0x17
 1321 0011 00       		.byte	0
 1322 0012 00       		.byte	0
 1323 0013 02       		.uleb128 0x2
 1324 0014 24       		.uleb128 0x24
 1325 0015 00       		.byte	0
 1326 0016 0B       		.uleb128 0xb
 1327 0017 0B       		.uleb128 0xb
 1328 0018 3E       		.uleb128 0x3e
 1329 0019 0B       		.uleb128 0xb
 1330 001a 03       		.uleb128 0x3
 1331 001b 08       		.uleb128 0x8
 1332 001c 00       		.byte	0
 1333 001d 00       		.byte	0
 1334 001e 03       		.uleb128 0x3
 1335 001f 24       		.uleb128 0x24
 1336 0020 00       		.byte	0
 1337 0021 0B       		.uleb128 0xb
 1338 0022 0B       		.uleb128 0xb
 1339 0023 3E       		.uleb128 0x3e
 1340 0024 0B       		.uleb128 0xb
 1341 0025 03       		.uleb128 0x3
 1342 0026 0E       		.uleb128 0xe
 1343 0027 00       		.byte	0
 1344 0028 00       		.byte	0
 1345 0029 04       		.uleb128 0x4
 1346 002a 16       		.uleb128 0x16
 1347 002b 00       		.byte	0
 1348 002c 03       		.uleb128 0x3
 1349 002d 0E       		.uleb128 0xe
 1350 002e 3A       		.uleb128 0x3a
 1351 002f 0B       		.uleb128 0xb
 1352 0030 3B       		.uleb128 0x3b
 1353 0031 0B       		.uleb128 0xb
 1354 0032 49       		.uleb128 0x49
 1355 0033 13       		.uleb128 0x13
 1356 0034 00       		.byte	0
 1357 0035 00       		.byte	0
 1358 0036 05       		.uleb128 0x5
 1359 0037 13       		.uleb128 0x13
 1360 0038 01       		.byte	0x1
ARM GAS  /tmp/ccWYFA6r.s 			page 35


 1361 0039 03       		.uleb128 0x3
 1362 003a 0E       		.uleb128 0xe
 1363 003b 0B       		.uleb128 0xb
 1364 003c 0B       		.uleb128 0xb
 1365 003d 3A       		.uleb128 0x3a
 1366 003e 0B       		.uleb128 0xb
 1367 003f 3B       		.uleb128 0x3b
 1368 0040 0B       		.uleb128 0xb
 1369 0041 01       		.uleb128 0x1
 1370 0042 13       		.uleb128 0x13
 1371 0043 00       		.byte	0
 1372 0044 00       		.byte	0
 1373 0045 06       		.uleb128 0x6
 1374 0046 0D       		.uleb128 0xd
 1375 0047 00       		.byte	0
 1376 0048 03       		.uleb128 0x3
 1377 0049 0E       		.uleb128 0xe
 1378 004a 3A       		.uleb128 0x3a
 1379 004b 0B       		.uleb128 0xb
 1380 004c 3B       		.uleb128 0x3b
 1381 004d 0B       		.uleb128 0xb
 1382 004e 49       		.uleb128 0x49
 1383 004f 13       		.uleb128 0x13
 1384 0050 38       		.uleb128 0x38
 1385 0051 0B       		.uleb128 0xb
 1386 0052 00       		.byte	0
 1387 0053 00       		.byte	0
 1388 0054 07       		.uleb128 0x7
 1389 0055 0D       		.uleb128 0xd
 1390 0056 00       		.byte	0
 1391 0057 03       		.uleb128 0x3
 1392 0058 08       		.uleb128 0x8
 1393 0059 3A       		.uleb128 0x3a
 1394 005a 0B       		.uleb128 0xb
 1395 005b 3B       		.uleb128 0x3b
 1396 005c 0B       		.uleb128 0xb
 1397 005d 49       		.uleb128 0x49
 1398 005e 13       		.uleb128 0x13
 1399 005f 38       		.uleb128 0x38
 1400 0060 0B       		.uleb128 0xb
 1401 0061 00       		.byte	0
 1402 0062 00       		.byte	0
 1403 0063 08       		.uleb128 0x8
 1404 0064 0D       		.uleb128 0xd
 1405 0065 00       		.byte	0
 1406 0066 03       		.uleb128 0x3
 1407 0067 08       		.uleb128 0x8
 1408 0068 3A       		.uleb128 0x3a
 1409 0069 0B       		.uleb128 0xb
 1410 006a 3B       		.uleb128 0x3b
 1411 006b 05       		.uleb128 0x5
 1412 006c 49       		.uleb128 0x49
 1413 006d 13       		.uleb128 0x13
 1414 006e 38       		.uleb128 0x38
 1415 006f 0B       		.uleb128 0xb
 1416 0070 00       		.byte	0
 1417 0071 00       		.byte	0
ARM GAS  /tmp/ccWYFA6r.s 			page 36


 1418 0072 09       		.uleb128 0x9
 1419 0073 0D       		.uleb128 0xd
 1420 0074 00       		.byte	0
 1421 0075 03       		.uleb128 0x3
 1422 0076 0E       		.uleb128 0xe
 1423 0077 3A       		.uleb128 0x3a
 1424 0078 0B       		.uleb128 0xb
 1425 0079 3B       		.uleb128 0x3b
 1426 007a 05       		.uleb128 0x5
 1427 007b 49       		.uleb128 0x49
 1428 007c 13       		.uleb128 0x13
 1429 007d 38       		.uleb128 0x38
 1430 007e 0B       		.uleb128 0xb
 1431 007f 00       		.byte	0
 1432 0080 00       		.byte	0
 1433 0081 0A       		.uleb128 0xa
 1434 0082 0F       		.uleb128 0xf
 1435 0083 00       		.byte	0
 1436 0084 0B       		.uleb128 0xb
 1437 0085 0B       		.uleb128 0xb
 1438 0086 49       		.uleb128 0x49
 1439 0087 13       		.uleb128 0x13
 1440 0088 00       		.byte	0
 1441 0089 00       		.byte	0
 1442 008a 0B       		.uleb128 0xb
 1443 008b 13       		.uleb128 0x13
 1444 008c 01       		.byte	0x1
 1445 008d 03       		.uleb128 0x3
 1446 008e 0E       		.uleb128 0xe
 1447 008f 0B       		.uleb128 0xb
 1448 0090 0B       		.uleb128 0xb
 1449 0091 3A       		.uleb128 0x3a
 1450 0092 0B       		.uleb128 0xb
 1451 0093 3B       		.uleb128 0x3b
 1452 0094 05       		.uleb128 0x5
 1453 0095 01       		.uleb128 0x1
 1454 0096 13       		.uleb128 0x13
 1455 0097 00       		.byte	0
 1456 0098 00       		.byte	0
 1457 0099 0C       		.uleb128 0xc
 1458 009a 15       		.uleb128 0x15
 1459 009b 01       		.byte	0x1
 1460 009c 27       		.uleb128 0x27
 1461 009d 19       		.uleb128 0x19
 1462 009e 01       		.uleb128 0x1
 1463 009f 13       		.uleb128 0x13
 1464 00a0 00       		.byte	0
 1465 00a1 00       		.byte	0
 1466 00a2 0D       		.uleb128 0xd
 1467 00a3 05       		.uleb128 0x5
 1468 00a4 00       		.byte	0
 1469 00a5 49       		.uleb128 0x49
 1470 00a6 13       		.uleb128 0x13
 1471 00a7 00       		.byte	0
 1472 00a8 00       		.byte	0
 1473 00a9 0E       		.uleb128 0xe
 1474 00aa 0F       		.uleb128 0xf
ARM GAS  /tmp/ccWYFA6r.s 			page 37


 1475 00ab 00       		.byte	0
 1476 00ac 0B       		.uleb128 0xb
 1477 00ad 0B       		.uleb128 0xb
 1478 00ae 00       		.byte	0
 1479 00af 00       		.byte	0
 1480 00b0 0F       		.uleb128 0xf
 1481 00b1 35       		.uleb128 0x35
 1482 00b2 00       		.byte	0
 1483 00b3 49       		.uleb128 0x49
 1484 00b4 13       		.uleb128 0x13
 1485 00b5 00       		.byte	0
 1486 00b6 00       		.byte	0
 1487 00b7 10       		.uleb128 0x10
 1488 00b8 13       		.uleb128 0x13
 1489 00b9 01       		.byte	0x1
 1490 00ba 0B       		.uleb128 0xb
 1491 00bb 0B       		.uleb128 0xb
 1492 00bc 3A       		.uleb128 0x3a
 1493 00bd 0B       		.uleb128 0xb
 1494 00be 3B       		.uleb128 0x3b
 1495 00bf 05       		.uleb128 0x5
 1496 00c0 01       		.uleb128 0x1
 1497 00c1 13       		.uleb128 0x13
 1498 00c2 00       		.byte	0
 1499 00c3 00       		.byte	0
 1500 00c4 11       		.uleb128 0x11
 1501 00c5 16       		.uleb128 0x16
 1502 00c6 00       		.byte	0
 1503 00c7 03       		.uleb128 0x3
 1504 00c8 0E       		.uleb128 0xe
 1505 00c9 3A       		.uleb128 0x3a
 1506 00ca 0B       		.uleb128 0xb
 1507 00cb 3B       		.uleb128 0x3b
 1508 00cc 05       		.uleb128 0x5
 1509 00cd 49       		.uleb128 0x49
 1510 00ce 13       		.uleb128 0x13
 1511 00cf 00       		.byte	0
 1512 00d0 00       		.byte	0
 1513 00d1 12       		.uleb128 0x12
 1514 00d2 17       		.uleb128 0x17
 1515 00d3 01       		.byte	0x1
 1516 00d4 0B       		.uleb128 0xb
 1517 00d5 0B       		.uleb128 0xb
 1518 00d6 3A       		.uleb128 0x3a
 1519 00d7 0B       		.uleb128 0xb
 1520 00d8 3B       		.uleb128 0x3b
 1521 00d9 0B       		.uleb128 0xb
 1522 00da 01       		.uleb128 0x1
 1523 00db 13       		.uleb128 0x13
 1524 00dc 00       		.byte	0
 1525 00dd 00       		.byte	0
 1526 00de 13       		.uleb128 0x13
 1527 00df 0D       		.uleb128 0xd
 1528 00e0 00       		.byte	0
 1529 00e1 03       		.uleb128 0x3
 1530 00e2 0E       		.uleb128 0xe
 1531 00e3 3A       		.uleb128 0x3a
ARM GAS  /tmp/ccWYFA6r.s 			page 38


 1532 00e4 0B       		.uleb128 0xb
 1533 00e5 3B       		.uleb128 0x3b
 1534 00e6 0B       		.uleb128 0xb
 1535 00e7 49       		.uleb128 0x49
 1536 00e8 13       		.uleb128 0x13
 1537 00e9 00       		.byte	0
 1538 00ea 00       		.byte	0
 1539 00eb 14       		.uleb128 0x14
 1540 00ec 0D       		.uleb128 0xd
 1541 00ed 00       		.byte	0
 1542 00ee 03       		.uleb128 0x3
 1543 00ef 0E       		.uleb128 0xe
 1544 00f0 3A       		.uleb128 0x3a
 1545 00f1 0B       		.uleb128 0xb
 1546 00f2 3B       		.uleb128 0x3b
 1547 00f3 05       		.uleb128 0x5
 1548 00f4 49       		.uleb128 0x49
 1549 00f5 13       		.uleb128 0x13
 1550 00f6 00       		.byte	0
 1551 00f7 00       		.byte	0
 1552 00f8 15       		.uleb128 0x15
 1553 00f9 26       		.uleb128 0x26
 1554 00fa 00       		.byte	0
 1555 00fb 49       		.uleb128 0x49
 1556 00fc 13       		.uleb128 0x13
 1557 00fd 00       		.byte	0
 1558 00fe 00       		.byte	0
 1559 00ff 16       		.uleb128 0x16
 1560 0100 2E       		.uleb128 0x2e
 1561 0101 00       		.byte	0
 1562 0102 03       		.uleb128 0x3
 1563 0103 0E       		.uleb128 0xe
 1564 0104 3A       		.uleb128 0x3a
 1565 0105 0B       		.uleb128 0xb
 1566 0106 3B       		.uleb128 0x3b
 1567 0107 0B       		.uleb128 0xb
 1568 0108 27       		.uleb128 0x27
 1569 0109 19       		.uleb128 0x19
 1570 010a 20       		.uleb128 0x20
 1571 010b 0B       		.uleb128 0xb
 1572 010c 00       		.byte	0
 1573 010d 00       		.byte	0
 1574 010e 17       		.uleb128 0x17
 1575 010f 2E       		.uleb128 0x2e
 1576 0110 01       		.byte	0x1
 1577 0111 3F       		.uleb128 0x3f
 1578 0112 19       		.uleb128 0x19
 1579 0113 03       		.uleb128 0x3
 1580 0114 0E       		.uleb128 0xe
 1581 0115 3A       		.uleb128 0x3a
 1582 0116 0B       		.uleb128 0xb
 1583 0117 3B       		.uleb128 0x3b
 1584 0118 0B       		.uleb128 0xb
 1585 0119 27       		.uleb128 0x27
 1586 011a 19       		.uleb128 0x19
 1587 011b 11       		.uleb128 0x11
 1588 011c 01       		.uleb128 0x1
ARM GAS  /tmp/ccWYFA6r.s 			page 39


 1589 011d 12       		.uleb128 0x12
 1590 011e 06       		.uleb128 0x6
 1591 011f 40       		.uleb128 0x40
 1592 0120 18       		.uleb128 0x18
 1593 0121 9742     		.uleb128 0x2117
 1594 0123 19       		.uleb128 0x19
 1595 0124 01       		.uleb128 0x1
 1596 0125 13       		.uleb128 0x13
 1597 0126 00       		.byte	0
 1598 0127 00       		.byte	0
 1599 0128 18       		.uleb128 0x18
 1600 0129 1D       		.uleb128 0x1d
 1601 012a 00       		.byte	0
 1602 012b 31       		.uleb128 0x31
 1603 012c 13       		.uleb128 0x13
 1604 012d 52       		.uleb128 0x52
 1605 012e 01       		.uleb128 0x1
 1606 012f 55       		.uleb128 0x55
 1607 0130 17       		.uleb128 0x17
 1608 0131 58       		.uleb128 0x58
 1609 0132 0B       		.uleb128 0xb
 1610 0133 59       		.uleb128 0x59
 1611 0134 0B       		.uleb128 0xb
 1612 0135 00       		.byte	0
 1613 0136 00       		.byte	0
 1614 0137 19       		.uleb128 0x19
 1615 0138 2E       		.uleb128 0x2e
 1616 0139 00       		.byte	0
 1617 013a 3F       		.uleb128 0x3f
 1618 013b 19       		.uleb128 0x19
 1619 013c 03       		.uleb128 0x3
 1620 013d 0E       		.uleb128 0xe
 1621 013e 3A       		.uleb128 0x3a
 1622 013f 0B       		.uleb128 0xb
 1623 0140 3B       		.uleb128 0x3b
 1624 0141 0B       		.uleb128 0xb
 1625 0142 27       		.uleb128 0x27
 1626 0143 19       		.uleb128 0x19
 1627 0144 11       		.uleb128 0x11
 1628 0145 01       		.uleb128 0x1
 1629 0146 12       		.uleb128 0x12
 1630 0147 06       		.uleb128 0x6
 1631 0148 40       		.uleb128 0x40
 1632 0149 18       		.uleb128 0x18
 1633 014a 9742     		.uleb128 0x2117
 1634 014c 19       		.uleb128 0x19
 1635 014d 00       		.byte	0
 1636 014e 00       		.byte	0
 1637 014f 1A       		.uleb128 0x1a
 1638 0150 34       		.uleb128 0x34
 1639 0151 00       		.byte	0
 1640 0152 03       		.uleb128 0x3
 1641 0153 0E       		.uleb128 0xe
 1642 0154 3A       		.uleb128 0x3a
 1643 0155 0B       		.uleb128 0xb
 1644 0156 3B       		.uleb128 0x3b
 1645 0157 05       		.uleb128 0x5
ARM GAS  /tmp/ccWYFA6r.s 			page 40


 1646 0158 49       		.uleb128 0x49
 1647 0159 13       		.uleb128 0x13
 1648 015a 3F       		.uleb128 0x3f
 1649 015b 19       		.uleb128 0x19
 1650 015c 3C       		.uleb128 0x3c
 1651 015d 19       		.uleb128 0x19
 1652 015e 00       		.byte	0
 1653 015f 00       		.byte	0
 1654 0160 1B       		.uleb128 0x1b
 1655 0161 34       		.uleb128 0x34
 1656 0162 00       		.byte	0
 1657 0163 03       		.uleb128 0x3
 1658 0164 0E       		.uleb128 0xe
 1659 0165 3A       		.uleb128 0x3a
 1660 0166 0B       		.uleb128 0xb
 1661 0167 3B       		.uleb128 0x3b
 1662 0168 0B       		.uleb128 0xb
 1663 0169 49       		.uleb128 0x49
 1664 016a 13       		.uleb128 0x13
 1665 016b 3F       		.uleb128 0x3f
 1666 016c 19       		.uleb128 0x19
 1667 016d 02       		.uleb128 0x2
 1668 016e 18       		.uleb128 0x18
 1669 016f 00       		.byte	0
 1670 0170 00       		.byte	0
 1671 0171 1C       		.uleb128 0x1c
 1672 0172 34       		.uleb128 0x34
 1673 0173 00       		.byte	0
 1674 0174 03       		.uleb128 0x3
 1675 0175 08       		.uleb128 0x8
 1676 0176 3A       		.uleb128 0x3a
 1677 0177 0B       		.uleb128 0xb
 1678 0178 3B       		.uleb128 0x3b
 1679 0179 05       		.uleb128 0x5
 1680 017a 49       		.uleb128 0x49
 1681 017b 13       		.uleb128 0x13
 1682 017c 3F       		.uleb128 0x3f
 1683 017d 19       		.uleb128 0x19
 1684 017e 3C       		.uleb128 0x3c
 1685 017f 19       		.uleb128 0x19
 1686 0180 00       		.byte	0
 1687 0181 00       		.byte	0
 1688 0182 00       		.byte	0
 1689              		.section	.debug_aranges,"",%progbits
 1690 0000 24000000 		.4byte	0x24
 1691 0004 0200     		.2byte	0x2
 1692 0006 00000000 		.4byte	.Ldebug_info0
 1693 000a 04       		.byte	0x4
 1694 000b 00       		.byte	0
 1695 000c 0000     		.2byte	0
 1696 000e 0000     		.2byte	0
 1697 0010 00000000 		.4byte	.LFB220
 1698 0014 3C000000 		.4byte	.LFE220-.LFB220
 1699 0018 00000000 		.4byte	.LFB221
 1700 001c 9E000000 		.4byte	.LFE221-.LFB221
 1701 0020 00000000 		.4byte	0
 1702 0024 00000000 		.4byte	0
ARM GAS  /tmp/ccWYFA6r.s 			page 41


 1703              		.section	.debug_ranges,"",%progbits
 1704              	.Ldebug_ranges0:
 1705 0000 1C000000 		.4byte	.LBB4
 1706 0004 20000000 		.4byte	.LBE4
 1707 0008 28000000 		.4byte	.LBB8
 1708 000c 2C000000 		.4byte	.LBE8
 1709 0010 32000000 		.4byte	.LBB9
 1710 0014 3C000000 		.4byte	.LBE9
 1711 0018 00000000 		.4byte	0
 1712 001c 00000000 		.4byte	0
 1713 0020 00000000 		.4byte	.LFB220
 1714 0024 3C000000 		.4byte	.LFE220
 1715 0028 00000000 		.4byte	.LFB221
 1716 002c 9E000000 		.4byte	.LFE221
 1717 0030 00000000 		.4byte	0
 1718 0034 00000000 		.4byte	0
 1719              		.section	.debug_line,"",%progbits
 1720              	.Ldebug_line0:
 1721 0000 4A020000 		.section	.debug_str,"MS",%progbits,1
 1721      0200D501 
 1721      00000201 
 1721      FB0E0D00 
 1721      01010101 
 1722              	.LASF41:
 1723 0000 63685F74 		.ascii	"ch_threads_list\000"
 1723      68726561 
 1723      64735F6C 
 1723      69737400 
 1724              	.LASF68:
 1725 0010 52455345 		.ascii	"RESERVED\000"
 1725      52564544 
 1725      00
 1726              	.LASF77:
 1727 0019 41504231 		.ascii	"APB1ENR\000"
 1727      454E5200 
 1728              	.LASF101:
 1729 0021 53797374 		.ascii	"SystemCoreClock\000"
 1729      656D436F 
 1729      7265436C 
 1729      6F636B00 
 1730              	.LASF92:
 1731 0031 77746D74 		.ascii	"wtmtxp\000"
 1731      787000
 1732              	.LASF104:
 1733 0038 2F686F6D 		.ascii	"/home/otto/Escritorio/Semestre12/Embebidos/ChibiOS_"
 1733      652F6F74 
 1733      746F2F45 
 1733      73637269 
 1733      746F7269 
 1734 006b 31372E36 		.ascii	"17.6.2/demos/STM32/NIL-STM32F100-DISCOVERY\000"
 1734      2E322F64 
 1734      656D6F73 
 1734      2F53544D 
 1734      33322F4E 
 1735              	.LASF82:
 1736 0096 72656761 		.ascii	"regarm_t\000"
 1736      726D5F74 
ARM GAS  /tmp/ccWYFA6r.s 			page 42


 1736      00
 1737              	.LASF73:
 1738 009f 41504232 		.ascii	"APB2RSTR\000"
 1738      52535452 
 1738      00
 1739              	.LASF30:
 1740 00a8 666C6167 		.ascii	"flags\000"
 1740      7300
 1741              	.LASF21:
 1742 00ae 73797374 		.ascii	"systime_t\000"
 1742      696D655F 
 1742      7400
 1743              	.LASF36:
 1744 00b8 7265616C 		.ascii	"realprio\000"
 1744      7072696F 
 1744      00
 1745              	.LASF34:
 1746 00c1 6570656E 		.ascii	"epending\000"
 1746      64696E67 
 1746      00
 1747              	.LASF0:
 1748 00ca 756E7369 		.ascii	"unsigned int\000"
 1748      676E6564 
 1748      20696E74 
 1748      00
 1749              	.LASF42:
 1750 00d7 6E657874 		.ascii	"next\000"
 1750      00
 1751              	.LASF39:
 1752 00dc 74687265 		.ascii	"threads_list_t\000"
 1752      6164735F 
 1752      6C697374 
 1752      5F7400
 1753              	.LASF78:
 1754 00eb 42444352 		.ascii	"BDCR\000"
 1754      00
 1755              	.LASF31:
 1756 00f0 72656673 		.ascii	"refs\000"
 1756      00
 1757              	.LASF88:
 1758 00f5 77746F62 		.ascii	"wtobjp\000"
 1758      6A7000
 1759              	.LASF63:
 1760 00fc 76746C69 		.ascii	"vtlist\000"
 1760      737400
 1761              	.LASF84:
 1762 0103 706F7274 		.ascii	"port_context\000"
 1762      5F636F6E 
 1762      74657874 
 1762      00
 1763              	.LASF47:
 1764 0110 63685F72 		.ascii	"ch_ready_list\000"
 1764      65616479 
 1764      5F6C6973 
 1764      7400
 1765              	.LASF53:
 1766 011e 66756E63 		.ascii	"func\000"
ARM GAS  /tmp/ccWYFA6r.s 			page 43


 1766      00
 1767              	.LASF93:
 1768 0123 65776D61 		.ascii	"ewmask\000"
 1768      736B00
 1769              	.LASF45:
 1770 012a 70726576 		.ascii	"prev\000"
 1770      00
 1771              	.LASF44:
 1772 012f 63685F74 		.ascii	"ch_threads_queue\000"
 1772      68726561 
 1772      64735F71 
 1772      75657565 
 1772      00
 1773              	.LASF49:
 1774 0140 76746675 		.ascii	"vtfunc_t\000"
 1774      6E635F74 
 1774      00
 1775              	.LASF58:
 1776 0149 63685F73 		.ascii	"ch_system_debug\000"
 1776      79737465 
 1776      6D5F6465 
 1776      62756700 
 1777              	.LASF105:
 1778 0159 68616C5F 		.ascii	"hal_lld_backup_domain_init\000"
 1778      6C6C645F 
 1778      6261636B 
 1778      75705F64 
 1778      6F6D6169 
 1779              	.LASF9:
 1780 0174 75696E74 		.ascii	"uint32_t\000"
 1780      33325F74 
 1780      00
 1781              	.LASF90:
 1782 017d 73656E74 		.ascii	"sentmsg\000"
 1782      6D736700 
 1783              	.LASF19:
 1784 0185 6576656E 		.ascii	"eventmask_t\000"
 1784      746D6173 
 1784      6B5F7400 
 1785              	.LASF94:
 1786 0191 63685F73 		.ascii	"ch_semaphore\000"
 1786      656D6170 
 1786      686F7265 
 1786      00
 1787              	.LASF17:
 1788 019e 74707269 		.ascii	"tprio_t\000"
 1788      6F5F7400 
 1789              	.LASF51:
 1790 01a6 63685F76 		.ascii	"ch_virtual_timer\000"
 1790      69727475 
 1790      616C5F74 
 1790      696D6572 
 1790      00
 1791              	.LASF13:
 1792 01b7 6C6F6E67 		.ascii	"long long unsigned int\000"
 1792      206C6F6E 
 1792      6720756E 
ARM GAS  /tmp/ccWYFA6r.s 			page 44


 1792      7369676E 
 1792      65642069 
 1793              	.LASF67:
 1794 01ce 4F50544B 		.ascii	"OPTKEYR\000"
 1794      45595200 
 1795              	.LASF20:
 1796 01d6 636E745F 		.ascii	"cnt_t\000"
 1796      7400
 1797              	.LASF66:
 1798 01dc 4B455952 		.ascii	"KEYR\000"
 1798      00
 1799              	.LASF96:
 1800 01e1 6F776E65 		.ascii	"owner\000"
 1800      7200
 1801              	.LASF43:
 1802 01e7 74687265 		.ascii	"threads_queue_t\000"
 1802      6164735F 
 1802      71756575 
 1802      655F7400 
 1803              	.LASF35:
 1804 01f7 6D74786C 		.ascii	"mtxlist\000"
 1804      69737400 
 1805              	.LASF55:
 1806 01ff 63685F76 		.ascii	"ch_virtual_timers_list\000"
 1806      69727475 
 1806      616C5F74 
 1806      696D6572 
 1806      735F6C69 
 1807              	.LASF22:
 1808 0216 74687265 		.ascii	"thread_t\000"
 1808      61645F74 
 1808      00
 1809              	.LASF69:
 1810 021f 57525052 		.ascii	"WRPR\000"
 1810      00
 1811              	.LASF86:
 1812 0224 7264796D 		.ascii	"rdymsg\000"
 1812      736700
 1813              	.LASF70:
 1814 022b 464C4153 		.ascii	"FLASH_TypeDef\000"
 1814      485F5479 
 1814      70654465 
 1814      6600
 1815              	.LASF81:
 1816 0239 5243435F 		.ascii	"RCC_TypeDef\000"
 1816      54797065 
 1816      44656600 
 1817              	.LASF95:
 1818 0245 63685F6D 		.ascii	"ch_mutex\000"
 1818      75746578 
 1818      00
 1819              	.LASF102:
 1820 024e 474E5520 		.ascii	"GNU C 4.8.1 -mcpu=cortex-m3 -mno-thumb-interwork -m"
 1820      4320342E 
 1820      382E3120 
 1820      2D6D6370 
 1820      753D636F 
ARM GAS  /tmp/ccWYFA6r.s 			page 45


 1821 0281 7468756D 		.ascii	"thumb -ggdb -O2 -fomit-frame-pointer -falign-functi"
 1821      62202D67 
 1821      67646220 
 1821      2D4F3220 
 1821      2D666F6D 
 1822 02b4 6F6E733D 		.ascii	"ons=16 -ffunction-sections -fdata-sections -fno-com"
 1822      3136202D 
 1822      6666756E 
 1822      6374696F 
 1822      6E2D7365 
 1823 02e7 6D6F6E20 		.ascii	"mon -flto\000"
 1823      2D666C74 
 1823      6F00
 1824              	.LASF74:
 1825 02f1 41504231 		.ascii	"APB1RSTR\000"
 1825      52535452 
 1825      00
 1826              	.LASF24:
 1827 02fa 7072696F 		.ascii	"prio\000"
 1827      00
 1828              	.LASF97:
 1829 02ff 63686172 		.ascii	"char\000"
 1829      00
 1830              	.LASF38:
 1831 0304 74687265 		.ascii	"thread_reference_t\000"
 1831      61645F72 
 1831      65666572 
 1831      656E6365 
 1831      5F7400
 1832              	.LASF28:
 1833 0317 77616261 		.ascii	"wabase\000"
 1833      736500
 1834              	.LASF15:
 1835 031e 74737461 		.ascii	"tstate_t\000"
 1835      74655F74 
 1835      00
 1836              	.LASF75:
 1837 0327 41484245 		.ascii	"AHBENR\000"
 1837      4E5200
 1838              	.LASF4:
 1839 032e 75696E74 		.ascii	"uint8_t\000"
 1839      385F7400 
 1840              	.LASF33:
 1841 0336 6D736771 		.ascii	"msgqueue\000"
 1841      75657565 
 1841      00
 1842              	.LASF40:
 1843 033f 63685F74 		.ascii	"ch_thread\000"
 1843      68726561 
 1843      6400
 1844              	.LASF57:
 1845 0349 73797374 		.ascii	"system_debug_t\000"
 1845      656D5F64 
 1845      65627567 
 1845      5F7400
 1846              	.LASF11:
 1847 0358 6C6F6E67 		.ascii	"long long int\000"
ARM GAS  /tmp/ccWYFA6r.s 			page 46


 1847      206C6F6E 
 1847      6720696E 
 1847      7400
 1848              	.LASF18:
 1849 0366 6D73675F 		.ascii	"msg_t\000"
 1849      7400
 1850              	.LASF50:
 1851 036c 76697274 		.ascii	"virtual_timer_t\000"
 1851      75616C5F 
 1851      74696D65 
 1851      725F7400 
 1852              	.LASF80:
 1853 037c 43464752 		.ascii	"CFGR2\000"
 1853      3200
 1854              	.LASF76:
 1855 0382 41504232 		.ascii	"APB2ENR\000"
 1855      454E5200 
 1856              	.LASF59:
 1857 038a 70616E69 		.ascii	"panic_msg\000"
 1857      635F6D73 
 1857      6700
 1858              	.LASF99:
 1859 0394 5F426F6F 		.ascii	"_Bool\000"
 1859      6C00
 1860              	.LASF14:
 1861 039a 746D6F64 		.ascii	"tmode_t\000"
 1861      655F7400 
 1862              	.LASF64:
 1863 03a2 6D61696E 		.ascii	"mainthread\000"
 1863      74687265 
 1863      616400
 1864              	.LASF5:
 1865 03ad 75696E74 		.ascii	"uint16_t\000"
 1865      31365F74 
 1865      00
 1866              	.LASF79:
 1867 03b6 52455345 		.ascii	"RESERVED0\000"
 1867      52564544 
 1867      3000
 1868              	.LASF3:
 1869 03c0 73686F72 		.ascii	"short int\000"
 1869      7420696E 
 1869      7400
 1870              	.LASF71:
 1871 03ca 5057525F 		.ascii	"PWR_TypeDef\000"
 1871      54797065 
 1871      44656600 
 1872              	.LASF8:
 1873 03d6 6C6F6E67 		.ascii	"long int\000"
 1873      20696E74 
 1873      00
 1874              	.LASF85:
 1875 03df 706F7274 		.ascii	"port_intctx\000"
 1875      5F696E74 
 1875      63747800 
 1876              	.LASF100:
 1877 03eb 49544D5F 		.ascii	"ITM_RxBuffer\000"
ARM GAS  /tmp/ccWYFA6r.s 			page 47


 1877      52784275 
 1877      66666572 
 1877      00
 1878              	.LASF61:
 1879 03f8 63685F73 		.ascii	"ch_system\000"
 1879      79737465 
 1879      6D00
 1880              	.LASF56:
 1881 0402 6C617374 		.ascii	"lasttime\000"
 1881      74696D65 
 1881      00
 1882              	.LASF12:
 1883 040b 75696E74 		.ascii	"uint64_t\000"
 1883      36345F74 
 1883      00
 1884              	.LASF72:
 1885 0414 43464752 		.ascii	"CFGR\000"
 1885      00
 1886              	.LASF62:
 1887 0419 726C6973 		.ascii	"rlist\000"
 1887      7400
 1888              	.LASF27:
 1889 041f 6E616D65 		.ascii	"name\000"
 1889      00
 1890              	.LASF65:
 1891 0424 73697A65 		.ascii	"sizetype\000"
 1891      74797065 
 1891      00
 1892              	.LASF16:
 1893 042d 74726566 		.ascii	"trefs_t\000"
 1893      735F7400 
 1894              	.LASF10:
 1895 0435 6C6F6E67 		.ascii	"long unsigned int\000"
 1895      20756E73 
 1895      69676E65 
 1895      6420696E 
 1895      7400
 1896              	.LASF106:
 1897 0447 68616C5F 		.ascii	"hal_lld_init\000"
 1897      6C6C645F 
 1897      696E6974 
 1897      00
 1898              	.LASF46:
 1899 0454 72656164 		.ascii	"ready_list_t\000"
 1899      795F6C69 
 1899      73745F74 
 1899      00
 1900              	.LASF23:
 1901 0461 71756575 		.ascii	"queue\000"
 1901      6500
 1902              	.LASF7:
 1903 0467 696E7433 		.ascii	"int32_t\000"
 1903      325F7400 
 1904              	.LASF91:
 1905 046f 77747365 		.ascii	"wtsemp\000"
 1905      6D7000
 1906              	.LASF98:
ARM GAS  /tmp/ccWYFA6r.s 			page 48


 1907 0476 6D757465 		.ascii	"mutex_t\000"
 1907      785F7400 
 1908              	.LASF25:
 1909 047e 6E657765 		.ascii	"newer\000"
 1909      7200
 1910              	.LASF2:
 1911 0484 756E7369 		.ascii	"unsigned char\000"
 1911      676E6564 
 1911      20636861 
 1911      7200
 1912              	.LASF32:
 1913 0492 77616974 		.ascii	"waiting\000"
 1913      696E6700 
 1914              	.LASF54:
 1915 049a 76697274 		.ascii	"virtual_timers_list_t\000"
 1915      75616C5F 
 1915      74696D65 
 1915      72735F6C 
 1915      6973745F 
 1916              	.LASF29:
 1917 04b0 73746174 		.ascii	"state\000"
 1917      6500
 1918              	.LASF60:
 1919 04b6 63685F73 		.ascii	"ch_system_t\000"
 1919      79737465 
 1919      6D5F7400 
 1920              	.LASF89:
 1921 04c2 77747472 		.ascii	"wttrp\000"
 1921      7000
 1922              	.LASF1:
 1923 04c8 7369676E 		.ascii	"signed char\000"
 1923      65642063 
 1923      68617200 
 1924              	.LASF52:
 1925 04d4 64656C74 		.ascii	"delta\000"
 1925      6100
 1926              	.LASF6:
 1927 04da 73686F72 		.ascii	"short unsigned int\000"
 1927      7420756E 
 1927      7369676E 
 1927      65642069 
 1927      6E7400
 1928              	.LASF83:
 1929 04ed 73746B61 		.ascii	"stkalign_t\000"
 1929      6C69676E 
 1929      5F7400
 1930              	.LASF48:
 1931 04f8 63757272 		.ascii	"current\000"
 1931      656E7400 
 1932              	.LASF26:
 1933 0500 6F6C6465 		.ascii	"older\000"
 1933      7200
 1934              	.LASF107:
 1935 0506 73746D33 		.ascii	"stm32_clock_init\000"
 1935      325F636C 
 1935      6F636B5F 
 1935      696E6974 
ARM GAS  /tmp/ccWYFA6r.s 			page 49


 1935      00
 1936              	.LASF87:
 1937 0517 65786974 		.ascii	"exitcode\000"
 1937      636F6465 
 1937      00
 1938              	.LASF37:
 1939 0520 6D706F6F 		.ascii	"mpool\000"
 1939      6C00
 1940              	.LASF103:
 1941 0526 2E2E2F2E 		.ascii	"../../../os/hal/ports/STM32/STM32F1xx/hal_lld.c\000"
 1941      2E2F2E2E 
 1941      2F6F732F 
 1941      68616C2F 
 1941      706F7274 
 1942              		.comm	__gnu_lto_v1,1,1
 1943              		.ident	"GCC: (Sourcery CodeBench Lite 2013.11-24) 4.8.1"
ARM GAS  /tmp/ccWYFA6r.s 			page 50


DEFINED SYMBOLS
                            *ABS*:00000000 hal_lld.c
     /tmp/ccWYFA6r.s:196    .text.hal_lld_init:00000000 $t
     /tmp/ccWYFA6r.s:202    .text.hal_lld_init:00000000 hal_lld_init
     /tmp/ccWYFA6r.s:257    .text.stm32_clock_init:00000000 $t
     /tmp/ccWYFA6r.s:263    .text.stm32_clock_init:00000000 stm32_clock_init
     /tmp/ccWYFA6r.s:368    .data.SystemCoreClock:00000000 SystemCoreClock
     /tmp/ccWYFA6r.s:365    .data.SystemCoreClock:00000000 $d
                            *COM*:00000001 __gnu_lto_v1
                     .debug_frame:00000010 $d

NO UNDEFINED SYMBOLS
