ARM GAS  /tmp/cciKmy7D.s 			page 1


   1              		.syntax unified
   2              		.cpu cortex-m3
   3              		.fpu softvfp
   4              		.eabi_attribute 20, 1
   5              		.eabi_attribute 21, 1
   6              		.eabi_attribute 23, 3
   7              		.eabi_attribute 24, 1
   8              		.eabi_attribute 25, 1
   9              		.eabi_attribute 26, 1
  10              		.eabi_attribute 30, 2
  11              		.eabi_attribute 34, 1
  12              		.eabi_attribute 18, 4
  13              		.thumb
  14              		.file	"hal_pal_lld.c"
  15              		.text
  16              	.Ltext0:
  17              		.section	.gnu.lto_.jmpfuncs.b004f98173ab17af,"",%progbits
  18 0000 789C6362 		.ascii	"x\234cb`b\300\006\330\2404\023\003##;\003\000\001/\000"
  18      6062C006 
  18      D8A03413 
  18      0323233B 
  18      0300012F 
  19 0015 16       		.ascii	"\026"
  20              		.text
  21              		.section	.gnu.lto_.inline.b004f98173ab17af,"",%progbits
  22 0000 789C6D91 		.ascii	"x\234m\221\261\015\3020\020E\357.\006\"\032\\\321\022"
  22      B10DC230 
  22      1045EF2E 
  22      06221A5C 
  22      D112
  23 0012 894CC000 		.ascii	"\211L\300\000\310cP\322\001[\334\012T\210\012\217\222"
  23      C86350D2 
  23      015BDC0A 
  23      54880A8F 
  23      92
  24 0023 968E0128 		.ascii	"\226\216\001((\031\003\337}'\025)\336\377gK\317\226"
  24      281903DF 
  24      7D271529 
  24      DEFF674B 
  24      CF96
  25 0035 2324F4EF 		.ascii	"#$\364\357{0\262\354\366[^Q\031\033r&g\347<:3{(b\250"
  25      7B30B2EC 
  25      F65B5E51 
  25      191B7226 
  25      67E73C3A 
  26 004e 93787C30 		.ascii	"\223x|0\345:!\006\2046\230\020\271\351\372|\027\232"
  26      E53A2106 
  26      84369810 
  26      B9E9FA7C 
  26      179A
  27 0060 E74DD9FE 		.ascii	"\347M\331\376.\002hh\275\266\206\3505\032:\257\235!"
  27      2E026868 
  27      BDB686E8 
  27      351A3AAF 
  27      9D21
  28 0072 794D0665 		.ascii	"yM\006eA8\005\003\030j8\341T\227*\254\352Z\205W]\254"
  28      41380503 
ARM GAS  /tmp/cciKmy7D.s 			page 2


  28      186A38E1 
  28      54972AAC 
  28      EA5A8557 
  29 0088 302BD4A3 		.ascii	"0+\324\243\273\312G{\325\217\376r\000\331S\365W\346"
  29      BBCA477B 
  29      D58FFE72 
  29      00D953F5 
  29      57E6
  30 009a 999C0E7C 		.ascii	"\231\234\016|a{;9O\015kaZ\263f\357\335\356^\357H\313"
  30      617B3B39 
  30      4F0D6B61 
  30      5AB366EF 
  30      DDEE5EEF 
  31 00b0 612F14F2 		.ascii	"a/\024\362&Q\030\326\251\\\360\311\321nkA|\023;\246"
  31      265118D6 
  31      A95CF0C9 
  31      D16E6B41 
  31      7C133BA6 
  32 00c4 D07FCF0F 		.ascii	"\320\177\317\017\201\324D\242"
  32      81D444A2 
  33              		.text
  34              		.section	.gnu.lto_.pureconst.b004f98173ab17af,"",%progbits
  35 0000 789C6362 		.ascii	"x\234cb`b`e\200\000&\006)F)\000\001\006\000A"
  35      60626065 
  35      80002606 
  35      29462900 
  35      01060041 
  36              		.text
  37              		.section	.gnu.lto__pal_lld_init.b004f98173ab17af,"",%progbits
  38 0000 789CA596 		.ascii	"x\234\245\226\301k\023A\024\207\337\233\315n61\204\020"
  38      C16B1341 
  38      1487DF9B 
  38      CD6E3631 
  38      8410
  39 0012 42882184 		.ascii	"B\210!\204\020\275\011Y\252\210\377\200 \205\212\202"
  39      10BD0959 
  39      AA88FF80 
  39      20858A82 
  40 0022 11F450A4 		.ascii	"\021\364P\244VH\003\221\026+\336\244\023\315\301c\216"
  40      56480391 
  40      162BDEA4 
  40      13CDC163 
  40      8E
  41 0033 C516A937 		.ascii	"\305\026\2517\361P=\306\233\344 x\210\350Mz\352U\005"
  41      F1503DC6 
  41      9BE42078 
  41      88E84D7A 
  41      EA5505
  42 0046 15BD786B 		.ascii	"\025\275xk\347\355\316$\203K /\035\262\277\231ev\036"
  42      E7EDCE24 
  42      834B202F 
  42      1DB2BF99 
  42      65761E
  43 0059 DFE67B90 		.ascii	"\337\346{\220\010\020\360\3778\255\256\345\024\300%"
  43      0810F0FF 
  43      38ADAEE5 
  43      14C025
ARM GAS  /tmp/cciKmy7D.s 			page 3


  44 0068 35A30328 		.ascii	"5\243\003(\372\237\000\272\276@\244\005 l\011\334\272"
  44      FA9F00BA 
  44      BE40A405 
  44      206C09DC 
  44      BA
  45 0079 8DE1B36F 		.ascii	"\215\341\263o\304\373\303\243\243\375\301\207\375]|"
  45      C4FBC3A3 
  45      A3FDC187 
  45      FD5D7C
  46 0088 21CE0A68 		.ascii	"!\316\012h#8\024.\336G\360h\345S\244)2\024Y\212\034"
  46      2338142E 
  46      DE47F068 
  46      E553A429 
  46      3214598A 
  47 009d 459EA240 		.ascii	"E\236\242@Q\244(Q\224)*\024U\212\032E\235B\015\027z"
  47      51A42851 
  47      94292A14 
  47      558A1A45 
  47      9D420D17 
  48 00b2 52F66B00 		.ascii	"R\366k\000\253\341mS%\001\335DA\2633\202\341\301\340"
  48      ABE16D53 
  48      2501DD44 
  48      41B33382 
  48      E1C1E0
  49 00c5 7B69055F 		.ascii	"{i\005_\242\013-\024\347\340\265\354usm\304\035x\216"
  49      A20B2D14 
  49      E7E0B5EC 
  49      75736DC4 
  49      1D788E
  50 00d8 6D14B754 		.ascii	"m\024\267T8r\357\231L@\270\014_\340.\232\327\036\301"
  50      3872EF99 
  50      4C40B80C 
  50      5FE02E9A 
  50      D71EC1
  51 00eb D3778E39 		.ascii	"\323w\2169\355\264\242\347\341q\2703\\\2146x5[t?\202"
  51      EDB4A2E7 
  51      E171B833 
  51      5C8C3678 
  51      355B743F 
  52 0100 27075F7F 		.ascii	"'\007_\177\374\036W\366\250\206\252\220\240\271/\345"
  52      FC1E57F6 
  52      A886AA90 
  52      A0B92FE5 
  53 0110 721BDDA8 		.ascii	"r\033\335\250\230\327B\227\212$u\021\324\263\030\003"
  53      98D74297 
  53      8A247511 
  53      D4B31803 
  54 0120 0E3F7E4E 		.ascii	"\016?~N\332 raL\342\323\311\224\354\3674IJ\037v4\211"
  54      DA207261 
  54      4CE2D3C9 
  54      94ECF734 
  54      494A1F76 
  55 0136 1791FCB3 		.ascii	"\027\221\374\263H|6I\342$$\256&\361#\222\355\237\023"
  55      487C3649 
  55      E22424AE 
  55      26F12392 
  55      ED9F13
ARM GAS  /tmp/cciKmy7D.s 			page 4


  56 0149 92349BC4 		.ascii	"\2224\233\304;\011IR\223\244#\222\201E\222\231\231\304"
  56      3B094952 
  56      93A42392 
  56      81459299 
  56      99C4
  57 015b 9FC3CEF6 		.ascii	"\237\303\316\3664;\031\335'\026I\226M\302\261\023#1"
  57      343B19DD 
  57      27164996 
  57      4DC2B113 
  57      2331
  58 016d 76B2BA4F 		.ascii	"v\262\272O,\222\034\233\204c'Fb\354\344t\237\374\232"
  58      2C921C9B 
  58      84632746 
  58      62ECE474 
  58      9FFC9A
  59 0180 90E46726 		.ascii	"\220\344g&1\3058v\366\246\331\311\353>\261H\012l\022"
  59      31C53876 
  59      F6A6D9C9 
  59      EB3EB148 
  59      0A6C12
  60 0193 8E9D1889 		.ascii	"\216\235\030\211\261S\320}b\221\024\331$\034;1\022c"
  60      B153D07D 
  60      629114D9 
  60      241C3B31 
  60      1263
  61 01a5 A7A8FBC4 		.ascii	"\247\250\373\304\")\315L\222\236\303\316\253ivJ\272"
  61      2229CD4C 
  61      929EC3CE 
  61      AB69764A 
  61      BA
  62 01b6 4FFE4C48 		.ascii	"O\376LH\312l\022\216\235\030\211\261S\326}b\221T\330"
  62      CA6C128E 
  62      9D1889B1 
  62      53D67D62 
  62      9154D8
  63 01c9 241C3B31 		.ascii	"$\034;1\022c\247\242\355X$\325\231IN\315a\347\3554;"
  63      1263A7A2 
  63      ED5824D5 
  63      99494ECD 
  63      61E7ED34 
  64 01de 556DE7EF 		.ascii	"Um\347\357\204\244\306&\341\330\211\221\030;5m\307\""
  64      84A4C626 
  64      E1D88991 
  64      183B356D 
  64      C722
  65 01f0 A9B34938 		.ascii	"\251\263I8vb$\306N\035\340\013t\017\277\235\211\316"
  65      766224C6 
  65      4E1DE00B 
  65      740FBF9D 
  65      89CE
  66 0202 9BD154BF 		.ascii	"\233\321T\277n\352\217\014}\355\027\033\215 \372\254"
  66      6EEA8F0C 
  66      7DED171B 
  66      8D20FAAC 
  67 0212 6F066B2B 		.ascii	"o\006k+\235`c\375\301\303\315\340F\363\352\205\363\301"
  67      9D6063FD 
  67      C1C3CDE0 
ARM GAS  /tmp/cciKmy7D.s 			page 5


  67      46F3EA85 
  67      F3C1
  68 0224 D2D2E5E0 		.ascii	"\322\322\345\340\312\365\305k\217\026h\353\316\206\272"
  68      CAF5C56B 
  68      8F1668EB 
  68      CE86BA
  69 0233 3A9D7B8D 		.ascii	":\235{\215U8\006M\334\014\370"
  69      5538064D 
  69      DC0CF8
  70              		.text
  71              		.section	.gnu.lto__pal_lld_setgroupmode.b004f98173ab17af,"",%progbits
  72 0000 789C9556 		.ascii	"x\234\225V]h\\U\020\236\271\377w\367\356n\311\377\177"
  72      5D685C55 
  72      109EB9FF 
  72      77F7EE6E 
  72      C9FF7F
  73 0013 D2D04445 		.ascii	"\322\320DE\314R\213\320\007A\021E\305\212\202\011\350"
  73      CC528BD0 
  73      07411145 
  73      C58A8209 
  73      E8
  74 0024 93C6046F 		.ascii	"\223\306\004o\026\262\264\244\342\213\017\275\311\346"
  74      16B2B4A4 
  74      E28B0FBD 
  74      C9E6
  75 0032 A1149120 		.ascii	"\241\024\221 \270\304\237\207D\011\226\030\215\012\322"
  75      B8C49F87 
  75      44099618 
  75      8D0AD2
  76 0041 D40A6E82 		.ascii	"\324\012n\202\205\246M\205<\3055\025VE\005\023T(B\252"
  76      85A64D85 
  76      3CC53515 
  76      56450513 
  76      542842AA 
  77 0055 ADEB9CBF 		.ascii	"\255\353\234\277\273\331u%\361\222=s\356\314|3\363\315"
  77      BBD97525 
  77      F1923D73 
  77      EECC7C33 
  77      F3CD
  78 0067 9C3D1B0D 		.ascii	"\234=\033\0154\250|>\245\317\246\013\360\030I<\000\250"
  78      34A87C3E 
  78      A5CFA60B 
  78      F018493C 
  78      00A8
  79 0079 4D7D0530 		.ascii	"M}\0050\356h\232\376{=\004\021c\346(\004\236\216\226"
  79      EE689AFE 
  79      7B3D0411 
  79      63E62804 
  79      9E8E96
  80 008c 501B9AC9 		.ascii	"P\033\232\311\325\026W\233Jma\\ll\3159}\033\331]\266"
  80      D516579B 
  80      4A6D615C 
  80      6C6CCD39 
  80      7D1BD95D 
  81 00a1 7A0E4684 		.ascii	"z\016F\204\332U\233\210\026\345v\217\333\243\030\023"
  81      DA559B88 
  81      16E5768F 
ARM GAS  /tmp/cciKmy7D.s 			page 6


  81      DBA31813 
  82 00b1 6A4F6D62 		.ascii	"jOmb\"\320\262\023\327\354\363\027\201<\023\033\016"
  82      22D0B213 
  82      D7ECF317 
  82      813C131B 
  82      0E
  83 00c2 79261099 		.ascii	"y&\020\231\036\020Ni\272aZ\266\343F\242^,\236\300S\317"
  83      1E104E69 
  83      BA615AB6 
  83      E346A25E 
  83      2C9EC053 
  84 00d7 20A361A4 		.ascii	" \243a\244\021\272a6\010^+\314}\270\252\277\021\344"
  84      11BA6136 
  84      085E2BCC 
  84      7DB8AABF 
  84      11E4
  85 00e9 2667829B 		.ascii	"&g\202\233\305\"b\012\211\365Q\204!\204\247\351\005"
  85      C522620A 
  85      89F55184 
  85      2184A7E9 
  85      05
  86 00fa BBB8D08C 		.ascii	"\273\270\320\214\3626\010lpk\370R0\231+\026\357\343"
  86      F236086C 
  86      706BF852 
  86      30992B16 
  86      EFE3
  87 010c A87BF787 		.ascii	"\250{\367\207\312\375q\346\325\346`fb*\370\233\022\246"
  87      CAFD71E6 
  87      D5E66066 
  87      622AF89B 
  87      12A6
  88 011e 50D7E0FE 		.ascii	"P\327\340\376\275\220\213Z\256P,\256\255o\177\277\205"
  88      BD908B5A 
  88      AE502CAE 
  88      AD6F7FBF 
  88      85
  89 012f 35B723A4 		.ascii	"5\267#\244\0215\030\304Y\354\006]JCJSJKJ[JGJW\312\010"
  89      113518C4 
  89      59EC065D 
  89      4A434A53 
  89      4A4B4A5B 
  90 0149 C939921E 		.ascii	"\3119\222\036\246Q\213\323\242'h\301\032H\241QK\266"
  90      A6518BD3 
  90      A22768C1 
  90      1A48A151 
  90      4BB6
  91 015b 77C95627 		.ascii	"w\311V'}\353\245l\220\262Q\312&r6\233\345K\213\224\255"
  91      7DEBA56C 
  91      90B251CA 
  91      2672369B 
  91      E54B8B94 
  92 0170 4CD9265F 		.ascii	"L\331&_\332\245\354`%w\312\224]\314\343 [\272\331r\210"
  92      DAA5EC60 
  92      2577CA94 
  92      5DCCE320 
  92      5BBAD972 
  93 0185 2D3D6CE9 		.ascii	"-=l\351e\013\3215a2\010\246\272\302!\345\256\227\267"
ARM GAS  /tmp/cciKmy7D.s 			page 7


  93      650BD135 
  93      613208A6 
  93      BAC221E5 
  93      AE97B7
  94 0198 8C9AFDC0 		.ascii	"\214\232\375\300>G\264^6\242\207\366\211\312\227\241"
  94      3E47B45E 
  94      36A287F6 
  94      89CA97A1 
  95 01a8 1ED90B25 		.ascii	"\036\331\013%8\212\236\011\212\300\020\364\364\323J"
  95      388A9E09 
  95      8AC010F4 
  95      F4D34A
  96 01b7 477280C6 		.ascii	"Gr\200\306\265\341\350\227\340\313\237\227o\234\321"
  96      B5E1E897 
  96      E0CB9F97 
  96      6F9CD1
  97 01c6 07F13DE2 		.ascii	"\007\361=\342\351\243\307\202\231\372\256H\003\250\303"
  97      E9A3C782 
  97      99FAAE48 
  97      03A8C3
  98 01d5 394DBF0A 		.ascii	"9M\277\012+W\226\026\2275\341x'\314\007\223\343\301"
  98      2B579616 
  98      9735E178 
  98      27CC0793 
  98      E3C1
  99 01e7 91145A6F 		.ascii	"\221\024Zo\301\233\004\261}\2143\250\3031\317\243\300"
  99      C19B04B1 
  99      7D8C33A8 
  99      C331CFA3 
  99      C0
 100 01f8 FA985041 		.ascii	"\372\230PA\014\230\261D\266[\227c\345\331\214\262l&"
 100      0C98B144 
 100      B65B9763 
 100      E5D98CB2 
 100      6C26
 101 020a 149067DB 		.ascii	"\024\220g\333Y\274\201\373\314\206\225\331,\306\355"
 101      59BC81FB 
 101      CC8695D9 
 101      2CC6ED
 102 0219 2A4C5C9B 		.ascii	"*L\\\233\376D\005\361\261\346.X\010\016\244\320\245"
 102      FE4405F1 
 102      B1E62E58 
 102      080EA4D0 
 102      A5
 103 022a 20E3536C 		.ascii	" \343Sl\027y\031\376\014\246\331.\232\3461X\320\250"
 103      177919FE 
 103      0CA6D92E 
 103      9AE63158 
 103      D0A8
 104 023c 0CE68545 		.ascii	"\014\346\205EQ\240_3\035*L-E\002X\005\331\012\321cR"
 104      51A05F33 
 104      1D2A4C2D 
 104      45025805 
 104      D90AD163 
 105 0251 33DD4461 		.ascii	"3\335Da\365\307\250\322\263\011\260\200<\006\331rw("
 105      F5C7A8D2 
 105      B309B080 
ARM GAS  /tmp/cciKmy7D.s 			page 8


 105      3C06D972 
 105      7728
 106 0263 CB42A5A5 		.ascii	"\313B\245\245UY\346+-\226\262\234\255\260\024._\014"
 106      5559E62B 
 106      2D96B29C 
 106      ADB0142E 
 106      5F0C
 107 0275 6D73D216 		.ascii	"ms\322\026\316m\000m\240\353\207Z\220\371 \263\230m"
 107      CE6D006D 
 107      A0EB875A 
 107      90F920B3 
 107      986D
 108 0287 52B5D7F9 		.ascii	"R\265\327\371h2G\317\2002\012\363\234B\035\243J\200"
 108      683247CF 
 108      80320AF3 
 108      9C421DA3 
 108      4A80
 109 0299 8F1B947F 		.ascii	"\217\033\224\177\275\217z5\377\263\334\277^\372\237"
 109      BD8F7A35 
 109      FFB3DCBF 
 109      5EFA9F
 110 02a8 CB362B40 		.ascii	"\3136+@\203\217n5\300,\0074H\300\3710A\243\217v5\377"
 110      838F6E35 
 110      C02C0734 
 110      48C0F930 
 110      41A38F76 
 111 02be 05EEDFC8 		.ascii	"\005\356\337\310\375/d\276\310v*@\223\217\310OM\300"
 111      FD2F64BE 
 111      C8762A40 
 111      938FC84F 
 111      4DC0
 112 02d0 3AC10ED4 		.ascii	":\301\016\324\370\341\320\306\015\273\277\006\003tD"
 112      F8E1D0C6 
 112      0DBBBF06 
 112      037444
 113 02df BEED666D 		.ascii	"\276\355fm8\237\371!\333\242\034\233\211+\367MTkC\263"
 113      389FF921 
 113      DBA21C9B 
 113      892BF74D 
 113      546B43B3 
 114 02f3 C2BA2176 		.ascii	"\302\272!v+\333\252\260-\234dm\025v-\012\027\341\275"
 114      2BDBAAB0 
 114      2D9C646D 
 114      15762D0A 
 114      17E1BD
 115 0306 A7193910 		.ascii	"\247\0319\020\032\035>4\256\020Y\014\311\355\267\022"
 115      1A1D3E34 
 115      AE10590C 
 115      C9EDB712 
 116 0316 B7D6905B 		.ascii	"\267\326\220[\240\375\213\\k\005\271<\030T\252\363\312"
 116      A0FD8B5C 
 116      6B05B93C 
 116      1854AAF3 
 116      CA
 117 0327 E6089171 		.ascii	"\346\010\221q?\317?\227\007\207Js\256\345\207\251\024"
 117      3FCF3F97 
 117      07874A73 
ARM GAS  /tmp/cciKmy7D.s 			page 9


 117      AEE587A9 
 117      14
 118 0338 77617394 		.ascii	"was\224\225\022\015)\\/\321o\243\321U\243/\246\332\246"
 118      95120D29 
 118      5C2FD16F 
 118      A3D155A3 
 118      2FA6DAA6 
 119 034c 687821F6 		.ascii	"hx!\366\257\022\375v>\263\332*\303jW\270X\031}a\264"
 119      AF12FD76 
 119      3EB3DA2A 
 119      C36A57B8 
 119      58197D61 
 120 0361 4AF44516 		.ascii	"J\364E\026M\036\205b\251\254\016I\337\303\335e\321-"
 120      4D1E8562 
 120      A9AC0E49 
 120      DFC3DD65 
 120      D12D
 121 0373 4D26EE7D 		.ascii	"M&\356}:\363~6\251\274;}\214\3603\217\345$\346x\370"
 121      3AF37E36 
 121      A9BC3B7D 
 121      8CF0338F 
 121      E524E678 
 122 0388 4ED1228D 		.ascii	"N\321\"\215\350D\327X\213\352\2755\326\"\213\312\217"
 122      E844D758 
 122      8BEABD35 
 122      D6228BCA 
 122      8F
 123 0399 6EB316B5 		.ascii	"n\263\026\265{\333\242Eq\240_\346\260\\\001\217\224"
 123      7BDBA245 
 123      71A05FE6 
 123      B05C018F 
 123      94
 124 03aa CA15E373 		.ascii	"\312\025\343sK\012A\310\256\234\247Y\311PW\012\316\000"
 124      4B0A41C8 
 124      AE9CA759 
 124      C950570A 
 124      CE00
 125 03bc D93C277F 		.ascii	"\331<'\177Z~\375Jx\037\211\362\355]\023%\277\204\305"
 125      5A7EFD4A 
 125      781F89F2 
 125      ED5D1325 
 125      BF84C5
 126 03cf E8C66E6E 		.ascii	"\350\306nn\216\344A\227\337w\353\355<\035{-\206y0\225"
 126      8EE44197 
 126      DF77EBED 
 126      3C1D7B2D 
 126      86793095 
 127 03e3 6A49A723 		.ascii	"jI\247#\3044\266\322L\233\324f\246q\225f\2074\016\323"
 127      C434B6D2 
 127      4C9BD466 
 127      A6719566 
 127      87340ED3 
 128 03f7 44E4E560 		.ascii	"D\344\345`-\344\251\025\235\261\035\223\021O\210Kr\345"
 128      2DE4A915 
 128      9DB11D93 
 128      114F884B 
 128      72E5
ARM GAS  /tmp/cciKmy7D.s 			page 10


 129 0409 9BA5CFBE 		.ascii	"\233\245\317\276\323TQ]\374\262\305\377\274j\325?`\374"
 129      D354515D 
 129      FCB2C5FF 
 129      BC6AD53F 
 129      60FC
 130 041b ECFE1272 		.ascii	"\354\376\022r9HHN\231\237\227w\302p\335\334d3\375\312"
 130      3948484E 
 130      999F9777 
 130      C270DDDC 
 130      6433FDCA 
 131 042f EA4776D9 		.ascii	"\352Gv\331}\236\330#\211\317~\265X}_\357\252\357\320"
 131      7D9ED823 
 131      89CF7EB5 
 131      587D5FEF 
 131      AAEFD0
 132 0442 1EF5E9D5 		.ascii	"\036\365\351\325\353\353!$\237QE}\275\334\344\376\317"
 132      EBEB2124 
 132      9F51457D 
 132      BDDCE4FE 
 132      CF
 133 0453 FA74595F 		.ascii	"\372tY_/\300:\214\027\266z\004N=\3754\355\015\207\221"
 133      2FC03A8C 
 133      17B67A04 
 133      4E3DFD34 
 133      ED0D8791 
 134 0467 B8A7AF2F 		.ascii	"\270\247\257/)\376\216\237L\216\014\216&O\034\037{\361"
 134      29FE8E9F 
 134      4C8E0C8E 
 134      264F1C1F 
 134      7BF1
 135 0479 64F2A9FE 		.ascii	"d\362\251\376\307\217\334\235<v\354\301\344\303O>\372"
 135      C78FDC9D 
 135      3C76ECC1 
 135      E4C34F3E 
 135      FA
 136 048a C44B8799 		.ascii	"\304K\207\231\351\331\023\364\031\035\035\356\033\002"
 136      E9D913F4 
 136      191D1DEE 
 136      1B02
 137 0498 7D686C54 		.ascii	"}hlT\037z\301\307\224\226\036\321\322\264\037\033\371"
 137      1F7AC1C7 
 137      94961ED1 
 137      D2B41F1B 
 137      F9
 138 04a9 07E87946 		.ascii	"\007\350yF\377"
 138      FF
 139              		.text
 140              		.section	.gnu.lto_.symbol_nodes.b004f98173ab17af,"",%progbits
 141 0000 789C6362 		.ascii	"x\234cb`bPg\200\002\246\333\214\365\014\014\023\316"
 141      60625067 
 141      8002A6DB 
 141      8CF50C0C 
 141      13CE
 142 0012 3130D4D7 		.ascii	"10\324\327\317\353`d\272\303X\317\210\340\262\336ed"
 142      CFEB6064 
 142      BAC358CF 
 142      88E0B2DE 
ARM GAS  /tmp/cciKmy7D.s 			page 11


 142      6564
 143 0024 60A96766 		.ascii	"`\251gf\000\000\361/\013W"
 143      0000F12F 
 143      0B57
 144              		.text
 145              		.section	.gnu.lto_.refs.b004f98173ab17af,"",%progbits
 146 0000 789C6362 		.ascii	"x\234cb`b`e\200\000FF \007\000\000\237\000\016"
 146      60626065 
 146      80004646 
 146      20070000 
 146      9F000E
 147              		.text
 148              		.section	.gnu.lto_.decls.b004f98173ab17af,"",%progbits
 149 0000 789CAD58 		.ascii	"x\234\255X}l\024E\024\237\331\275~\034=\312G\002\201"
 149      7D6C1445 
 149      149FD9BD 
 149      7E1C3DCA 
 149      470281
 150 0013 88721A31 		.ascii	"\210r\0321J\204kA\220?\014\246\275\226Rm\241\331\202"
 150      4A846B41 
 150      903F0CA6 
 150      BD96526D 
 150      A1D982
 151 0026 F10FE3B9 		.ascii	"\361\017\343\271\264Wz\261\275m\256[\003\377--(V\201"
 151      B4577AB1 
 151      BD6DAE5B 
 151      03FF2D2D 
 151      285681
 152 0039 A3940216 		.ascii	"\243\224\002\026\261E  \020((\240@X\020\322\362a\370"
 152      B1452020 
 152      102828A0 
 152      405810D2 
 152      F261F8
 153 004c 100B1642 		.ascii	"\020\013\026B\0324B\242!4\202\210@\3177\263\037\267"
 153      1A3442A2 
 153      21348288 
 153      40CF37B3 
 153      1FB7
 154 005e 7B1FBDBD 		.ascii	"{\037\275\275\206I\337\233\355\333\367~\363f\336\314"
 154      8649DF9B 
 154      EDDBF77E 
 154      F366DECC 
 155 006e 9BB7C720 		.ascii	"\233\267\307 \006\275\212\021\012A+\031\205\320{\014"
 155      06BD8A11 
 155      0A412B19 
 155      85D07B0C 
 156 007e 422C4268 		.ascii	"B,Bh&\020\210Q\032R\032\210Q;P\227*\377\033\231\033"
 156      26108851 
 156      1A521A88 
 156      513B5097 
 156      2AFF1B99 
 157 0093 793744D5 		.ascii	"y7D\325\277\004\324\017\364\014(\216\003z\026h+\374"
 157      BF04D40F 
 157      F40C288E 
 157      037A1668 
 157      2BFC
 158 00a5 BF05E81C 		.ascii	"\277\005\350\034\320M \007\3200\220\357\204\276\003"
ARM GAS  /tmp/cciKmy7D.s 			page 12


 158      D04D2007 
 158      D03090EF 
 158      84BE03
 159 00b4 E82AD021 		.ascii	"\350*\320!\240\313@\007\200.\002\035\006:\012t\014\350"
 159      A0CB4007 
 159      802E021D 
 159      063A0A74 
 159      0CE8
 160 00c6 B83A6EBB 		.ascii	"\270:n\273\332\237\212\030\237\3705\024h\037P\246\212"
 160      DA9F8A18 
 160      9FF83514 
 160      681F50A6 
 160      8A
 161 00d7 9F6298C3 		.ascii	"\237b\230\303%u\354\263@\367\201\356\001=\007/mH\241"
 161      2575ECB3 
 161      40F781EE 
 161      013D072F 
 161      6D48A1
 162 00ea 1EA0EBEA 		.ascii	"\036\240\353\352\370\027U\273.\365\035\231\353\035\240"
 162      F81755BB 
 162      2EF51D99 
 162      EB1DA0
 163 00f9 BB407F45 		.ascii	"\273@\177E\214;\036m\222\332z{\227\335\332;Vj\253\227"
 163      8C3B1E6D 
 163      92DA7A7B 
 163      97DDDA3B 
 163      566AAB97 
 164 010d 43A137D1 		.ascii	"C\2417\321h\264V\202\326\366\261$a\221\3073G\241w1\217"
 164      68B45682 
 164      D6F6B124 
 164      6191C733 
 164      47A17731 
 165 0122 33EDC849 		.ascii	"3\355\310I\037\034v\012\212\020\2177\343\321\364\211"
 165      1F1C760A 
 165      8A108F37 
 165      E3D1F489 
 166 0132 A5CB8B32 		.ascii	"\245\313\2132P\243$\325\023\303\331]\231#\321j\212\002"
 166      50A324D5 
 166      13C3D95D 
 166      9923D16A 
 166      8A02
 167 0144 205D3021 		.ascii	" ]0!\025\242\227\3250\336\000\203\011h\213$\005{\373"
 167      15A297D5 
 167      30DE0083 
 167      09688B24 
 167      057BFB
 168 0157 EE37B392 		.ascii	"\3567\263\222\224\256Z8\343\252\363x\033\236\200\022"
 168      94AE5A38 
 168      E3AAF378 
 168      1B9E8012 
 169 0167 AA11C5ED 		.ascii	"\252\021\305\355x$\232\210v\200^P\222N\274\216Ms\246"
 169      78249A88 
 169      76805E50 
 169      924EBC8E 
 169      4D73A6
 170 017a C34A725F 		.ascii	"\303Jr_\247C\262)\252\304d\007\236\210b\264\347Q\033"
 170      A743B229 
ARM GAS  /tmp/cciKmy7D.s 			page 13


 170      AAC46407 
 170      9E8862B4 
 170      E7511B
 171 018d 51BEDFB9 		.ascii	"Q\276\337\271\021Km'p\214\321?\320\006w\350S\222\217"
 171      114B6D27 
 171      708CD13F 
 171      D00677E8 
 171      53928F
 172 01a0 7562278F 		.ascii	"ub'\217w\201:\203\352\260\011=\021\002\361e\017\030"
 172      77813A83 
 172      EAB0093D 
 172      1102F165 
 172      0F18
 173 01b2 2A36AAAF 		.ascii	"*6\252\257\035\212\257{,\370Z/\177\327\331<\226\370"
 173      1D8AAF7B 
 173      2CF85A2F 
 173      7FD7D93C 
 173      96F8
 174 01c4 6A47CBC3 		.ascii	"jG\313\303\361@1\243\250F\240\243\361r\037\256\207P"
 174      F14031A3 
 174      A846A0A3 
 174      F1721FAE 
 174      8750
 175 01d6 F1781F98 		.ascii	"\361x\037\2301\350\0266;\315\3434\273q$\372\277\246"
 175      31E81636 
 175      3BCDE334 
 175      BB7124FA 
 175      BFA6
 176 01e8 40F0E86B 		.ascii	"@\360\350k\365\201\234\305a\344\310\335\245(\304\351"
 176      F5819CC5 
 176      61E4C8DD 
 176      A528C4E9 
 177 01f8 5863AB8F 		.ascii	"Xc\253\217JS\025L\023\351\355\353[\371\312\006I^\312"
 177      4A53154C 
 177      13E9EDEB 
 177      5BF9CA06 
 177      495ECA
 178 020b 6A6EDD4B 		.ascii	"jn\335K\032\320iZ\231#\235\216 \257\201\375k\005,=\206"
 178      1AD0695A 
 178      99239D8E 
 178      20AF81FD 
 178      6B052C3D 
 179 0220 77B19A31 		.ascii	"w\261\2321f<\336\013\373\224\307\035\370y\340\007(?"
 179      663CDE0B 
 179      FB94C71D 
 179      F879E007 
 179      283F
 180 0232 045C6F0C 		.ascii	"\004\\o\014zL\307\336\036\036\333\264\005\022\255\214"
 180      7A4CC7DE 
 180      1E1EDBB4 
 180      0512AD8C 
 181 0242 243F54B7 		.ascii	"$?T\267\243\266\307\032\030\013x\246\2718Mx\217\013"
 181      A3B6C71A 
 181      180B78A6 
 181      B9384D78 
 181      8F0B
 182 0254 C8BA2858 		.ascii	"\310\272(X\215V\260\306\304\367-\370V\030k\265\025,"
ARM GAS  /tmp/cciKmy7D.s 			page 14


 182      8D56B0C6 
 182      C4F72DF8 
 182      56186BB5 
 182      152C
 183 0266 677CBF5A 		.ascii	"g|\277Z\014X\353\255`e\015\024/-<\337\320\360\354\244"
 183      0C58EBAD 
 183      60650D14 
 183      2F2D3CDF 
 183      D0F0ECA4 
 184 027a 81394CF9 		.ascii	"\2019L\371Q\312\217Q~\334\034\252\257\230\310\243\240"
 184      51CA8F51 
 184      7EDC1CAA 
 184      AF98C8A3 
 184      A0
 185 028b 640C03EA 		.ascii	"d\014\003\352v=\364\310*n\274\224\272\005g\204q\347"
 185      763DF4C8 
 185      2A6EBC94 
 185      BA056784 
 185      71E7
 186 029d B3063F76 		.ascii	"\263\006?vD\370\361\"\372Z\222\232 s\337\266\301\031"
 186      44F8F122 
 186      FA5A929A 
 186      2073DFB6 
 186      C119
 187 02af B129A60C 		.ascii	"\261)\246\014:H\325\332\361\370\230C\350\003\274\204"
 187      3A48D5DA 
 187      F1F89843 
 187      E803BC84 
 188 02bf B6922CB4 		.ascii	"\266\222,\264BZ6\034\323\034\217T+\323\304Nb\306(P."
 188      425A361C 
 188      D31C8F54 
 188      2BD3C44E 
 188      62C62850 
 189 02d4 0BB9F98C 		.ascii	"\013\271\371\214#\270\2447\024\032o\375\2468\235\370"
 189      23B8A437 
 189      141A6FFD 
 189      A6389DF8 
 190 02e4 A6302574 		.ascii	"\2460%t\254\001\214Cz\222z\262\346\217ipM\360\370\034"
 190      AC018C43 
 190      7A927AB2 
 190      E68F6970 
 190      4DF0F81C 
 191 02f8 DD0E0F98 		.ascii	"\335\016\017\230\204y\325\014C\3748\037\231X\037t\323"
 191      8479D50C 
 191      43FC381F 
 191      99581F74 
 191      D3
 192 0309 C47A3E71 		.ascii	"\304z>qb]\332 ?\3526$\326\206\001\023+\217\367\323M"
 192      625DDA20 
 192      3FEA3624 
 192      D6860113 
 192      2B8FF7D3 
 193 031e 66254D2E 		.ascii	"f%M.e\261\352\332 \322$\270\365\270\233f\265K4\253-"
 193      65B1EADA 
 193      20D224B8 
 193      F5B89B66 
 193      B54B34AB 
ARM GAS  /tmp/cciKmy7D.s 			page 15


 194 0333 4F1ACC69 		.ascii	"O\032\314i\002\3537\202}n\005,V\212T\301\202W\014`\301"
 194      02EB3782 
 194      7D6E052C 
 194      568A54C1 
 194      82570C60 
 195 0348 A4C1CC9E 		.ascii	"\244\301\314\2365\031\301\232\255\200\015\217\357Y\263"
 195      3519C19A 
 195      AD800D8F 
 195      EF59B3
 196 0357 116C43D2 		.ascii	"\021lC\322`f\317Z\214`_Z\001\213\225>c5\343\216\345"
 196      6066CF5A 
 196      8C605F5A 
 196      018B953E 
 196      6335E38E 
 197 036c F105BAA5 		.ascii	"\361\005\272\245.\322lr\231\362n\312\257R\336C\371u"
 197      2ED26C72 
 197      99F26ECA 
 197      AF52DE43 
 197      F975
 198 037e CA6F24CA 		.ascii	"\312o$\3125Z\351\325\3212\203\236\251\2634ylf\315g\312"
 198      355AE9D5 
 198      D132839E 
 198      A9B33479 
 198      6C66CD67 
 199 0393 744E9583 		.ascii	"tN\225\203\027\357\204\337\004\200\330\347'\352\235"
 199      17EF84DF 
 199      0480D8E7 
 199      27EA9D
 200 03a2 9A042C97 		.ascii	"\232\004,\227'\362/\215\243\310!\375\235\256\357n62"
 200      27F22F8D 
 200      A3C821FD 
 200      9DAEEF6E 
 200      3632
 201 03b4 1F93EBDC 		.ascii	"\037\223\353\3344^\342C7\030/n\014ax|\233\372\360\303"
 201      345EE243 
 201      37182F6E 
 201      0C61787C 
 201      9BFAF0C3 
 202 03c8 53F22122 		.ascii	"S\362!\"\305\377\310\306L\361\2476?TS\274\022\245_\251"
 202      C5FFC8C6 
 202      4CF1A736 
 202      3F5453BC 
 202      12A55FA9 
 203 03dc 5A57DC14 		.ascii	"ZW\334\024O\264T[y\335\231]\220\262\030m\361n$0%Z\232"
 203      4FB4545B 
 203      79DD995D 
 203      90B2186D 
 203      F16E2430 
 204 03f3 E98633DB 		.ascii	"\351\2063\333\024Se\316\277%0\275\255\254\200r\261\310"
 204      145365CE 
 204      BF2530BD 
 204      ADAC8072 
 204      B1C8
 205 0405 6B1B1BDA 		.ascii	"k\033\033\332\260\224\252_-]\221W\313\237\346\253\345"
 205      B094AA5F 
 205      2D5D9157 
 205      CB9FE6AB 
ARM GAS  /tmp/cciKmy7D.s 			page 16


 205      E5
 206 0416 05D42E5D 		.ascii	"\005\324.]\270 \2676\222\272\246>(\365\207Bx\004\012"
 206      B820B736 
 206      92BAA63E 
 206      28F58742 
 206      78040A
 207 0429 D28CBE3E 		.ascii	"\322\214\276>S\015R\357Vy\314\372p\220\3225\00702T\262"
 207      530D52EF 
 207      5679CCFA 
 207      7090D235 
 207      07303254 
 208 043e BB5DB0A1 		.ascii	"\273]\260\241u\003)\256\001\217\377\241\307\011\233"
 208      750329AE 
 208      018FFFA1 
 208      C7099B
 209 044d 0385EDE1 		.ascii	"\003\205\355\341\207\020&Q\271\035\025\354\310X'\200"
 209      87102651 
 209      B91D15EC 
 209      C8582780 
 210 045d 50470FEA 		.ascii	"PG\017\352\267\221R>\204\247\307\343\007\240\032G\215"
 210      B791523E 
 210      84A7C7E3 
 210      07A01A47 
 210      8D
 211 046e C70F6125 		.ascii	"\307\017a%\364\255*\351\247\321a\217{\030\377S=\324"
 211      F4AD2AE9 
 211      A7D1618F 
 211      7B18FF53 
 211      3DD4
 212 0480 D3BDFA30 		.ascii	"\323\275\3720\302\344\266\246E*\365\310\340Fz\001\367"
 212      C2E4B6A6 
 212      452AF5C8 
 212      E0467A01 
 212      F7
 213 0491 2DAB7C45 		.ascii	"-\253|E\275\206\366K\313\345\266\024\036\337\003\277"
 213      BD86F64B 
 213      CBE5B614 
 213      1EDF03BF 
 214 04a1 F414A6CE 		.ascii	"\364\024\246\316\327\246I\260&a4\011\023\245\303j\222"
 214      D7A649B0 
 214      26613409 
 214      13A5C36A 
 214      92
 215 04b2 744D628B 		.ascii	"tMb\213\222\244\230\227\024$\251\232\204\325$i\232$"
 215      92A49897 
 215      1424A99A 
 215      84D52469 
 215      9A24
 216 04c4 CD1C6923 		.ascii	"\315\034i#\216=J2$J\222\021%qDI\206FI2\243$\303\242"
 216      8E3D4A32 
 216      244A9211 
 216      25714449 
 216      86464932 
 217 04dc 24C33549 		.ascii	"$\3035I\206&\031\241IH&\210Q\273H\3727mVxw?\371\371"
 217      862619A1 
 217      49482688 
 217      51BB48FA 
ARM GAS  /tmp/cciKmy7D.s 			page 17


 217      376D5678 
 218 04f4 CE749AAE 		.ascii	"\316t\232\256\373\225\252\337\226\260\0042\303\220\250"
 218      FB95AADF 
 218      96B00432 
 218      C390A8
 219 0503 2F61224A 		.ascii	"/a\"J\240G=\264\004\"\362\304%P\250G)\201\264\333n\025"
 219      A0473DB4 
 219      0422F2C4 
 219      2550A847 
 219      2981B4DB 
 220 0519 7581D80E 		.ascii	"u\201\330\016\256v\011^3\\\235MI\2039M`MF\260uV\300"
 220      AE76095E 
 220      335C9D4D 
 220      4983394D 
 220      604D46B0 
 221 0530 06A85D9A 		.ascii	"\006\250]\232\215`\255I\203\231=k1\202m\261\0026@\355"
 221      8D60AD49 
 221      83993D6B 
 221      31826DB1 
 221      023640ED 
 222 0544 B2DE08B6 		.ascii	"\262\336\010\266;i0\263g_\030\301\276\265\002\026\357"
 222      3B6930B3 
 222      675F18C1 
 222      BEB50216 
 222      EF
 223 0555 D30FC036 		.ascii	"\323\017\3006\032\301\216$\015f\366l\223\021\354\244"
 223      1AC18E24 
 223      0D66F66C 
 223      9311ECA4 
 224 0565 1530677C 		.ascii	"\0250g|\317\366\032\301N'\015f\360L\252\227\017\266"
 224      CFF61AC1 
 224      4E270D66 
 224      F04CAA97 
 224      0FB6
 225 0577 AE540F81 		.ascii	"\256T\017\201\362K\302OV\360^\216\357\334\367\327\314"
 225      F24BC24F 
 225      56F05E8E 
 225      EFDCF7D7 
 225      CC
 226 0588 87EA4AD2 		.ascii	"\207\352J\322xN\024\267\031O<\217\353\031r\34750\244"
 226      784E14B7 
 226      194F3C8F 
 226      EB1972E7 
 226      3530A4
 227 059b 485C46F9 		.ascii	"H\\F\371'\224\177J\371g\224\257\240|\025\345\253)_C"
 227      27947F4A 
 227      F96794AF 
 227      A07C15E5 
 227      AB295F43 
 228 05af F95ACAD7 		.ascii	"\371Z\312\327Q\276\2011\024\230\021eb\377\000eb+\243"
 228      51BE8131 
 228      14981165 
 228      62FF0065 
 228      622BA3
 229 05c2 7FDFEA95 		.ascii	"\177\337\352\225\227\374\024\276\242b\377\334h\372\205"
 229      97FC14BE 
 229      A262FFDC 
ARM GAS  /tmp/cciKmy7D.s 			page 18


 229      68FA85
 230 05d1 80C7BB29 		.ascii	"\200\307\273)\330\036\323\327z\334\037i\"&e\270\354"
 230      D81ED3D7 
 230      7ADC1F69 
 230      222665B8 
 230      EC
 231 05e2 A226B529 		.ascii	"\242&\265)<)4m\362d\227\362'\324\272*\371*W\215\020"
 231      3C29346D 
 231      F26497F2 
 231      27D4BA2A 
 231      F92A578D 
 232 05f7 106B5DA5 		.ascii	"\020k]\245\363\212\247Nq\025\025\345\271\012J\012\347"
 232      F38AA74E 
 232      711515E5 
 232      B90A4A0A 
 232      E7
 233 0608 7E944D5E 		.ascii	"~\224M^yj\200\252\252\312'\227\015\312\252\022\245\026"
 233      796A80AA 
 233      AACA2797 
 233      0DCAAA12 
 233      A516
 234 061a CC99EF74 		.ascii	"\314\231\357t\243\221\265b\365\324)\236\2055>\301S\353"
 234      A391B562 
 234      F5D4299E 
 234      85353EC1 
 234      53EB
 235 062c 15EB6A3C 		.ascii	"\025\353j<\342\373\256J\241\332\353\022DQp\025{\375"
 235      E2FBAE4A 
 235      A1DAEB12 
 235      44517015 
 235      7BFD
 236 063e A2102808 		.ascii	"\242\020(\010\3605\225\2762\300\024\352\002e\336\300"
 236      F03595BE 
 236      32C014EA 
 236      0265DEC0 
 237 064e 628F5B28 		.ascii	"b\217[(\367\346z\375e\225\236\"\237\350\365T\010\001"
 237      F7E67AFD 
 237      65959E22 
 237      9FE8F554 
 237      0801
 238 0660 4F0E57EC 		.ascii	"O\016W\354\311\317\311-t\361\201\352I~\301\357\235\344"
 238      C9CFC92D 
 238      74F181EA 
 238      497EC1EF 
 238      9DE4
 239 0672 E517F85C 		.ascii	"\345\027\370\\>\177YU]\271\327U+\226\373\374\"\014\234"
 239      3E7F5955 
 239      5DB9D755 
 239      2B96FBFC 
 239      220C9C
 240 0685 5E073D0C 		.ascii	"^\007=\014)\262By\200-\013T\001U\246\226\344\344\361"
 240      29B24279 
 240      802D0B54 
 240      0155A696 
 240      E4E4F1
 241 0698 229F5A92 		.ascii	"\"\237Z\222\253tn\245\313S\272|\322\331Kr\212\334\202"
 241      AB746EA5 
ARM GAS  /tmp/cciKmy7D.s 			page 19


 241      CB53BA7C 
 241      D2D94B72 
 241      8ADC82
 242 06ab BFC2B770 		.ascii	"\277\302\267p\2506\015\217\317\357\023S\313\250p\206"
 242      A8360D8F 
 242      CFEF1353 
 242      CBA87086 
 243 06bb 7115CA84 		.ascii	"q\025\312\204\352j\301\357\362.\022]\356\342\322\302"
 243      EA6AC1EF 
 243      F22E125D 
 243      EEE2D2C2 
 244 06cb 52580C65 		.ascii	"RX\014e=fe/Z\344\242S\256\310\316\312Z\264\000\374q"
 244      3D66652F 
 244      5AE4A253 
 244      AEC8CECA 
 244      5AB400FC 
 245 06e0 90E5F1CC 		.ascii	"\220\345\361\314[\\\343\315\363V\260n\256\010h6[\230"
 245      5B5CE3CD 
 245      F356B06E 
 245      AE086836 
 245      5B98
 246 06f2 C7B173F3 		.ascii	"\307\261s\3638[n)\307\261\271\034g+r\277\315\015\361"
 246      385B6E29 
 246      C7B1B91C 
 246      672B72BF 
 246      CD0DF1
 247 0705 09646D7D 		.ascii	"\011dm}\345\036\321\241<V\363\265\037z\304t\237P\015"
 247      E51ED1A1 
 247      3C56F3B5 
 247      1F7AC474 
 247      9F500D
 248 0718 0BE21147 		.ascii	"\013\342\021G\351\236\301Z.\014\010u5Dn#\2326\242j#"
 248      E99EC15A 
 248      2E0C0875 
 248      35446E23 
 248      9A36A26A 
 249 072d FFA69105 		.ascii	"\377\246\221\005\230\341\001\307+\026\212\374\202\014"
 249      98E101C7 
 249      2B168AFC 
 249      820C
 250 073b A59B3C7D 		.ascii	"\245\233<}\332\364\351\031\234\333\255\271\302\2709"
 250      DAF4E919 
 250      9CDBADB9 
 250      C2B839
 251 074a 9B7B5601 		.ascii	"\233{V\001\307\272\013\271\364\234\222\334)\\\351<\372"
 251      C7BA0BB9 
 251      F49C92DC 
 251      295CE93C 
 251      FA
 252 075b 904D1E52 		.ascii	"\220M\036Rsf\347\346\317\341\322\310\013\265\317\206"
 252      7366E7E6 
 252      CFE1D2C8 
 252      0BB5CF86 
 253 076b DE969BE7 		.ascii	"\336\226\233\347\006\213R\316\316\345\227\346s\357\344"
 253      068B52CE 
 253      CEE597E6 
 253      73EFE4
ARM GAS  /tmp/cciKmy7D.s 			page 20


 254 077a E765A510 		.ascii	"\347e\245\020\220)\377\003AO\202\277"
 254      9029FF03 
 254      414F82BF 
 255              		.text
 256              		.section	.gnu.lto_.symtab.b004f98173ab17af,"",%progbits
 257 0000 5F70616C 		.ascii	"_pal_lld_init\000\000\000\000\000\000\000\000\000\000"
 257      5F6C6C64 
 257      5F696E69 
 257      74000000 
 257      00000000 
 258 0017 0000A100 		.ascii	"\000\000\241\000\000\000_pal_lld_setgroupmode\000\000"
 258      00005F70 
 258      616C5F6C 
 258      6C645F73 
 258      65746772 
 259 0034 00000000 		.ascii	"\000\000\000\000\000\000\000\000\000\000\310\000\000"
 259      00000000 
 259      0000C800 
 259      00
 260 0041 00       		.ascii	"\000"
 261              		.text
 262              		.section	.gnu.lto_.opts,"",%progbits
 263 0000 272D6D63 		.ascii	"'-mcpu=cortex-m3' '-mno-thumb-interwork' '-mthumb' "
 263      70753D63 
 263      6F727465 
 263      782D6D33 
 263      2720272D 
 264 0033 272D6767 		.ascii	"'-ggdb' '-O2' '-fomit-frame-pointer' '-falign-funct"
 264      64622720 
 264      272D4F32 
 264      2720272D 
 264      666F6D69 
 265 0066 696F6E73 		.ascii	"ions=16' '-ffunction-sections' '-fdata-sections' '-"
 265      3D313627 
 265      20272D66 
 265      66756E63 
 265      74696F6E 
 266 0099 666E6F2D 		.ascii	"fno-common' '-flto'\000"
 266      636F6D6D 
 266      6F6E2720 
 266      272D666C 
 266      746F2700 
 267              		.text
 268              		.cfi_sections	.debug_frame
 269              		.section	.text._pal_lld_init,"ax",%progbits
 270              		.align	2
 271              		.p2align 4,,15
 272              		.global	_pal_lld_init
 273              		.thumb
 274              		.thumb_func
 275              		.type	_pal_lld_init, %function
 276              	_pal_lld_init:
 277              	.LFB219:
 278              		.file 1 "../../../os/hal/ports/STM32/LLD/GPIOv1/hal_pal_lld.c"
 279              		.loc 1 76 0
 280              		.cfi_startproc
 281              		@ args = 0, pretend = 0, frame = 0
ARM GAS  /tmp/cciKmy7D.s 			page 21


 282              		@ frame_needed = 0, uses_anonymous_args = 0
 283              		@ link register save eliminated.
 284              	.LVL0:
 285              		.loc 1 81 0
 286 0000 4FF48053 		mov	r3, #4096
 287 0004 C4F20203 		movt	r3, 16386
 288 0008 9A69     		ldr	r2, [r3, #24]
 289              		.loc 1 76 0
 290 000a 10B4     		push	{r4}
 291              		.cfi_def_cfa_offset 4
 292              		.cfi_offset 4, -4
 293              		.loc 1 81 0
 294 000c 42F07D02 		orr	r2, r2, #125
 295 0010 9A61     		str	r2, [r3, #24]
 296              		.loc 1 86 0
 297 0012 0368     		ldr	r3, [r0]
 298 0014 4FF40062 		mov	r2, #2048
 299 0018 C4F20102 		movt	r2, 16385
 300 001c D360     		str	r3, [r2, #12]
 301              		.loc 1 87 0
 302 001e 8168     		ldr	r1, [r0, #8]
 303              		.loc 1 89 0
 304 0020 4FF44063 		mov	r3, #3072
 305              		.loc 1 87 0
 306 0024 5160     		str	r1, [r2, #4]
 307              		.loc 1 88 0
 308 0026 4168     		ldr	r1, [r0, #4]
 309              		.loc 1 89 0
 310 0028 C4F20103 		movt	r3, 16385
 311              		.loc 1 88 0
 312 002c 1160     		str	r1, [r2]
 313              		.loc 1 89 0
 314 002e C268     		ldr	r2, [r0, #12]
 315              		.loc 1 92 0
 316 0030 4FF48051 		mov	r1, #4096
 317              		.loc 1 89 0
 318 0034 DA60     		str	r2, [r3, #12]
 319              		.loc 1 90 0
 320 0036 4269     		ldr	r2, [r0, #20]
 321              		.loc 1 92 0
 322 0038 C4F20101 		movt	r1, 16385
 323              		.loc 1 90 0
 324 003c 5A60     		str	r2, [r3, #4]
 325              		.loc 1 91 0
 326 003e 0469     		ldr	r4, [r0, #16]
 327              		.loc 1 95 0
 328 0040 4FF4A052 		mov	r2, #5120
 329              		.loc 1 91 0
 330 0044 1C60     		str	r4, [r3]
 331              		.loc 1 92 0
 332 0046 8369     		ldr	r3, [r0, #24]
 333              		.loc 1 95 0
 334 0048 C4F20102 		movt	r2, 16385
 335              		.loc 1 92 0
 336 004c CB60     		str	r3, [r1, #12]
 337              		.loc 1 93 0
 338 004e 046A     		ldr	r4, [r0, #32]
ARM GAS  /tmp/cciKmy7D.s 			page 22


 339              		.loc 1 99 0
 340 0050 4FF4C053 		mov	r3, #6144
 341              		.loc 1 93 0
 342 0054 4C60     		str	r4, [r1, #4]
 343              		.loc 1 94 0
 344 0056 C469     		ldr	r4, [r0, #28]
 345              		.loc 1 99 0
 346 0058 C4F20103 		movt	r3, 16385
 347              		.loc 1 94 0
 348 005c 0C60     		str	r4, [r1]
 349              		.loc 1 95 0
 350 005e 416A     		ldr	r1, [r0, #36]
 351              		.loc 1 113 0
 352 0060 5DF8044B 		ldr	r4, [sp], #4
 353              		.loc 1 95 0
 354 0064 D160     		str	r1, [r2, #12]
 355              		.loc 1 96 0
 356 0066 C16A     		ldr	r1, [r0, #44]
 357 0068 5160     		str	r1, [r2, #4]
 358              		.loc 1 97 0
 359 006a 816A     		ldr	r1, [r0, #40]
 360 006c 1160     		str	r1, [r2]
 361              		.loc 1 99 0
 362 006e 026B     		ldr	r2, [r0, #48]
 363 0070 DA60     		str	r2, [r3, #12]
 364              		.loc 1 100 0
 365 0072 826B     		ldr	r2, [r0, #56]
 366 0074 5A60     		str	r2, [r3, #4]
 367              		.loc 1 101 0
 368 0076 426B     		ldr	r2, [r0, #52]
 369 0078 1A60     		str	r2, [r3]
 370              		.loc 1 113 0
 371 007a 7047     		bx	lr
 372              		.cfi_endproc
 373              	.LFE219:
 374              		.size	_pal_lld_init, .-_pal_lld_init
 375 007c AFF30080 		.section	.text._pal_lld_setgroupmode,"ax",%progbits
 376              		.align	2
 377              		.p2align 4,,15
 378              		.global	_pal_lld_setgroupmode
 379              		.thumb
 380              		.thumb_func
 381              		.type	_pal_lld_setgroupmode, %function
 382              	_pal_lld_setgroupmode:
 383              	.LFB220:
 384              		.loc 1 132 0
 385              		.cfi_startproc
 386              		@ args = 0, pretend = 0, frame = 0
 387              		@ frame_needed = 0, uses_anonymous_args = 0
 388              		@ link register save eliminated.
 389              	.LVL1:
 390              		.loc 1 156 0
 391 0000 032A     		cmp	r2, #3
 392              		.loc 1 132 0
 393 0002 F0B4     		push	{r4, r5, r6, r7}
 394              		.cfi_def_cfa_offset 16
 395              		.cfi_offset 4, -16
ARM GAS  /tmp/cciKmy7D.s 			page 23


 396              		.cfi_offset 5, -12
 397              		.cfi_offset 6, -8
 398              		.cfi_offset 7, -4
 399              		.loc 1 157 0
 400 0004 08BF     		it	eq
 401 0006 0161     		streq	r1, [r0, #16]
 402              		.loc 1 156 0
 403 0008 02D0     		beq	.L4
 404              		.loc 1 158 0
 405 000a 042A     		cmp	r2, #4
 406              		.loc 1 159 0
 407 000c 08BF     		it	eq
 408 000e 4161     		streq	r1, [r0, #20]
 409              	.L4:
 410              		.loc 1 160 0
 411 0010 40F20003 		movw	r3, #:lower16:.LANCHOR0
 412 0014 C0F20003 		movt	r3, #:upper16:.LANCHOR0
 413 0018 9F5C     		ldrb	r7, [r3, r2]	@ zero_extendqisi2
 414              	.LVL2:
 415              		.loc 1 161 0
 416 001a 0023     		movs	r3, #0
 417 001c 1C46     		mov	r4, r3
 418 001e 1A46     		mov	r2, r3
 419              	.LVL3:
 420 0020 1D46     		mov	r5, r3
 421              		.loc 1 160 0
 422 0022 0826     		movs	r6, #8
 423              	.LVL4:
 424              	.L10:
 425              		.loc 1 167 0
 426 0024 11F0800F 		tst	r1, #128
 427              		.loc 1 163 0
 428 0028 4FEA0212 		lsl	r2, r2, #4
 429              	.LVL5:
 430              		.loc 1 165 0
 431 002c 4FEA0313 		lsl	r3, r3, #4
 432              	.LVL6:
 433              		.loc 1 164 0
 434 0030 4FEA0515 		lsl	r5, r5, #4
 435              	.LVL7:
 436              		.loc 1 166 0
 437 0034 4FEA0414 		lsl	r4, r4, #4
 438              	.LVL8:
 439              		.loc 1 168 0
 440 0038 0CBF     		ite	eq
 441 003a 42F00F02 		orreq	r2, r2, #15
 442              	.LVL9:
 443              		.loc 1 170 0
 444 003e 3B43     		orrne	r3, r3, r7
 445              	.LVL10:
 446              		.loc 1 171 0
 447 0040 11F4004F 		tst	r1, #32768
 448              		.loc 1 172 0
 449 0044 0CBF     		ite	eq
 450 0046 45F00F05 		orreq	r5, r5, #15
 451              	.LVL11:
 452              		.loc 1 174 0
ARM GAS  /tmp/cciKmy7D.s 			page 24


 453 004a 3C43     		orrne	r4, r4, r7
 454              	.LVL12:
 455              		.loc 1 162 0
 456 004c 013E     		subs	r6, r6, #1
 457              	.LVL13:
 458              		.loc 1 175 0
 459 004e 4FEA4101 		lsl	r1, r1, #1
 460              	.LVL14:
 461              		.loc 1 162 0
 462 0052 E7D1     		bne	.L10
 463              		.loc 1 177 0
 464 0054 4168     		ldr	r1, [r0, #4]
 465              	.LVL15:
 466 0056 0D40     		ands	r5, r5, r1
 467              	.LVL16:
 468 0058 2C43     		orrs	r4, r4, r5
 469              	.LVL17:
 470 005a 4460     		str	r4, [r0, #4]
 471              		.loc 1 178 0
 472 005c 0168     		ldr	r1, [r0]
 473              		.loc 1 179 0
 474 005e F0BC     		pop	{r4, r5, r6, r7}
 475              	.LVL18:
 476              		.loc 1 178 0
 477 0060 0A40     		ands	r2, r2, r1
 478              	.LVL19:
 479 0062 1343     		orrs	r3, r3, r2
 480              	.LVL20:
 481 0064 0360     		str	r3, [r0]
 482              		.loc 1 179 0
 483 0066 7047     		bx	lr
 484              		.cfi_endproc
 485              	.LFE220:
 486              		.size	_pal_lld_setgroupmode, .-_pal_lld_setgroupmode
 487 0068 AFF30080 		.section	.rodata.cfgtab.6566,"a",%progbits
 487      AFF30080 
 488              		.align	2
 489              		.set	.LANCHOR0,. + 0
 490              		.type	cfgtab.6566, %object
 491              		.size	cfgtab.6566, 18
 492              	cfgtab.6566:
 493 0000 04       		.byte	4
 494 0001 02       		.byte	2
 495 0002 04       		.byte	4
 496 0003 08       		.byte	8
 497 0004 08       		.byte	8
 498 0005 00       		.byte	0
 499 0006 03       		.byte	3
 500 0007 07       		.byte	7
 501 0008 08       		.byte	8
 502 0009 08       		.byte	8
 503 000a 08       		.byte	8
 504 000b 08       		.byte	8
 505 000c 08       		.byte	8
 506 000d 08       		.byte	8
 507 000e 08       		.byte	8
 508 000f 08       		.byte	8
ARM GAS  /tmp/cciKmy7D.s 			page 25


 509 0010 0B       		.byte	11
 510 0011 0F       		.byte	15
 511 0012 0000     		.text
 512              	.Letext0:
 513              		.file 2 "/home/otto/MentorGraphics/Sourcery_CodeBench_Lite_for_ARM_EABI/arm-none-eabi/include/stdi
 514              		.file 3 "../../../os/common/ports/ARMCMx/compilers/GCC/chtypes.h"
 515              		.file 4 "../../../os/rt/include/chsystypes.h"
 516              		.file 5 "../../../os/rt/include/chschd.h"
 517              		.file 6 "../../../os/common/ext/CMSIS/ST/STM32F1xx/stm32f100xb.h"
 518              		.file 7 "../../../os/common/ports/ARMCMx/chcore.h"
 519              		.file 8 "../../../os/common/ports/ARMCMx/chcore_v7m.h"
 520              		.file 9 "../../../os/rt/include/chsem.h"
 521              		.file 10 "../../../os/rt/include/chmtx.h"
 522              		.file 11 "../../../os/hal/ports/STM32/LLD/GPIOv1/hal_pal_lld.h"
 523              		.file 12 "../../../os/common/ext/CMSIS/include/core_cm3.h"