ARM GAS  /tmp/cciKmy7D.s 			page 1


   1              		.syntax unified
   2              		.cpu cortex-m3
   3              		.fpu softvfp
   4              		.eabi_attribute 20, 1
   5              		.eabi_attribute 21, 1
   6              		.eabi_attribute 23, 3
   7              		.eabi_attribute 24, 1
   8              		.eabi_attribute 25, 1
   9              		.eabi_attribute 26, 1
  10              		.eabi_attribute 30, 2
  11              		.eabi_attribute 34, 1
  12              		.eabi_attribute 18, 4
  13              		.thumb
  14              		.file	"hal_pal_lld.c"
  15              		.text
  16              	.Ltext0:
  17              		.section	.gnu.lto_.jmpfuncs.b004f98173ab17af,"",%progbits
  18 0000 789C6362 		.ascii	"x\234cb`b\300\006\330\2404\023\003##;\003\000\001/\000"
  18      6062C006 
  18      D8A03413 
  18      0323233B 
  18      0300012F 
  19 0015 16       		.ascii	"\026"
  20              		.text
  21              		.section	.gnu.lto_.inline.b004f98173ab17af,"",%progbits
  22 0000 789C6D91 		.ascii	"x\234m\221\261\015\3020\020E\357.\006\"\032\\\321\022"
  22      B10DC230 
  22      1045EF2E 
  22      06221A5C 
  22      D112
  23 0012 894CC000 		.ascii	"\211L\300\000\310cP\322\001[\334\012T\210\012\217\222"
  23      C86350D2 
  23      015BDC0A 
  23      54880A8F 
  23      92
  24 0023 968E0128 		.ascii	"\226\216\001((\031\003\337}'\025)\336\377gK\317\226"
  24      281903DF 
  24      7D271529 
  24      DEFF674B 
  24      CF96
  25 0035 2324F4EF 		.ascii	"#$\364\357{0\262\354\366[^Q\031\033r&g\347<:3{(b\250"
  25      7B30B2EC 
  25      F65B5E51 
  25      191B7226 
  25      67E73C3A 
  26 004e 93787C30 		.ascii	"\223x|0\345:!\006\2046\230\020\271\351\372|\027\232"
  26      E53A2106 
  26      84369810 
  26      B9E9FA7C 
  26      179A
  27 0060 E74DD9FE 		.ascii	"\347M\331\376.\002hh\275\266\206\3505\032:\257\235!"
  27      2E026868 
  27      BDB686E8 
  27      351A3AAF 
  27      9D21
  28 0072 794D0665 		.ascii	"yM\006eA8\005\003\030j8\341T\227*\254\352Z\205W]\254"
  28      41380503 
ARM GAS  /tmp/cciKmy7D.s 			page 2


  28      186A38E1 
  28      54972AAC 
  28      EA5A8557 
  29 0088 302BD4A3 		.ascii	"0+\324\243\273\312G{\325\217\376r\000\331S\365W\346"
  29      BBCA477B 
  29      D58FFE72 
  29      00D953F5 
  29      57E6
  30 009a 999C0E7C 		.ascii	"\231\234\016|a{;9O\015kaZ\263f\357\335\356^\357H\313"
  30      617B3B39 
  30      4F0D6B61 
  30      5AB366EF 
  30      DDEE5EEF 
  31 00b0 612F14F2 		.ascii	"a/\024\362&Q\030\326\251\\\360\311\321nkA|\023;\246"
  31      265118D6 
  31      A95CF0C9 
  31      D16E6B41 
  31      7C133BA6 
  32 00c4 D07FCF0F 		.ascii	"\320\177\317\017\201\324D\242"
  32      81D444A2 
  33              		.text
  34              		.section	.gnu.lto_.pureconst.b004f98173ab17af,"",%progbits
  35 0000 789C6362 		.ascii	"x\234cb`b`e\200\000&\006)F)\000\001\006\000A"
  35      60626065 
  35      80002606 
  35      29462900 
  35      01060041 
  36              		.text
  37              		.section	.gnu.lto__pal_lld_init.b004f98173ab17af,"",%progbits
  38 0000 789CA596 		.ascii	"x\234\245\226\301k\023A\024\207\337\233\315n61\204\020"
  38      C16B1341 
  38      1487DF9B 
  38      CD6E3631 
  38      8410
  39 0012 42882184 		.ascii	"B\210!\204\020\275\011Y\252\210\377\200 \205\212\202"
  39      10BD0959 
  39      AA88FF80 
  39      20858A82 
  40 0022 11F450A4 		.ascii	"\021\364P\244VH\003\221\026+\336\244\023\315\301c\216"
  40      56480391 
  40      162BDEA4 
  40      13CDC163 
  40      8E
  41 0033 C516A937 		.ascii	"\305\026\2517\361P=\306\233\344 x\210\350Mz\352U\005"
  41      F1503DC6 
  41      9BE42078 
  41      88E84D7A 
  41      EA5505
  42 0046 15BD786B 		.ascii	"\025\275xk\347\355\316$\203K /\035\262\277\231ev\036"
  42      E7EDCE24 
  42      834B202F 
  42      1DB2BF99 
  42      65761E
  43 0059 DFE67B90 		.ascii	"\337\346{\220\010\020\360\3778\255\256\345\024\300%"
  43      0810F0FF 
  43      38ADAEE5 
  43      14C025
ARM GAS  /tmp/cciKmy7D.s 			page 3


  44 0068 35A30328 		.ascii	"5\243\003(\372\237\000\272\276@\244\005 l\011\334\272"
  44      FA9F00BA 
  44      BE40A405 
  44      206C09DC 
  44      BA
  45 0079 8DE1B36F 		.ascii	"\215\341\263o\304\373\303\243\243\375\301\207\375]|"
  45      C4FBC3A3 
  45      A3FDC187 
  45      FD5D7C
  46 0088 21CE0A68 		.ascii	"!\316\012h#8\024.\336G\360h\345S\244)2\024Y\212\034"
  46      2338142E 
  46      DE47F068 
  46      E553A429 
  46      3214598A 
  47 009d 459EA240 		.ascii	"E\236\242@Q\244(Q\224)*\024U\212\032E\235B\015\027z"
  47      51A42851 
  47      94292A14 
  47      558A1A45 
  47      9D420D17 
  48 00b2 52F66B00 		.ascii	"R\366k\000\253\341mS%\001\335DA\2633\202\341\301\340"
  48      ABE16D53 
  48      2501DD44 
  48      41B33382 
  48      E1C1E0
  49 00c5 7B69055F 		.ascii	"{i\005_\242\013-\024\347\340\265\354usm\304\035x\216"
  49      A20B2D14 
  49      E7E0B5EC 
  49      75736DC4 
  49      1D788E
  50 00d8 6D14B754 		.ascii	"m\024\267T8r\357\231L@\270\014_\340.\232\327\036\301"
  50      3872EF99 
  50      4C40B80C 
  50      5FE02E9A 
  50      D71EC1
  51 00eb D3778E39 		.ascii	"\323w\2169\355\264\242\347\341q\2703\\\2146x5[t?\202"
  51      EDB4A2E7 
  51      E171B833 
  51      5C8C3678 
  51      355B743F 
  52 0100 27075F7F 		.ascii	"'\007_\177\374\036W\366\250\206\252\220\240\271/\345"
  52      FC1E57F6 
  52      A886AA90 
  52      A0B92FE5 
  53 0110 721BDDA8 		.ascii	"r\033\335\250\230\327B\227\212$u\021\324\263\030\003"
  53      98D74297 
  53      8A247511 
  53      D4B31803 
  54 0120 0E3F7E4E 		.ascii	"\016?~N\332 raL\342\323\311\224\354\3674IJ\037v4\211"
  54      DA207261 
  54      4CE2D3C9 
  54      94ECF734 
  54      494A1F76 
  55 0136 1791FCB3 		.ascii	"\027\221\374\263H|6I\342$$\256&\361#\222\355\237\023"
  55      487C3649 
  55      E22424AE 
  55      26F12392 
  55      ED9F13
ARM GAS  /tmp/cciKmy7D.s 			page 4


  56 0149 92349BC4 		.ascii	"\2224\233\304;\011IR\223\244#\222\201E\222\231\231\304"
  56      3B094952 
  56      93A42392 
  56      81459299 
  56      99C4
  57 015b 9FC3CEF6 		.ascii	"\237\303\316\3664;\031\335'\026I\226M\302\261\023#1"
  57      343B19DD 
  57      27164996 
  57      4DC2B113 
  57      2331
  58 016d 76B2BA4F 		.ascii	"v\262\272O,\222\034\233\204c'Fb\354\344t\237\374\232"
  58      2C921C9B 
  58      84632746 
  58      62ECE474 
  58      9FFC9A
  59 0180 90E46726 		.ascii	"\220\344g&1\3058v\366\246\331\311\353>\261H\012l\022"
  59      31C53876 
  59      F6A6D9C9 
  59      EB3EB148 
  59      0A6C12
  60 0193 8E9D1889 		.ascii	"\216\235\030\211\261S\320}b\221\024\331$\034;1\022c"
  60      B153D07D 
  60      629114D9 
  60      241C3B31 
  60      1263
  61 01a5 A7A8FBC4 		.ascii	"\247\250\373\304\")\315L\222\236\303\316\253ivJ\272"
  61      2229CD4C 
  61      929EC3CE 
  61      AB69764A 
  61      BA
  62 01b6 4FFE4C48 		.ascii	"O\376LH\312l\022\216\235\030\211\261S\326}b\221T\330"
  62      CA6C128E 
  62      9D1889B1 
  62      53D67D62 
  62      9154D8
  63 01c9 241C3B31 		.ascii	"$\034;1\022c\247\242\355X$\325\231IN\315a\347\3554;"
  63      1263A7A2 
  63      ED5824D5 
  63      99494ECD 
  63      61E7ED34 
  64 01de 556DE7EF 		.ascii	"Um\347\357\204\244\306&\341\330\211\221\030;5m\307\""
  64      84A4C626 
  64      E1D88991 
  64      183B356D 
  64      C722
  65 01f0 A9B34938 		.ascii	"\251\263I8vb$\306N\035\340\013t\017\277\235\211\316"
  65      766224C6 
  65      4E1DE00B 
  65      740FBF9D 
  65      89CE
  66 0202 9BD154BF 		.ascii	"\233\321T\277n\352\217\014}\355\027\033\215 \372\254"
  66      6EEA8F0C 
  66      7DED171B 
  66      8D20FAAC 
  67 0212 6F066B2B 		.ascii	"o\006k+\235`c\375\301\303\315\340F\363\352\205\363\301"
  67      9D6063FD 
  67      C1C3CDE0 
ARM GAS  /tmp/cciKmy7D.s 			page 5


  67      46F3EA85 
  67      F3C1
  68 0224 D2D2E5E0 		.ascii	"\322\322\345\340\312\365\305k\217\026h\353\316\206\272"
  68      CAF5C56B 
  68      8F1668EB 
  68      CE86BA
  69 0233 3A9D7B8D 		.ascii	":\235{\215U8\006M\334\014\370"
  69      5538064D 
  69      DC0CF8
  70              		.text
  71              		.section	.gnu.lto__pal_lld_setgroupmode.b004f98173ab17af,"",%progbits
  72 0000 789C9556 		.ascii	"x\234\225V]h\\U\020\236\271\377w\367\356n\311\377\177"
  72      5D685C55 
  72      109EB9FF 
  72      77F7EE6E 
  72      C9FF7F
  73 0013 D2D04445 		.ascii	"\322\320DE\314R\213\320\007A\021E\305\212\202\011\350"
  73      CC528BD0 
  73      07411145 
  73      C58A8209 
  73      E8
  74 0024 93C6046F 		.ascii	"\223\306\004o\026\262\264\244\342\213\017\275\311\346"
  74      16B2B4A4 
  74      E28B0FBD 
  74      C9E6
  75 0032 A1149120 		.ascii	"\241\024\221 \270\304\237\207D\011\226\030\215\012\322"
  75      B8C49F87 
  75      44099618 
  75      8D0AD2
  76 0041 D40A6E82 		.ascii	"\324\012n\202\205\246M\205<\3055\025VE\005\023T(B\252"
  76      85A64D85 
  76      3CC53515 
  76      56450513 
  76      542842AA 
  77 0055 ADEB9CBF 		.ascii	"\255\353\234\277\273\331u%\361\222=s\356\314|3\363\315"
  77      BBD97525 
  77      F1923D73 
  77      EECC7C33 
  77      F3CD
  78 0067 9C3D1B0D 		.ascii	"\234=\033\0154\250|>\245\317\246\013\360\030I<\000\250"
  78      34A87C3E 
  78      A5CFA60B 
  78      F018493C 
  78      00A8
  79 0079 4D7D0530 		.ascii	"M}\0050\356h\232\376{=\004\021c\346(\004\236\216\226"
  79      EE689AFE 
  79      7B3D0411 
  79      63E62804 
  79      9E8E96
  80 008c 501B9AC9 		.ascii	"P\033\232\311\325\026W\233Jma\\ll\3159}\033\331]\266"
  80      D516579B 
  80      4A6D615C 
  80      6C6CCD39 
  80      7D1BD95D 
  81 00a1 7A0E4684 		.ascii	"z\016F\204\332U\233\210\026\345v\217\333\243\030\023"
  81      DA559B88 
  81      16E5768F 
ARM GAS  /tmp/cciKmy7D.s 			page 6


  81      DBA31813 
  82 00b1 6A4F6D62 		.ascii	"jOmb\"\320\262\023\327\354\363\027\201<\023\033\016"
  82      22D0B213 
  82      D7ECF317 
  82      813C131B 
  82      0E
  83 00c2 79261099 		.ascii	"y&\020\231\036\020Ni\272aZ\266\343F\242^,\236\300S\317"
  83      1E104E69 
  83      BA615AB6 
  83      E346A25E 
  83      2C9EC053 
  84 00d7 20A361A4 		.ascii	" \243a\244\021\272a6\010^+\314}\270\252\277\021\344"
  84      11BA6136 
  84      085E2BCC 
  84      7DB8AABF 
  84      11E4
  85 00e9 2667829B 		.ascii	"&g\202\233\305\"b\012\211\365Q\204!\204\247\351\005"
  85      C522620A 
  85      89F55184 
  85      2184A7E9 
  85      05
  86 00fa BBB8D08C 		.ascii	"\273\270\320\214\3626\010lpk\370R0\231+\026\357\343"
  86      F236086C 
  86      706BF852 
  86      30992B16 
  86      EFE3
  87 010c A87BF787 		.ascii	"\250{\367\207\312\375q\346\325\346`fb*\370\233\022\246"
  87      CAFD71E6 
  87      D5E66066 
  87      622AF89B 
  87      12A6
  88 011e 50D7E0FE 		.ascii	"P\327\340\376\275\220\213Z\256P,\256\255o\177\277\205"
  88      BD908B5A 
  88      AE502CAE 
  88      AD6F7FBF 
  88      85
  89 012f 35B723A4 		.ascii	"5\267#\244\0215\030\304Y\354\006]JCJSJKJ[JGJW\312\010"
  89      113518C4 
  89      59EC065D 
  89      4A434A53 
  89      4A4B4A5B 
  90 0149 C939921E 		.ascii	"\3119\222\036\246Q\213\323\242'h\301\032H\241QK\266"
  90      A6518BD3 
  90      A22768C1 
  90      1A48A151 
  90      4BB6
  91 015b 77C95627 		.ascii	"w\311V'}\353\245l\220\262Q\312&r6\233\345K\213\224\255"
  91      7DEBA56C 
  91      90B251CA 
  91      2672369B 
  91      E54B8B94 
  92 0170 4CD9265F 		.ascii	"L\331&_\332\245\354`%w\312\224]\314\343 [\272\331r\210"
  92      DAA5EC60 
  92      2577CA94 
  92      5DCCE320 
  92      5BBAD972 
  93 0185 2D3D6CE9 		.ascii	"-=l\351e\013\3215a2\010\246\272\302!\345\256\227\267"
ARM GAS  /tmp/cciKmy7D.s 			page 7


  93      650BD135 
  93      613208A6 
  93      BAC221E5 
  93      AE97B7
  94 0198 8C9AFDC0 		.ascii	"\214\232\375\300>G\264^6\242\207\366\211\312\227\241"
  94      3E47B45E 
  94      36A287F6 
  94      89CA97A1 
  95 01a8 1ED90B25 		.ascii	"\036\331\013%8\212\236\011\212\300\020\364\364\323J"
  95      388A9E09 
  95      8AC010F4 
  95      F4D34A
  96 01b7 477280C6 		.ascii	"Gr\200\306\265\341\350\227\340\313\237\227o\234\321"
  96      B5E1E897 
  96      E0CB9F97 
  96      6F9CD1
  97 01c6 07F13DE2 		.ascii	"\007\361=\342\351\243\307\202\231\372\256H\003\250\303"
  97      E9A3C782 
  97      99FAAE48 
  97      03A8C3
  98 01d5 394DBF0A 		.ascii	"9M\277\012+W\226\026\2275\341x'\314\007\223\343\301"
  98      2B579616 
  98      9735E178 
  98      27CC0793 
  98      E3C1
  99 01e7 91145A6F 		.ascii	"\221\024Zo\301\233\004\261}\2143\250\3031\317\243\300"
  99      C19B04B1 
  99      7D8C33A8 
  99      C331CFA3 
  99      C0
 100 01f8 FA985041 		.ascii	"\372\230PA\014\230\261D\266[\227c\345\331\214\262l&"
 100      0C98B144 
 100      B65B9763 
 100      E5D98CB2 
 100      6C26
 101 020a 149067DB 		.ascii	"\024\220g\333Y\274\201\373\314\206\225\331,\306\355"
 101      59BC81FB 
 101      CC8695D9 
 101      2CC6ED
 102 0219 2A4C5C9B 		.ascii	"*L\\\233\376D\005\361\261\346.X\010\016\244\320\245"
 102      FE4405F1 
 102      B1E62E58 
 102      080EA4D0 
 102      A5
 103 022a 20E3536C 		.ascii	" \343Sl\027y\031\376\014\246\331.\232\3461X\320\250"
 103      177919FE 
 103      0CA6D92E 
 103      9AE63158 
 103      D0A8
 104 023c 0CE68545 		.ascii	"\014\346\205EQ\240_3\035*L-E\002X\005\331\012\321cR"
 104      51A05F33 
 104      1D2A4C2D 
 104      45025805 
 104      D90AD163 
 105 0251 33DD4461 		.ascii	"3\335Da\365\307\250\322\263\011\260\200<\006\331rw("
 105      F5C7A8D2 
 105      B309B080 
ARM GAS  /tmp/cciKmy7D.s 			page 8


 105      3C06D972 
 105      7728
 106 0263 CB42A5A5 		.ascii	"\313B\245\245UY\346+-\226\262\234\255\260\024._\014"
 106      5559E62B 
 106      2D96B29C 
 106      ADB0142E 
 106      5F0C
 107 0275 6D73D216 		.ascii	"ms\322\026\316m\000m\240\353\207Z\220\371 \263\230m"
 107      CE6D006D 
 107      A0EB875A 
 107      90F920B3 
 107      986D
 108 0287 52B5D7F9 		.ascii	"R\265\327\371h2G\317\2002\012\363\234B\035\243J\200"
 108      683247CF 
 108      80320AF3 
 108      9C421DA3 
 108      4A80
 109 0299 8F1B947F 		.ascii	"\217\033\224\177\275\217z5\377\263\334\277^\372\237"
 109      BD8F7A35 
 109      FFB3DCBF 
 109      5EFA9F
 110 02a8 CB362B40 		.ascii	"\3136+@\203\217n5\300,\0074H\300\3710A\243\217v5\377"
 110      838F6E35 
 110      C02C0734 
 110      48C0F930 
 110      41A38F76 
 111 02be 05EEDFC8 		.ascii	"\005\356\337\310\375/d\276\310v*@\223\217\310OM\300"
 111      FD2F64BE 
 111      C8762A40 
 111      938FC84F 
 111      4DC0
 112 02d0 3AC10ED4 		.ascii	":\301\016\324\370\341\320\306\015\273\277\006\003tD"
 112      F8E1D0C6 
 112      0DBBBF06 
 112      037444
 113 02df BEED666D 		.ascii	"\276\355fm8\237\371!\333\242\034\233\211+\367MTkC\263"
 113      389FF921 
 113      DBA21C9B 
 113      892BF74D 
 113      546B43B3 
 114 02f3 C2BA2176 		.ascii	"\302\272!v+\333\252\260-\234dm\025v-\012\027\341\275"
 114      2BDBAAB0 
 114      2D9C646D 
 114      15762D0A 
 114      17E1BD
 115 0306 A7193910 		.ascii	"\247\0319\020\032\035>4\256\020Y\014\311\355\267\022"
 115      1A1D3E34 
 115      AE10590C 
 115      C9EDB712 
 116 0316 B7D6905B 		.ascii	"\267\326\220[\240\375\213\\k\005\271<\030T\252\363\312"
 116      A0FD8B5C 
 116      6B05B93C 
 116      1854AAF3 
 116      CA
 117 0327 E6089171 		.ascii	"\346\010\221q?\317?\227\007\207Js\256\345\207\251\024"
 117      3FCF3F97 
 117      07874A73 
ARM GAS  /tmp/cciKmy7D.s 			page 9


 117      AEE587A9 
 117      14
 118 0338 77617394 		.ascii	"was\224\225\022\015)\\/\321o\243\321U\243/\246\332\246"
 118      95120D29 
 118      5C2FD16F 
 118      A3D155A3 
 118      2FA6DAA6 
 119 034c 687821F6 		.ascii	"hx!\366\257\022\375v>\263\332*\303jW\270X\031}a\264"
 119      AF12FD76 
 119      3EB3DA2A 
 119      C36A57B8 
 119      58197D61 
 120 0361 4AF44516 		.ascii	"J\364E\026M\036\205b\251\254\016I\337\303\335e\321-"
 120      4D1E8562 
 120      A9AC0E49 
 120      DFC3DD65 
 120      D12D
 121 0373 4D26EE7D 		.ascii	"M&\356}:\363~6\251\274;}\214\3603\217\345$\346x\370"
 121      3AF37E36 
 121      A9BC3B7D 
 121      8CF0338F 
 121      E524E678 
 122 0388 4ED1228D 		.ascii	"N\321\"\215\350D\327X\213\352\2755\326\"\213\312\217"
 122      E844D758 
 122      8BEABD35 
 122      D6228BCA 
 122      8F
 123 0399 6EB316B5 		.ascii	"n\263\026\265{\333\242Eq\240_\346\260\\\001\217\224"
 123      7BDBA245 
 123      71A05FE6 
 123      B05C018F 
 123      94
 124 03aa CA15E373 		.ascii	"\312\025\343sK\012A\310\256\234\247Y\311PW\012\316\000"
 124      4B0A41C8 
 124      AE9CA759 
 124      C950570A 
 124      CE00
 125 03bc D93C277F 		.ascii	"\331<'\177Z~\375Jx\037\211\362\355]\023%\277\204\305"
 125      5A7EFD4A 
 125      781F89F2 
 125      ED5D1325 
 125      BF84C5
 126 03cf E8C66E6E 		.ascii	"\350\306nn\216\344A\227\337w\353\355<\035{-\206y0\225"
 126      8EE44197 
 126      DF77EBED 
 126      3C1D7B2D 
 126      86793095 
 127 03e3 6A49A723 		.ascii	"jI\247#\3044\266\322L\233\324f\246q\225f\2074\016\323"
 127      C434B6D2 
 127      4C9BD466 
 127      A6719566 
 127      87340ED3 
 128 03f7 44E4E560 		.ascii	"D\344\345`-\344\251\025\235\261\035\223\021O\210Kr\345"
 128      2DE4A915 
 128      9DB11D93 
 128      114F884B 
 128      72E5
ARM GAS  /tmp/cciKmy7D.s 			page 10


 129 0409 9BA5CFBE 		.ascii	"\233\245\317\276\323TQ]\374\262\305\377\274j\325?`\374"
 129      D354515D 
 129      FCB2C5FF 
 129      BC6AD53F 
 129      60FC
 130 041b ECFE1272 		.ascii	"\354\376\022r9HHN\231\237\227w\302p\335\334d3\375\312"
 130      3948484E 
 130      999F9777 
 130      C270DDDC 
 130      6433FDCA 
 131 042f EA4776D9 		.ascii	"\352Gv\331}\236\330#\211\317~\265X}_\357\252\357\320"
 131      7D9ED823 
 131      89CF7EB5 
 131      587D5FEF 
 131      AAEFD0
 132 0442 1EF5E9D5 		.ascii	"\036\365\351\325\353\353!$\237QE}\275\334\344\376\317"
 132      EBEB2124 
 132      9F51457D 
 132      BDDCE4FE 
 132      CF
 133 0453 FA74595F 		.ascii	"\372tY_/\300:\214\027\266z\004N=\3754\355\015\207\221"
 133      2FC03A8C 
 133      17B67A04 
 133      4E3DFD34 
 133      ED0D8791 
 134 0467 B8A7AF2F 		.ascii	"\270\247\257/)\376\216\237L\216\014\216&O\034\037{\361"
 134      29FE8E9F 
 134      4C8E0C8E 
 134      264F1C1F 
 134      7BF1
 135 0479 64F2A9FE 		.ascii	"d\362\251\376\307\217\334\235<v\354\301\344\303O>\372"
 135      C78FDC9D 
 135      3C76ECC1 
 135      E4C34F3E 
 135      FA
 136 048a C44B8799 		.ascii	"\304K\207\231\351\331\023\364\031\035\035\356\033\002"
 136      E9D913F4 
 136      191D1DEE 
 136      1B02
 137 0498 7D686C54 		.ascii	"}hlT\037z\301\307\224\226\036\321\322\264\037\033\371"
 137      1F7AC1C7 
 137      94961ED1 
 137      D2B41F1B 
 137      F9
 138 04a9 07E87946 		.ascii	"\007\350yF\377"
 138      FF
 139              		.text
 140              		.section	.gnu.lto_.symbol_nodes.b004f98173ab17af,"",%progbits
 141 0000 789C6362 		.ascii	"x\234cb`bPg\200\002\246\333\214\365\014\014\023\316"
 141      60625067 
 141      8002A6DB 
 141      8CF50C0C 
 141      13CE
 142 0012 3130D4D7 		.ascii	"10\324\327\317\353`d\272\303X\317\210\340\262\336ed"
 142      CFEB6064 
 142      BAC358CF 
 142      88E0B2DE 
ARM GAS  /tmp/cciKmy7D.s 			page 11


 142      6564
 143 0024 60A96766 		.ascii	"`\251gf\000\000\361/\013W"
 143      0000F12F 
 143      0B57
 144              		.text
 145              		.section	.gnu.lto_.refs.b004f98173ab17af,"",%progbits
 146 0000 789C6362 		.ascii	"x\234cb`b`e\200\000FF \007\000\000\237\000\016"
 146      60626065 
 146      80004646 
 146      20070000 
 146      9F000E
 147              		.text
 148              		.section	.gnu.lto_.decls.b004f98173ab17af,"",%progbits
 149 0000 789CAD58 		.ascii	"x\234\255X}l\024E\024\237\331\275~\034=\312G\002\201"
 149      7D6C1445 
 149      149FD9BD 
 149      7E1C3DCA 
 149      470281
 150 0013 88721A31 		.ascii	"\210r\0321J\204kA\220?\014\246\275\226Rm\241\331\202"
 150      4A846B41 
 150      903F0CA6 
 150      BD96526D 
 150      A1D982
 151 0026 F10FE3B9 		.ascii	"\361\017\343\271\264Wz\261\275m\256[\003\377--(V\201"
 151      B4577AB1 
 151      BD6DAE5B 
 151      03FF2D2D 
 151      285681
 152 0039 A3940216 		.ascii	"\243\224\002\026\261E  \020((\240@X\020\322\362a\370"
 152      B1452020 
 152      102828A0 
 152      405810D2 
 152      F261F8
 153 004c 100B1642 		.ascii	"\020\013\026B\0324B\242!4\202\210@\3177\263\037\267"
 153      1A3442A2 
 153      21348288 
 153      40CF37B3 
 153      1FB7
 154 005e 7B1FBDBD 		.ascii	"{\037\275\275\206I\337\233\355\333\367~\363f\336\314"
 154      8649DF9B 
 154      EDDBF77E 
 154      F366DECC 
 155 006e 9BB7C720 		.ascii	"\233\267\307 \006\275\212\021\012A+\031\205\320{\014"
 155      06BD8A11 
 155      0A412B19 
 155      85D07B0C 
 156 007e 422C4268 		.ascii	"B,Bh&\020\210Q\032R\032\210Q;P\227*\377\033\231\033"
 156      26108851 
 156      1A521A88 
 156      513B5097 
 156      2AFF1B99 
 157 0093 793744D5 		.ascii	"y7D\325\277\004\324\017\364\014(\216\003z\026h+\374"
 157      BF04D40F 
 157      F40C288E 
 157      037A1668 
 157      2BFC
 158 00a5 BF05E81C 		.ascii	"\277\005\350\034\320M \007\3200\220\357\204\276\003"
ARM GAS  /tmp/cciKmy7D.s 			page 12


 158      D04D2007 
 158      D03090EF 
 158      84BE03
 159 00b4 E82AD021 		.ascii	"\350*\320!\240\313@\007\200.\002\035\006:\012t\014\350"
 159      A0CB4007 
 159      802E021D 
 159      063A0A74 
 159      0CE8
 160 00c6 B83A6EBB 		.ascii	"\270:n\273\332\237\212\030\237\3705\024h\037P\246\212"
 160      DA9F8A18 
 160      9FF83514 
 160      681F50A6 
 160      8A
 161 00d7 9F6298C3 		.ascii	"\237b\230\303%u\354\263@\367\201\356\001=\007/mH\241"
 161      2575ECB3 
 161      40F781EE 
 161      013D072F 
 161      6D48A1
 162 00ea 1EA0EBEA 		.ascii	"\036\240\353\352\370\027U\273.\365\035\231\353\035\240"
 162      F81755BB 
 162      2EF51D99 
 162      EB1DA0
 163 00f9 BB407F45 		.ascii	"\273@\177E\214;\036m\222\332z{\227\335\332;Vj\253\227"
 163      8C3B1E6D 
 163      92DA7A7B 
 163      97DDDA3B 
 163      566AAB97 
 164 010d 43A137D1 		.ascii	"C\2417\321h\264V\202\326\366\261$a\221\3073G\241w1\217"
 164      68B45682 
 164      D6F6B124 
 164      6191C733 
 164      47A17731 
 165 0122 33EDC849 		.ascii	"3\355\310I\037\034v\012\212\020\2177\343\321\364\211"
 165      1F1C760A 
 165      8A108F37 
 165      E3D1F489 
 166 0132 A5CB8B32 		.ascii	"\245\313\2132P\243$\325\023\303\331]\231#\321j\212\002"
 166      50A324D5 
 166      13C3D95D 
 166      9923D16A 
 166      8A02
 167 0144 205D3021 		.ascii	" ]0!\025\242\227\3250\336\000\203\011h\213$\005{\373"
 167      15A297D5 
 167      30DE0083 
 167      09688B24 
 167      057BFB
 168 0157 EE37B392 		.ascii	"\3567\263\222\224\256Z8\343\252\363x\033\236\200\022"
 168      94AE5A38 
 168      E3AAF378 
 168      1B9E8012 
 169 0167 AA11C5ED 		.ascii	"\252\021\305\355x$\232\210v\200^P\222N\274\216Ms\246"
 169      78249A88 
 169      76805E50 
 169      924EBC8E 
 169      4D73A6
 170 017a C34A725F 		.ascii	"\303Jr_\247C\262)\252\304d\007\236\210b\264\347Q\033"
 170      A743B229 
ARM GAS  /tmp/cciKmy7D.s 			page 13


 170      AAC46407 
 170      9E8862B4 
 170      E7511B
 171 018d 51BEDFB9 		.ascii	"Q\276\337\271\021Km'p\214\321?\320\006w\350S\222\217"
 171      114B6D27 
 171      708CD13F 
 171      D00677E8 
 171      53928F
 172 01a0 7562278F 		.ascii	"ub'\217w\201:\203\352\260\011=\021\002\361e\017\030"
 172      77813A83 
 172      EAB0093D 
 172      1102F165 
 172      0F18
 173 01b2 2A36AAAF 		.ascii	"*6\252\257\035\212\257{,\370Z/\177\327\331<\226\370"
 173      1D8AAF7B 
 173      2CF85A2F 
 173      7FD7D93C 
 173      96F8
 174 01c4 6A47CBC3 		.ascii	"jG\313\303\361@1\243\250F\240\243\361r\037\256\207P"
 174      F14031A3 
 174      A846A0A3 
 174      F1721FAE 
 174      8750
 175 01d6 F1781F98 		.ascii	"\361x\037\2301\350\0266;\315\3434\273q$\372\277\246"
 175      31E81636 
 175      3BCDE334 
 175      BB7124FA 
 175      BFA6
 176 01e8 40F0E86B 		.ascii	"@\360\350k\365\201\234\305a\344\310\335\245(\304\351"
 176      F5819CC5 
 176      61E4C8DD 
 176      A528C4E9 
 177 01f8 5863AB8F 		.ascii	"Xc\253\217JS\025L\023\351\355\353[\371\312\006I^\312"
 177      4A53154C 
 177      13E9EDEB 
 177      5BF9CA06 
 177      495ECA
 178 020b 6A6EDD4B 		.ascii	"jn\335K\032\320iZ\231#\235\216 \257\201\375k\005,=\206"
 178      1AD0695A 
 178      99239D8E 
 178      20AF81FD 
 178      6B052C3D 
 179 0220 77B19A31 		.ascii	"w\261\2321f<\336\013\373\224\307\035\370y\340\007(?"
 179      663CDE0B 
 179      FB94C71D 
 179      F879E007 
 179      283F
 180 0232 045C6F0C 		.ascii	"\004\\o\014zL\307\336\036\036\333\264\005\022\255\214"
 180      7A4CC7DE 
 180      1E1EDBB4 
 180      0512AD8C 
 181 0242 243F54B7 		.ascii	"$?T\267\243\266\307\032\030\013x\246\2718Mx\217\013"
 181      A3B6C71A 
 181      180B78A6 
 181      B9384D78 
 181      8F0B
 182 0254 C8BA2858 		.ascii	"\310\272(X\215V\260\306\304\367-\370V\030k\265\025,"
ARM GAS  /tmp/cciKmy7D.s 			page 14


 182      8D56B0C6 
 182      C4F72DF8 
 182      56186BB5 
 182      152C
 183 0266 677CBF5A 		.ascii	"g|\277Z\014X\353\255`e\015\024/-<\337\320\360\354\244"
 183      0C58EBAD 
 183      60650D14 
 183      2F2D3CDF 
 183      D0F0ECA4 
 184 027a 81394CF9 		.ascii	"\2019L\371Q\312\217Q~\334\034\252\257\230\310\243\240"
 184      51CA8F51 
 184      7EDC1CAA 
 184      AF98C8A3 
 184      A0
 185 028b 640C03EA 		.ascii	"d\014\003\352v=\364\310*n\274\224\272\005g\204q\347"
 185      763DF4C8 
 185      2A6EBC94 
 185      BA056784 
 185      71E7
 186 029d B3063F76 		.ascii	"\263\006?vD\370\361\"\372Z\222\232 s\337\266\301\031"
 186      44F8F122 
 186      FA5A929A 
 186      2073DFB6 
 186      C119
 187 02af B129A60C 		.ascii	"\261)\246\014:H\325\332\361\370\230C\350\003\274\204"
 187      3A48D5DA 
 187      F1F89843 
 187      E803BC84 
 188 02bf B6922CB4 		.ascii	"\266\222,\264BZ6\034\323\034\217T+\323\304Nb\306(P."
 188      425A361C 
 188      D31C8F54 
 188      2BD3C44E 
 188      62C62850 
 189 02d4 0BB9F98C 		.ascii	"\013\271\371\214#\270\2447\024\032o\375\2468\235\370"
 189      23B8A437 
 189      141A6FFD 
 189      A6389DF8 
 190 02e4 A6302574 		.ascii	"\2460%t\254\001\214Cz\222z\262\346\217ipM\360\370\034"
 190      AC018C43 
 190      7A927AB2 
 190      E68F6970 
 190      4DF0F81C 
 191 02f8 DD0E0F98 		.ascii	"\335\016\017\230\204y\325\014C\3748\037\231X\037t\323"
 191      8479D50C 
 191      43FC381F 
 191      99581F74 
 191      D3
 192 0309 C47A3E71 		.ascii	"\304z>qb]\332 ?\3526$\326\206\001\023+\217\367\323M"
 192      625DDA20 
 192      3FEA3624 
 192      D6860113 
 192      2B8FF7D3 
 193 031e 66254D2E 		.ascii	"f%M.e\261\352\332 \322$\270\365\270\233f\265K4\253-"
 193      65B1EADA 
 193      20D224B8 
 193      F5B89B66 
 193      B54B34AB 
ARM GAS  /tmp/cciKmy7D.s 			page 15


 194 0333 4F1ACC69 		.ascii	"O\032\314i\002\3537\202}n\005,V\212T\301\202W\014`\301"
 194      02EB3782 
 194      7D6E052C 
 194      568A54C1 
 194      82570C60 
 195 0348 A4C1CC9E 		.ascii	"\244\301\314\2365\031\301\232\255\200\015\217\357Y\263"
 195      3519C19A 
 195      AD800D8F 
 195      EF59B3
 196 0357 116C43D2 		.ascii	"\021lC\322`f\317Z\214`_Z\001\213\225>c5\343\216\345"
 196      6066CF5A 
 196      8C605F5A 
 196      018B953E 
 196      6335E38E 
 197 036c F105BAA5 		.ascii	"\361\005\272\245.\322lr\231\362n\312\257R\336C\371u"
 197      2ED26C72 
 197      99F26ECA 
 197      AF52DE43 
 197      F975
 198 037e CA6F24CA 		.ascii	"\312o$\3125Z\351\325\3212\203\236\251\2634ylf\315g\312"
 198      355AE9D5 
 198      D132839E 
 198      A9B33479 
 198      6C66CD67 
 199 0393 744E9583 		.ascii	"tN\225\203\027\357\204\337\004\200\330\347'\352\235"
 199      17EF84DF 
 199      0480D8E7 
 199      27EA9D
 200 03a2 9A042C97 		.ascii	"\232\004,\227'\362/\215\243\310!\375\235\256\357n62"
 200      27F22F8D 
 200      A3C821FD 
 200      9DAEEF6E 
 200      3632
 201 03b4 1F93EBDC 		.ascii	"\037\223\353\3344^\342C7\030/n\014ax|\233\372\360\303"
 201      345EE243 
 201      37182F6E 
 201      0C61787C 
 201      9BFAF0C3 
 202 03c8 53F22122 		.ascii	"S\362!\"\305\377\310\306L\361\2476?TS\274\022\245_\251"
 202      C5FFC8C6 
 202      4CF1A736 
 202      3F5453BC 
 202      12A55FA9 
 203 03dc 5A57DC14 		.ascii	"ZW\334\024O\264T[y\335\231]\220\262\030m\361n$0%Z\232"
 203      4FB4545B 
 203      79DD995D 
 203      90B2186D 
 203      F16E2430 
 204 03f3 E98633DB 		.ascii	"\351\2063\333\024Se\316\277%0\275\255\254\200r\261\310"
 204      145365CE 
 204      BF2530BD 
 204      ADAC8072 
 204      B1C8
 205 0405 6B1B1BDA 		.ascii	"k\033\033\332\260\224\252_-]\221W\313\237\346\253\345"
 205      B094AA5F 
 205      2D5D9157 
 205      CB9FE6AB 
ARM GAS  /tmp/cciKmy7D.s 			page 16


 205      E5
 206 0416 05D42E5D 		.ascii	"\005\324.]\270 \2676\222\272\246>(\365\207Bx\004\012"
 206      B820B736 
 206      92BAA63E 
 206      28F58742 
 206      78040A
 207 0429 D28CBE3E 		.ascii	"\322\214\276>S\015R\357Vy\314\372p\220\3225\00702T\262"
 207      530D52EF 
 207      5679CCFA 
 207      7090D235 
 207      07303254 
 208 043e BB5DB0A1 		.ascii	"\273]\260\241u\003)\256\001\217\377\241\307\011\233"
 208      750329AE 
 208      018FFFA1 
 208      C7099B
 209 044d 0385EDE1 		.ascii	"\003\205\355\341\207\020&Q\271\035\025\354\310X'\200"
 209      87102651 
 209      B91D15EC 
 209      C8582780 
 210 045d 50470FEA 		.ascii	"PG\017\352\267\221R>\204\247\307\343\007\240\032G\215"
 210      B791523E 
 210      84A7C7E3 
 210      07A01A47 
 210      8D
 211 046e C70F6125 		.ascii	"\307\017a%\364\255*\351\247\321a\217{\030\377S=\324"
 211      F4AD2AE9 
 211      A7D1618F 
 211      7B18FF53 
 211      3DD4
 212 0480 D3BDFA30 		.ascii	"\323\275\3720\302\344\266\246E*\365\310\340Fz\001\367"
 212      C2E4B6A6 
 212      452AF5C8 
 212      E0467A01 
 212      F7
 213 0491 2DAB7C45 		.ascii	"-\253|E\275\206\366K\313\345\266\024\036\337\003\277"
 213      BD86F64B 
 213      CBE5B614 
 213      1EDF03BF 
 214 04a1 F414A6CE 		.ascii	"\364\024\246\316\327\246I\260&a4\011\023\245\303j\222"
 214      D7A649B0 
 214      26613409 
 214      13A5C36A 
 214      92
 215 04b2 744D628B 		.ascii	"tMb\213\222\244\230\227\024$\251\232\204\325$i\232$"
 215      92A49897 
 215      1424A99A 
 215      84D52469 
 215      9A24
 216 04c4 CD1C6923 		.ascii	"\315\034i#\216=J2$J\222\021%qDI\206FI2\243$\303\242"
 216      8E3D4A32 
 216      244A9211 
 216      25714449 
 216      86464932 
 217 04dc 24C33549 		.ascii	"$\3035I\206&\031\241IH&\210Q\273H\3727mVxw?\371\371"
 217      862619A1 
 217      49482688 
 217      51BB48FA 
ARM GAS  /tmp/cciKmy7D.s 			page 17


 217      376D5678 
 218 04f4 CE749AAE 		.ascii	"\316t\232\256\373\225\252\337\226\260\0042\303\220\250"
 218      FB95AADF 
 218      96B00432 
 218      C390A8
 219 0503 2F61224A 		.ascii	"/a\"J\240G=\264\004\"\362\304%P\250G)\201\264\333n\025"
 219      A0473DB4 
 219      0422F2C4 
 219      2550A847 
 219      2981B4DB 
 220 0519 7581D80E 		.ascii	"u\201\330\016\256v\011^3\\\235MI\2039M`MF\260uV\300"
 220      AE76095E 
 220      335C9D4D 
 220      4983394D 
 220      604D46B0 
 221 0530 06A85D9A 		.ascii	"\006\250]\232\215`\255I\203\231=k1\202m\261\0026@\355"
 221      8D60AD49 
 221      83993D6B 
 221      31826DB1 
 221      023640ED 
 222 0544 B2DE08B6 		.ascii	"\262\336\010\266;i0\263g_\030\301\276\265\002\026\357"
 222      3B6930B3 
 222      675F18C1 
 222      BEB50216 
 222      EF
 223 0555 D30FC036 		.ascii	"\323\017\3006\032\301\216$\015f\366l\223\021\354\244"
 223      1AC18E24 
 223      0D66F66C 
 223      9311ECA4 
 224 0565 1530677C 		.ascii	"\0250g|\317\366\032\301N'\015f\360L\252\227\017\266"
 224      CFF61AC1 
 224      4E270D66 
 224      F04CAA97 
 224      0FB6
 225 0577 AE540F81 		.ascii	"\256T\017\201\362K\302OV\360^\216\357\334\367\327\314"
 225      F24BC24F 
 225      56F05E8E 
 225      EFDCF7D7 
 225      CC
 226 0588 87EA4AD2 		.ascii	"\207\352J\322xN\024\267\031O<\217\353\031r\34750\244"
 226      784E14B7 
 226      194F3C8F 
 226      EB1972E7 
 226      3530A4
 227 059b 485C46F9 		.ascii	"H\\F\371'\224\177J\371g\224\257\240|\025\345\253)_C"
 227      27947F4A 
 227      F96794AF 
 227      A07C15E5 
 227      AB295F43 
 228 05af F95ACAD7 		.ascii	"\371Z\312\327Q\276\2011\024\230\021eb\377\000eb+\243"
 228      51BE8131 
 228      14981165 
 228      62FF0065 
 228      622BA3
 229 05c2 7FDFEA95 		.ascii	"\177\337\352\225\227\374\024\276\242b\377\334h\372\205"
 229      97FC14BE 
 229      A262FFDC 
ARM GAS  /tmp/cciKmy7D.s 			page 18


 229      68FA85
 230 05d1 80C7BB29 		.ascii	"\200\307\273)\330\036\323\327z\334\037i\"&e\270\354"
 230      D81ED3D7 
 230      7ADC1F69 
 230      222665B8 
 230      EC
 231 05e2 A226B529 		.ascii	"\242&\265)<)4m\362d\227\362'\324\272*\371*W\215\020"
 231      3C29346D 
 231      F26497F2 
 231      27D4BA2A 
 231      F92A578D 
 232 05f7 106B5DA5 		.ascii	"\020k]\245\363\212\247Nq\025\025\345\271\012J\012\347"
 232      F38AA74E 
 232      711515E5 
 232      B90A4A0A 
 232      E7
 233 0608 7E944D5E 		.ascii	"~\224M^yj\200\252\252\312'\227\015\312\252\022\245\026"
 233      796A80AA 
 233      AACA2797 
 233      0DCAAA12 
 233      A516
 234 061a CC99EF74 		.ascii	"\314\231\357t\243\221\265b\365\324)\236\2055>\301S\353"
 234      A391B562 
 234      F5D4299E 
 234      85353EC1 
 234      53EB
 235 062c 15EB6A3C 		.ascii	"\025\353j<\342\373\256J\241\332\353\022DQp\025{\375"
 235      E2FBAE4A 
 235      A1DAEB12 
 235      44517015 
 235      7BFD
 236 063e A2102808 		.ascii	"\242\020(\010\3605\225\2762\300\024\352\002e\336\300"
 236      F03595BE 
 236      32C014EA 
 236      0265DEC0 
 237 064e 628F5B28 		.ascii	"b\217[(\367\346z\375e\225\236\"\237\350\365T\010\001"
 237      F7E67AFD 
 237      65959E22 
 237      9FE8F554 
 237      0801
 238 0660 4F0E57EC 		.ascii	"O\016W\354\311\317\311-t\361\201\352I~\301\357\235\344"
 238      C9CFC92D 
 238      74F181EA 
 238      497EC1EF 
 238      9DE4
 239 0672 E517F85C 		.ascii	"\345\027\370\\>\177YU]\271\327U+\226\373\374\"\014\234"
 239      3E7F5955 
 239      5DB9D755 
 239      2B96FBFC 
 239      220C9C
 240 0685 5E073D0C 		.ascii	"^\007=\014)\262By\200-\013T\001U\246\226\344\344\361"
 240      29B24279 
 240      802D0B54 
 240      0155A696 
 240      E4E4F1
 241 0698 229F5A92 		.ascii	"\"\237Z\222\253tn\245\313S\272|\322\331Kr\212\334\202"
 241      AB746EA5 
ARM GAS  /tmp/cciKmy7D.s 			page 19


 241      CB53BA7C 
 241      D2D94B72 
 241      8ADC82
 242 06ab BFC2B770 		.ascii	"\277\302\267p\2506\015\217\317\357\023S\313\250p\206"
 242      A8360D8F 
 242      CFEF1353 
 242      CBA87086 
 243 06bb 7115CA84 		.ascii	"q\025\312\204\352j\301\357\362.\022]\356\342\322\302"
 243      EA6AC1EF 
 243      F22E125D 
 243      EEE2D2C2 
 244 06cb 52580C65 		.ascii	"RX\014e=fe/Z\344\242S\256\310\316\312Z\264\000\374q"
 244      3D66652F 
 244      5AE4A253 
 244      AEC8CECA 
 244      5AB400FC 
 245 06e0 90E5F1CC 		.ascii	"\220\345\361\314[\\\343\315\363V\260n\256\010h6[\230"
 245      5B5CE3CD 
 245      F356B06E 
 245      AE086836 
 245      5B98
 246 06f2 C7B173F3 		.ascii	"\307\261s\3638[n)\307\261\271\034g+r\277\315\015\361"
 246      385B6E29 
 246      C7B1B91C 
 246      672B72BF 
 246      CD0DF1
 247 0705 09646D7D 		.ascii	"\011dm}\345\036\321\241<V\363\265\037z\304t\237P\015"
 247      E51ED1A1 
 247      3C56F3B5 
 247      1F7AC474 
 247      9F500D
 248 0718 0BE21147 		.ascii	"\013\342\021G\351\236\301Z.\014\010u5Dn#\2326\242j#"
 248      E99EC15A 
 248      2E0C0875 
 248      35446E23 
 248      9A36A26A 
 249 072d FFA69105 		.ascii	"\377\246\221\005\230\341\001\307+\026\212\374\202\014"
 249      98E101C7 
 249      2B168AFC 
 249      820C
 250 073b A59B3C7D 		.ascii	"\245\233<}\332\364\351\031\234\333\255\271\302\2709"
 250      DAF4E919 
 250      9CDBADB9 
 250      C2B839
 251 074a 9B7B5601 		.ascii	"\233{V\001\307\272\013\271\364\234\222\334)\\\351<\372"
 251      C7BA0BB9 
 251      F49C92DC 
 251      295CE93C 
 251      FA
 252 075b 904D1E52 		.ascii	"\220M\036Rsf\347\346\317\341\322\310\013\265\317\206"
 252      7366E7E6 
 252      CFE1D2C8 
 252      0BB5CF86 
 253 076b DE969BE7 		.ascii	"\336\226\233\347\006\213R\316\316\345\227\346s\357\344"
 253      068B52CE 
 253      CEE597E6 
 253      73EFE4
ARM GAS  /tmp/cciKmy7D.s 			page 20


 254 077a E765A510 		.ascii	"\347e\245\020\220)\377\003AO\202\277"
 254      9029FF03 
 254      414F82BF 
 255              		.text
 256              		.section	.gnu.lto_.symtab.b004f98173ab17af,"",%progbits
 257 0000 5F70616C 		.ascii	"_pal_lld_init\000\000\000\000\000\000\000\000\000\000"
 257      5F6C6C64 
 257      5F696E69 
 257      74000000 
 257      00000000 
 258 0017 0000A100 		.ascii	"\000\000\241\000\000\000_pal_lld_setgroupmode\000\000"
 258      00005F70 
 258      616C5F6C 
 258      6C645F73 
 258      65746772 
 259 0034 00000000 		.ascii	"\000\000\000\000\000\000\000\000\000\000\310\000\000"
 259      00000000 
 259      0000C800 
 259      00
 260 0041 00       		.ascii	"\000"
 261              		.text
 262              		.section	.gnu.lto_.opts,"",%progbits
 263 0000 272D6D63 		.ascii	"'-mcpu=cortex-m3' '-mno-thumb-interwork' '-mthumb' "
 263      70753D63 
 263      6F727465 
 263      782D6D33 
 263      2720272D 
 264 0033 272D6767 		.ascii	"'-ggdb' '-O2' '-fomit-frame-pointer' '-falign-funct"
 264      64622720 
 264      272D4F32 
 264      2720272D 
 264      666F6D69 
 265 0066 696F6E73 		.ascii	"ions=16' '-ffunction-sections' '-fdata-sections' '-"
 265      3D313627 
 265      20272D66 
 265      66756E63 
 265      74696F6E 
 266 0099 666E6F2D 		.ascii	"fno-common' '-flto'\000"
 266      636F6D6D 
 266      6F6E2720 
 266      272D666C 
 266      746F2700 
 267              		.text
 268              		.cfi_sections	.debug_frame
 269              		.section	.text._pal_lld_init,"ax",%progbits
 270              		.align	2
 271              		.p2align 4,,15
 272              		.global	_pal_lld_init
 273              		.thumb
 274              		.thumb_func
 275              		.type	_pal_lld_init, %function
 276              	_pal_lld_init:
 277              	.LFB219:
 278              		.file 1 "../../../os/hal/ports/STM32/LLD/GPIOv1/hal_pal_lld.c"
 279              		.loc 1 76 0
 280              		.cfi_startproc
 281              		@ args = 0, pretend = 0, frame = 0
ARM GAS  /tmp/cciKmy7D.s 			page 21


 282              		@ frame_needed = 0, uses_anonymous_args = 0
 283              		@ link register save eliminated.
 284              	.LVL0:
 285              		.loc 1 81 0
 286 0000 4FF48053 		mov	r3, #4096
 287 0004 C4F20203 		movt	r3, 16386
 288 0008 9A69     		ldr	r2, [r3, #24]
 289              		.loc 1 76 0
 290 000a 10B4     		push	{r4}
 291              		.cfi_def_cfa_offset 4
 292              		.cfi_offset 4, -4
 293              		.loc 1 81 0
 294 000c 42F07D02 		orr	r2, r2, #125
 295 0010 9A61     		str	r2, [r3, #24]
 296              		.loc 1 86 0
 297 0012 0368     		ldr	r3, [r0]
 298 0014 4FF40062 		mov	r2, #2048
 299 0018 C4F20102 		movt	r2, 16385
 300 001c D360     		str	r3, [r2, #12]
 301              		.loc 1 87 0
 302 001e 8168     		ldr	r1, [r0, #8]
 303              		.loc 1 89 0
 304 0020 4FF44063 		mov	r3, #3072
 305              		.loc 1 87 0
 306 0024 5160     		str	r1, [r2, #4]
 307              		.loc 1 88 0
 308 0026 4168     		ldr	r1, [r0, #4]
 309              		.loc 1 89 0
 310 0028 C4F20103 		movt	r3, 16385
 311              		.loc 1 88 0
 312 002c 1160     		str	r1, [r2]
 313              		.loc 1 89 0
 314 002e C268     		ldr	r2, [r0, #12]
 315              		.loc 1 92 0
 316 0030 4FF48051 		mov	r1, #4096
 317              		.loc 1 89 0
 318 0034 DA60     		str	r2, [r3, #12]
 319              		.loc 1 90 0
 320 0036 4269     		ldr	r2, [r0, #20]
 321              		.loc 1 92 0
 322 0038 C4F20101 		movt	r1, 16385
 323              		.loc 1 90 0
 324 003c 5A60     		str	r2, [r3, #4]
 325              		.loc 1 91 0
 326 003e 0469     		ldr	r4, [r0, #16]
 327              		.loc 1 95 0
 328 0040 4FF4A052 		mov	r2, #5120
 329              		.loc 1 91 0
 330 0044 1C60     		str	r4, [r3]
 331              		.loc 1 92 0
 332 0046 8369     		ldr	r3, [r0, #24]
 333              		.loc 1 95 0
 334 0048 C4F20102 		movt	r2, 16385
 335              		.loc 1 92 0
 336 004c CB60     		str	r3, [r1, #12]
 337              		.loc 1 93 0
 338 004e 046A     		ldr	r4, [r0, #32]
ARM GAS  /tmp/cciKmy7D.s 			page 22


 339              		.loc 1 99 0
 340 0050 4FF4C053 		mov	r3, #6144
 341              		.loc 1 93 0
 342 0054 4C60     		str	r4, [r1, #4]
 343              		.loc 1 94 0
 344 0056 C469     		ldr	r4, [r0, #28]
 345              		.loc 1 99 0
 346 0058 C4F20103 		movt	r3, 16385
 347              		.loc 1 94 0
 348 005c 0C60     		str	r4, [r1]
 349              		.loc 1 95 0
 350 005e 416A     		ldr	r1, [r0, #36]
 351              		.loc 1 113 0
 352 0060 5DF8044B 		ldr	r4, [sp], #4
 353              		.loc 1 95 0
 354 0064 D160     		str	r1, [r2, #12]
 355              		.loc 1 96 0
 356 0066 C16A     		ldr	r1, [r0, #44]
 357 0068 5160     		str	r1, [r2, #4]
 358              		.loc 1 97 0
 359 006a 816A     		ldr	r1, [r0, #40]
 360 006c 1160     		str	r1, [r2]
 361              		.loc 1 99 0
 362 006e 026B     		ldr	r2, [r0, #48]
 363 0070 DA60     		str	r2, [r3, #12]
 364              		.loc 1 100 0
 365 0072 826B     		ldr	r2, [r0, #56]
 366 0074 5A60     		str	r2, [r3, #4]
 367              		.loc 1 101 0
 368 0076 426B     		ldr	r2, [r0, #52]
 369 0078 1A60     		str	r2, [r3]
 370              		.loc 1 113 0
 371 007a 7047     		bx	lr
 372              		.cfi_endproc
 373              	.LFE219:
 374              		.size	_pal_lld_init, .-_pal_lld_init
 375 007c AFF30080 		.section	.text._pal_lld_setgroupmode,"ax",%progbits
 376              		.align	2
 377              		.p2align 4,,15
 378              		.global	_pal_lld_setgroupmode
 379              		.thumb
 380              		.thumb_func
 381              		.type	_pal_lld_setgroupmode, %function
 382              	_pal_lld_setgroupmode:
 383              	.LFB220:
 384              		.loc 1 132 0
 385              		.cfi_startproc
 386              		@ args = 0, pretend = 0, frame = 0
 387              		@ frame_needed = 0, uses_anonymous_args = 0
 388              		@ link register save eliminated.
 389              	.LVL1:
 390              		.loc 1 156 0
 391 0000 032A     		cmp	r2, #3
 392              		.loc 1 132 0
 393 0002 F0B4     		push	{r4, r5, r6, r7}
 394              		.cfi_def_cfa_offset 16
 395              		.cfi_offset 4, -16
ARM GAS  /tmp/cciKmy7D.s 			page 23


 396              		.cfi_offset 5, -12
 397              		.cfi_offset 6, -8
 398              		.cfi_offset 7, -4
 399              		.loc 1 157 0
 400 0004 08BF     		it	eq
 401 0006 0161     		streq	r1, [r0, #16]
 402              		.loc 1 156 0
 403 0008 02D0     		beq	.L4
 404              		.loc 1 158 0
 405 000a 042A     		cmp	r2, #4
 406              		.loc 1 159 0
 407 000c 08BF     		it	eq
 408 000e 4161     		streq	r1, [r0, #20]
 409              	.L4:
 410              		.loc 1 160 0
 411 0010 40F20003 		movw	r3, #:lower16:.LANCHOR0
 412 0014 C0F20003 		movt	r3, #:upper16:.LANCHOR0
 413 0018 9F5C     		ldrb	r7, [r3, r2]	@ zero_extendqisi2
 414              	.LVL2:
 415              		.loc 1 161 0
 416 001a 0023     		movs	r3, #0
 417 001c 1C46     		mov	r4, r3
 418 001e 1A46     		mov	r2, r3
 419              	.LVL3:
 420 0020 1D46     		mov	r5, r3
 421              		.loc 1 160 0
 422 0022 0826     		movs	r6, #8
 423              	.LVL4:
 424              	.L10:
 425              		.loc 1 167 0
 426 0024 11F0800F 		tst	r1, #128
 427              		.loc 1 163 0
 428 0028 4FEA0212 		lsl	r2, r2, #4
 429              	.LVL5:
 430              		.loc 1 165 0
 431 002c 4FEA0313 		lsl	r3, r3, #4
 432              	.LVL6:
 433              		.loc 1 164 0
 434 0030 4FEA0515 		lsl	r5, r5, #4
 435              	.LVL7:
 436              		.loc 1 166 0
 437 0034 4FEA0414 		lsl	r4, r4, #4
 438              	.LVL8:
 439              		.loc 1 168 0
 440 0038 0CBF     		ite	eq
 441 003a 42F00F02 		orreq	r2, r2, #15
 442              	.LVL9:
 443              		.loc 1 170 0
 444 003e 3B43     		orrne	r3, r3, r7
 445              	.LVL10:
 446              		.loc 1 171 0
 447 0040 11F4004F 		tst	r1, #32768
 448              		.loc 1 172 0
 449 0044 0CBF     		ite	eq
 450 0046 45F00F05 		orreq	r5, r5, #15
 451              	.LVL11:
 452              		.loc 1 174 0
ARM GAS  /tmp/cciKmy7D.s 			page 24


 453 004a 3C43     		orrne	r4, r4, r7
 454              	.LVL12:
 455              		.loc 1 162 0
 456 004c 013E     		subs	r6, r6, #1
 457              	.LVL13:
 458              		.loc 1 175 0
 459 004e 4FEA4101 		lsl	r1, r1, #1
 460              	.LVL14:
 461              		.loc 1 162 0
 462 0052 E7D1     		bne	.L10
 463              		.loc 1 177 0
 464 0054 4168     		ldr	r1, [r0, #4]
 465              	.LVL15:
 466 0056 0D40     		ands	r5, r5, r1
 467              	.LVL16:
 468 0058 2C43     		orrs	r4, r4, r5
 469              	.LVL17:
 470 005a 4460     		str	r4, [r0, #4]
 471              		.loc 1 178 0
 472 005c 0168     		ldr	r1, [r0]
 473              		.loc 1 179 0
 474 005e F0BC     		pop	{r4, r5, r6, r7}
 475              	.LVL18:
 476              		.loc 1 178 0
 477 0060 0A40     		ands	r2, r2, r1
 478              	.LVL19:
 479 0062 1343     		orrs	r3, r3, r2
 480              	.LVL20:
 481 0064 0360     		str	r3, [r0]
 482              		.loc 1 179 0
 483 0066 7047     		bx	lr
 484              		.cfi_endproc
 485              	.LFE220:
 486              		.size	_pal_lld_setgroupmode, .-_pal_lld_setgroupmode
 487 0068 AFF30080 		.section	.rodata.cfgtab.6566,"a",%progbits
 487      AFF30080 
 488              		.align	2
 489              		.set	.LANCHOR0,. + 0
 490              		.type	cfgtab.6566, %object
 491              		.size	cfgtab.6566, 18
 492              	cfgtab.6566:
 493 0000 04       		.byte	4
 494 0001 02       		.byte	2
 495 0002 04       		.byte	4
 496 0003 08       		.byte	8
 497 0004 08       		.byte	8
 498 0005 00       		.byte	0
 499 0006 03       		.byte	3
 500 0007 07       		.byte	7
 501 0008 08       		.byte	8
 502 0009 08       		.byte	8
 503 000a 08       		.byte	8
 504 000b 08       		.byte	8
 505 000c 08       		.byte	8
 506 000d 08       		.byte	8
 507 000e 08       		.byte	8
 508 000f 08       		.byte	8
ARM GAS  /tmp/cciKmy7D.s 			page 25


 509 0010 0B       		.byte	11
 510 0011 0F       		.byte	15
 511 0012 0000     		.text
 512              	.Letext0:
 513              		.file 2 "/home/otto/MentorGraphics/Sourcery_CodeBench_Lite_for_ARM_EABI/arm-none-eabi/include/stdi
 514              		.file 3 "../../../os/common/ports/ARMCMx/compilers/GCC/chtypes.h"
 515              		.file 4 "../../../os/rt/include/chsystypes.h"
 516              		.file 5 "../../../os/rt/include/chschd.h"
 517              		.file 6 "../../../os/common/ext/CMSIS/ST/STM32F1xx/stm32f100xb.h"
 518              		.file 7 "../../../os/common/ports/ARMCMx/chcore.h"
 519              		.file 8 "../../../os/common/ports/ARMCMx/chcore_v7m.h"
 520              		.file 9 "../../../os/rt/include/chsem.h"
 521              		.file 10 "../../../os/rt/include/chmtx.h"
 522              		.file 11 "../../../os/hal/ports/STM32/LLD/GPIOv1/hal_pal_lld.h"
 523              		.file 12 "../../../os/common/ext/CMSIS/include/core_cm3.h"
 524              		.section	.debug_info,"",%progbits
 525              	.Ldebug_info0:
 526 0000 7E080000 		.4byte	0x87e
 527 0004 0400     		.2byte	0x4
 528 0006 00000000 		.4byte	.Ldebug_abbrev0
 529 000a 04       		.byte	0x4
 530 000b 01       		.uleb128 0x1
 531 000c 38020000 		.4byte	.LASF115
 532 0010 01       		.byte	0x1
 533 0011 AC040000 		.4byte	.LASF116
 534 0015 26000000 		.4byte	.LASF117
 535 0019 00000000 		.4byte	.Ldebug_ranges0+0
 536 001d 00000000 		.4byte	0
 537 0021 00000000 		.4byte	.Ldebug_line0
 538 0025 02       		.uleb128 0x2
 539 0026 04       		.byte	0x4
 540 0027 05       		.byte	0x5
 541 0028 696E7400 		.ascii	"int\000"
 542 002c 03       		.uleb128 0x3
 543 002d 04       		.byte	0x4
 544 002e 07       		.byte	0x7
 545 002f BD000000 		.4byte	.LASF0
 546 0033 03       		.uleb128 0x3
 547 0034 01       		.byte	0x1
 548 0035 06       		.byte	0x6
 549 0036 49050000 		.4byte	.LASF1
 550 003a 04       		.uleb128 0x4
 551 003b 18030000 		.4byte	.LASF4
 552 003f 02       		.byte	0x2
 553 0040 2A       		.byte	0x2a
 554 0041 45000000 		.4byte	0x45
 555 0045 03       		.uleb128 0x3
 556 0046 01       		.byte	0x1
 557 0047 08       		.byte	0x8
 558 0048 EF040000 		.4byte	.LASF2
 559 004c 03       		.uleb128 0x3
 560 004d 02       		.byte	0x2
 561 004e 05       		.byte	0x5
 562 004f D3030000 		.4byte	.LASF3
 563 0053 04       		.uleb128 0x4
 564 0054 B2030000 		.4byte	.LASF5
 565 0058 02       		.byte	0x2
ARM GAS  /tmp/cciKmy7D.s 			page 26


 566 0059 36       		.byte	0x36
 567 005a 5E000000 		.4byte	0x5e
 568 005e 03       		.uleb128 0x3
 569 005f 02       		.byte	0x2
 570 0060 07       		.byte	0x7
 571 0061 5B050000 		.4byte	.LASF6
 572 0065 04       		.uleb128 0x4
 573 0066 98040000 		.4byte	.LASF7
 574 006a 02       		.byte	0x2
 575 006b 4F       		.byte	0x4f
 576 006c 70000000 		.4byte	0x70
 577 0070 03       		.uleb128 0x3
 578 0071 04       		.byte	0x4
 579 0072 05       		.byte	0x5
 580 0073 DD030000 		.4byte	.LASF8
 581 0077 04       		.uleb128 0x4
 582 0078 51010000 		.4byte	.LASF9
 583 007c 02       		.byte	0x2
 584 007d 50       		.byte	0x50
 585 007e 82000000 		.4byte	0x82
 586 0082 03       		.uleb128 0x3
 587 0083 04       		.byte	0x4
 588 0084 07       		.byte	0x7
 589 0085 73040000 		.4byte	.LASF10
 590 0089 03       		.uleb128 0x3
 591 008a 08       		.byte	0x8
 592 008b 05       		.byte	0x5
 593 008c 42030000 		.4byte	.LASF11
 594 0090 04       		.uleb128 0x4
 595 0091 19040000 		.4byte	.LASF12
 596 0095 02       		.byte	0x2
 597 0096 78       		.byte	0x78
 598 0097 9B000000 		.4byte	0x9b
 599 009b 03       		.uleb128 0x3
 600 009c 08       		.byte	0x8
 601 009d 07       		.byte	0x7
 602 009e A0010000 		.4byte	.LASF13
 603 00a2 04       		.uleb128 0x4
 604 00a3 9F030000 		.4byte	.LASF14
 605 00a7 03       		.byte	0x3
 606 00a8 3C       		.byte	0x3c
 607 00a9 3A000000 		.4byte	0x3a
 608 00ad 04       		.uleb128 0x4
 609 00ae 08030000 		.4byte	.LASF15
 610 00b2 03       		.byte	0x3
 611 00b3 3D       		.byte	0x3d
 612 00b4 3A000000 		.4byte	0x3a
 613 00b8 04       		.uleb128 0x4
 614 00b9 6B040000 		.4byte	.LASF16
 615 00bd 03       		.byte	0x3
 616 00be 3E       		.byte	0x3e
 617 00bf 3A000000 		.4byte	0x3a
 618 00c3 04       		.uleb128 0x4
 619 00c4 7B010000 		.4byte	.LASF17
 620 00c8 03       		.byte	0x3
 621 00c9 40       		.byte	0x40
 622 00ca 77000000 		.4byte	0x77
ARM GAS  /tmp/cciKmy7D.s 			page 27


 623 00ce 04       		.uleb128 0x4
 624 00cf 50030000 		.4byte	.LASF18
 625 00d3 03       		.byte	0x3
 626 00d4 41       		.byte	0x41
 627 00d5 65000000 		.4byte	0x65
 628 00d9 04       		.uleb128 0x4
 629 00da 62010000 		.4byte	.LASF19
 630 00de 03       		.byte	0x3
 631 00df 43       		.byte	0x43
 632 00e0 77000000 		.4byte	0x77
 633 00e4 04       		.uleb128 0x4
 634 00e5 B7010000 		.4byte	.LASF20
 635 00e9 03       		.byte	0x3
 636 00ea 45       		.byte	0x45
 637 00eb 65000000 		.4byte	0x65
 638 00ef 04       		.uleb128 0x4
 639 00f0 A1000000 		.4byte	.LASF21
 640 00f4 04       		.byte	0x4
 641 00f5 35       		.byte	0x35
 642 00f6 53000000 		.4byte	0x53
 643 00fa 04       		.uleb128 0x4
 644 00fb 05020000 		.4byte	.LASF22
 645 00ff 04       		.byte	0x4
 646 0100 3F       		.byte	0x3f
 647 0101 05010000 		.4byte	0x105
 648 0105 05       		.uleb128 0x5
 649 0106 29030000 		.4byte	.LASF40
 650 010a 44       		.byte	0x44
 651 010b 05       		.byte	0x5
 652 010c 9A       		.byte	0x9a
 653 010d E3010000 		.4byte	0x1e3
 654 0111 06       		.uleb128 0x6
 655 0112 92040000 		.4byte	.LASF23
 656 0116 05       		.byte	0x5
 657 0117 9B       		.byte	0x9b
 658 0118 18020000 		.4byte	0x218
 659 011c 00       		.byte	0
 660 011d 06       		.uleb128 0x6
 661 011e E4020000 		.4byte	.LASF24
 662 0122 05       		.byte	0x5
 663 0123 9C       		.byte	0x9c
 664 0124 C3000000 		.4byte	0xc3
 665 0128 08       		.byte	0x8
 666 0129 07       		.uleb128 0x7
 667 012a 63747800 		.ascii	"ctx\000"
 668 012e 05       		.byte	0x5
 669 012f 9D       		.byte	0x9d
 670 0130 2B050000 		.4byte	0x52b
 671 0134 0C       		.byte	0xc
 672 0135 06       		.uleb128 0x6
 673 0136 E9040000 		.4byte	.LASF25
 674 013a 05       		.byte	0x5
 675 013b 9F       		.byte	0x9f
 676 013c EE010000 		.4byte	0x1ee
 677 0140 10       		.byte	0x10
 678 0141 06       		.uleb128 0x6
 679 0142 81050000 		.4byte	.LASF26
ARM GAS  /tmp/cciKmy7D.s 			page 28


 680 0146 05       		.byte	0x5
 681 0147 A0       		.byte	0xa0
 682 0148 EE010000 		.4byte	0x1ee
 683 014c 14       		.byte	0x14
 684 014d 06       		.uleb128 0x6
 685 014e 46040000 		.4byte	.LASF27
 686 0152 05       		.byte	0x5
 687 0153 A7       		.byte	0xa7
 688 0154 90060000 		.4byte	0x690
 689 0158 18       		.byte	0x18
 690 0159 06       		.uleb128 0x6
 691 015a 01030000 		.4byte	.LASF28
 692 015e 05       		.byte	0x5
 693 015f B0       		.byte	0xb0
 694 0160 A2060000 		.4byte	0x6a2
 695 0164 1C       		.byte	0x1c
 696 0165 06       		.uleb128 0x6
 697 0166 1B050000 		.4byte	.LASF29
 698 016a 05       		.byte	0x5
 699 016b B5       		.byte	0xb5
 700 016c AD000000 		.4byte	0xad
 701 0170 20       		.byte	0x20
 702 0171 06       		.uleb128 0x6
 703 0172 9B000000 		.4byte	.LASF30
 704 0176 05       		.byte	0x5
 705 0177 B9       		.byte	0xb9
 706 0178 A2000000 		.4byte	0xa2
 707 017c 21       		.byte	0x21
 708 017d 06       		.uleb128 0x6
 709 017e E3000000 		.4byte	.LASF31
 710 0182 05       		.byte	0x5
 711 0183 BE       		.byte	0xbe
 712 0184 B8000000 		.4byte	0xb8
 713 0188 22       		.byte	0x22
 714 0189 08       		.uleb128 0x8
 715 018a 7500     		.ascii	"u\000"
 716 018c 05       		.byte	0x5
 717 018d 0F01     		.2byte	0x10f
 718 018f C5050000 		.4byte	0x5c5
 719 0193 24       		.byte	0x24
 720 0194 09       		.uleb128 0x9
 721 0195 FD040000 		.4byte	.LASF32
 722 0199 05       		.byte	0x5
 723 019a 1401     		.2byte	0x114
 724 019c F4010000 		.4byte	0x1f4
 725 01a0 28       		.byte	0x28
 726 01a1 09       		.uleb128 0x9
 727 01a2 20030000 		.4byte	.LASF33
 728 01a6 05       		.byte	0x5
 729 01a7 1A01     		.2byte	0x11a
 730 01a9 18020000 		.4byte	0x218
 731 01ad 2C       		.byte	0x2c
 732 01ae 09       		.uleb128 0x9
 733 01af B4000000 		.4byte	.LASF34
 734 01b3 05       		.byte	0x5
 735 01b4 2001     		.2byte	0x120
 736 01b6 D9000000 		.4byte	0xd9
ARM GAS  /tmp/cciKmy7D.s 			page 29


 737 01ba 34       		.byte	0x34
 738 01bb 09       		.uleb128 0x9
 739 01bc E6010000 		.4byte	.LASF35
 740 01c0 05       		.byte	0x5
 741 01c1 2701     		.2byte	0x127
 742 01c3 8A060000 		.4byte	0x68a
 743 01c7 38       		.byte	0x38
 744 01c8 09       		.uleb128 0x9
 745 01c9 AB000000 		.4byte	.LASF36
 746 01cd 05       		.byte	0x5
 747 01ce 2B01     		.2byte	0x12b
 748 01d0 C3000000 		.4byte	0xc3
 749 01d4 3C       		.byte	0x3c
 750 01d5 09       		.uleb128 0x9
 751 01d6 95050000 		.4byte	.LASF37
 752 01da 05       		.byte	0x5
 753 01db 3201     		.2byte	0x132
 754 01dd CB020000 		.4byte	0x2cb
 755 01e1 40       		.byte	0x40
 756 01e2 00       		.byte	0
 757 01e3 04       		.uleb128 0x4
 758 01e4 EE020000 		.4byte	.LASF38
 759 01e8 04       		.byte	0x4
 760 01e9 44       		.byte	0x44
 761 01ea EE010000 		.4byte	0x1ee
 762 01ee 0A       		.uleb128 0xa
 763 01ef 04       		.byte	0x4
 764 01f0 FA000000 		.4byte	0xfa
 765 01f4 04       		.uleb128 0x4
 766 01f5 CF000000 		.4byte	.LASF39
 767 01f9 04       		.byte	0x4
 768 01fa 49       		.byte	0x49
 769 01fb FF010000 		.4byte	0x1ff
 770 01ff 05       		.uleb128 0x5
 771 0200 00000000 		.4byte	.LASF41
 772 0204 04       		.byte	0x4
 773 0205 05       		.byte	0x5
 774 0206 88       		.byte	0x88
 775 0207 18020000 		.4byte	0x218
 776 020b 06       		.uleb128 0x6
 777 020c CA000000 		.4byte	.LASF42
 778 0210 05       		.byte	0x5
 779 0211 89       		.byte	0x89
 780 0212 EE010000 		.4byte	0x1ee
 781 0216 00       		.byte	0
 782 0217 00       		.byte	0
 783 0218 04       		.uleb128 0x4
 784 0219 D6010000 		.4byte	.LASF43
 785 021d 04       		.byte	0x4
 786 021e 50       		.byte	0x50
 787 021f 23020000 		.4byte	0x223
 788 0223 05       		.uleb128 0x5
 789 0224 27010000 		.4byte	.LASF44
 790 0228 08       		.byte	0x8
 791 0229 05       		.byte	0x5
 792 022a 8F       		.byte	0x8f
 793 022b 48020000 		.4byte	0x248
ARM GAS  /tmp/cciKmy7D.s 			page 30


 794 022f 06       		.uleb128 0x6
 795 0230 CA000000 		.4byte	.LASF42
 796 0234 05       		.byte	0x5
 797 0235 90       		.byte	0x90
 798 0236 EE010000 		.4byte	0x1ee
 799 023a 00       		.byte	0
 800 023b 06       		.uleb128 0x6
 801 023c 22010000 		.4byte	.LASF45
 802 0240 05       		.byte	0x5
 803 0241 91       		.byte	0x91
 804 0242 EE010000 		.4byte	0x1ee
 805 0246 04       		.byte	0x4
 806 0247 00       		.byte	0
 807 0248 04       		.uleb128 0x4
 808 0249 85040000 		.4byte	.LASF46
 809 024d 04       		.byte	0x4
 810 024e 57       		.byte	0x57
 811 024f 53020000 		.4byte	0x253
 812 0253 0B       		.uleb128 0xb
 813 0254 03010000 		.4byte	.LASF47
 814 0258 1C       		.byte	0x1c
 815 0259 05       		.byte	0x5
 816 025a 6A01     		.2byte	0x16a
 817 025c AF020000 		.4byte	0x2af
 818 0260 09       		.uleb128 0x9
 819 0261 92040000 		.4byte	.LASF23
 820 0265 05       		.byte	0x5
 821 0266 6B01     		.2byte	0x16b
 822 0268 18020000 		.4byte	0x218
 823 026c 00       		.byte	0
 824 026d 09       		.uleb128 0x9
 825 026e E4020000 		.4byte	.LASF24
 826 0272 05       		.byte	0x5
 827 0273 6C01     		.2byte	0x16c
 828 0275 C3000000 		.4byte	0xc3
 829 0279 08       		.byte	0x8
 830 027a 08       		.uleb128 0x8
 831 027b 63747800 		.ascii	"ctx\000"
 832 027f 05       		.byte	0x5
 833 0280 6E01     		.2byte	0x16e
 834 0282 2B050000 		.4byte	0x52b
 835 0286 0C       		.byte	0xc
 836 0287 09       		.uleb128 0x9
 837 0288 E9040000 		.4byte	.LASF25
 838 028c 05       		.byte	0x5
 839 028d 7101     		.2byte	0x171
 840 028f EE010000 		.4byte	0x1ee
 841 0293 10       		.byte	0x10
 842 0294 09       		.uleb128 0x9
 843 0295 81050000 		.4byte	.LASF26
 844 0299 05       		.byte	0x5
 845 029a 7201     		.2byte	0x172
 846 029c EE010000 		.4byte	0x1ee
 847 02a0 14       		.byte	0x14
 848 02a1 09       		.uleb128 0x9
 849 02a2 79050000 		.4byte	.LASF48
 850 02a6 05       		.byte	0x5
ARM GAS  /tmp/cciKmy7D.s 			page 31


 851 02a7 7501     		.2byte	0x175
 852 02a9 EE010000 		.4byte	0x1ee
 853 02ad 18       		.byte	0x18
 854 02ae 00       		.byte	0
 855 02af 04       		.uleb128 0x4
 856 02b0 38010000 		.4byte	.LASF49
 857 02b4 04       		.byte	0x4
 858 02b5 5C       		.byte	0x5c
 859 02b6 BA020000 		.4byte	0x2ba
 860 02ba 0A       		.uleb128 0xa
 861 02bb 04       		.byte	0x4
 862 02bc C0020000 		.4byte	0x2c0
 863 02c0 0C       		.uleb128 0xc
 864 02c1 CB020000 		.4byte	0x2cb
 865 02c5 0D       		.uleb128 0xd
 866 02c6 CB020000 		.4byte	0x2cb
 867 02ca 00       		.byte	0
 868 02cb 0E       		.uleb128 0xe
 869 02cc 04       		.byte	0x4
 870 02cd 04       		.uleb128 0x4
 871 02ce 56030000 		.4byte	.LASF50
 872 02d2 04       		.byte	0x4
 873 02d3 61       		.byte	0x61
 874 02d4 D8020000 		.4byte	0x2d8
 875 02d8 0B       		.uleb128 0xb
 876 02d9 83010000 		.4byte	.LASF51
 877 02dd 14       		.byte	0x14
 878 02de 05       		.byte	0x5
 879 02df 4501     		.2byte	0x145
 880 02e1 27030000 		.4byte	0x327
 881 02e5 09       		.uleb128 0x9
 882 02e6 CA000000 		.4byte	.LASF42
 883 02ea 05       		.byte	0x5
 884 02eb 4601     		.2byte	0x146
 885 02ed A8060000 		.4byte	0x6a8
 886 02f1 00       		.byte	0
 887 02f2 09       		.uleb128 0x9
 888 02f3 22010000 		.4byte	.LASF45
 889 02f7 05       		.byte	0x5
 890 02f8 4701     		.2byte	0x147
 891 02fa A8060000 		.4byte	0x6a8
 892 02fe 04       		.byte	0x4
 893 02ff 09       		.uleb128 0x9
 894 0300 55050000 		.4byte	.LASF52
 895 0304 05       		.byte	0x5
 896 0305 4801     		.2byte	0x148
 897 0307 EF000000 		.4byte	0xef
 898 030b 08       		.byte	0x8
 899 030c 09       		.uleb128 0x9
 900 030d 11010000 		.4byte	.LASF53
 901 0311 05       		.byte	0x5
 902 0312 4901     		.2byte	0x149
 903 0314 AF020000 		.4byte	0x2af
 904 0318 0C       		.byte	0xc
 905 0319 08       		.uleb128 0x8
 906 031a 70617200 		.ascii	"par\000"
 907 031e 05       		.byte	0x5
ARM GAS  /tmp/cciKmy7D.s 			page 32


 908 031f 4B01     		.2byte	0x14b
 909 0321 CB020000 		.4byte	0x2cb
 910 0325 10       		.byte	0x10
 911 0326 00       		.byte	0
 912 0327 04       		.uleb128 0x4
 913 0328 05050000 		.4byte	.LASF54
 914 032c 04       		.byte	0x4
 915 032d 66       		.byte	0x66
 916 032e 32030000 		.4byte	0x332
 917 0332 0B       		.uleb128 0xb
 918 0333 EE010000 		.4byte	.LASF55
 919 0337 0C       		.byte	0xc
 920 0338 05       		.byte	0x5
 921 0339 5501     		.2byte	0x155
 922 033b 74030000 		.4byte	0x374
 923 033f 09       		.uleb128 0x9
 924 0340 CA000000 		.4byte	.LASF42
 925 0344 05       		.byte	0x5
 926 0345 5601     		.2byte	0x156
 927 0347 A8060000 		.4byte	0x6a8
 928 034b 00       		.byte	0
 929 034c 09       		.uleb128 0x9
 930 034d 22010000 		.4byte	.LASF45
 931 0351 05       		.byte	0x5
 932 0352 5801     		.2byte	0x158
 933 0354 A8060000 		.4byte	0x6a8
 934 0358 04       		.byte	0x4
 935 0359 09       		.uleb128 0x9
 936 035a 55050000 		.4byte	.LASF52
 937 035e 05       		.byte	0x5
 938 035f 5A01     		.2byte	0x15a
 939 0361 EF000000 		.4byte	0xef
 940 0365 08       		.byte	0x8
 941 0366 09       		.uleb128 0x9
 942 0367 10040000 		.4byte	.LASF56
 943 036b 05       		.byte	0x5
 944 036c 6201     		.2byte	0x162
 945 036e EF000000 		.4byte	0xef
 946 0372 0A       		.byte	0xa
 947 0373 00       		.byte	0
 948 0374 04       		.uleb128 0x4
 949 0375 33030000 		.4byte	.LASF57
 950 0379 04       		.byte	0x4
 951 037a 6B       		.byte	0x6b
 952 037b 7F030000 		.4byte	0x37f
 953 037f 0B       		.uleb128 0xb
 954 0380 41010000 		.4byte	.LASF58
 955 0384 04       		.byte	0x4
 956 0385 05       		.byte	0x5
 957 0386 7C01     		.2byte	0x17c
 958 0388 9A030000 		.4byte	0x39a
 959 038c 09       		.uleb128 0x9
 960 038d 8F030000 		.4byte	.LASF59
 961 0391 05       		.byte	0x5
 962 0392 8401     		.2byte	0x184
 963 0394 AE060000 		.4byte	0x6ae
 964 0398 00       		.byte	0
ARM GAS  /tmp/cciKmy7D.s 			page 33


 965 0399 00       		.byte	0
 966 039a 04       		.uleb128 0x4
 967 039b 37050000 		.4byte	.LASF60
 968 039f 04       		.byte	0x4
 969 03a0 70       		.byte	0x70
 970 03a1 A5030000 		.4byte	0x3a5
 971 03a5 0B       		.uleb128 0xb
 972 03a6 06040000 		.4byte	.LASF61
 973 03aa 70       		.byte	0x70
 974 03ab 05       		.byte	0x5
 975 03ac 9C01     		.2byte	0x19c
 976 03ae E7030000 		.4byte	0x3e7
 977 03b2 09       		.uleb128 0x9
 978 03b3 27040000 		.4byte	.LASF62
 979 03b7 05       		.byte	0x5
 980 03b8 A001     		.2byte	0x1a0
 981 03ba 48020000 		.4byte	0x248
 982 03be 00       		.byte	0
 983 03bf 09       		.uleb128 0x9
 984 03c0 EF000000 		.4byte	.LASF63
 985 03c4 05       		.byte	0x5
 986 03c5 A401     		.2byte	0x1a4
 987 03c7 27030000 		.4byte	0x327
 988 03cb 1C       		.byte	0x1c
 989 03cc 08       		.uleb128 0x8
 990 03cd 64626700 		.ascii	"dbg\000"
 991 03d1 05       		.byte	0x5
 992 03d2 A801     		.2byte	0x1a8
 993 03d4 74030000 		.4byte	0x374
 994 03d8 28       		.byte	0x28
 995 03d9 09       		.uleb128 0x9
 996 03da A7030000 		.4byte	.LASF64
 997 03de 05       		.byte	0x5
 998 03df AC01     		.2byte	0x1ac
 999 03e1 FA000000 		.4byte	0xfa
 1000 03e5 2C       		.byte	0x2c
 1001 03e6 00       		.byte	0
 1002 03e7 03       		.uleb128 0x3
 1003 03e8 04       		.byte	0x4
 1004 03e9 07       		.byte	0x7
 1005 03ea 62040000 		.4byte	.LASF65
 1006 03ee 0F       		.uleb128 0xf
 1007 03ef 77000000 		.4byte	0x77
 1008 03f3 10       		.uleb128 0x10
 1009 03f4 1C       		.byte	0x1c
 1010 03f5 06       		.byte	0x6
 1011 03f6 5B01     		.2byte	0x15b
 1012 03f8 58040000 		.4byte	0x458
 1013 03fc 08       		.uleb128 0x8
 1014 03fd 43524C00 		.ascii	"CRL\000"
 1015 0401 06       		.byte	0x6
 1016 0402 5D01     		.2byte	0x15d
 1017 0404 EE030000 		.4byte	0x3ee
 1018 0408 00       		.byte	0
 1019 0409 08       		.uleb128 0x8
 1020 040a 43524800 		.ascii	"CRH\000"
 1021 040e 06       		.byte	0x6
ARM GAS  /tmp/cciKmy7D.s 			page 34


 1022 040f 5E01     		.2byte	0x15e
 1023 0411 EE030000 		.4byte	0x3ee
 1024 0415 04       		.byte	0x4
 1025 0416 08       		.uleb128 0x8
 1026 0417 49445200 		.ascii	"IDR\000"
 1027 041b 06       		.byte	0x6
 1028 041c 5F01     		.2byte	0x15f
 1029 041e EE030000 		.4byte	0x3ee
 1030 0422 08       		.byte	0x8
 1031 0423 08       		.uleb128 0x8
 1032 0424 4F445200 		.ascii	"ODR\000"
 1033 0428 06       		.byte	0x6
 1034 0429 6001     		.2byte	0x160
 1035 042b EE030000 		.4byte	0x3ee
 1036 042f 0C       		.byte	0xc
 1037 0430 09       		.uleb128 0x9
 1038 0431 84000000 		.4byte	.LASF66
 1039 0435 06       		.byte	0x6
 1040 0436 6101     		.2byte	0x161
 1041 0438 EE030000 		.4byte	0x3ee
 1042 043c 10       		.byte	0x10
 1043 043d 08       		.uleb128 0x8
 1044 043e 42525200 		.ascii	"BRR\000"
 1045 0442 06       		.byte	0x6
 1046 0443 6201     		.2byte	0x162
 1047 0445 EE030000 		.4byte	0x3ee
 1048 0449 14       		.byte	0x14
 1049 044a 09       		.uleb128 0x9
 1050 044b 90050000 		.4byte	.LASF67
 1051 044f 06       		.byte	0x6
 1052 0450 6301     		.2byte	0x163
 1053 0452 EE030000 		.4byte	0x3ee
 1054 0456 18       		.byte	0x18
 1055 0457 00       		.byte	0
 1056 0458 11       		.uleb128 0x11
 1057 0459 4B040000 		.4byte	.LASF68
 1058 045d 06       		.byte	0x6
 1059 045e 6401     		.2byte	0x164
 1060 0460 F3030000 		.4byte	0x3f3
 1061 0464 10       		.uleb128 0x10
 1062 0465 30       		.byte	0x30
 1063 0466 06       		.byte	0x6
 1064 0467 9D01     		.2byte	0x19d
 1065 0469 09050000 		.4byte	0x509
 1066 046d 08       		.uleb128 0x8
 1067 046e 435200   		.ascii	"CR\000"
 1068 0471 06       		.byte	0x6
 1069 0472 9F01     		.2byte	0x19f
 1070 0474 EE030000 		.4byte	0x3ee
 1071 0478 00       		.byte	0
 1072 0479 09       		.uleb128 0x9
 1073 047a 22040000 		.4byte	.LASF69
 1074 047e 06       		.byte	0x6
 1075 047f A001     		.2byte	0x1a0
 1076 0481 EE030000 		.4byte	0x3ee
 1077 0485 04       		.byte	0x4
 1078 0486 08       		.uleb128 0x8
ARM GAS  /tmp/cciKmy7D.s 			page 35


 1079 0487 43495200 		.ascii	"CIR\000"
 1080 048b 06       		.byte	0x6
 1081 048c A101     		.2byte	0x1a1
 1082 048e EE030000 		.4byte	0x3ee
 1083 0492 08       		.byte	0x8
 1084 0493 09       		.uleb128 0x9
 1085 0494 92000000 		.4byte	.LASF70
 1086 0498 06       		.byte	0x6
 1087 0499 A201     		.2byte	0x1a2
 1088 049b EE030000 		.4byte	0x3ee
 1089 049f 0C       		.byte	0xc
 1090 04a0 09       		.uleb128 0x9
 1091 04a1 DB020000 		.4byte	.LASF71
 1092 04a5 06       		.byte	0x6
 1093 04a6 A301     		.2byte	0x1a3
 1094 04a8 EE030000 		.4byte	0x3ee
 1095 04ac 10       		.byte	0x10
 1096 04ad 09       		.uleb128 0x9
 1097 04ae 11030000 		.4byte	.LASF72
 1098 04b2 06       		.byte	0x6
 1099 04b3 A401     		.2byte	0x1a4
 1100 04b5 EE030000 		.4byte	0x3ee
 1101 04b9 14       		.byte	0x14
 1102 04ba 09       		.uleb128 0x9
 1103 04bb 87030000 		.4byte	.LASF73
 1104 04bf 06       		.byte	0x6
 1105 04c0 A501     		.2byte	0x1a5
 1106 04c2 EE030000 		.4byte	0x3ee
 1107 04c6 18       		.byte	0x18
 1108 04c7 09       		.uleb128 0x9
 1109 04c8 10000000 		.4byte	.LASF74
 1110 04cc 06       		.byte	0x6
 1111 04cd A601     		.2byte	0x1a6
 1112 04cf EE030000 		.4byte	0x3ee
 1113 04d3 1C       		.byte	0x1c
 1114 04d4 09       		.uleb128 0x9
 1115 04d5 DE000000 		.4byte	.LASF75
 1116 04d9 06       		.byte	0x6
 1117 04da A701     		.2byte	0x1a7
 1118 04dc EE030000 		.4byte	0x3ee
 1119 04e0 20       		.byte	0x20
 1120 04e1 08       		.uleb128 0x8
 1121 04e2 43535200 		.ascii	"CSR\000"
 1122 04e6 06       		.byte	0x6
 1123 04e7 A801     		.2byte	0x1a8
 1124 04e9 EE030000 		.4byte	0x3ee
 1125 04ed 24       		.byte	0x24
 1126 04ee 09       		.uleb128 0x9
 1127 04ef C9030000 		.4byte	.LASF76
 1128 04f3 06       		.byte	0x6
 1129 04f4 AB01     		.2byte	0x1ab
 1130 04f6 77000000 		.4byte	0x77
 1131 04fa 28       		.byte	0x28
 1132 04fb 09       		.uleb128 0x9
 1133 04fc 81030000 		.4byte	.LASF77
 1134 0500 06       		.byte	0x6
 1135 0501 AC01     		.2byte	0x1ac
ARM GAS  /tmp/cciKmy7D.s 			page 36


 1136 0503 EE030000 		.4byte	0x3ee
 1137 0507 2C       		.byte	0x2c
 1138 0508 00       		.byte	0
 1139 0509 11       		.uleb128 0x11
 1140 050a 1C020000 		.4byte	.LASF78
 1141 050e 06       		.byte	0x6
 1142 050f AD01     		.2byte	0x1ad
 1143 0511 64040000 		.4byte	0x464
 1144 0515 04       		.uleb128 0x4
 1145 0516 89000000 		.4byte	.LASF79
 1146 051a 07       		.byte	0x7
 1147 051b 65       		.byte	0x65
 1148 051c CB020000 		.4byte	0x2cb
 1149 0520 04       		.uleb128 0x4
 1150 0521 6E050000 		.4byte	.LASF80
 1151 0525 07       		.byte	0x7
 1152 0526 6D       		.byte	0x6d
 1153 0527 90000000 		.4byte	0x90
 1154 052b 05       		.uleb128 0x5
 1155 052c F6000000 		.4byte	.LASF81
 1156 0530 04       		.byte	0x4
 1157 0531 07       		.byte	0x7
 1158 0532 89       		.byte	0x89
 1159 0533 43050000 		.4byte	0x543
 1160 0537 07       		.uleb128 0x7
 1161 0538 737000   		.ascii	"sp\000"
 1162 053b 07       		.byte	0x7
 1163 053c 8A       		.byte	0x8a
 1164 053d BF050000 		.4byte	0x5bf
 1165 0541 00       		.byte	0
 1166 0542 00       		.byte	0
 1167 0543 0B       		.uleb128 0xb
 1168 0544 E6030000 		.4byte	.LASF82
 1169 0548 24       		.byte	0x24
 1170 0549 08       		.byte	0x8
 1171 054a 5901     		.2byte	0x159
 1172 054c BF050000 		.4byte	0x5bf
 1173 0550 08       		.uleb128 0x8
 1174 0551 723400   		.ascii	"r4\000"
 1175 0554 08       		.byte	0x8
 1176 0555 6C01     		.2byte	0x16c
 1177 0557 15050000 		.4byte	0x515
 1178 055b 00       		.byte	0
 1179 055c 08       		.uleb128 0x8
 1180 055d 723500   		.ascii	"r5\000"
 1181 0560 08       		.byte	0x8
 1182 0561 6D01     		.2byte	0x16d
 1183 0563 15050000 		.4byte	0x515
 1184 0567 04       		.byte	0x4
 1185 0568 08       		.uleb128 0x8
 1186 0569 723600   		.ascii	"r6\000"
 1187 056c 08       		.byte	0x8
 1188 056d 6E01     		.2byte	0x16e
 1189 056f 15050000 		.4byte	0x515
 1190 0573 08       		.byte	0x8
 1191 0574 08       		.uleb128 0x8
 1192 0575 723700   		.ascii	"r7\000"
ARM GAS  /tmp/cciKmy7D.s 			page 37


 1193 0578 08       		.byte	0x8
 1194 0579 6F01     		.2byte	0x16f
 1195 057b 15050000 		.4byte	0x515
 1196 057f 0C       		.byte	0xc
 1197 0580 08       		.uleb128 0x8
 1198 0581 723800   		.ascii	"r8\000"
 1199 0584 08       		.byte	0x8
 1200 0585 7001     		.2byte	0x170
 1201 0587 15050000 		.4byte	0x515
 1202 058b 10       		.byte	0x10
 1203 058c 08       		.uleb128 0x8
 1204 058d 723900   		.ascii	"r9\000"
 1205 0590 08       		.byte	0x8
 1206 0591 7101     		.2byte	0x171
 1207 0593 15050000 		.4byte	0x515
 1208 0597 14       		.byte	0x14
 1209 0598 08       		.uleb128 0x8
 1210 0599 72313000 		.ascii	"r10\000"
 1211 059d 08       		.byte	0x8
 1212 059e 7201     		.2byte	0x172
 1213 05a0 15050000 		.4byte	0x515
 1214 05a4 18       		.byte	0x18
 1215 05a5 08       		.uleb128 0x8
 1216 05a6 72313100 		.ascii	"r11\000"
 1217 05aa 08       		.byte	0x8
 1218 05ab 7301     		.2byte	0x173
 1219 05ad 15050000 		.4byte	0x515
 1220 05b1 1C       		.byte	0x1c
 1221 05b2 08       		.uleb128 0x8
 1222 05b3 6C7200   		.ascii	"lr\000"
 1223 05b6 08       		.byte	0x8
 1224 05b7 7401     		.2byte	0x174
 1225 05b9 15050000 		.4byte	0x515
 1226 05bd 20       		.byte	0x20
 1227 05be 00       		.byte	0
 1228 05bf 0A       		.uleb128 0xa
 1229 05c0 04       		.byte	0x4
 1230 05c1 43050000 		.4byte	0x543
 1231 05c5 12       		.uleb128 0x12
 1232 05c6 04       		.byte	0x4
 1233 05c7 05       		.byte	0x5
 1234 05c8 D2       		.byte	0xd2
 1235 05c9 28060000 		.4byte	0x628
 1236 05cd 13       		.uleb128 0x13
 1237 05ce 15020000 		.4byte	.LASF83
 1238 05d2 05       		.byte	0x5
 1239 05d3 D9       		.byte	0xd9
 1240 05d4 CE000000 		.4byte	0xce
 1241 05d8 13       		.uleb128 0x13
 1242 05d9 87050000 		.4byte	.LASF84
 1243 05dd 05       		.byte	0x5
 1244 05de E0       		.byte	0xe0
 1245 05df CE000000 		.4byte	0xce
 1246 05e3 13       		.uleb128 0x13
 1247 05e4 E8000000 		.4byte	.LASF85
 1248 05e8 05       		.byte	0x5
 1249 05e9 E7       		.byte	0xe7
ARM GAS  /tmp/cciKmy7D.s 			page 38


 1250 05ea CB020000 		.4byte	0x2cb
 1251 05ee 13       		.uleb128 0x13
 1252 05ef 43050000 		.4byte	.LASF86
 1253 05f3 05       		.byte	0x5
 1254 05f4 EE       		.byte	0xee
 1255 05f5 28060000 		.4byte	0x628
 1256 05f9 13       		.uleb128 0x13
 1257 05fa 5A010000 		.4byte	.LASF87
 1258 05fe 05       		.byte	0x5
 1259 05ff F3       		.byte	0xf3
 1260 0600 CE000000 		.4byte	0xce
 1261 0604 13       		.uleb128 0x13
 1262 0605 A5040000 		.4byte	.LASF88
 1263 0609 05       		.byte	0x5
 1264 060a FC       		.byte	0xfc
 1265 060b 53060000 		.4byte	0x653
 1266 060f 14       		.uleb128 0x14
 1267 0610 18000000 		.4byte	.LASF89
 1268 0614 05       		.byte	0x5
 1269 0615 0501     		.2byte	0x105
 1270 0617 8A060000 		.4byte	0x68a
 1271 061b 14       		.uleb128 0x14
 1272 061c 16010000 		.4byte	.LASF90
 1273 0620 05       		.byte	0x5
 1274 0621 0D01     		.2byte	0x10d
 1275 0623 D9000000 		.4byte	0xd9
 1276 0627 00       		.byte	0
 1277 0628 0A       		.uleb128 0xa
 1278 0629 04       		.byte	0x4
 1279 062a E3010000 		.4byte	0x1e3
 1280 062e 05       		.uleb128 0x5
 1281 062f 6E010000 		.4byte	.LASF91
 1282 0633 0C       		.byte	0xc
 1283 0634 09       		.byte	0x9
 1284 0635 34       		.byte	0x34
 1285 0636 53060000 		.4byte	0x653
 1286 063a 06       		.uleb128 0x6
 1287 063b 92040000 		.4byte	.LASF23
 1288 063f 09       		.byte	0x9
 1289 0640 35       		.byte	0x35
 1290 0641 18020000 		.4byte	0x218
 1291 0645 00       		.byte	0
 1292 0646 07       		.uleb128 0x7
 1293 0647 636E7400 		.ascii	"cnt\000"
 1294 064b 09       		.byte	0x9
 1295 064c 37       		.byte	0x37
 1296 064d E4000000 		.4byte	0xe4
 1297 0651 08       		.byte	0x8
 1298 0652 00       		.byte	0
 1299 0653 0A       		.uleb128 0xa
 1300 0654 04       		.byte	0x4
 1301 0655 2E060000 		.4byte	0x62e
 1302 0659 05       		.uleb128 0x5
 1303 065a 2F020000 		.4byte	.LASF92
 1304 065e 10       		.byte	0x10
 1305 065f 0A       		.byte	0xa
 1306 0660 39       		.byte	0x39
ARM GAS  /tmp/cciKmy7D.s 			page 39


 1307 0661 8A060000 		.4byte	0x68a
 1308 0665 06       		.uleb128 0x6
 1309 0666 92040000 		.4byte	.LASF23
 1310 066a 0A       		.byte	0xa
 1311 066b 3A       		.byte	0x3a
 1312 066c 18020000 		.4byte	0x218
 1313 0670 00       		.byte	0
 1314 0671 06       		.uleb128 0x6
 1315 0672 D0010000 		.4byte	.LASF93
 1316 0676 0A       		.byte	0xa
 1317 0677 3C       		.byte	0x3c
 1318 0678 EE010000 		.4byte	0x1ee
 1319 067c 08       		.byte	0x8
 1320 067d 06       		.uleb128 0x6
 1321 067e CA000000 		.4byte	.LASF42
 1322 0682 0A       		.byte	0xa
 1323 0683 3E       		.byte	0x3e
 1324 0684 BE060000 		.4byte	0x6be
 1325 0688 0C       		.byte	0xc
 1326 0689 00       		.byte	0
 1327 068a 0A       		.uleb128 0xa
 1328 068b 04       		.byte	0x4
 1329 068c 59060000 		.4byte	0x659
 1330 0690 0A       		.uleb128 0xa
 1331 0691 04       		.byte	0x4
 1332 0692 96060000 		.4byte	0x696
 1333 0696 15       		.uleb128 0x15
 1334 0697 9B060000 		.4byte	0x69b
 1335 069b 03       		.uleb128 0x3
 1336 069c 01       		.byte	0x1
 1337 069d 08       		.byte	0x8
 1338 069e E9020000 		.4byte	.LASF94
 1339 06a2 0A       		.uleb128 0xa
 1340 06a3 04       		.byte	0x4
 1341 06a4 20050000 		.4byte	0x520
 1342 06a8 0A       		.uleb128 0xa
 1343 06a9 04       		.byte	0x4
 1344 06aa CD020000 		.4byte	0x2cd
 1345 06ae 0F       		.uleb128 0xf
 1346 06af 90060000 		.4byte	0x690
 1347 06b3 04       		.uleb128 0x4
 1348 06b4 E1040000 		.4byte	.LASF95
 1349 06b8 0A       		.byte	0xa
 1350 06b9 34       		.byte	0x34
 1351 06ba 59060000 		.4byte	0x659
 1352 06be 0A       		.uleb128 0xa
 1353 06bf 04       		.byte	0x4
 1354 06c0 B3060000 		.4byte	0x6b3
 1355 06c4 03       		.uleb128 0x3
 1356 06c5 01       		.byte	0x1
 1357 06c6 02       		.byte	0x2
 1358 06c7 99030000 		.4byte	.LASF96
 1359 06cb 16       		.uleb128 0x16
 1360 06cc 0C       		.byte	0xc
 1361 06cd 0B       		.byte	0xb
 1362 06ce 68       		.byte	0x68
 1363 06cf F8060000 		.4byte	0x6f8
ARM GAS  /tmp/cciKmy7D.s 			page 40


 1364 06d3 07       		.uleb128 0x7
 1365 06d4 6F647200 		.ascii	"odr\000"
 1366 06d8 0B       		.byte	0xb
 1367 06d9 6A       		.byte	0x6a
 1368 06da 77000000 		.4byte	0x77
 1369 06de 00       		.byte	0
 1370 06df 07       		.uleb128 0x7
 1371 06e0 63726C00 		.ascii	"crl\000"
 1372 06e4 0B       		.byte	0xb
 1373 06e5 6C       		.byte	0x6c
 1374 06e6 77000000 		.4byte	0x77
 1375 06ea 04       		.byte	0x4
 1376 06eb 07       		.uleb128 0x7
 1377 06ec 63726800 		.ascii	"crh\000"
 1378 06f0 0B       		.byte	0xb
 1379 06f1 6E       		.byte	0x6e
 1380 06f2 77000000 		.4byte	0x77
 1381 06f6 08       		.byte	0x8
 1382 06f7 00       		.byte	0
 1383 06f8 04       		.uleb128 0x4
 1384 06f9 BD010000 		.4byte	.LASF97
 1385 06fd 0B       		.byte	0xb
 1386 06fe 6F       		.byte	0x6f
 1387 06ff CB060000 		.4byte	0x6cb
 1388 0703 16       		.uleb128 0x16
 1389 0704 3C       		.byte	0x3c
 1390 0705 0B       		.byte	0xb
 1391 0706 78       		.byte	0x78
 1392 0707 48070000 		.4byte	0x748
 1393 070b 06       		.uleb128 0x6
 1394 070c FF030000 		.4byte	.LASF98
 1395 0710 0B       		.byte	0xb
 1396 0711 7A       		.byte	0x7a
 1397 0712 F8060000 		.4byte	0x6f8
 1398 0716 00       		.byte	0
 1399 0717 06       		.uleb128 0x6
 1400 0718 28020000 		.4byte	.LASF99
 1401 071c 0B       		.byte	0xb
 1402 071d 7C       		.byte	0x7c
 1403 071e F8060000 		.4byte	0x6f8
 1404 0722 0C       		.byte	0xc
 1405 0723 06       		.uleb128 0x6
 1406 0724 1F000000 		.4byte	.LASF100
 1407 0728 0B       		.byte	0xb
 1408 0729 7E       		.byte	0x7e
 1409 072a F8060000 		.4byte	0x6f8
 1410 072e 18       		.byte	0x18
 1411 072f 06       		.uleb128 0x6
 1412 0730 BB030000 		.4byte	.LASF101
 1413 0734 0B       		.byte	0xb
 1414 0735 80       		.byte	0x80
 1415 0736 F8060000 		.4byte	0x6f8
 1416 073a 24       		.byte	0x24
 1417 073b 06       		.uleb128 0x6
 1418 073c 0E020000 		.4byte	.LASF102
 1419 0740 0B       		.byte	0xb
 1420 0741 83       		.byte	0x83
ARM GAS  /tmp/cciKmy7D.s 			page 41


 1421 0742 F8060000 		.4byte	0x6f8
 1422 0746 30       		.byte	0x30
 1423 0747 00       		.byte	0
 1424 0748 04       		.uleb128 0x4
 1425 0749 58040000 		.4byte	.LASF103
 1426 074d 0B       		.byte	0xb
 1427 074e 8D       		.byte	0x8d
 1428 074f 03070000 		.4byte	0x703
 1429 0753 04       		.uleb128 0x4
 1430 0754 66030000 		.4byte	.LASF104
 1431 0758 0B       		.byte	0xb
 1432 0759 92       		.byte	0x92
 1433 075a 77000000 		.4byte	0x77
 1434 075e 04       		.uleb128 0x4
 1435 075f 73030000 		.4byte	.LASF105
 1436 0763 0B       		.byte	0xb
 1437 0764 97       		.byte	0x97
 1438 0765 77000000 		.4byte	0x77
 1439 0769 04       		.uleb128 0x4
 1440 076a 3B040000 		.4byte	.LASF106
 1441 076e 0B       		.byte	0xb
 1442 076f A4       		.byte	0xa4
 1443 0770 74070000 		.4byte	0x774
 1444 0774 0A       		.uleb128 0xa
 1445 0775 04       		.byte	0x4
 1446 0776 58040000 		.4byte	0x458
 1447 077a 17       		.uleb128 0x17
 1448 077b 2D040000 		.4byte	.LASF107
 1449 077f 01       		.byte	0x1
 1450 0780 4C       		.byte	0x4c
 1451 0781 00000000 		.4byte	.LFB219
 1452 0785 7C000000 		.4byte	.LFE219-.LFB219
 1453 0789 01       		.uleb128 0x1
 1454 078a 9C       		.byte	0x9c
 1455 078b 9D070000 		.4byte	0x79d
 1456 078f 18       		.uleb128 0x18
 1457 0790 C2030000 		.4byte	.LASF109
 1458 0794 01       		.byte	0x1
 1459 0795 4C       		.byte	0x4c
 1460 0796 9D070000 		.4byte	0x79d
 1461 079a 01       		.uleb128 0x1
 1462 079b 50       		.byte	0x50
 1463 079c 00       		.byte	0
 1464 079d 0A       		.uleb128 0xa
 1465 079e 04       		.byte	0x4
 1466 079f A3070000 		.4byte	0x7a3
 1467 07a3 15       		.uleb128 0x15
 1468 07a4 48070000 		.4byte	0x748
 1469 07a8 17       		.uleb128 0x17
 1470 07a9 21050000 		.4byte	.LASF108
 1471 07ad 01       		.byte	0x1
 1472 07ae 82       		.byte	0x82
 1473 07af 00000000 		.4byte	.LFB220
 1474 07b3 68000000 		.4byte	.LFE220-.LFB220
 1475 07b7 01       		.uleb128 0x1
 1476 07b8 9C       		.byte	0x9c
 1477 07b9 50080000 		.4byte	0x850
ARM GAS  /tmp/cciKmy7D.s 			page 42


 1478 07bd 18       		.uleb128 0x18
 1479 07be A0040000 		.4byte	.LASF110
 1480 07c2 01       		.byte	0x1
 1481 07c3 82       		.byte	0x82
 1482 07c4 69070000 		.4byte	0x769
 1483 07c8 01       		.uleb128 0x1
 1484 07c9 50       		.byte	0x50
 1485 07ca 19       		.uleb128 0x19
 1486 07cb 7C030000 		.4byte	.LASF111
 1487 07cf 01       		.byte	0x1
 1488 07d0 83       		.byte	0x83
 1489 07d1 53070000 		.4byte	0x753
 1490 07d5 00000000 		.4byte	.LLST0
 1491 07d9 19       		.uleb128 0x19
 1492 07da 1D010000 		.4byte	.LASF112
 1493 07de 01       		.byte	0x1
 1494 07df 84       		.byte	0x84
 1495 07e0 5E070000 		.4byte	0x75e
 1496 07e4 1E000000 		.4byte	.LLST1
 1497 07e8 1A       		.uleb128 0x1a
 1498 07e9 94010000 		.4byte	.LASF113
 1499 07ed 01       		.byte	0x1
 1500 07ee 85       		.byte	0x85
 1501 07ef 60080000 		.4byte	0x860
 1502 07f3 05       		.uleb128 0x5
 1503 07f4 03       		.byte	0x3
 1504 07f5 00000000 		.4byte	cfgtab.6566
 1505 07f9 1B       		.uleb128 0x1b
 1506 07fa 6D6800   		.ascii	"mh\000"
 1507 07fd 01       		.byte	0x1
 1508 07fe 99       		.byte	0x99
 1509 07ff 77000000 		.4byte	0x77
 1510 0803 3F000000 		.4byte	.LLST2
 1511 0807 1B       		.uleb128 0x1b
 1512 0808 6D6C00   		.ascii	"ml\000"
 1513 080b 01       		.byte	0x1
 1514 080c 99       		.byte	0x99
 1515 080d 77000000 		.4byte	0x77
 1516 0811 5E000000 		.4byte	.LLST3
 1517 0815 1B       		.uleb128 0x1b
 1518 0816 63726800 		.ascii	"crh\000"
 1519 081a 01       		.byte	0x1
 1520 081b 99       		.byte	0x99
 1521 081c 77000000 		.4byte	0x77
 1522 0820 7D000000 		.4byte	.LLST4
 1523 0824 1B       		.uleb128 0x1b
 1524 0825 63726C00 		.ascii	"crl\000"
 1525 0829 01       		.byte	0x1
 1526 082a 99       		.byte	0x99
 1527 082b 77000000 		.4byte	0x77
 1528 082f 9C000000 		.4byte	.LLST5
 1529 0833 1B       		.uleb128 0x1b
 1530 0834 63666700 		.ascii	"cfg\000"
 1531 0838 01       		.byte	0x1
 1532 0839 99       		.byte	0x99
 1533 083a 77000000 		.4byte	0x77
 1534 083e C6000000 		.4byte	.LLST6
ARM GAS  /tmp/cciKmy7D.s 			page 43


 1535 0842 1B       		.uleb128 0x1b
 1536 0843 6900     		.ascii	"i\000"
 1537 0845 01       		.byte	0x1
 1538 0846 9A       		.byte	0x9a
 1539 0847 2C000000 		.4byte	0x2c
 1540 084b F2000000 		.4byte	.LLST7
 1541 084f 00       		.byte	0
 1542 0850 1C       		.uleb128 0x1c
 1543 0851 3A000000 		.4byte	0x3a
 1544 0855 60080000 		.4byte	0x860
 1545 0859 1D       		.uleb128 0x1d
 1546 085a E7030000 		.4byte	0x3e7
 1547 085e 11       		.byte	0x11
 1548 085f 00       		.byte	0
 1549 0860 15       		.uleb128 0x15
 1550 0861 50080000 		.4byte	0x850
 1551 0865 1E       		.uleb128 0x1e
 1552 0866 F2030000 		.4byte	.LASF114
 1553 086a 0C       		.byte	0xc
 1554 086b 9606     		.2byte	0x696
 1555 086d 71080000 		.4byte	0x871
 1556 0871 0F       		.uleb128 0xf
 1557 0872 65000000 		.4byte	0x65
 1558 0876 1F       		.uleb128 0x1f
 1559 0877 636800   		.ascii	"ch\000"
 1560 087a 05       		.byte	0x5
 1561 087b D201     		.2byte	0x1d2
 1562 087d 9A030000 		.4byte	0x39a
 1563 0881 00       		.byte	0
 1564              		.section	.debug_abbrev,"",%progbits
 1565              	.Ldebug_abbrev0:
 1566 0000 01       		.uleb128 0x1
 1567 0001 11       		.uleb128 0x11
 1568 0002 01       		.byte	0x1
 1569 0003 25       		.uleb128 0x25
 1570 0004 0E       		.uleb128 0xe
 1571 0005 13       		.uleb128 0x13
 1572 0006 0B       		.uleb128 0xb
 1573 0007 03       		.uleb128 0x3
 1574 0008 0E       		.uleb128 0xe
 1575 0009 1B       		.uleb128 0x1b
 1576 000a 0E       		.uleb128 0xe
 1577 000b 55       		.uleb128 0x55
 1578 000c 17       		.uleb128 0x17
 1579 000d 11       		.uleb128 0x11
 1580 000e 01       		.uleb128 0x1
 1581 000f 10       		.uleb128 0x10
 1582 0010 17       		.uleb128 0x17
 1583 0011 00       		.byte	0
 1584 0012 00       		.byte	0
 1585 0013 02       		.uleb128 0x2
 1586 0014 24       		.uleb128 0x24
 1587 0015 00       		.byte	0
 1588 0016 0B       		.uleb128 0xb
 1589 0017 0B       		.uleb128 0xb
 1590 0018 3E       		.uleb128 0x3e
 1591 0019 0B       		.uleb128 0xb
ARM GAS  /tmp/cciKmy7D.s 			page 44


 1592 001a 03       		.uleb128 0x3
 1593 001b 08       		.uleb128 0x8
 1594 001c 00       		.byte	0
 1595 001d 00       		.byte	0
 1596 001e 03       		.uleb128 0x3
 1597 001f 24       		.uleb128 0x24
 1598 0020 00       		.byte	0
 1599 0021 0B       		.uleb128 0xb
 1600 0022 0B       		.uleb128 0xb
 1601 0023 3E       		.uleb128 0x3e
 1602 0024 0B       		.uleb128 0xb
 1603 0025 03       		.uleb128 0x3
 1604 0026 0E       		.uleb128 0xe
 1605 0027 00       		.byte	0
 1606 0028 00       		.byte	0
 1607 0029 04       		.uleb128 0x4
 1608 002a 16       		.uleb128 0x16
 1609 002b 00       		.byte	0
 1610 002c 03       		.uleb128 0x3
 1611 002d 0E       		.uleb128 0xe
 1612 002e 3A       		.uleb128 0x3a
 1613 002f 0B       		.uleb128 0xb
 1614 0030 3B       		.uleb128 0x3b
 1615 0031 0B       		.uleb128 0xb
 1616 0032 49       		.uleb128 0x49
 1617 0033 13       		.uleb128 0x13
 1618 0034 00       		.byte	0
 1619 0035 00       		.byte	0
 1620 0036 05       		.uleb128 0x5
 1621 0037 13       		.uleb128 0x13
 1622 0038 01       		.byte	0x1
 1623 0039 03       		.uleb128 0x3
 1624 003a 0E       		.uleb128 0xe
 1625 003b 0B       		.uleb128 0xb
 1626 003c 0B       		.uleb128 0xb
 1627 003d 3A       		.uleb128 0x3a
 1628 003e 0B       		.uleb128 0xb
 1629 003f 3B       		.uleb128 0x3b
 1630 0040 0B       		.uleb128 0xb
 1631 0041 01       		.uleb128 0x1
 1632 0042 13       		.uleb128 0x13
 1633 0043 00       		.byte	0
 1634 0044 00       		.byte	0
 1635 0045 06       		.uleb128 0x6
 1636 0046 0D       		.uleb128 0xd
 1637 0047 00       		.byte	0
 1638 0048 03       		.uleb128 0x3
 1639 0049 0E       		.uleb128 0xe
 1640 004a 3A       		.uleb128 0x3a
 1641 004b 0B       		.uleb128 0xb
 1642 004c 3B       		.uleb128 0x3b
 1643 004d 0B       		.uleb128 0xb
 1644 004e 49       		.uleb128 0x49
 1645 004f 13       		.uleb128 0x13
 1646 0050 38       		.uleb128 0x38
 1647 0051 0B       		.uleb128 0xb
 1648 0052 00       		.byte	0
ARM GAS  /tmp/cciKmy7D.s 			page 45


 1649 0053 00       		.byte	0
 1650 0054 07       		.uleb128 0x7
 1651 0055 0D       		.uleb128 0xd
 1652 0056 00       		.byte	0
 1653 0057 03       		.uleb128 0x3
 1654 0058 08       		.uleb128 0x8
 1655 0059 3A       		.uleb128 0x3a
 1656 005a 0B       		.uleb128 0xb
 1657 005b 3B       		.uleb128 0x3b
 1658 005c 0B       		.uleb128 0xb
 1659 005d 49       		.uleb128 0x49
 1660 005e 13       		.uleb128 0x13
 1661 005f 38       		.uleb128 0x38
 1662 0060 0B       		.uleb128 0xb
 1663 0061 00       		.byte	0
 1664 0062 00       		.byte	0
 1665 0063 08       		.uleb128 0x8
 1666 0064 0D       		.uleb128 0xd
 1667 0065 00       		.byte	0
 1668 0066 03       		.uleb128 0x3
 1669 0067 08       		.uleb128 0x8
 1670 0068 3A       		.uleb128 0x3a
 1671 0069 0B       		.uleb128 0xb
 1672 006a 3B       		.uleb128 0x3b
 1673 006b 05       		.uleb128 0x5
 1674 006c 49       		.uleb128 0x49
 1675 006d 13       		.uleb128 0x13
 1676 006e 38       		.uleb128 0x38
 1677 006f 0B       		.uleb128 0xb
 1678 0070 00       		.byte	0
 1679 0071 00       		.byte	0
 1680 0072 09       		.uleb128 0x9
 1681 0073 0D       		.uleb128 0xd
 1682 0074 00       		.byte	0
 1683 0075 03       		.uleb128 0x3
 1684 0076 0E       		.uleb128 0xe
 1685 0077 3A       		.uleb128 0x3a
 1686 0078 0B       		.uleb128 0xb
 1687 0079 3B       		.uleb128 0x3b
 1688 007a 05       		.uleb128 0x5
 1689 007b 49       		.uleb128 0x49
 1690 007c 13       		.uleb128 0x13
 1691 007d 38       		.uleb128 0x38
 1692 007e 0B       		.uleb128 0xb
 1693 007f 00       		.byte	0
 1694 0080 00       		.byte	0
 1695 0081 0A       		.uleb128 0xa
 1696 0082 0F       		.uleb128 0xf
 1697 0083 00       		.byte	0
 1698 0084 0B       		.uleb128 0xb
 1699 0085 0B       		.uleb128 0xb
 1700 0086 49       		.uleb128 0x49
 1701 0087 13       		.uleb128 0x13
 1702 0088 00       		.byte	0
 1703 0089 00       		.byte	0
 1704 008a 0B       		.uleb128 0xb
 1705 008b 13       		.uleb128 0x13
ARM GAS  /tmp/cciKmy7D.s 			page 46


 1706 008c 01       		.byte	0x1
 1707 008d 03       		.uleb128 0x3
 1708 008e 0E       		.uleb128 0xe
 1709 008f 0B       		.uleb128 0xb
 1710 0090 0B       		.uleb128 0xb
 1711 0091 3A       		.uleb128 0x3a
 1712 0092 0B       		.uleb128 0xb
 1713 0093 3B       		.uleb128 0x3b
 1714 0094 05       		.uleb128 0x5
 1715 0095 01       		.uleb128 0x1
 1716 0096 13       		.uleb128 0x13
 1717 0097 00       		.byte	0
 1718 0098 00       		.byte	0
 1719 0099 0C       		.uleb128 0xc
 1720 009a 15       		.uleb128 0x15
 1721 009b 01       		.byte	0x1
 1722 009c 27       		.uleb128 0x27
 1723 009d 19       		.uleb128 0x19
 1724 009e 01       		.uleb128 0x1
 1725 009f 13       		.uleb128 0x13
 1726 00a0 00       		.byte	0
 1727 00a1 00       		.byte	0
 1728 00a2 0D       		.uleb128 0xd
 1729 00a3 05       		.uleb128 0x5
 1730 00a4 00       		.byte	0
 1731 00a5 49       		.uleb128 0x49
 1732 00a6 13       		.uleb128 0x13
 1733 00a7 00       		.byte	0
 1734 00a8 00       		.byte	0
 1735 00a9 0E       		.uleb128 0xe
 1736 00aa 0F       		.uleb128 0xf
 1737 00ab 00       		.byte	0
 1738 00ac 0B       		.uleb128 0xb
 1739 00ad 0B       		.uleb128 0xb
 1740 00ae 00       		.byte	0
 1741 00af 00       		.byte	0
 1742 00b0 0F       		.uleb128 0xf
 1743 00b1 35       		.uleb128 0x35
 1744 00b2 00       		.byte	0
 1745 00b3 49       		.uleb128 0x49
 1746 00b4 13       		.uleb128 0x13
 1747 00b5 00       		.byte	0
 1748 00b6 00       		.byte	0
 1749 00b7 10       		.uleb128 0x10
 1750 00b8 13       		.uleb128 0x13
 1751 00b9 01       		.byte	0x1
 1752 00ba 0B       		.uleb128 0xb
 1753 00bb 0B       		.uleb128 0xb
 1754 00bc 3A       		.uleb128 0x3a
 1755 00bd 0B       		.uleb128 0xb
 1756 00be 3B       		.uleb128 0x3b
 1757 00bf 05       		.uleb128 0x5
 1758 00c0 01       		.uleb128 0x1
 1759 00c1 13       		.uleb128 0x13
 1760 00c2 00       		.byte	0
 1761 00c3 00       		.byte	0
 1762 00c4 11       		.uleb128 0x11
ARM GAS  /tmp/cciKmy7D.s 			page 47


 1763 00c5 16       		.uleb128 0x16
 1764 00c6 00       		.byte	0
 1765 00c7 03       		.uleb128 0x3
 1766 00c8 0E       		.uleb128 0xe
 1767 00c9 3A       		.uleb128 0x3a
 1768 00ca 0B       		.uleb128 0xb
 1769 00cb 3B       		.uleb128 0x3b
 1770 00cc 05       		.uleb128 0x5
 1771 00cd 49       		.uleb128 0x49
 1772 00ce 13       		.uleb128 0x13
 1773 00cf 00       		.byte	0
 1774 00d0 00       		.byte	0
 1775 00d1 12       		.uleb128 0x12
 1776 00d2 17       		.uleb128 0x17
 1777 00d3 01       		.byte	0x1
 1778 00d4 0B       		.uleb128 0xb
 1779 00d5 0B       		.uleb128 0xb
 1780 00d6 3A       		.uleb128 0x3a
 1781 00d7 0B       		.uleb128 0xb
 1782 00d8 3B       		.uleb128 0x3b
 1783 00d9 0B       		.uleb128 0xb
 1784 00da 01       		.uleb128 0x1
 1785 00db 13       		.uleb128 0x13
 1786 00dc 00       		.byte	0
 1787 00dd 00       		.byte	0
 1788 00de 13       		.uleb128 0x13
 1789 00df 0D       		.uleb128 0xd
 1790 00e0 00       		.byte	0
 1791 00e1 03       		.uleb128 0x3
 1792 00e2 0E       		.uleb128 0xe
 1793 00e3 3A       		.uleb128 0x3a
 1794 00e4 0B       		.uleb128 0xb
 1795 00e5 3B       		.uleb128 0x3b
 1796 00e6 0B       		.uleb128 0xb
 1797 00e7 49       		.uleb128 0x49
 1798 00e8 13       		.uleb128 0x13
 1799 00e9 00       		.byte	0
 1800 00ea 00       		.byte	0
 1801 00eb 14       		.uleb128 0x14
 1802 00ec 0D       		.uleb128 0xd
 1803 00ed 00       		.byte	0
 1804 00ee 03       		.uleb128 0x3
 1805 00ef 0E       		.uleb128 0xe
 1806 00f0 3A       		.uleb128 0x3a
 1807 00f1 0B       		.uleb128 0xb
 1808 00f2 3B       		.uleb128 0x3b
 1809 00f3 05       		.uleb128 0x5
 1810 00f4 49       		.uleb128 0x49
 1811 00f5 13       		.uleb128 0x13
 1812 00f6 00       		.byte	0
 1813 00f7 00       		.byte	0
 1814 00f8 15       		.uleb128 0x15
 1815 00f9 26       		.uleb128 0x26
 1816 00fa 00       		.byte	0
 1817 00fb 49       		.uleb128 0x49
 1818 00fc 13       		.uleb128 0x13
 1819 00fd 00       		.byte	0
ARM GAS  /tmp/cciKmy7D.s 			page 48


 1820 00fe 00       		.byte	0
 1821 00ff 16       		.uleb128 0x16
 1822 0100 13       		.uleb128 0x13
 1823 0101 01       		.byte	0x1
 1824 0102 0B       		.uleb128 0xb
 1825 0103 0B       		.uleb128 0xb
 1826 0104 3A       		.uleb128 0x3a
 1827 0105 0B       		.uleb128 0xb
 1828 0106 3B       		.uleb128 0x3b
 1829 0107 0B       		.uleb128 0xb
 1830 0108 01       		.uleb128 0x1
 1831 0109 13       		.uleb128 0x13
 1832 010a 00       		.byte	0
 1833 010b 00       		.byte	0
 1834 010c 17       		.uleb128 0x17
 1835 010d 2E       		.uleb128 0x2e
 1836 010e 01       		.byte	0x1
 1837 010f 3F       		.uleb128 0x3f
 1838 0110 19       		.uleb128 0x19
 1839 0111 03       		.uleb128 0x3
 1840 0112 0E       		.uleb128 0xe
 1841 0113 3A       		.uleb128 0x3a
 1842 0114 0B       		.uleb128 0xb
 1843 0115 3B       		.uleb128 0x3b
 1844 0116 0B       		.uleb128 0xb
 1845 0117 27       		.uleb128 0x27
 1846 0118 19       		.uleb128 0x19
 1847 0119 11       		.uleb128 0x11
 1848 011a 01       		.uleb128 0x1
 1849 011b 12       		.uleb128 0x12
 1850 011c 06       		.uleb128 0x6
 1851 011d 40       		.uleb128 0x40
 1852 011e 18       		.uleb128 0x18
 1853 011f 9742     		.uleb128 0x2117
 1854 0121 19       		.uleb128 0x19
 1855 0122 01       		.uleb128 0x1
 1856 0123 13       		.uleb128 0x13
 1857 0124 00       		.byte	0
 1858 0125 00       		.byte	0
 1859 0126 18       		.uleb128 0x18
 1860 0127 05       		.uleb128 0x5
 1861 0128 00       		.byte	0
 1862 0129 03       		.uleb128 0x3
 1863 012a 0E       		.uleb128 0xe
 1864 012b 3A       		.uleb128 0x3a
 1865 012c 0B       		.uleb128 0xb
 1866 012d 3B       		.uleb128 0x3b
 1867 012e 0B       		.uleb128 0xb
 1868 012f 49       		.uleb128 0x49
 1869 0130 13       		.uleb128 0x13
 1870 0131 02       		.uleb128 0x2
 1871 0132 18       		.uleb128 0x18
 1872 0133 00       		.byte	0
 1873 0134 00       		.byte	0
 1874 0135 19       		.uleb128 0x19
 1875 0136 05       		.uleb128 0x5
 1876 0137 00       		.byte	0
ARM GAS  /tmp/cciKmy7D.s 			page 49


 1877 0138 03       		.uleb128 0x3
 1878 0139 0E       		.uleb128 0xe
 1879 013a 3A       		.uleb128 0x3a
 1880 013b 0B       		.uleb128 0xb
 1881 013c 3B       		.uleb128 0x3b
 1882 013d 0B       		.uleb128 0xb
 1883 013e 49       		.uleb128 0x49
 1884 013f 13       		.uleb128 0x13
 1885 0140 02       		.uleb128 0x2
 1886 0141 17       		.uleb128 0x17
 1887 0142 00       		.byte	0
 1888 0143 00       		.byte	0
 1889 0144 1A       		.uleb128 0x1a
 1890 0145 34       		.uleb128 0x34
 1891 0146 00       		.byte	0
 1892 0147 03       		.uleb128 0x3
 1893 0148 0E       		.uleb128 0xe
 1894 0149 3A       		.uleb128 0x3a
 1895 014a 0B       		.uleb128 0xb
 1896 014b 3B       		.uleb128 0x3b
 1897 014c 0B       		.uleb128 0xb
 1898 014d 49       		.uleb128 0x49
 1899 014e 13       		.uleb128 0x13
 1900 014f 02       		.uleb128 0x2
 1901 0150 18       		.uleb128 0x18
 1902 0151 00       		.byte	0
 1903 0152 00       		.byte	0
 1904 0153 1B       		.uleb128 0x1b
 1905 0154 34       		.uleb128 0x34
 1906 0155 00       		.byte	0
 1907 0156 03       		.uleb128 0x3
 1908 0157 08       		.uleb128 0x8
 1909 0158 3A       		.uleb128 0x3a
 1910 0159 0B       		.uleb128 0xb
 1911 015a 3B       		.uleb128 0x3b
 1912 015b 0B       		.uleb128 0xb
 1913 015c 49       		.uleb128 0x49
 1914 015d 13       		.uleb128 0x13
 1915 015e 02       		.uleb128 0x2
 1916 015f 17       		.uleb128 0x17
 1917 0160 00       		.byte	0
 1918 0161 00       		.byte	0
 1919 0162 1C       		.uleb128 0x1c
 1920 0163 01       		.uleb128 0x1
 1921 0164 01       		.byte	0x1
 1922 0165 49       		.uleb128 0x49
 1923 0166 13       		.uleb128 0x13
 1924 0167 01       		.uleb128 0x1
 1925 0168 13       		.uleb128 0x13
 1926 0169 00       		.byte	0
 1927 016a 00       		.byte	0
 1928 016b 1D       		.uleb128 0x1d
 1929 016c 21       		.uleb128 0x21
 1930 016d 00       		.byte	0
 1931 016e 49       		.uleb128 0x49
 1932 016f 13       		.uleb128 0x13
 1933 0170 2F       		.uleb128 0x2f
ARM GAS  /tmp/cciKmy7D.s 			page 50


 1934 0171 0B       		.uleb128 0xb
 1935 0172 00       		.byte	0
 1936 0173 00       		.byte	0
 1937 0174 1E       		.uleb128 0x1e
 1938 0175 34       		.uleb128 0x34
 1939 0176 00       		.byte	0
 1940 0177 03       		.uleb128 0x3
 1941 0178 0E       		.uleb128 0xe
 1942 0179 3A       		.uleb128 0x3a
 1943 017a 0B       		.uleb128 0xb
 1944 017b 3B       		.uleb128 0x3b
 1945 017c 05       		.uleb128 0x5
 1946 017d 49       		.uleb128 0x49
 1947 017e 13       		.uleb128 0x13
 1948 017f 3F       		.uleb128 0x3f
 1949 0180 19       		.uleb128 0x19
 1950 0181 3C       		.uleb128 0x3c
 1951 0182 19       		.uleb128 0x19
 1952 0183 00       		.byte	0
 1953 0184 00       		.byte	0
 1954 0185 1F       		.uleb128 0x1f
 1955 0186 34       		.uleb128 0x34
 1956 0187 00       		.byte	0
 1957 0188 03       		.uleb128 0x3
 1958 0189 08       		.uleb128 0x8
 1959 018a 3A       		.uleb128 0x3a
 1960 018b 0B       		.uleb128 0xb
 1961 018c 3B       		.uleb128 0x3b
 1962 018d 05       		.uleb128 0x5
 1963 018e 49       		.uleb128 0x49
 1964 018f 13       		.uleb128 0x13
 1965 0190 3F       		.uleb128 0x3f
 1966 0191 19       		.uleb128 0x19
 1967 0192 3C       		.uleb128 0x3c
 1968 0193 19       		.uleb128 0x19
 1969 0194 00       		.byte	0
 1970 0195 00       		.byte	0
 1971 0196 00       		.byte	0
 1972              		.section	.debug_loc,"",%progbits
 1973              	.Ldebug_loc0:
 1974              	.LLST0:
 1975 0000 00000000 		.4byte	.LVL1
 1976 0004 52000000 		.4byte	.LVL14
 1977 0008 0100     		.2byte	0x1
 1978 000a 51       		.byte	0x51
 1979 000b 52000000 		.4byte	.LVL14
 1980 000f 56000000 		.4byte	.LVL15
 1981 0013 0100     		.2byte	0x1
 1982 0015 51       		.byte	0x51
 1983 0016 00000000 		.4byte	0
 1984 001a 00000000 		.4byte	0
 1985              	.LLST1:
 1986 001e 00000000 		.4byte	.LVL1
 1987 0022 20000000 		.4byte	.LVL3
 1988 0026 0100     		.2byte	0x1
 1989 0028 52       		.byte	0x52
 1990 0029 20000000 		.4byte	.LVL3
ARM GAS  /tmp/cciKmy7D.s 			page 51


 1991 002d 68000000 		.4byte	.LFE220
 1992 0031 0400     		.2byte	0x4
 1993 0033 F3       		.byte	0xf3
 1994 0034 01       		.uleb128 0x1
 1995 0035 52       		.byte	0x52
 1996 0036 9F       		.byte	0x9f
 1997 0037 00000000 		.4byte	0
 1998 003b 00000000 		.4byte	0
 1999              	.LLST2:
 2000 003f 1A000000 		.4byte	.LVL2
 2001 0043 24000000 		.4byte	.LVL4
 2002 0047 0200     		.2byte	0x2
 2003 0049 30       		.byte	0x30
 2004 004a 9F       		.byte	0x9f
 2005 004b 24000000 		.4byte	.LVL4
 2006 004f 58000000 		.4byte	.LVL16
 2007 0053 0100     		.2byte	0x1
 2008 0055 55       		.byte	0x55
 2009 0056 00000000 		.4byte	0
 2010 005a 00000000 		.4byte	0
 2011              	.LLST3:
 2012 005e 1A000000 		.4byte	.LVL2
 2013 0062 24000000 		.4byte	.LVL4
 2014 0066 0200     		.2byte	0x2
 2015 0068 30       		.byte	0x30
 2016 0069 9F       		.byte	0x9f
 2017 006a 24000000 		.4byte	.LVL4
 2018 006e 62000000 		.4byte	.LVL19
 2019 0072 0100     		.2byte	0x1
 2020 0074 52       		.byte	0x52
 2021 0075 00000000 		.4byte	0
 2022 0079 00000000 		.4byte	0
 2023              	.LLST4:
 2024 007d 1A000000 		.4byte	.LVL2
 2025 0081 24000000 		.4byte	.LVL4
 2026 0085 0200     		.2byte	0x2
 2027 0087 30       		.byte	0x30
 2028 0088 9F       		.byte	0x9f
 2029 0089 24000000 		.4byte	.LVL4
 2030 008d 5A000000 		.4byte	.LVL17
 2031 0091 0100     		.2byte	0x1
 2032 0093 54       		.byte	0x54
 2033 0094 00000000 		.4byte	0
 2034 0098 00000000 		.4byte	0
 2035              	.LLST5:
 2036 009c 1A000000 		.4byte	.LVL2
 2037 00a0 24000000 		.4byte	.LVL4
 2038 00a4 0200     		.2byte	0x2
 2039 00a6 30       		.byte	0x30
 2040 00a7 9F       		.byte	0x9f
 2041 00a8 24000000 		.4byte	.LVL4
 2042 00ac 30000000 		.4byte	.LVL6
 2043 00b0 0100     		.2byte	0x1
 2044 00b2 53       		.byte	0x53
 2045 00b3 34000000 		.4byte	.LVL7
 2046 00b7 64000000 		.4byte	.LVL20
 2047 00bb 0100     		.2byte	0x1
ARM GAS  /tmp/cciKmy7D.s 			page 52


 2048 00bd 53       		.byte	0x53
 2049 00be 00000000 		.4byte	0
 2050 00c2 00000000 		.4byte	0
 2051              	.LLST6:
 2052 00c6 1A000000 		.4byte	.LVL2
 2053 00ca 60000000 		.4byte	.LVL18
 2054 00ce 0100     		.2byte	0x1
 2055 00d0 57       		.byte	0x57
 2056 00d1 60000000 		.4byte	.LVL18
 2057 00d5 68000000 		.4byte	.LFE220
 2058 00d9 0F00     		.2byte	0xf
 2059 00db F3       		.byte	0xf3
 2060 00dc 01       		.uleb128 0x1
 2061 00dd 52       		.byte	0x52
 2062 00de 03       		.byte	0x3
 2063 00df 00000000 		.4byte	.LANCHOR0
 2064 00e3 22       		.byte	0x22
 2065 00e4 94       		.byte	0x94
 2066 00e5 01       		.byte	0x1
 2067 00e6 08       		.byte	0x8
 2068 00e7 FF       		.byte	0xff
 2069 00e8 1A       		.byte	0x1a
 2070 00e9 9F       		.byte	0x9f
 2071 00ea 00000000 		.4byte	0
 2072 00ee 00000000 		.4byte	0
 2073              	.LLST7:
 2074 00f2 1A000000 		.4byte	.LVL2
 2075 00f6 24000000 		.4byte	.LVL4
 2076 00fa 0200     		.2byte	0x2
 2077 00fc 30       		.byte	0x30
 2078 00fd 9F       		.byte	0x9f
 2079 00fe 24000000 		.4byte	.LVL4
 2080 0102 4E000000 		.4byte	.LVL13
 2081 0106 0500     		.2byte	0x5
 2082 0108 38       		.byte	0x38
 2083 0109 76       		.byte	0x76
 2084 010a 00       		.sleb128 0
 2085 010b 1C       		.byte	0x1c
 2086 010c 9F       		.byte	0x9f
 2087 010d 4E000000 		.4byte	.LVL13
 2088 0111 52000000 		.4byte	.LVL14
 2089 0115 0500     		.2byte	0x5
 2090 0117 37       		.byte	0x37
 2091 0118 76       		.byte	0x76
 2092 0119 00       		.sleb128 0
 2093 011a 1C       		.byte	0x1c
 2094 011b 9F       		.byte	0x9f
 2095 011c 00000000 		.4byte	0
 2096 0120 00000000 		.4byte	0
 2097              		.section	.debug_aranges,"",%progbits
 2098 0000 24000000 		.4byte	0x24
 2099 0004 0200     		.2byte	0x2
 2100 0006 00000000 		.4byte	.Ldebug_info0
 2101 000a 04       		.byte	0x4
 2102 000b 00       		.byte	0
 2103 000c 0000     		.2byte	0
 2104 000e 0000     		.2byte	0
ARM GAS  /tmp/cciKmy7D.s 			page 53


 2105 0010 00000000 		.4byte	.LFB219
 2106 0014 7C000000 		.4byte	.LFE219-.LFB219
 2107 0018 00000000 		.4byte	.LFB220
 2108 001c 68000000 		.4byte	.LFE220-.LFB220
 2109 0020 00000000 		.4byte	0
 2110 0024 00000000 		.4byte	0
 2111              		.section	.debug_ranges,"",%progbits
 2112              	.Ldebug_ranges0:
 2113 0000 00000000 		.4byte	.LFB219
 2114 0004 7C000000 		.4byte	.LFE219
 2115 0008 00000000 		.4byte	.LFB220
 2116 000c 68000000 		.4byte	.LFE220
 2117 0010 00000000 		.4byte	0
 2118 0014 00000000 		.4byte	0
 2119              		.section	.debug_line,"",%progbits
 2120              	.Ldebug_line0:
 2121 0000 67020000 		.section	.debug_str,"MS",%progbits,1
 2121      0200EB01 
 2121      00000201 
 2121      FB0E0D00 
 2121      01010101 
 2122              	.LASF41:
 2123 0000 63685F74 		.ascii	"ch_threads_list\000"
 2123      68726561 
 2123      64735F6C 
 2123      69737400 
 2124              	.LASF74:
 2125 0010 41504231 		.ascii	"APB1ENR\000"
 2125      454E5200 
 2126              	.LASF89:
 2127 0018 77746D74 		.ascii	"wtmtxp\000"
 2127      787000
 2128              	.LASF100:
 2129 001f 50434461 		.ascii	"PCData\000"
 2129      746100
 2130              	.LASF117:
 2131 0026 2F686F6D 		.ascii	"/home/otto/Escritorio/Semestre12/Embebidos/ChibiOS_"
 2131      652F6F74 
 2131      746F2F45 
 2131      73637269 
 2131      746F7269 
 2132 0059 31372E36 		.ascii	"17.6.2/demos/STM32/NIL-STM32F100-DISCOVERY\000"
 2132      2E322F64 
 2132      656D6F73 
 2132      2F53544D 
 2132      33322F4E 
 2133              	.LASF66:
 2134 0084 42535252 		.ascii	"BSRR\000"
 2134      00
 2135              	.LASF79:
 2136 0089 72656761 		.ascii	"regarm_t\000"
 2136      726D5F74 
 2136      00
 2137              	.LASF70:
 2138 0092 41504232 		.ascii	"APB2RSTR\000"
 2138      52535452 
 2138      00
ARM GAS  /tmp/cciKmy7D.s 			page 54


 2139              	.LASF30:
 2140 009b 666C6167 		.ascii	"flags\000"
 2140      7300
 2141              	.LASF21:
 2142 00a1 73797374 		.ascii	"systime_t\000"
 2142      696D655F 
 2142      7400
 2143              	.LASF36:
 2144 00ab 7265616C 		.ascii	"realprio\000"
 2144      7072696F 
 2144      00
 2145              	.LASF34:
 2146 00b4 6570656E 		.ascii	"epending\000"
 2146      64696E67 
 2146      00
 2147              	.LASF0:
 2148 00bd 756E7369 		.ascii	"unsigned int\000"
 2148      676E6564 
 2148      20696E74 
 2148      00
 2149              	.LASF42:
 2150 00ca 6E657874 		.ascii	"next\000"
 2150      00
 2151              	.LASF39:
 2152 00cf 74687265 		.ascii	"threads_list_t\000"
 2152      6164735F 
 2152      6C697374 
 2152      5F7400
 2153              	.LASF75:
 2154 00de 42444352 		.ascii	"BDCR\000"
 2154      00
 2155              	.LASF31:
 2156 00e3 72656673 		.ascii	"refs\000"
 2156      00
 2157              	.LASF85:
 2158 00e8 77746F62 		.ascii	"wtobjp\000"
 2158      6A7000
 2159              	.LASF63:
 2160 00ef 76746C69 		.ascii	"vtlist\000"
 2160      737400
 2161              	.LASF81:
 2162 00f6 706F7274 		.ascii	"port_context\000"
 2162      5F636F6E 
 2162      74657874 
 2162      00
 2163              	.LASF47:
 2164 0103 63685F72 		.ascii	"ch_ready_list\000"
 2164      65616479 
 2164      5F6C6973 
 2164      7400
 2165              	.LASF53:
 2166 0111 66756E63 		.ascii	"func\000"
 2166      00
 2167              	.LASF90:
 2168 0116 65776D61 		.ascii	"ewmask\000"
 2168      736B00
 2169              	.LASF112:
ARM GAS  /tmp/cciKmy7D.s 			page 55


 2170 011d 6D6F6465 		.ascii	"mode\000"
 2170      00
 2171              	.LASF45:
 2172 0122 70726576 		.ascii	"prev\000"
 2172      00
 2173              	.LASF44:
 2174 0127 63685F74 		.ascii	"ch_threads_queue\000"
 2174      68726561 
 2174      64735F71 
 2174      75657565 
 2174      00
 2175              	.LASF49:
 2176 0138 76746675 		.ascii	"vtfunc_t\000"
 2176      6E635F74 
 2176      00
 2177              	.LASF58:
 2178 0141 63685F73 		.ascii	"ch_system_debug\000"
 2178      79737465 
 2178      6D5F6465 
 2178      62756700 
 2179              	.LASF9:
 2180 0151 75696E74 		.ascii	"uint32_t\000"
 2180      33325F74 
 2180      00
 2181              	.LASF87:
 2182 015a 73656E74 		.ascii	"sentmsg\000"
 2182      6D736700 
 2183              	.LASF19:
 2184 0162 6576656E 		.ascii	"eventmask_t\000"
 2184      746D6173 
 2184      6B5F7400 
 2185              	.LASF91:
 2186 016e 63685F73 		.ascii	"ch_semaphore\000"
 2186      656D6170 
 2186      686F7265 
 2186      00
 2187              	.LASF17:
 2188 017b 74707269 		.ascii	"tprio_t\000"
 2188      6F5F7400 
 2189              	.LASF51:
 2190 0183 63685F76 		.ascii	"ch_virtual_timer\000"
 2190      69727475 
 2190      616C5F74 
 2190      696D6572 
 2190      00
 2191              	.LASF113:
 2192 0194 63666774 		.ascii	"cfgtab.6566\000"
 2192      61622E36 
 2192      35363600 
 2193              	.LASF13:
 2194 01a0 6C6F6E67 		.ascii	"long long unsigned int\000"
 2194      206C6F6E 
 2194      6720756E 
 2194      7369676E 
 2194      65642069 
 2195              	.LASF20:
 2196 01b7 636E745F 		.ascii	"cnt_t\000"
ARM GAS  /tmp/cciKmy7D.s 			page 56


 2196      7400
 2197              	.LASF97:
 2198 01bd 73746D33 		.ascii	"stm32_gpio_setup_t\000"
 2198      325F6770 
 2198      696F5F73 
 2198      65747570 
 2198      5F7400
 2199              	.LASF93:
 2200 01d0 6F776E65 		.ascii	"owner\000"
 2200      7200
 2201              	.LASF43:
 2202 01d6 74687265 		.ascii	"threads_queue_t\000"
 2202      6164735F 
 2202      71756575 
 2202      655F7400 
 2203              	.LASF35:
 2204 01e6 6D74786C 		.ascii	"mtxlist\000"
 2204      69737400 
 2205              	.LASF55:
 2206 01ee 63685F76 		.ascii	"ch_virtual_timers_list\000"
 2206      69727475 
 2206      616C5F74 
 2206      696D6572 
 2206      735F6C69 
 2207              	.LASF22:
 2208 0205 74687265 		.ascii	"thread_t\000"
 2208      61645F74 
 2208      00
 2209              	.LASF102:
 2210 020e 50454461 		.ascii	"PEData\000"
 2210      746100
 2211              	.LASF83:
 2212 0215 7264796D 		.ascii	"rdymsg\000"
 2212      736700
 2213              	.LASF78:
 2214 021c 5243435F 		.ascii	"RCC_TypeDef\000"
 2214      54797065 
 2214      44656600 
 2215              	.LASF99:
 2216 0228 50424461 		.ascii	"PBData\000"
 2216      746100
 2217              	.LASF92:
 2218 022f 63685F6D 		.ascii	"ch_mutex\000"
 2218      75746578 
 2218      00
 2219              	.LASF115:
 2220 0238 474E5520 		.ascii	"GNU C 4.8.1 -mcpu=cortex-m3 -mno-thumb-interwork -m"
 2220      4320342E 
 2220      382E3120 
 2220      2D6D6370 
 2220      753D636F 
 2221 026b 7468756D 		.ascii	"thumb -ggdb -O2 -fomit-frame-pointer -falign-functi"
 2221      62202D67 
 2221      67646220 
 2221      2D4F3220 
 2221      2D666F6D 
 2222 029e 6F6E733D 		.ascii	"ons=16 -ffunction-sections -fdata-sections -fno-com"
ARM GAS  /tmp/cciKmy7D.s 			page 57


 2222      3136202D 
 2222      6666756E 
 2222      6374696F 
 2222      6E2D7365 
 2223 02d1 6D6F6E20 		.ascii	"mon -flto\000"
 2223      2D666C74 
 2223      6F00
 2224              	.LASF71:
 2225 02db 41504231 		.ascii	"APB1RSTR\000"
 2225      52535452 
 2225      00
 2226              	.LASF24:
 2227 02e4 7072696F 		.ascii	"prio\000"
 2227      00
 2228              	.LASF94:
 2229 02e9 63686172 		.ascii	"char\000"
 2229      00
 2230              	.LASF38:
 2231 02ee 74687265 		.ascii	"thread_reference_t\000"
 2231      61645F72 
 2231      65666572 
 2231      656E6365 
 2231      5F7400
 2232              	.LASF28:
 2233 0301 77616261 		.ascii	"wabase\000"
 2233      736500
 2234              	.LASF15:
 2235 0308 74737461 		.ascii	"tstate_t\000"
 2235      74655F74 
 2235      00
 2236              	.LASF72:
 2237 0311 41484245 		.ascii	"AHBENR\000"
 2237      4E5200
 2238              	.LASF4:
 2239 0318 75696E74 		.ascii	"uint8_t\000"
 2239      385F7400 
 2240              	.LASF33:
 2241 0320 6D736771 		.ascii	"msgqueue\000"
 2241      75657565 
 2241      00
 2242              	.LASF40:
 2243 0329 63685F74 		.ascii	"ch_thread\000"
 2243      68726561 
 2243      6400
 2244              	.LASF57:
 2245 0333 73797374 		.ascii	"system_debug_t\000"
 2245      656D5F64 
 2245      65627567 
 2245      5F7400
 2246              	.LASF11:
 2247 0342 6C6F6E67 		.ascii	"long long int\000"
 2247      206C6F6E 
 2247      6720696E 
 2247      7400
 2248              	.LASF18:
 2249 0350 6D73675F 		.ascii	"msg_t\000"
 2249      7400
ARM GAS  /tmp/cciKmy7D.s 			page 58


 2250              	.LASF50:
 2251 0356 76697274 		.ascii	"virtual_timer_t\000"
 2251      75616C5F 
 2251      74696D65 
 2251      725F7400 
 2252              	.LASF104:
 2253 0366 696F706F 		.ascii	"ioportmask_t\000"
 2253      72746D61 
 2253      736B5F74 
 2253      00
 2254              	.LASF105:
 2255 0373 696F6D6F 		.ascii	"iomode_t\000"
 2255      64655F74 
 2255      00
 2256              	.LASF111:
 2257 037c 6D61736B 		.ascii	"mask\000"
 2257      00
 2258              	.LASF77:
 2259 0381 43464752 		.ascii	"CFGR2\000"
 2259      3200
 2260              	.LASF73:
 2261 0387 41504232 		.ascii	"APB2ENR\000"
 2261      454E5200 
 2262              	.LASF59:
 2263 038f 70616E69 		.ascii	"panic_msg\000"
 2263      635F6D73 
 2263      6700
 2264              	.LASF96:
 2265 0399 5F426F6F 		.ascii	"_Bool\000"
 2265      6C00
 2266              	.LASF14:
 2267 039f 746D6F64 		.ascii	"tmode_t\000"
 2267      655F7400 
 2268              	.LASF64:
 2269 03a7 6D61696E 		.ascii	"mainthread\000"
 2269      74687265 
 2269      616400
 2270              	.LASF5:
 2271 03b2 75696E74 		.ascii	"uint16_t\000"
 2271      31365F74 
 2271      00
 2272              	.LASF101:
 2273 03bb 50444461 		.ascii	"PDData\000"
 2273      746100
 2274              	.LASF109:
 2275 03c2 636F6E66 		.ascii	"config\000"
 2275      696700
 2276              	.LASF76:
 2277 03c9 52455345 		.ascii	"RESERVED0\000"
 2277      52564544 
 2277      3000
 2278              	.LASF3:
 2279 03d3 73686F72 		.ascii	"short int\000"
 2279      7420696E 
 2279      7400
 2280              	.LASF8:
 2281 03dd 6C6F6E67 		.ascii	"long int\000"
ARM GAS  /tmp/cciKmy7D.s 			page 59


 2281      20696E74 
 2281      00
 2282              	.LASF82:
 2283 03e6 706F7274 		.ascii	"port_intctx\000"
 2283      5F696E74 
 2283      63747800 
 2284              	.LASF114:
 2285 03f2 49544D5F 		.ascii	"ITM_RxBuffer\000"
 2285      52784275 
 2285      66666572 
 2285      00
 2286              	.LASF98:
 2287 03ff 50414461 		.ascii	"PAData\000"
 2287      746100
 2288              	.LASF61:
 2289 0406 63685F73 		.ascii	"ch_system\000"
 2289      79737465 
 2289      6D00
 2290              	.LASF56:
 2291 0410 6C617374 		.ascii	"lasttime\000"
 2291      74696D65 
 2291      00
 2292              	.LASF12:
 2293 0419 75696E74 		.ascii	"uint64_t\000"
 2293      36345F74 
 2293      00
 2294              	.LASF69:
 2295 0422 43464752 		.ascii	"CFGR\000"
 2295      00
 2296              	.LASF62:
 2297 0427 726C6973 		.ascii	"rlist\000"
 2297      7400
 2298              	.LASF107:
 2299 042d 5F70616C 		.ascii	"_pal_lld_init\000"
 2299      5F6C6C64 
 2299      5F696E69 
 2299      7400
 2300              	.LASF106:
 2301 043b 696F706F 		.ascii	"ioportid_t\000"
 2301      72746964 
 2301      5F7400
 2302              	.LASF27:
 2303 0446 6E616D65 		.ascii	"name\000"
 2303      00
 2304              	.LASF68:
 2305 044b 4750494F 		.ascii	"GPIO_TypeDef\000"
 2305      5F547970 
 2305      65446566 
 2305      00
 2306              	.LASF103:
 2307 0458 50414C43 		.ascii	"PALConfig\000"
 2307      6F6E6669 
 2307      6700
 2308              	.LASF65:
 2309 0462 73697A65 		.ascii	"sizetype\000"
 2309      74797065 
 2309      00
ARM GAS  /tmp/cciKmy7D.s 			page 60


 2310              	.LASF16:
 2311 046b 74726566 		.ascii	"trefs_t\000"
 2311      735F7400 
 2312              	.LASF10:
 2313 0473 6C6F6E67 		.ascii	"long unsigned int\000"
 2313      20756E73 
 2313      69676E65 
 2313      6420696E 
 2313      7400
 2314              	.LASF46:
 2315 0485 72656164 		.ascii	"ready_list_t\000"
 2315      795F6C69 
 2315      73745F74 
 2315      00
 2316              	.LASF23:
 2317 0492 71756575 		.ascii	"queue\000"
 2317      6500
 2318              	.LASF7:
 2319 0498 696E7433 		.ascii	"int32_t\000"
 2319      325F7400 
 2320              	.LASF110:
 2321 04a0 706F7274 		.ascii	"port\000"
 2321      00
 2322              	.LASF88:
 2323 04a5 77747365 		.ascii	"wtsemp\000"
 2323      6D7000
 2324              	.LASF116:
 2325 04ac 2E2E2F2E 		.ascii	"../../../os/hal/ports/STM32/LLD/GPIOv1/hal_pal_lld."
 2325      2E2F2E2E 
 2325      2F6F732F 
 2325      68616C2F 
 2325      706F7274 
 2326 04df 6300     		.ascii	"c\000"
 2327              	.LASF95:
 2328 04e1 6D757465 		.ascii	"mutex_t\000"
 2328      785F7400 
 2329              	.LASF25:
 2330 04e9 6E657765 		.ascii	"newer\000"
 2330      7200
 2331              	.LASF2:
 2332 04ef 756E7369 		.ascii	"unsigned char\000"
 2332      676E6564 
 2332      20636861 
 2332      7200
 2333              	.LASF32:
 2334 04fd 77616974 		.ascii	"waiting\000"
 2334      696E6700 
 2335              	.LASF54:
 2336 0505 76697274 		.ascii	"virtual_timers_list_t\000"
 2336      75616C5F 
 2336      74696D65 
 2336      72735F6C 
 2336      6973745F 
 2337              	.LASF29:
 2338 051b 73746174 		.ascii	"state\000"
 2338      6500
 2339              	.LASF108:
ARM GAS  /tmp/cciKmy7D.s 			page 61


 2340 0521 5F70616C 		.ascii	"_pal_lld_setgroupmode\000"
 2340      5F6C6C64 
 2340      5F736574 
 2340      67726F75 
 2340      706D6F64 
 2341              	.LASF60:
 2342 0537 63685F73 		.ascii	"ch_system_t\000"
 2342      79737465 
 2342      6D5F7400 
 2343              	.LASF86:
 2344 0543 77747472 		.ascii	"wttrp\000"
 2344      7000
 2345              	.LASF1:
 2346 0549 7369676E 		.ascii	"signed char\000"
 2346      65642063 
 2346      68617200 
 2347              	.LASF52:
 2348 0555 64656C74 		.ascii	"delta\000"
 2348      6100
 2349              	.LASF6:
 2350 055b 73686F72 		.ascii	"short unsigned int\000"
 2350      7420756E 
 2350      7369676E 
 2350      65642069 
 2350      6E7400
 2351              	.LASF80:
 2352 056e 73746B61 		.ascii	"stkalign_t\000"
 2352      6C69676E 
 2352      5F7400
 2353              	.LASF48:
 2354 0579 63757272 		.ascii	"current\000"
 2354      656E7400 
 2355              	.LASF26:
 2356 0581 6F6C6465 		.ascii	"older\000"
 2356      7200
 2357              	.LASF84:
 2358 0587 65786974 		.ascii	"exitcode\000"
 2358      636F6465 
 2358      00
 2359              	.LASF67:
 2360 0590 4C434B52 		.ascii	"LCKR\000"
 2360      00
 2361              	.LASF37:
 2362 0595 6D706F6F 		.ascii	"mpool\000"
 2362      6C00
 2363              		.comm	__gnu_lto_v1,1,1
 2364              		.ident	"GCC: (Sourcery CodeBench Lite 2013.11-24) 4.8.1"
ARM GAS  /tmp/cciKmy7D.s 			page 62


DEFINED SYMBOLS
                            *ABS*:00000000 hal_pal_lld.c
     /tmp/cciKmy7D.s:270    .text._pal_lld_init:00000000 $t
     /tmp/cciKmy7D.s:276    .text._pal_lld_init:00000000 _pal_lld_init
     /tmp/cciKmy7D.s:376    .text._pal_lld_setgroupmode:00000000 $t
     /tmp/cciKmy7D.s:382    .text._pal_lld_setgroupmode:00000000 _pal_lld_setgroupmode
     /tmp/cciKmy7D.s:489    .rodata.cfgtab.6566:00000000 .LANCHOR0
     /tmp/cciKmy7D.s:488    .rodata.cfgtab.6566:00000000 $d
     /tmp/cciKmy7D.s:492    .rodata.cfgtab.6566:00000000 cfgtab.6566
                            *COM*:00000001 __gnu_lto_v1
                     .debug_frame:00000010 $d

NO UNDEFINED SYMBOLS
