ARM GAS  /tmp/ccNPZdK1.s 			page 1


   1              		.syntax unified
   2              		.cpu cortex-m3
   3              		.fpu softvfp
   4              		.eabi_attribute 20, 1
   5              		.eabi_attribute 21, 1
   6              		.eabi_attribute 23, 3
   7              		.eabi_attribute 24, 1
   8              		.eabi_attribute 25, 1
   9              		.eabi_attribute 26, 1
  10              		.eabi_attribute 30, 2
  11              		.eabi_attribute 34, 1
  12              		.eabi_attribute 18, 4
  13              		.thumb
  14              		.file	"hal_pal.c"
  15              		.text
  16              	.Ltext0:
  17              		.section	.gnu.lto_.jmpfuncs.9a3b4e4a01bcf7db,"",%progbits
  18 0000 789C6362 		.ascii	"x\234cb`b\300\006D\24043\003##3\02333\204\315\300X\006"
  18      6062C006 
  18      44A03433 
  18      03232333 
  18      13333384 
  19 0018 A4010623 		.ascii	"\244\001\006#\000\243"
  19      00A3
  20              		.text
  21              		.section	.gnu.lto_.inline.9a3b4e4a01bcf7db,"",%progbits
  22 0000 789C6362 		.ascii	"x\234cb`b\300\006\276Cif\006\006N\016Ff\006F0\023D:"
  22      6062C006 
  22      BE436966 
  22      06064E0E 
  22      46660646 
  23 0018 8049050E 		.ascii	"\200I\005\016\266\017z\014l\013\344\231\030\030_\260"
  23      B60F7A0C 
  23      6C0BE499 
  23      18185FB0 
  24 0028 B3404810 		.ascii	"\263@H\020\301\001fr\200\010\0010S\000d\014#\003\037"
  24      C1016672 
  24      80080130 
  24      5300640C 
  24      23031F
  25 003b 2F230BC4 		.ascii	"/#\013\304\024FF\210\010\320\020\210\201\334L\027\370"
  25      14464688 
  25      08D01088 
  25      81DC4C17 
  25      F8
  26 004c 318C028A 		.ascii	"1\214\002\212\241\030\302\262@^\002\304R`b`\336!\256"
  26      A118C2B2 
  26      405E02C4 
  26      52606260 
  26      DE21AE
  27 005f C000B4DE 		.ascii	"\300\000\264\336\002d\016\023\003\2670\212\373\240\206"
  27      02640E13 
  27      03B7308A 
  27      FBA086
  28 006e 7202E588 		.ascii	"r\002\345\210s\036\320&\011\220I,\274@}\023\374@\220"
  28      731ED026 
  28      0990492C 
ARM GAS  /tmp/ccNPZdK1.s 			page 2


  28      BC407D13 
  28      FC4090
  29 0081 01003C62 		.ascii	"\001\000<b\037\210"
  29      1F88
  30              		.text
  31              		.section	.gnu.lto_.pureconst.9a3b4e4a01bcf7db,"",%progbits
  32 0000 789C6362 		.ascii	"x\234cb`b`g\200\000f\006)F)&I\000\001\312\000_"
  32      60626067 
  32      80006606 
  32      29462926 
  32      490001CA 
  33              		.text
  34              		.section	.gnu.lto_palReadBus.9a3b4e4a01bcf7db,"",%progbits
  35 0000 789C6D90 		.ascii	"x\234m\220\275N\303@\020\204g\366|\261\235\202\236\006"
  35      BD4EC340 
  35      108467F6 
  35      7CB19D82 
  35      9E06
  36 0012 A52692FD 		.ascii	"\245&\222\3752A\002\032d\\\004K\211@\344\001b\342TT"
  36      3241021A 
  36      645C044B 
  36      8940E401 
  36      62E25454 
  37 0026 1115828A 		.ascii	"\021\025\202\212\206\202\"\264H4\210\202.\010Z*$Z\304"
  37      868222B4 
  37      48348882 
  37      2E085A2A 
  37      245AC4
  38 0039 2B843D1B 		.ascii	"+\204=\033\033\201r\272\233\275\237\375fW'\020\374\037"
  38      1B8172BA 
  38      9BBD9FFD 
  38      66572710 
  38      FC1F
  39 004b EBBA4E09 		.ascii	"\353\272N\011t4\322\2002{\006N\002!\335\006\304X8\336"
  39      7434D280 
  39      327B064E 
  39      0221DD06 
  39      C45838DE 
  40 005f 61997B2B 		.ascii	"a\231{+\017\357\313\345\374\354\351\372\223\347\322"
  40      0FEFCBE5 
  40      FCECE9FA 
  40      93E7D2
  41 006e 160E0983 		.ascii	"\026\016\011\203\214\360ThU\244\245b|w\014\234\204*"
  41      8CF05468 
  41      55A4A562 
  41      7C770C9C 
  41      842A
  42 0080 9E9216D3 		.ascii	"\236\222\026\323<\237u\206T\243\2644\353\251\272\012"
  42      3C9F7586 
  42      54A3B434 
  42      EBA9BA0A 
  43 0090 5B1417CD 		.ascii	"[\024\027\315\002\223\267\273\217\027&\274R\247>M\027"
  43      0293B7BB 
  43      8F1726BC 
  43      52A73E4D 
  43      17
  44 00a1 9B19ED25 		.ascii	"\233\031\355%.\230\261\325\247lk\364\3136\366Y7\277"
ARM GAS  /tmp/ccNPZdK1.s 			page 3


  44      2E98B1D5 
  44      A76C6BF4 
  44      CB36F659 
  44      37BF
  45 00b3 C0E36E0D 		.ascii	"\300\343n\015x]\334\344SM\012*&T\017\307\330\037\206"
  45      785DDCE4 
  45      534D0A2A 
  45      26540FC7 
  45      D81F86
  46 00c6 0D336918 		.ascii	"\0153i\030[\026i\257.\"\277\300\227\251\011M\262\356"
  46      5B1669AF 
  46      2E22BFC0 
  46      97A9094D 
  46      B2EE
  47 00d8 AA983757 		.ascii	"\252\2307W\276\326\326\207\277\316A\351\354\255v6\215"
  47      BED6D687 
  47      BFCE41E9 
  47      ECAD7636 
  47      8D
  48 00e9 73715FAC 		.ascii	"sq_\254\325HXZ\005\300+\232_\010\253\304\236v\257\237"
  48      D548585A 
  48      05C02B9A 
  48      5F08ABC4 
  48      9E76AF9F 
  49 00fd E43ADA88 		.ascii	"\344:\332\210\242\270\232\207\243\370 \031\304\243\343"
  49      A2B89A87 
  49      A3F82019 
  49      C4A3E3
  50 010c D4C5BDA3 		.ascii	"\324\305\275\243d\020\245\370\006}\023S\301"
  50      6410A5F8 
  50      067D1353 
  50      C1
  51              		.text
  52              		.section	.gnu.lto_palWriteBus.9a3b4e4a01bcf7db,"",%progbits
  53 0000 789C6D51 		.ascii	"x\234mQ\277O\302`\020\275\373\276\322\037@A7]\014\211"
  53      BF4FC260 
  53      10BDFBBE 
  53      D21F4041 
  53      375D0C89 
  54 0014 1B24F077 		.ascii	"\033$\360w\270c\242.\006\031\220\004\242\221?\000P\006"
  54      B863A22E 
  54      06199004 
  54      A2913F00 
  54      5006
  55 0026 4766995C 		.ascii	"Gf\231\\M\324\305\305h\242qp\323\304\3158\361\027\350"
  55      4DD4C5C5 
  55      68A27170 
  55      D3C4CD38 
  55      F117E8
  56 0039 E26882EF 		.ascii	"\342h\202\357\256\266\304\206\246}w}\337\335\273w\255"
  56      AEB6C486 
  56      A67D777D 
  56      DFDDBB77 
  56      AD
  57 004a 2143E96B 		.ascii	"!C\351k\025O\031t\011\221-\261\031\277\022\015}\303"
  57      154F1974 
  57      09912DB1 
ARM GAS  /tmp/ccNPZdK1.s 			page 4


  57      19BF120D 
  57      7DC3
  58 005c 2C0931F5 		.ascii	",\0111\365\015\367\267Yk\257\315\343t6\273\372~\276"
  58      0DF7B759 
  58      6BAFCDE3 
  58      7436BBFA 
  58      7EBE
  59 006e F9E18959 		.ascii	"\371\341\211Y6\334e\262\324fr\220q\006\031\273\002\236"
  59      36DC65B2 
  59      D4667290 
  59      710619BB 
  59      029E
  60 0080 800F3081 		.ascii	"\200\0170\201@\026`s\302\345\005By-HV\024\200n\206F"
  60      40166073 
  60      C2E50542 
  60      792D4856 
  60      14806E86 
  61 0095 83C1B8D4 		.ascii	"\203\301\270\324e\370h\352\250:P\346o\202B\264/t\374"
  61      65F868EA 
  61      A83A50E6 
  61      6F8242B4 
  61      2F74FC
  62 00a8 F1FEB5D2 		.ascii	"\361\376\265\322\340s\214i\261\255P\271\315\316\204"
  62      E0738C69 
  62      B1AD50B9 
  62      CDCE84
  63 00b7 CEB8CD99 		.ascii	"\316\270\315\231\026\233-DW=\356q\274\031z\356m\334"
  63      169B2D44 
  63      573DEE71 
  63      BC197AEE 
  63      6DDC
  64 00c9 812247A9 		.ascii	"\201\"G\251\235\230qU\303[\254\301\211\306\311]\242"
  64      9D987155 
  64      C35BACC1 
  64      89C6C95D 
  64      A2
  65 00da E1A98CFB 		.ascii	"\341\251\214\373_\306W\031\177\261\214\231\313\234&"
  65      5FC65719 
  65      7FB18C99 
  65      CB9C26
  66 00e9 32019AA4 		.ascii	"2\001\232\244\310_\212L~&'Y\034j\361eB\345tl6\345$\217"
  66      C85F8A4C 
  66      7E262759 
  66      1C6AF165 
  66      42E5746C 
  67 0101 6D6227F3 		.ascii	"mb'\363\366\020\302\251\366\202\326\206\312\336&lQu"
  67      F610C2A9 
  67      F682D686 
  67      CADE266C 
  67      5175
  68 0113 0BC23E6D 		.ascii	"\013\302>mDd\205.\006#\230\012\242E\340\304\212G\347"
  68      4464852E 
  68      0623980A 
  68      A245E0C4 
  68      8A47E7
  69 0126 6F11AB11 		.ascii	"o\021\253\021\235Do4\234>\254G]\361U\307\007\303o\222"
  69      9D446F34 
ARM GAS  /tmp/ccNPZdK1.s 			page 5


  69      9C3EAC47 
  69      5DF155C7 
  69      07C36F92 
  70 013a 75D7AAD5 		.ascii	"u\327\252\325Zt\037\364j\373\215N\255w\324\224\270{"
  70      5A741FF4 
  70      6AFB8D4E 
  70      AD77D494 
  70      B87B
  71 014c D8E8549B 		.ascii	"\330\350T\233\364\013\221\371qw"
  71      F40B91F9 
  71      7177
  72              		.text
  73              		.section	.gnu.lto_palSetBusMode.9a3b4e4a01bcf7db,"",%progbits
  74 0000 789C6D90 		.ascii	"x\234m\220\277J\003A\020\306\277o\366\376\231\312R\033"
  74      BF4A0341 
  74      10C6BF6F 
  74      F6FE99CA 
  74      521B
  75 0012 09A453B8 		.ascii	"\011\244S\270{\231\010j#\347\201\347A\202bJ\213\\\324"
  75      7B99086A 
  75      23E781E7 
  75      4182624A 
  75      8B5CD4
  76 0025 C232B582 		.ascii	"\3022\265\202\340\003hZK;+\025-S\345\001$\017\240E2"
  76      E003685A 
  76      4B3B2B15 
  76      2D53E501 
  76      240FA045 
  77 003a BBE729C8 		.ascii	"\273\347)\310-\2733\273\337\316ofv\005\202\377c]\327"
  77      2DBB33BB 
  77      DFCE6F66 
  77      760582FF 
  77      635DD7
  78 004d 2181B67A 		.ascii	"!\201\266z\032P\306\257\300(\022\322n@\014\205\303]"
  78      1A50C6AF 
  78      C02812D2 
  78      6E400C85 
  78      C35D
  79 005f BAD8893C 		.ascii	"\272\330\211<\315\026\213\207\217\347\311'o\245%\354"
  79      CD168B87 
  79      8FE7C927 
  79      6FA525EC 
  80 006f 130605E1 		.ascii	"\023\006\005\341\251\241\257F\0025&\264\307Ho-\346\343"
  80      A9A1AF46 
  80      023526B4 
  80      C7486F2D 
  80      E6E3
  81 0081 B22CC7ED 		.ascii	"\262,\307\355>\265v\346\362t\325\332\344\333*\2517/"
  81      3EB576E6 
  81      F274D5DA 
  81      E4DB2AA9 
  81      372F
  82 0093 389F3E7E 		.ascii	"8\237>~\257\245\274\323\0349\315\0266\013z7\270fA?\247"
  82      AFA5BCD3 
  82      1C39CD16 
  82      360B7A37 
  82      B866413F 
ARM GAS  /tmp/ccNPZdK1.s 			page 6


  83 00a8 ECA80F5C 		.ascii	"\354\250\017\\\003\007\254\333Vf\257\006<\007\204\315"
  83      0307ACDB 
  83      5666AF06 
  83      3C0784CD 
  84 00b8 001B00DF 		.ascii	"\000\033\000\337\001Q3 \177\300\334\324D\240\220\225"
  84      01513320 
  84      7FC0DCD4 
  84      44A09095 
  85 00c8 2EEE7FA5 		.ascii	".\356\177\245P\013\347\226zCPi\300\031\276\312\253r"
  85      500BE796 
  85      7A435069 
  85      C019BECA 
  85      AB72
  86 00da B5E04AF6 		.ascii	"\265\340J\366SX\237\343B\243\202-\340\035\243\331\274"
  86      53589FE3 
  86      42A3822D 
  86      E01DA3D9 
  86      BC
  87 00eb 534757A3 		.ascii	"SGW\243\253\221\372\013\266\354F\034'\325<\036$Gi/\031"
  87      AB91FA0B 
  87      B6EC461C 
  87      27D53C1E 
  87      2447692F 
  88 0100 9C66D6EF 		.ascii	"\234f\326\357\237\244\2758\303\022\012MNp"
  88      9FA4BD38 
  88      C3120A4D 
  88      4E70
  89              		.text
  90              		.section	.gnu.lto_.symbol_nodes.9a3b4e4a01bcf7db,"",%progbits
  91 0000 789C6362 		.ascii	"x\234cb`bpe\200\002\246\333\214\365\014\014\023\316"
  91      60627065 
  91      8002A6DB 
  91      8CF50C0C 
  91      13CE
  92 0012 3130D4D7 		.ascii	"10\324\327\317\353`d\272\303X\317\210\304\275\313X\317"
  92      CFEB6064 
  92      BAC358CF 
  92      88C4BDCB 
  92      58CF
  93 0024 84E0323E 		.ascii	"\204\3402>`\254g\206p\033\032\030\231\231\230\031\026"
  93      60AC6786 
  93      701B1A18 
  93      99999819 
  93      16
  94 0035 3FFCC7C8 		.ascii	"?\374\307\310\000\000\002\020\025\275"
  94      00000210 
  94      15BD
  95              		.text
  96              		.section	.gnu.lto_.refs.9a3b4e4a01bcf7db,"",%progbits
  97 0000 789C6362 		.ascii	"x\234cb`b`d\200\002\000\000F\000\006"
  97      60626064 
  97      80020000 
  97      460006
  98              		.text
  99              		.section	.gnu.lto_.decls.9a3b4e4a01bcf7db,"",%progbits
 100 0000 789C9D57 		.ascii	"x\234\235Wol\024E\024\237\331\275\312]9\012\022!51R"
 100      6F6C1445 
ARM GAS  /tmp/ccNPZdK1.s 			page 7


 100      149FD9BD 
 100      CA5D390A 
 100      12213531 
 101 0015 88F88184 		.ascii	"\210\370\201\204.m\003\362\211\204\266J\033[!W\010|"
 101      2E6D03F2 
 101      8984B64A 
 101      1B5B2157 
 101      087C
 102 0027 72DDDEED 		.ascii	"r\335\336\355y\027\333\333\346n\317\224O\216m\005\242"
 102      7917DBDB 
 102      E66ECF94 
 102      4F8E6D05 
 102      A2
 103 0038 416BF913 		.ascii	"Ak\371\0230\306\024+ \201\310?\001\211i<j\344O\033\032"
 103      30C6142B 
 103      2081C83F 
 103      0189693C 
 103      6AE44F1B 
 104 004d 82E46A04 		.ascii	"\202\344j\004\323\013 \232\300\007\020\021\020\344|"
 104      D30B209A 
 104      C0071011 
 104      10E47C
 105 005c 33BB7BB7 		.ascii	"3\273{\267\273\335\273\3361\351\233\316\354\274\371"
 105      BBDDBBDE 
 105      31E99BCE 
 105      ECBCF9
 106 006b BDDF7BF3 		.ascii	"\275\337{\363\346\317q\210C*F(\015e\363t\204\236\343"
 106      E6CF7188 
 106      432A4628 
 106      0D65F374 
 106      849EE3
 107 007e 10722184 		.ascii	"\020r!\204\226\241l\241\375] I\220q\220\233hb\241\343"
 107      96A16CA1 
 107      FD5D2049 
 107      9071909B 
 107      6862A1E3 
 108 0092 5341CE81 		.ascii	"SA\316\201L\001)\321\347\015\200\034\0019\000\262\037"
 108      4C0129D1 
 108      E70D801C 
 108      013900B2 
 108      1F
 109 00a3 E424C851 		.ascii	"\344$\310Q\220Q}\3740\310 \310y\220\021\020\254c\001"
 109      90517DFC 
 109      30C820C8 
 109      79901110 
 109      AC6301
 110 00b6 0DF433C8 		.ascii	"\015\3643\310\035\233\235d\016;f\033\003:\276a\313\260"
 110      1D9B9D64 
 110      0E3B661B 
 110      033ABE61 
 110      CBB0
 111 00c8 33A2DB39 		.ascii	"3\242\3339\245\333\241X<\310e\220+ \217l\266\306\213"
 111      A5DBA158 
 111      3CC86590 
 111      2B208F6C 
 111      B6C68B
 112 00db B045016F 		.ascii	"\260E\001o\351xf[\234)ft\354\017\220?\251:\266\332\232"
ARM GAS  /tmp/ccNPZdK1.s 			page 8


 112      E978665B 
 112      9C296674 
 112      EC0F903F 
 112      A93AB6DA 
 113 00f0 83BE20FD 		.ascii	"\203\276 \375\251\324\356\253\267\361N\222\350!\351"
 113      A9D4EEAB 
 113      B7F14E92 
 113      E821E9
 114 00ff F47B6836 		.ascii	"\364{h6\332F\240\364o \004\253\036\264\211\220.\332"
 114      DA46A0F4 
 114      6F2004AB 
 114      1EB48990 
 114      2EDA
 115 0111 69385B86 		.ascii	"i8[\206\320:,\3412\017\252`\015\257\207\361\232\217"
 115      D03A2CE1 
 115      320FAA60 
 115      0DAF87F1 
 115      9A8F
 116 0123 BE22A437 		.ascii	"\276\"\2447\265e\337\266\005\204\270%<\200=`\177-F\013"
 116      B565DFB6 
 116      0584B825 
 116      3C803D60 
 116      7F2D460B 
 117 0137 D03EC0E9 		.ascii	"\320>\300\351\205\37156\263\254\024\016}b\343\245;\270"
 117      85F93536 
 117      B3AC140E 
 117      7D62E3A5 
 117      3BB8
 118 0149 0BE84878 		.ascii	"\013\350Hx/\003\037\006?$\274\007/\320\241$<\305c\206"
 118      2F031F06 
 118      3F24BC07 
 118      2FD0A124 
 118      3CC56386 
 119 015d 667D4381 		.ascii	"f}C\201\342\261a\275Asn:*V\335\211\036\235\371%\236"
 119      E2B161BD 
 119      41736E3A 
 119      2A56DD89 
 119      1E9DF925 
 120 0172 CD5A3C8B 		.ascii	"\315Z<\2139,\334\207Y\247f\242Oi$+L\356\275e\314\367"
 120      392CDC87 
 120      59A766A2 
 120      4F69242B 
 120      4CEEBD65 
 121 0188 66DD1B1B 		.ascii	"f\335\033\033\275R\315\"w\000\317\004\224\177l\316M"
 121      BD52CD22 
 121      7700CF04 
 121      947F6CCE 
 121      4D
 122 0199 8642591C 		.ascii	"\206BY\034\204\231\332\034\206I\022\307\206\275\304"
 122      8499DA1C 
 122      864912C7 
 122      86BDC4
 123 01a8 A57D4716 		.ascii	"\245}G\0264K\231\213\372\201mbp\370\363\347I\377\020"
 123      344B998B 
 123      FA816D62 
 123      70F8F3E7 
 123      49FF10
ARM GAS  /tmp/ccNPZdK1.s 			page 9


 124 01bb 9E8C7C0A 		.ascii	"\236\214|\012\033v_\310\262\177\370\311\215\305\214"
 124      1B765FC8 
 124      B27FF8C9 
 124      8DC58C
 125 01ca FD51C6FE 		.ascii	"\375Q\306\376\0307){+\014\245w\334N\377~\222\321?>9"
 125      1837297B 
 125      2B0CA577 
 125      DC4EFF7E 
 125      92D13F3E 
 126 01df FD9EEEC4 		.ascii	"\375\236\356\304\243\344VF\237%Tw\336\204\222\360\327"
 126      A3E45646 
 126      9F255477 
 126      DE8492F0 
 126      D7
 127 01f0 787E41EB 		.ascii	"x~A\353\315\241!\346\011\245\340\204\2447\265\242+X"
 127      CDA121E6 
 127      09A5E084 
 127      A437B5A2 
 127      2B58
 128 0202 693D4E7A 		.ascii	"i=Nz{%\011\237d\031{\272h\260\012\013\330\0233\330p"
 128      7B25099F 
 128      64197BBA 
 128      68B00A0B 
 128      D81333D8 
 129 0217 2160EEDC 		.ascii	"!`\356\334\314z\307L`\243E\203Y\231\365\231\301.\026"
 129      CC7AC74C 
 129      60A34583 
 129      5999F599 
 129      C12E16
 130 022a 02362337 		.ascii	"\0026#7\263\255f\260\261\242\301\254\314\266\233\301"
 130      B3AD66B0 
 130      B1A2C1AC 
 130      CCB69BC1 
 131 023a 2E170256 		.ascii	".\027\002V\356\300\314\251\2303V\302'XJ}\207\347B\375"
 131      EEC0CCA9 
 131      983356C2 
 131      27584A7D 
 131      87E742FD 
 132 024e 3DAB0759 		.ascii	"=\253\007Y\375\003\253O\261\372GV\377\004u\246\344;"
 132      FD03AB4F 
 132      B1FA4756 
 132      FF0475A6 
 132      E43B
 133 0260 4B0F6F5F 		.ascii	"K\017o_\312\366\324\021\330\223\034J\331\366\224e\237"
 133      CAF6D411 
 133      D8931C4A 
 133      D9F69465 
 133      9F
 134 0271 6A1B2FD7 		.ascii	"j\033/\327\361t\016\000\234\367\317\2041\016\335dv\016"
 134      F1740E00 
 134      9CF7CF84 
 134      310EDD64 
 134      760E
 135 0283 3E5DC693 		.ascii	">]\306\223\256\324\330\307\311>\274\245\233\234]d\334"
 135      AED4D8C7 
 135      C93EBCA5 
 135      9B9C5D64 
ARM GAS  /tmp/ccNPZdK1.s 			page 10


 135      DC
 136 0294 027F158D 		.ascii	"\002\177\025\215XaFL\334\036\206%,\346\242\270\336\205"
 136      5861464C 
 136      DC1E8625 
 136      2CE6A2B8 
 136      DE85
 137 02a6 BBD94531 		.ascii	"\273\331E1\312\354\337\347\354\027E\211\355\242(\261"
 137      CAECDFE7 
 137      EC174589 
 137      EDA228B1 
 138 02b6 9E04259E 		.ascii	"\236\004%\236l#s\022\364\360\005x\341\264\337\234s\347"
 138      6C237312 
 138      F4F00578 
 138      E1B4DF9C 
 138      73E7
 139 02c8 A029770E 		.ascii	"\240)w\016\261\3349\314\262c\204\325\347'\313\021\012"
 139      B1DC39CC 
 139      B26384D5 
 139      E727CB11 
 139      0A
 140 02d9 B11F4FCD 		.ascii	"\261\037O\315\342\255\3413\372\034\372\210\267z\374"
 140      E2ADE133 
 140      FA1CFA88 
 140      B77AFC
 141 02e8 121A20A4 		.ascii	"\022\032 \244\017n\370\204\013nx\2276\225C\333\231\332"
 141      0F6EF884 
 141      0B6E7897 
 141      369543DB 
 141      99DA
 142 02fa 2E3C27C7 		.ascii	".<'\3071\251\033x\031\355\246\241\037\274\276\252A["
 142      31A91B78 
 142      19EDA6A1 
 142      1FBCBEAA 
 142      415B
 143 030c 52946796 		.ascii	"R\224g\226N\347\"\346\314\376jO\214\304\275\015#\230"
 143      4EE722E6 
 143      CCFE6A4F 
 143      8CC4BD0D 
 143      2398
 144 031e F491C7E9 		.ascii	"\364\221\307\3514o}aHx\331\254\234~\216YoW\215W\246"
 144      346F7D61 
 144      4878D9AC 
 144      9C7E8E59 
 144      6F578D57 
 145 0333 A311B247 		.ascii	"\243\021\262G\3403\307\010\220\273\201\006m\272\204"
 145      E033C708 
 145      90BB8106 
 145      6DBA84
 146 0342 2F014309 		.ascii	"/\001C\011'\363;\257O;!7\030\311\274\207\001\347\236"
 146      27F33BAF 
 146      4F3B2137 
 146      18C9BC87 
 146      01E79E
 147 0355 A6D36131 		.ascii	"\246\323a1#d3\371`\006f\316!}\226%\011~u\214\322\305"
 147      236433F9 
 147      600666CE 
 147      217D9625 
ARM GAS  /tmp/ccNPZdK1.s 			page 11


 147      097E758C 
 148 036b 33DEDEF7 		.ascii	"3\336\336\367S\351\364\234\302C\224\312\023\242\"^o"
 148      53E9F49C 
 148      C24394CA 
 148      13A2225E 
 148      6F
 149 037c 83FAEBED 		.ascii	"\203\372\353\355\032su?o\3377{\361\323\274\260lK\363"
 149      1A73753F 
 149      6FDF377B 
 149      F1D3BCB0 
 149      6C4BF3
 150 038f 6D8EE4FC 		.ascii	"m\216\344\374\367\027>\233\234\306\372\214\027\264>"
 150      F7173E9B 
 150      9CC6FA8C 
 150      17B43E
 151 039e 47E9FA68 		.ascii	"G\351\372h\244\207\030z\356i\327\362\254\317\270}}n"
 151      A487187A 
 151      EE69D7F2 
 151      ACCFB87D 
 151      7D6E
 152 03b0 4C5C9F14 		.ascii	"L\\\237\024\204\351\3367\345;\311\220\303C9\357\032"
 152      84E9DE37 
 152      E53BC990 
 152      C34339EF 
 152      1A
 153 03c1 DDB2AFD1 		.ascii	"\335\262\257\321\021\2074\316\364\2579\246\365\031["
 153      118734CE 
 153      F4AF39A6 
 153      F5195B
 154 03d0 EC0CA2B7 		.ascii	"\354\014\242\267\255D\347\241]\344\302\205\324\357W"
 154      AD44E7A1 
 154      5DE4C285 
 154      D4EF57
 155 03df 77E04D29 		.ascii	"w\340M)x|?I\247\361\263\250\227\275\301v\224\351\011"
 155      787C3F49 
 155      A7F1B3A8 
 155      97BDC176 
 155      94E909
 156 03f2 91DA9D28 		.ascii	"\221\332\235(\337\221M\010\267\301\027\033\011A_\355"
 156      DF914D08 
 156      B7C1171B 
 156      09415FED 
 157 0402 5C469994 		.ascii	"\\F\231\224\227;\353J\370ov~\335\323\223\203\016im\243"
 157      973BEB4A 
 157      F86F767E 
 157      DDD39383 
 157      0E696DA3 
 158 0416 95C694FB 		.ascii	"\225\306\224\373o\274\323\017\000\006\220\177\252nt"
 158      6FBCD30F 
 158      0006907F 
 158      AA6E74
 159 0425 9D61543B 		.ascii	"\235aT;\365\262\376h\232\316Z\022\276\017\236\323\302"
 159      F5B2FE68 
 159      9ACE5A12 
 159      BE0F9ED3 
 159      C2
 160 0436 1C2199FB 		.ascii	"\034!\231\373\322\353\311\271P\017Ll\274\236l\243\324"
ARM GAS  /tmp/ccNPZdK1.s 			page 12


 160      D2EBC9B9 
 160      500F4C6C 
 160      BC9E6CA3 
 160      D4
 161 0447 C2D9D002 		.ascii	"\302\331\320\002\317\256\332\317Q\033\011\270Tu\337"
 161      CFAEDACF 
 161      511B09B8 
 161      5475DF
 162 0456 255C8A8D 		.ascii	"%\\\212\215\345I<8M\334\207\310&\232Ffg\356f\235\261"
 162      E5493C38 
 162      4DDC87C8 
 162      269A4666 
 162      67EE669D 
 163 046b 3DF173B8 		.ascii	"=\361s\270<\341\207\300\177E\273\374$\207\313\231\013"
 163      3CE187C0 
 163      7F45BBFC 
 163      2487CB99 
 163      0B
 164 047c C6A205CD 		.ascii	"\306\242\005\315\207\366\323\323F\202C\017-.\333^+t"
 164      87F6D3D3 
 164      4682430F 
 164      2D2EDB5E 
 164      2B74
 165 048e 2FE4E242 		.ascii	"/\344\342B\270\214U=P\3113\223\005\252\303\000)\313"
 165      B88C553D 
 165      50C93393 
 165      05AAC300 
 165      29CB
 166 04a0 17289B96 		.ascii	"\027(\233\226\204\273\271b\003\325\3039\007j\232%P\206"
 166      84BBB962 
 166      03D5C339 
 166      076A9A25 
 166      5086
 167 04b2 562650A6 		.ascii	"V&P\246\363\310F\202C\033]\346@\241\027++\005\355O\211"
 167      F3C84682 
 167      431B5DE6 
 167      40A1172B 
 167      2B05ED4F 
 168 04c7 0921A94D 		.ascii	"\011!\251M\210E\375\364\277\330!\265U\372\321b\373p"
 168      8845FDF4 
 168      BFD821B5 
 168      55FAD162 
 168      FB70
 169 04d9 87125563 		.ascii	"\207\022UcB\313\352\346\232j\241\251\251^X\261\252q"
 169      42CBEAE6 
 169      9A6AA1A9 
 169      A95E58B1 
 169      AA71
 170 04eb E5BB55C6 		.ascii	"\345\273U\306\014\261\255-P\031B\336\260B\365\332\245"
 170      0CB1AD2D 
 170      501942DE 
 170      B042F5DA 
 170      A5
 171 04fc D83BA2FA 		.ascii	"\330;\242\372\314\2127\326T\324\2417\205\220\322.\013"
 171      CC8A37D6 
 171      54D4A137 
 171      8590D22E 
ARM GAS  /tmp/ccNPZdK1.s 			page 13


 171      0B
 172 050d 8AAA2A42 		.ascii	"\212\252*B\263\034Q\225\350\212\250\324\021\012\373"
 172      B31C5195 
 172      E88AA8D4 
 172      110AFB
 173 051c 014D8947 		.ascii	"\001M\211G\375rt\275X\247\004\344Z9\342\017\211MaU\026"
 173      FD7274BD 
 173      58A704E4 
 173      5A39E20F 
 173      894D6155 
 174 0531 834A545C 		.ascii	"\203JT\\\356k\026_]^\333(H\321\366\205\021%\"/\224\245"
 174      EE6B165F 
 174      5D5EDB28 
 174      48D1F685 
 174      1125222F 
 175 0547 D6B0108E 		.ascii	"\326\260\020\216\370\333\342\001Y\210\251\201pD\005"
 175      F8DBE201 
 175      5988A981 
 175      704405
 176 0556 93EE38FC 		.ascii	"\223\3568\374\257\251\026\325yv\306\206\252\341T\010"
 176      AFA916D5 
 176      7976C686 
 176      AAE15408 
 177 0566 9534AEAC 		.ascii	"\2254\256\254\215\307\226\232\025\375J{\273\022\021"
 177      8DC7969A 
 177      15FD4A7B 
 177      BB1211
 178 0575 E44E55A8 		.ascii	"\344NU\250knil\001\0175'_\253\352\354\004+\3555\325"
 178      6B6E696C 
 178      010F3527 
 178      5FABEAEC 
 178      042BED35 
 179 058a C1AA458B 		.ascii	"\301\252E\213:[\251w\324gq\365\372\016\271^\016\362"
 179      3A5BA977 
 179      D46771F5 
 179      FA0EB95E 
 179      0EF2
 180 059c 75BE2690 		.ascii	"u\276&\220\006\276\261\336\307\257\254\367\271j[|>\276"
 180      06BEB1DE 
 180      C7AFACF7 
 180      B96A5B7C 
 180      3EBE
 181 05ae D6E77335 		.ascii	"\326\347s5\325\275\356+\325\002\021\016@\030\264\206"
 181      D5BDEE2B 
 181      D502110E 
 181      4018B486 
 182 05be 8B06C54B 		.ascii	"\213\006\305K\311\212A)\246.\205\001%\030\214\311j)"
 182      C98A4129 
 182      A62E8501 
 182      25188CC9 
 182      6A29
 183 05d0 70F3C952 		.ascii	"p\363\311R\000\230\361\255\361\330T\350\256\215B\024"
 183      0098F1AD 
 183      F1D854E8 
 183      AE8D4214 
 184 05e0 A0EF6A0D 		.ascii	"\240\357j\015\2531wXi\207\360\210\3524\030i\221U\370"
 184      AB317758 
ARM GAS  /tmp/ccNPZdK1.s 			page 14


 184      6987F088 
 184      EA341869 
 184      9155F8
 185 05f3 DE0C7D17 		.ascii	"\336\014}\027\3758\313\210\275\010@oG\225x\007\375\352"
 185      FD38CB88 
 185      BD08406F 
 185      47957807 
 185      FDEA
 186 0605 F287A4A8 		.ascii	"\362\207\244\250[\024\203\361\210_\024\247\031\215\312"
 186      5B1483F1 
 186      885F14A7 
 186      198DCA
 187 0614 258B9754 		.ascii	"%\213\227TYzK\314\275W\252\376\007\230\235\250\242"
 187      597A4BCC 
 187      BD57AAFE 
 187      07989DA8 
 187      A2
 188              		.text
 189              		.section	.gnu.lto_.symtab.9a3b4e4a01bcf7db,"",%progbits
 190 0000 70616C52 		.ascii	"palReadBus\000\000\000\000\000\000\000\000\000\000\000"
 190      65616442 
 190      75730000 
 190      00000000 
 190      00000000 
 191 0015 00A10000 		.ascii	"\000\241\000\000\000palWriteBus\000\000\000\000\000"
 191      0070616C 
 191      57726974 
 191      65427573 
 191      00000000 
 192 002a 00000000 		.ascii	"\000\000\000\000\000\000\000\326\000\000\000palSetB"
 192      000000D6 
 192      00000070 
 192      616C5365 
 192      7442
 193 003c 75734D6F 		.ascii	"usMode\000\000\000\000\000\000\000\000\000\000\000\000"
 193      64650000 
 193      00000000 
 193      00000000 
 193      0000
 194 004e DF000000 		.ascii	"\337\000\000\000_pal_lld_setgroupmode\000\000\002\000"
 194      5F70616C 
 194      5F6C6C64 
 194      5F736574 
 194      67726F75 
 195 006b 00000000 		.ascii	"\000\000\000\000\000\000\000\000\353\000\000\000"
 195      00000000 
 195      EB000000 
 196              		.text
 197              		.section	.gnu.lto_.opts,"",%progbits
 198 0000 272D6D63 		.ascii	"'-mcpu=cortex-m3' '-mno-thumb-interwork' '-mthumb' "
 198      70753D63 
 198      6F727465 
 198      782D6D33 
 198      2720272D 
 199 0033 272D6767 		.ascii	"'-ggdb' '-O2' '-fomit-frame-pointer' '-falign-funct"
 199      64622720 
 199      272D4F32 
ARM GAS  /tmp/ccNPZdK1.s 			page 15


 199      2720272D 
 199      666F6D69 
 200 0066 696F6E73 		.ascii	"ions=16' '-ffunction-sections' '-fdata-sections' '-"
 200      3D313627 
 200      20272D66 
 200      66756E63 
 200      74696F6E 
 201 0099 666E6F2D 		.ascii	"fno-common' '-flto'\000"
 201      636F6D6D 
 201      6F6E2720 
 201      272D666C 
 201      746F2700 
 202              		.text
 203              		.cfi_sections	.debug_frame
 204              		.section	.text.palReadBus,"ax",%progbits
 205              		.align	2
 206              		.p2align 4,,15
 207              		.global	palReadBus
 208              		.thumb
 209              		.thumb_func
 210              		.type	palReadBus, %function
 211              	palReadBus:
 212              	.LFB219:
 213              		.file 1 "../../../os/hal/src/hal_pal.c"
 214              		.loc 1 65 0
 215              		.cfi_startproc
 216              		@ args = 0, pretend = 0, frame = 0
 217              		@ frame_needed = 0, uses_anonymous_args = 0
 218              		@ link register save eliminated.
 219              	.LVL0:
 220              		.loc 1 69 0
 221 0000 0368     		ldr	r3, [r0]
 222 0002 8268     		ldr	r2, [r0, #8]
 223 0004 9968     		ldr	r1, [r3, #8]
 224 0006 4368     		ldr	r3, [r0, #4]
 225 0008 21FA02F0 		lsr	r0, r1, r2
 226              	.LVL1:
 227              		.loc 1 70 0
 228 000c 1840     		ands	r0, r0, r3
 229 000e 7047     		bx	lr
 230              		.cfi_endproc
 231              	.LFE219:
 232              		.size	palReadBus, .-palReadBus
 233              		.section	.text.palWriteBus,"ax",%progbits
 234              		.align	2
 235              		.p2align 4,,15
 236              		.global	palWriteBus
 237              		.thumb
 238              		.thumb_func
 239              		.type	palWriteBus, %function
 240              	palWriteBus:
 241              	.LFB220:
 242              		.loc 1 90 0
 243              		.cfi_startproc
 244              		@ args = 0, pretend = 0, frame = 0
 245              		@ frame_needed = 0, uses_anonymous_args = 0
 246              		@ link register save eliminated.
ARM GAS  /tmp/ccNPZdK1.s 			page 16


 247              	.LVL2:
 248              		.loc 1 94 0
 249 0000 4268     		ldr	r2, [r0, #4]
 250 0002 8368     		ldr	r3, [r0, #8]
 251              		.loc 1 90 0
 252 0004 30B4     		push	{r4, r5}
 253              		.cfi_def_cfa_offset 8
 254              		.cfi_offset 4, -8
 255              		.cfi_offset 5, -4
 256              		.loc 1 94 0
 257 0006 22EA0105 		bic	r5, r2, r1
 258 000a 03F11004 		add	r4, r3, #16
 259 000e 0A40     		ands	r2, r2, r1
 260 0010 02FA03F3 		lsl	r3, r2, r3
 261 0014 05FA04F2 		lsl	r2, r5, r4
 262              		.loc 1 95 0
 263 0018 30BC     		pop	{r4, r5}
 264              		.loc 1 94 0
 265 001a 0068     		ldr	r0, [r0]
 266              	.LVL3:
 267 001c 1343     		orrs	r3, r3, r2
 268 001e 0361     		str	r3, [r0, #16]
 269              		.loc 1 95 0
 270 0020 7047     		bx	lr
 271              		.cfi_endproc
 272              	.LFE220:
 273              		.size	palWriteBus, .-palWriteBus
 274 0022 00BFAFF3 		.section	.text.palSetBusMode,"ax",%progbits
 274      0080AFF3 
 274      0080AFF3 
 274      0080
 275              		.align	2
 276              		.p2align 4,,15
 277              		.global	palSetBusMode
 278              		.thumb
 279              		.thumb_func
 280              		.type	palSetBusMode, %function
 281              	palSetBusMode:
 282              	.LFB221:
 283              		.loc 1 113 0
 284              		.cfi_startproc
 285              		@ args = 0, pretend = 0, frame = 0
 286              		@ frame_needed = 0, uses_anonymous_args = 0
 287              		@ link register save eliminated.
 288              	.LVL4:
 289 0000 10B4     		push	{r4}
 290              		.cfi_def_cfa_offset 4
 291              		.cfi_offset 4, -4
 292              		.loc 1 117 0
 293 0002 8368     		ldr	r3, [r0, #8]
 294 0004 4468     		ldr	r4, [r0, #4]
 295              		.loc 1 113 0
 296 0006 0A46     		mov	r2, r1
 297              		.loc 1 117 0
 298 0008 0068     		ldr	r0, [r0]
 299              	.LVL5:
 300 000a 04FA03F1 		lsl	r1, r4, r3
ARM GAS  /tmp/ccNPZdK1.s 			page 17


 301              	.LVL6:
 302              		.loc 1 118 0
 303 000e 5DF8044B 		ldr	r4, [sp], #4
 304              		.loc 1 117 0
 305 0012 FFF7FEBF 		b	_pal_lld_setgroupmode
 306              	.LVL7:
 307              		.cfi_endproc
 308              	.LFE221:
 309              		.size	palSetBusMode, .-palSetBusMode
 310 0016 00BFAFF3 		.text
 310      0080AFF3 
 310      0080
 311              	.Letext0:
 312              		.file 2 "/home/otto/MentorGraphics/Sourcery_CodeBench_Lite_for_ARM_EABI/arm-none-eabi/include/stdi
 313              		.file 3 "../../../os/common/ports/ARMCMx/compilers/GCC/chtypes.h"
 314              		.file 4 "../../../os/rt/include/chsystypes.h"
 315              		.file 5 "../../../os/rt/include/chschd.h"
 316              		.file 6 "../../../os/common/ext/CMSIS/ST/STM32F1xx/stm32f100xb.h"
 317              		.file 7 "../../../os/common/ports/ARMCMx/chcore.h"
 318              		.file 8 "../../../os/common/ports/ARMCMx/chcore_v7m.h"
 319              		.file 9 "../../../os/rt/include/chsem.h"
 320              		.file 10 "../../../os/rt/include/chmtx.h"
 321              		.file 11 "../../../os/hal/ports/STM32/LLD/GPIOv1/hal_pal_lld.h"
 322              		.file 12 "../../../os/hal/include/hal_pal.h"
 323              		.file 13 "../../../os/common/ext/CMSIS/include/core_cm3.h"