ARM GAS  /tmp/ccUJk4UB.s 			page 1


   1              		.syntax unified
   2              		.cpu cortex-m3
   3              		.fpu softvfp
   4              		.eabi_attribute 20, 1
   5              		.eabi_attribute 21, 1
   6              		.eabi_attribute 23, 3
   7              		.eabi_attribute 24, 1
   8              		.eabi_attribute 25, 1
   9              		.eabi_attribute 26, 1
  10              		.eabi_attribute 30, 2
  11              		.eabi_attribute 34, 1
  12              		.eabi_attribute 18, 4
  13              		.thumb
  14              		.file	"main.c"
  15              		.text
  16              	.Ltext0:
  17              		.section	.gnu.lto_.jmpfuncs.a0e79b90993c279,"",%progbits
  18 0000 789C6362 		.ascii	"x\234cb`b\300\006^BiF b\212`\314dd\370\302\014bV3\374"
  18      6062C006 
  18      5E426946 
  18      20628A60 
  18      CC6464F8 
  19 001a 6AE86810 		.ascii	"j\350h\020\310dd\314e\004+`\302\"\004R\0172\026\252"
  19      C86464CC 
  19      65042B60 
  19      C2220452 
  19      0F3216AA 
  20 002e B3431DBF 		.ascii	"\263C\035\2772f<rpC.\360\203\024\202\230\314\015\023"
  20      32663C72 
  20      70432EF0 
  20      83148298 
  20      CC0D13
  21 0041 5A1A58A0 		.ascii	"Z\032X\240jX\032\230\240,V\001\242\335\007\027a\313"
  21      6A581A98 
  21      A02C5601 
  21      A2DD0717 
  21      61CB
  22 0053 6564847A 		.ascii	"ed\204z\024\000\364\300(\214"
  22      1400F4C0 
  22      288C
  23              		.text
  24              		.section	.gnu.lto_.inline.a0e79b90993c279,"",%progbits
  25 0000 789C6362 		.ascii	"x\234cb`b\300\006\222\2414#\003\203\322YNF\006&\266"
  25      6062C006 
  25      92A13423 
  25      0383D259 
  25      4E460626 
  26 0015 0F7A0C2C 		.ascii	"\017z\014,\020\305L\334\214@q&n\220,3\017\003H\020\205"
  26      10C54CDC 
  26      8C407126 
  26      6E902C33 
  26      0F034810 
  27 002a C3C2CBC0 		.ascii	"\303\302\313\300\300\314\3000\301\017\"\012\345\242"
  27      C0CCC030 
  27      C10F220A 
  27      E5A2
  28 0038 AA61E462 		.ascii	"\252a\344b\200\022\014\0001\356\004$"
ARM GAS  /tmp/ccUJk4UB.s 			page 2


  28      80120C00 
  28      31EE0424 
  29              		.text
  30              		.section	.gnu.lto_.pureconst.a0e79b90993c279,"",%progbits
  31 0000 789C6362 		.ascii	"x\234cb`b`f\200\000F\006\023\000\000\237\000="
  31      60626066 
  31      80004606 
  31      1300009F 
  31      003D
  32              		.text
  33              		.section	.gnu.lto_main.a0e79b90993c279,"",%progbits
  34 0000 789C8D53 		.ascii	"x\234\215S=OTA\024=g\346-\273\357-\302\362e\253\235"
  34      3D4F5441 
  34      143D67E6 
  34      2DBBEF2D 
  34      C2F265AB 
  35 0015 89462B42 		.ascii	"\211F+Bl-i\254 \201r\231\302L\261\326$$2\270\213!&&"
  35      6C2D69AC 
  35      20817299 
  35      C24CB1D6 
  35      242432B8 
  36 002d AF9606FE 		.ascii	"\257\226\006\376\000\366\232\210%\015\037\011\015!\004"
  36      00F69A88 
  36      250D1F09 
  36      0D2104
  37 003c 1E3F002A 		.ascii	"\036?\000**\033\230;\363\326\250\017\320I\336|\335s"
  37      2A1B983B 
  37      F3D6A80F 
  37      D049DE7C 
  37      DD73
  38 004e CEBDEFDE 		.ascii	"\316\275\357\336;\012\012\177\217\347\376kk \365+k\240"
  38      3B0A0A7F 
  38      8FE7FE6B 
  38      6B20F52B 
  38      6BA0
  39 0060 CAF78095 		.ascii	"\312\367\200\225\206\242\216\033\315$n\222x\363\212"
  39      86A28E1B 
  39      CD246E92 
  39      78F38A
  40 006f 58563AE1 		.ascii	"XV:\341\362<\003\377\213\372Q\\_o\235l\234/r4\205%2"
  40      F23C03FF 
  40      8BFA515C 
  40      5F6F9D6C 
  40      9C2F7234 
  41 0086 999A32F9 		.ascii	"\231\2322\371QC\317\271\3741`\302q\306\317\304,\025"
  41      5143CFB9 
  41      FC3160C2 
  41      71C6CFC4 
  41      2C15
  42 0098 A8F7D12D 		.ascii	"\250\367\321-\276N\266\271\351\335\002K\370\351\326"
  42      BE4EB6B9 
  42      E9DD024B 
  42      F8E9D6
  43 00a7 5CCB9286 		.ascii	"\\\313\222\206Q\331z\024\004\364\355\345m \365;h\265"
  43      51D97A14 
  43      04F4EDE5 
  43      6D20F53B 
ARM GAS  /tmp/ccUJk4UB.s 			page 3


  43      68B5
  44 00b9 F83E5501 		.ascii	"\370>U\001iC\035@r\323\260L:D\011\212\0307oY\353\220"
  44      69431D40 
  44      72D3B04C 
  44      3A44098A 
  44      18376F59 
  45 00cf E5A5E580 		.ascii	"\345\245\345\200h\365\212\355\234\025\261\272ar\207"
  45      68F58AED 
  45      9C15B1BA 
  45      617287
  46 00de 98654378 		.ascii	"\230eCx\037\212\235\201\012-5\341\014\314\3212sy\317"
  46      1F8A9D81 
  46      0A2D35E1 
  46      0CCCD132 
  46      7379CF
  47 00f1 25610BA7 		.ascii	"%a\013\247\302\332ly\372`p\2731]a?0\022R\311\036:\030"
  47      C2DA6C79 
  47      FA6070BB 
  47      315D613F 
  47      301252C9 
  48 0108 F6D86160 		.ascii	"\366\330a`\027\357\217\217\016\037E\364\033\246\317"
  48      17EF8F8F 
  48      0E1F45F4 
  48      1BA6CF
  49 0117 F0D4B2B5 		.ascii	"\360\324\262\265\216\317+NH#\277\350\022cI\216\261/"
  49      8ECF2B4E 
  49      4823BFE8 
  49      1263498E 
  49      B12F
  50 0129 B05FF65D 		.ascii	"\260_\366]t?\352\276B\346EBP\227\265h\372\324\335b\337"
  50      743FEABE 
  50      42E64542 
  50      5097B568 
  50      FAD4DD62 
  51 013e D8F4F660 		.ascii	"\330\364\366`\314_C\342\254\376\343\250a\375\216\324"
  51      CC5F43E2 
  51      ACFEE3A8 
  51      61FD8ED4 
  52 014e 08710CA2 		.ascii	"\010q\014\242b9\036\013\265\377\256\"0a$\203\367\011"
  52      62391E0B 
  52      B5FFAE22 
  52      30612483 
  52      F709
  53 0160 583E8CA5 		.ascii	"X>\214\2459\252\272\3773IkOb\222\304\325\351\334m\256"
  53      39AABAFF 
  53      33496B4F 
  53      6292C4D5 
  53      E9DC6DAE 
  54 0174 D2FF7475 		.ascii	"\322\377tuV\355M\337\004\331}M c\3267\235\177(Z$.\262"
  54      56ED4DDF 
  54      04D97D4D 
  54      2063D637 
  54      9D7F285A 
  55 018b 7F447BA5 		.ascii	"\177D{\245c\264\361m$B\344L\331\377\250w\332\366\355"
  55      63B4F16D 
  55      2442E44C 
  55      D9FFA877 
ARM GAS  /tmp/ccUJk4UB.s 			page 4


  55      DAF6ED
  56 019e 0B831B5A 		.ascii	"\013\203\033Z\240\305\""
  56      A0C522
  57              		.text
  58              		.section	.gnu.lto_.symbol_nodes.a0e79b90993c279,"",%progbits
  59 0000 789C45C9 		.ascii	"x\234E\311\273\015\302@\020\204\341\231;\237_\270\007"
  59      BB0DC240 
  59      1084E199 
  59      3B9F5FB8 
  59      07
  60 0011 6AA482B5 		.ascii	"j\244\202\265d\011\247T@r]\220:!\242\001^6g \241\006"
  60      6409A754 
  60      40725D90 
  60      3A21A201 
  60      5E366720 
  61 0027 847D96D8 		.ascii	"\204}\226\330M>\375;\006\006\025\261\234\271P\200\335"
  61      4D3EFD3B 
  61      060615B1 
  61      9CB95080 
  61      DD
  62 0038 0910D91F 		.ascii	"\011\020\331\037\215\353\247A\340\316d\"\226\201\302"
  62      8DEBA741 
  62      E0CE6422 
  62      9681C2
  63 0047 65AC6BF2 		.ascii	"e\254k\362M1Z/\212\325zR\022\255\221\342\264\036\224"
  63      4D315A2F 
  63      8AD57A52 
  63      12AD91E2 
  63      B41E94
  64 005a 546BA064 		.ascii	"Tk\240dZwJ\256u\243\024ZWJ\371/\213\012M\377\235\\\301"
  64      5A774AAE 
  64      75A3145A 
  64      574AF92F 
  64      8B0A4DFF 
  65 0071 474B74D1 		.ascii	"GKt\321\002!\232\243\031f-|4\203\337~\326\026)\272\250"
  65      02219AA3 
  65      19662D7C 
  65      3483DF7E 
  65      D61629BA 
  66 0086 45883A34 		.ascii	"E\210:4\355l\002\337.\377\256\035\017\033\374\000\335"
  66      ED6C02DF 
  66      2EFFAE1D 
  66      0F1BFC00 
  66      DD
  67 0097 CC5106   		.ascii	"\314Q\006"
  68              		.text
  69              		.section	.gnu.lto_.refs.a0e79b90993c279,"",%progbits
  70 0000 789C6362 		.ascii	"x\234cb`b\020f\200\000\016\006&F&&&F\006F&(d\000\000"
  70      60621066 
  70      80000E06 
  70      26462626 
  70      26460646 
  71 0019 04100037 		.ascii	"\004\020\0007"
  72              		.text
  73              		.section	.gnu.lto_.decls.a0e79b90993c279,"",%progbits
  74 0000 789CAD5A 		.ascii	"x\234\255Z{p\023\307\031\277\275\023~\200K S\036\235"
  74      7B7013C7 
ARM GAS  /tmp/ccUJk4UB.s 			page 5


  74      19BFBD13 
  74      7E804B20 
  74      531E9D
  75 0013 A14579D0 		.ascii	"\241Ey\320a\230\011\302&\315\360\017\014Fv\300Sl\034"
  75      619809C2 
  75      26CDF00F 
  75      0C4676C0 
  75      536C1C
  76 0026 C9A464DA 		.ascii	"\311\244d\332\242\036\262\214Ud\311\221\016\012\177"
  76      A21EB28C 
  76      5564C991 
  76      0E0A7F
  77 0035 E56C0CA5 		.ascii	"\345l\014\245.M\225\004\034H\\c\023\336\201\224\001"
  77      2E4D9504 
  77      1C485C63 
  77      13DE8194 
  77      01
  78 0046 0C8460A2 		.ascii	"\014\204`\2428\205\270SB\030^.\030\007\2713NB\200\222"
  78      3885B853 
  78      42185E2E 
  78      1807B933 
  78      4E428092 
  79 005a 90104AA1 		.ascii	"\220\020J\241V\277\335\273\323\355\235\357\344\223&"
  79      56BFDDBB 
  79      D3ED9DEF 
  79      E49326
  80 0069 37DEEFF6 		.ascii	"7\336\357\366V\373\375\366\367\355\367\355\343\366\314"
  80      56FBFDF6 
  80      F7EDF7ED 
  80      E3F6CC
  81 0078 322C3319 		.ascii	"2,3\0311L\002\256\376'\031\306mc\240\204afA\312\206"
  81      314C02AE 
  81      FE2719C6 
  81      6D63A084 
  81      616641CA 
  82 008d C4416A83 		.ascii	"\304Aj\203t\023\322\024$\225\315\202{!$|\215\2004\007"
  82      7413D214 
  82      2495CD82 
  82      7B21247C 
  82      8D803407 
  83 00a1 F2C59016 		.ascii	"\362\305\220\026@z\016\322\363\220\026AZ\014\351\267"
  83      407A0ED2 
  83      F3901641 
  83      5A0CE9B7 
  84 00b1 9002905E 		.ascii	"\220\002\220^\204$ \011{\005\334W\312\372\312\2051\306"
  84      84242009 
  84      7B05DC57 
  84      CAFACA85 
  84      31C6
  85 00c3 C96D8A90 		.ascii	"\311m\212\220\017C\252CR\333\270\255\032H\247!\337\005"
  85      0F43AA43 
  85      52DBB8AD 
  85      1A48A721 
  85      DF05
  86 00d5 A91E495C 		.ascii	"\251\036I\\0\017\017\244\325H\342\371,\334;\341\276"
  86      300F0FA4 
  86      D548E2F9 
ARM GAS  /tmp/ccUJk4UB.s 			page 6


  86      2CDC3BE1 
  86      BE
  87 00e6 15520392 		.ascii	"\025R\003\2228\277\000\3675\220\\\220p\223\375\024g"
  87      38BF00F7 
  87      35905C90 
  87      7093FD14 
  87      67
  88 00f7 41E61590 		.ascii	"A\346\025\220y.\226\355X$\333\360\234l\223\031\347\021"
  88      792E96ED 
  88      5824DBF0 
  88      9C6C9319 
  88      E711
  89 0109 4CA328D6 		.ascii	"L\243(\326\213\255k\305y]#\037e^\021\341\262w\215\304"
  89      8BAD6BC5 
  89      795D231F 
  89      655E11E1 
  89      B2778DC4 
  90 011d 003C1A99 		.ascii	"\000<\032\231\313\304\021\311\345\3452\023\240\366$"
  90      CBC411C9 
  90      E5E53213 
  90      A0F624
  91 012c 669B2846 		.ascii	"f\233(F\343\375_\236\345D1\207G[\321\243\200<\0111S"
  91      E3FD5F9E 
  91      E5443187 
  91      475BD1A3 
  91      803C0931 
  92 0141 98DDA018 		.ascii	"\230\335\240\030\025\305\177\215c\006_C\342\362h\033"
  92      15C57F8D 
  92      63065F43 
  92      E2F2681B 
  93 0151 6241EE00 		.ascii	"bA\356\000<\036mGS\244\226\304x\357\276#\343IK\370\027"
  93      3C1E6D47 
  93      53A496C4 
  93      78EFBE23 
  93      E3494BF8 
  94 0166 46FECDE0 		.ascii	"F\376\315\340z\214i\0053b\327zZ\306\211\361\030\312"
  94      7A8C6905 
  94      3362D77A 
  94      5AC689F1 
  94      18CA
  95 0178 66D662AB 		.ascii	"f\326b\253\342k\352\307oR\333\314Q\232D\252)'?\037/"
  95      E26BEAC7 
  95      6F52DBCC 
  95      519A44AA 
  95      29273F1F 
  96 018d DA78B41B 		.ascii	"\332x\264\033TXf\031\322\264`\001\005S\332\013\2724"
  96      54586619 
  96      D2B46001 
  96      0553DA0B 
  96      BA34
  97 019f E958FBDA 		.ascii	"\351X\373\332G0&.OA\231\303>a\261S0\236-W-\252C\311"
  97      4730262E 
  97      4F4199C3 
  97      3E61B153 
  97      309E2D57 
  98 01b7 3244D56C 		.ascii	"2D\325lT\213Y\031\003?\242\\5\223\320z\227\346\306\243"
  98      548B5919 
ARM GAS  /tmp/ccUJk4UB.s 			page 7


  98      033FA25C 
  98      3593D07A 
  98      97E6C6A3 
  99 01cb 7D6812C8 		.ascii	"}h\022\310w\020g\250\3062\033\020\222]`d\251\234U\333"
  99      771067A8 
  99      C6321B10 
  99      925D6064 
  99      A99C55DB 
 100 01df 1DA93CC8 		.ascii	"\035\251<\310\235\037\357\275ud\326f1\326\300\031\305"
 100      9D1FEFBD 
 100      7564D666 
 100      31D6C019 
 100      C5
 101 01f0 14D44094 		.ascii	"\024\324@\224\373c\234\0028#\351\213XG\017\262\033\204"
 101      FB639C02 
 101      3823E98B 
 101      58470FB2 
 101      1B84
 102 0202 8AB62E8F 		.ascii	"\212\266.\217\216\202\035CV\303\025\217\351\242)\266"
 102      8E821D43 
 102      56C3158F 
 102      E9A229B6 
 103 0212 F94A1E76 		.ascii	"\371J\036v\3141K\261\324~\245\345Gbk't\317:\325\232"
 103      CC314BB1 
 103      D47EA5E5 
 103      47626B27 
 103      74CF3AD5 
 104 0227 646B76A5 		.ascii	"dkv\2451\233\032Kw\033/|\215\352\301P\036u \354\244"
 104      319B1A4B 
 104      771B2F7C 
 104      8DEAC150 
 104      1E7520EC 
 105 023c FB481B50 		.ascii	"\373H\033P<\312\316\245[\"\317J\005\214\227\235\253"
 105      3CCACEA5 
 105      5B22CF4A 
 105      058C979D 
 105      AB
 106 024d 66F06CF6 		.ascii	"f\360l\366\010\366K=\213dc\214\332\266\340\227\266\366"
 106      08F64B3D 
 106      8B64638C 
 106      DAB6E097 
 106      B6F6
 107 025f 99C42F96 		.ascii	"\231\304/\226-\211u\274>\006wT'\261b=\253\267\242\003"
 107      2D8975BC 
 107      3E067754 
 107      27B1623D 
 107      ABB7A203 
 108 0273 6560C6C6 		.ascii	"e`\306\306\264\315\260k\374\321+\373C\023]c\231\215"
 108      B4CDB06B 
 108      FCD12BFB 
 108      43135D63 
 108      998D
 109 0285 24BA60A0 		.ascii	"$\272`\240\"\201G\263\306\030\202c\212]h\254:\354pA"
 109      228147B3 
 109      C6188263 
 109      8A5D68AC 
 109      3AEC7041 
ARM GAS  /tmp/ccUJk4UB.s 			page 8


 110 0299 1B20F168 		.ascii	"\033 \361h!\2274#\205gO\376;\306\222i\350#Pb\231f]\217"
 110      21973423 
 110      85674FFE 
 110      3BC69269 
 110      E8235062 
 111 02b1 6828494D 		.ascii	"h(IM\231\3218MZ5\212\274A\277\261\314\036+]\226c\346"
 111      99D1384D 
 111      5A358ABC 
 111      41BFB1CC 
 111      1E2B5D96 
 112 02c7 79983DAF 		.ascii	"y\230=\257\267\317\254\303\236\037\315D\345\341\242"
 112      B7CFACC3 
 112      9E1FCD44 
 112      E5E1A2
 113 02d6 0CC7D954 		.ascii	"\014\307\331T\004\314\246\241\344\010Ht#;\217\316\222"
 113      04CCA6A1 
 113      E4084874 
 113      233B8FCE 
 113      92
 114 02e7 F9FDA0CE 		.ascii	"\371\375\240\316\334!1\2601\347\365\203\257\273\233"
 114      DC2131B0 
 114      31E7F583 
 114      AFBB9B
 115 02f6 0CBEF3D6 		.ascii	"\014\276\363\326&\362\3564\007_,\321DB\366\022\011\331"
 115      26F2EE34 
 115      075F2CD1 
 115      4442F612 
 115      09D9
 116 0308 BF7D3F21 		.ascii	"\277}?!{\206\300\234\317t\344\305\036\310VHq\303\243"
 116      7B86C09C 
 116      CF74E4C5 
 116      1EC85648 
 116      71C3A3
 117 031b 8FC92297 		.ascii	"\217\311\"\227\016\236\335\250\217\024\023\324.\346"
 117      0E9EDDA8 
 117      8F1413D4 
 117      2EE6
 118 0329 D10532B9 		.ascii	"\321\0052\271_D\217\201\274\0022y\311@\"\253\340\333"
 118      5F448F81 
 118      BC023279 
 118      C94022AB 
 118      E0DB
 119 033b 65ED4FD0 		.ascii	"e\355O\320h\222#],&\203\027j\230\305n\217\334\207I\242"
 119      6892235D 
 119      2C268317 
 119      6A98C56E 
 119      8FDC8749 
 120 0350 72461942 		.ascii	"rF\031B,s^\037\260\332f\215\"\326\256\351\261hO^\224"
 120      2C735E1F 
 120      B0DA668D 
 120      22D6AEE9 
 120      B1684F5E 
 121 0365 57A6CFAB 		.ascii	"W\246\317\253V\302\177\2629X3\015\026\267\0026\315\334"
 121      56C27FB2 
 121      3958330D 
 121      16B70236 
 121      CDDC
ARM GAS  /tmp/ccUJk4UB.s 			page 9


 122 0377 97C768B0 		.ascii	"\227\307h\260\376\264\301\364\216T\374\366\036\361\333"
 122      FEB4C1F4 
 122      8E54FCF6 
 122      1EF1DB
 123 0386 71E2B70F 		.ascii	"q\342\267\017\210<E\344\031\"{\211\274Fd\037\355U\226"
 123      883C45E4 
 123      19227B89 
 123      BC46641F 
 123      ED5596
 124 0399 F9725088 		.ascii	"\371rP\210K\313\032\325\202\272\3761\231\264a\026\006"
 124      4BCB1AD5 
 124      82BAFE31 
 124      99B46116 
 124      06
 125 03aa 87D10895 		.ascii	"\207\321\010\225\306\267\254n\323\220\346\254> u+\036"
 125      C6B7AC6E 
 125      D390E6AC 
 125      3E20752B 
 125      1E
 126 03bb E93C3A99 		.ascii	"\351<:\231\334\004f2\337\325\307\232>\0050\353S\306"
 126      DC046632 
 126      DFD5C79A 
 126      3E0530EB 
 126      53C6
 127 03cd 416995FB 		.ascii	"Ai\225\373\234\270\364\301\3673e\374\236\263\320\037"
 127      9CB8F4C1 
 127      F73365FC 
 127      9EB3D01F 
 128 03dd 2906C096 		.ascii	")\006\300\226O\245\035\254lE|\2738\304\0166\266\271"
 128      4FA51DAC 
 128      6C457CBB 
 128      38C40E36 
 128      B6B9
 129 03ef FB87D88A 		.ascii	"\373\207\330\212\233\304\212?sZ+,\303\300\346e\237\203"
 129      9BC48A3F 
 129      735A2B2C 
 129      C3C0E665 
 129      9F83
 130 0401 2C71B709 		.ascii	",q\267\011P3\247\357\016}o mo\244\334\206\016Q\227G"
 130      5033A7EF 
 130      0E7D6F20 
 130      6D6FA4DC 
 130      860E5197 
 131 0416 57F59E37 		.ascii	"W\365\2367\332{\2162\365|\274\367\177\307\245=\2162"
 131      DA7B8E32 
 131      F57CBCF7 
 131      7FC7A53D 
 131      8E32
 132 0428 42B759F1 		.ascii	"B\267Y\361\203\006P\353\207\356\226-\203w\033\006\273"
 132      830650EB 
 132      87EE962D 
 132      83771B06 
 132      BB
 133 0439 4E314B01 		.ascii	"N1K\001\373\215\332\227\355o\336{\206\364\345wd\375"
 133      FB8DDA97 
 133      ED6FDE7B 
 133      86F4E577 
ARM GAS  /tmp/ccUJk4UB.s 			page 10


 133      64FD
 134 044b ECE50CD7 		.ascii	"\354\345\014\327Os\030\334#\367\365\353\347k=d\375\274"
 134      4F7318DC 
 134      23F7F5EB 
 134      E76B3D64 
 134      FDBC
 135 045d 3FF4FAD9 		.ascii	"?\364\372\331\260:\266\261\247Y]?W\247\034\014<:A\346"
 135      B03AB6B1 
 135      A7595D3F 
 135      57A71C0C 
 135      3C3A41E6 
 136 0471 202BD17D 		.ascii	" +\321}\235Xr?\263\005\021h5I\243\375!q\321\255\264"
 136      9D58723F 
 136      B3051168 
 136      3549A3FD 
 136      2171D1AD 
 137 0486 C1EC1AB0 		.ascii	"\301\354\032\260M4\330\327V\300\314\246\016\000{\203"
 137      4D34D8D7 
 137      56C0CCA6 
 137      0E007B83 
 138 0496 06FB2E6D 		.ascii	"\006\373.m0-\263f\032\354\201\0250\263\320\006\260\026"
 138      302DB366 
 138      1AEC8115 
 138      30B3D006 
 138      B016
 139 04a8 1A6C206D 		.ascii	"\032l m0-\263\3754X\275\315\002\330xsf\007h\260ui\203"
 139      302DB3FD 
 139      3458BDCD 
 139      02D87873 
 139      660768B0 
 140 04bf 69991DA2 		.ascii	"i\231\035\242\301^\266\002f7gv\230\006{-m0-\263\243"
 140      C15EB602 
 140      66376776 
 140      98067B2D 
 140      6D302DB3 
 141 04d4 34D8EB56 		.ascii	"4\330\353V\300&\2333;F\203\275\2316\230\226\331q\032"
 141      C0269B33 
 141      3B4683BD 
 141      99369896 
 141      D9711A
 142 04e7 6C8B1530 		.ascii	"l\213\0250\263\015NC]\354\304/\243\274\372\236 \241"
 142      B30D4E43 
 142      5DECC42F 
 142      A3BCFA9E 
 142      20A1
 143 04f9 2AB313D2 		.ascii	"*\263\023\322\206\026]\255\303\274\032\2176\261\243"
 143      86165DAD 
 143      C3BC1A8F 
 143      36B1A3
 144 0508 E55C0FBD 		.ascii	"\345\\\017\275|P\217,\363\226\236\267\026&\305fJ\356"
 144      7C508F2C 
 144      F3969EB7 
 144      1626C566 
 144      4AEE
 145 051a 85B3742F 		.ascii	"\205\263t/\354\264\322\013\263\315\301\316\321`{\255"
 145      ECB4D20B 
 145      B3CDC1CE 
ARM GAS  /tmp/ccUJk4UB.s 			page 11


 145      D1607BAD 
 146 052a 80CD3377 		.ascii	"\200\3153w\366\005\032l\177\332`Zf\227h\260v+`\345\346"
 146      F6051A6C 
 146      7FDA605A 
 146      669768B0 
 146      762B60E5 
 147 053f CCFE4983 		.ascii	"\314\376I\203\035M\033\214fV\027\273\242F\016~'\324"
 147      1D4D1B8C 
 147      665617BB 
 147      A2460E7E 
 147      27D4
 148 0551 848EEEBD 		.ascii	"\204\216\356\275PS\255\303\264\032\254\334l\272o';Y"
 148      5053ADC3 
 148      B41AACDC 
 148      6CBA6F27 
 148      3B59
 149 0563 E3B7137A 		.ascii	"\343\267\023z/\242\326\002\263O\350\315\326\220\220"
 149      2FA2D602 
 149      B34FE8CD 
 149      D69090
 150 0572 B38B0CFA 		.ascii	"\263\213\014\372\320\350\242\027l\036\375\227\254\250"
 150      D0E8A217 
 150      6C1EFD97 
 150      ACA8
 151 0580 0FC89E7A 		.ascii	"\017\310\236z\200H\221\305\262\236\310\006\"\327\022"
 151      804891C5 
 151      B29EC806 
 151      22D712
 152 058f B98EC846 		.ascii	"\271\216\310F\"\327\023\3712\221Q\"_%r\003\221MD\276"
 152      22D713F9 
 152      32915122 
 152      5F257203 
 152      914D44BE 
 153 05a3 41643391 		.ascii	"Ad3\221-D\266\022\271\225\310m\254\205\375\373]z\377"
 153      2D44B612 
 153      B995C86D 
 153      AC85FDFB 
 153      5D7AFF
 154 05b6 FEA1CDC2 		.ascii	"\376\241\315\302>\311h\0150\356\204\035T'\354$\235\260"
 154      3EC9680D 
 154      30EE841D 
 154      5427EC24 
 154      9DB0
 155 05c8 8B98DF4E 		.ascii	"\213\230\337Nd?\221\237\021y\203\310;D~k\345\265\243"
 155      643F919F 
 155      117983C8 
 155      3B447E6B 
 155      E5B5A3
 156 05db 4DA59DD1 		.ascii	"M\245\235\321\241\365\226\317\342\277ZM\016\347\336"
 156      A1F596CF 
 156      E2BF5A4D 
 156      0EE7DE
 157 05ea 66F1AE4C 		.ascii	"f\361\256L\0346\344\256L\213\203I\274\303\352ve\367"
 157      1C36E4AE 
 157      4C8B8349 
 157      BCC3EA76 
 157      65F7
ARM GAS  /tmp/ccUJk4UB.s 			page 12


 158 05fc 2E915D19 		.ascii	".\221]\031.\037zW\366\340\322\006\371<@\032x\177\"\024"
 158      2E1F7A57 
 158      F6E0D206 
 158      F93C401A 
 158      787F2214 
 159 0610 B06E66DB 		.ascii	"\260nf\333\251\207\227\250Q\374J\332`v\015\330\000\015"
 159      A98797A8 
 159      51FC4ADA 
 159      60760DD8 
 159      000D
 160 0622 B6D10A58 		.ascii	"\266\321\012X\212\355T\264\233\002\333\2346\230\226"
 160      8AED54B4 
 160      9B02DB9C 
 160      369896
 161 0631 D9AB34D8 		.ascii	"\331\2534\330_\254\200\245\330Nm\240\301\266\246\015"
 161      5FAC80A5 
 161      D84E6DA0 
 161      C1B6A60D 
 162 0641 A665D644 		.ascii	"\246e\326D\203\355\260\002f}(\251\241\306\243\277\262"
 162      83EDB002 
 162      667D28A9 
 162      A1C6A3BF 
 162      B2
 163 0652 7828ED27 		.ascii	"x(\355'c\374\000\221\207\210<L\344Q\"\217\021y\334\312"
 163      63FC0091 
 163      87883C4C 
 163      E451228F 
 163      1179DCCA 
 164 0666 0CB087D5 		.ascii	"\014\260\207\325\0344Z?\341>r\343?S\366\210\342(xg`"
 164      1C345A3F 
 164      E13E72E3 
 164      3F53F688 
 164      E2287867 
 165 067b B1C97DBA 		.ascii	"\261\311}\2721\224\321K\263\356\364\364]\223\271\010"
 165      3194D14B 
 165      B3EEF4F4 
 165      5D93B908 
 166 068b 837DC026 		.ascii	"\203}\300&\347\200\211L\213\330\332\027o\277\375\225"
 166      E780894C 
 166      8BD8DA17 
 166      6FBFFD95 
 167 069b 0BBFF889 		.ascii	"\013\277\370\211\211\304K\214\3564\330f\276X|\310\216"
 167      89C44B8C 
 167      EE34D866 
 167      BE587CC8 
 167      8E
 168 06ac 9573CA01 		.ascii	"\225s\312\0010\217\236gu\003\370\247\314v\014w`\227"
 168      308F9E67 
 168      7503F8A7 
 168      CC760C77 
 168      6097
 169 06be 982B7FA0 		.ascii	"\230+\177\240\341Q';\321\004T\301\240.\3141\036\215"
 169      E151273B 
 169      D10454C1 
 169      A02ECC31 
 169      1E8D
 170 06d0 5FBCDD55 		.ascii	"_\274\335U\262\351\200\330\360\007q \361\022\262~d}"
ARM GAS  /tmp/ccUJk4UB.s 			page 13


 170      B2E980D8 
 170      F0077120 
 170      F112B27E 
 170      647D
 171 06e2 8AD51C59 		.ascii	"\212\325\034Y\313n\022\327\212\223w\251n\032\245h\261"
 171      CB6E12D7 
 171      8A9377A9 
 171      6E1AA568 
 171      B1
 172 06f3 AA9B7AEF 		.ascii	"\252\233z\357|\261C\376\020\321E\374\364^\226\341\261"
 172      7CB143FE 
 172      10D145FC 
 172      F45E96E1 
 172      B1
 173 0704 8005A8BB 		.ascii	"\200\005\250\273\215Gf\220W\331\177\020\240\223Yz\207"
 173      8D476690 
 173      57D97F10 
 173      A093597A 
 173      87
 174 0715 733A7F73 		.ascii	"s:\177sZ\177s\271j&\221\340\230\364*k\316\347Y\346\214"
 174      5A7F73B9 
 174      6A2691E0 
 174      98F42A6B 
 174      CEE759E6 
 175 072a AE7505E6 		.ascii	"\256u\005\346\014k\324\355'\017t\242\315b\247\024\032"
 175      0C6BD4ED 
 175      270F74A2 
 175      CD62A714 
 175      1A
 176 073b D2A93CCB 		.ascii	"\322\251<\313\\6\2018k\004\021k9\277^D\321\272x\"1\321"
 176      5C368138 
 176      6B04116B 
 176      39BF5E44 
 176      D1BA7822 
 177 0751 BADBCEB1 		.ascii	"\272\333\316\261\006_\032\222\0177\245\001\242\263\254"
 177      065F1A92 
 177      0F37A501 
 177      A2B3AC
 178 0760 CF84D645 		.ascii	"\317\204\326ECZ\207TZRs,\363\215\011@\267!\300\246L"
 178      435A8754 
 178      5A52732C 
 178      F38D0940 
 178      B721C0A6 
 179 0775 ECBA6CC5 		.ascii	"\354\272l\305\256\344s\247\241\235\321lc\232\275\206"
 179      AEE473A7 
 179      A19DD16C 
 179      639ABD86 
 180 0785 1E3C7CE3 		.ascii	"\036<|\343\213_'=h\235\3505-Q\335\374\362\266\311\004"
 180      8B5F273D 
 180      689DE835 
 180      2D51DDFC 
 180      F2B6C904 
 181 0799 AD1CA7FD 		.ascii	"\255\034\247\375q\002^\320\373X\374\241\247-[\037\356"
 181      71025ED0 
 181      FB58FCA1 
 181      A72D5B1F 
 181      EE
ARM GAS  /tmp/ccUJk4UB.s 			page 14


 182 07aa 7BD41948 		.ascii	"{\324\031H-\240\252h\307\252\205C\310\213\215\344\020"
 182      2DA0AA68 
 182      C7AA8543 
 182      C88B8DE4 
 182      10
 183 07bb B29F0CAF 		.ascii	"\262\237\014\257\275\203\332\313`>\245\275p\2025\362"
 183      BD83DACB 
 183      603EA5BD 
 183      708235F2 
 184 07cb C2BB265E 		.ascii	"\302\273&^\270"
 184      B8
 185 07d0 6EE88535 		.ascii	"n\350\2055\207\015\306\321'&\0207\014\343\355\325L\342"
 185      870DC6D1 
 185      27261037 
 185      0CE3EDD5 
 185      4CE2
 186 07e2 ED56CA78 		.ascii	"\355V\312x\223O\241u\226\3352\241\365\225\241eW\023"
 186      934FA175 
 186      96DD32A1 
 186      F595A165 
 186      5713
 187 07f4 5D6519C4 		.ascii	"]e\031\304\327\235A\213\007\3134\345\0307\374\215a\303"
 187      D79D418B 
 187      07CB34E5 
 187      1837FC8D 
 187      61C3
 188 0806 D1B7FE3E 		.ascii	"\321\267\376>\223\352\322;d\010\277o\002qW\013\3618"
 188      93EAD23B 
 188      6408BF6F 
 188      0271570B 
 188      F138
 189 0818 D386217A 		.ascii	"\323\206!zw\277?\245\016C\210\017\023\011\204\224\377"
 189      77BF3FA5 
 189      0E43880F 
 189      13098494 
 189      FF
 190 0829 C5F82809 		.ascii	"\305\370(\011b\272\207\275\247\342a\254\330\331\370"
 190      62BA87BD 
 190      A7E261AC 
 190      D8D9F8
 191 0838 A1DBBB90 		.ascii	"\241\333\273\220\330\012\353\301\000@I+0\313|\254G\032"
 191      D80AEBC1 
 191      0040492B 
 191      30CB7CAC 
 191      471A
 192 084a FC81FDBE 		.ascii	"\374\201\375\276\214\3644sP\\\027\253\2254\245/\015"
 192      8CF43473 
 192      505C17AB 
 192      9534A52F 
 192      0D
 193 085b 724846CB 		.ascii	"rHF\313\030\351\233\203\374\334\2051O\311\317\247\211"
 193      18E99B83 
 193      FCDC8531 
 193      4FC9CFA7 
 193      89
 194 086c 0BA5EF10 		.ascii	"\013\245\357\020\022\304l\351\263Tr{$\225\332\245\017"
 194      12C46CE9 
ARM GAS  /tmp/ccUJk4UB.s 			page 15


 194      B354727B 
 194      2495DAA5 
 194      0F
 195 087d 91D2E72D 		.ascii	"\221\322\347-\031\010\343\\\321\340(Z(#-6\205\026c\252"
 195      1908E35C 
 195      D1E0285A 
 195      28232D36 
 195      851663AA 
 196 0891 C5A5A7C5 		.ascii	"\305\245\247\305H_[\250\012\327\264\217}\364\343\240"
 196      485F5BA8 
 196      0AD7B48F 
 196      7DF4E3A0 
 197 08a1 990B8789 		.ascii	"\231\013\207\211YL\212\234f\032\322i\336J\241Y\307\031"
 197      594C8A9C 
 197      661AD269 
 197      DE4AA159 
 197      C719
 198 08b3 BF5749F3 		.ascii	"\277WI\363\250\231V\275\251\326\251\024Z\253M\265.\247"
 198      A89956BD 
 198      A9D6A914 
 198      5AAB4DB5 
 198      2EA7
 199 08c5 D06A30D5 		.ascii	"\320j0\325:\227Bk\215\252\305<>u\252C\372\013E\034\325"
 199      3A97426B 
 199      8DAAC53C 
 199      3E75AA43 
 199      FA0B451C 
 200 08da 7CC0E10F 		.ascii	"|\300\341\017z\003\313+}8\357\251\375]\315\324j&\267"
 200      7A03CB2B 
 200      7D38EFA9 
 200      FD5DCDD4 
 200      6A26B7
 201 08ed FC17A545 		.ascii	"\374\027\245Ea\377\012_8kn\331B\273\223yZ\257S\033\012"
 201      61FF0A5F 
 201      386B6ED9 
 201      42BB9379 
 201      5AAF531B 
 202 0902 0B1187BB 		.ascii	"\013\021\207\273\242tz\201c\376\374\"GEI\351\212|\005"
 202      A2747A81 
 202      63FEFC22 
 202      474549E9 
 202      8A7C05
 203 0915 C1130854 		.ascii	"\301\023\010T\002\312p\310F\004^\360y\204\341\000\350"
 203      02CA70C8 
 203      46045EF0 
 203      7984E100 
 203      E8
 204 0926 59585652 		.ascii	"YXVRVR\221\203\263\356\212\005\345\270\021\217\253\270"
 204      56529183 
 204      B3EE8A05 
 204      E5B8118F 
 204      ABB8
 205 0938 B0E88561 		.ascii	"\260\350\205a\244\326bGu\250\306\347\010\011B\310Q\352"
 205      A4D66247 
 205      75A8C6E7 
 205      080942C8 
 205      51EA
ARM GAS  /tmp/ccUJk4UB.s 			page 16


 206 094a 0B0AA1F0 		.ascii	"\013\012\241\360\3340_[\355\367B;\241\345a\257/\274"
 206      DC305F5B 
 206      EDF7423B 
 206      A1E561AF 
 206      2FBC
 207 095c CAE30C55 		.ascii	"\312\343\014U\372\346\370\202\336j\317|?\340V\205\302"
 207      FAE6F882 
 207      DE6ACF7C 
 207      3FE05685 
 207      C2
 208 096d 9E4257A9 		.ascii	"\236BW\251\247\270pN\211\203\017\327<\025\014\005}O"
 208      A7B8704E 
 208      89830FD7 
 208      3C150C05 
 208      7D4F
 209 097f F9F825FE 		.ascii	"\371\370%\376\244Q\021\241\322\037\024\200M\316r\270"
 209      A45111A1 
 209      D21F1480 
 209      4DCE72B8 
 210 098f 4F2FF008 		.ascii	"O/\360\010\271Ua\337\213\313\001dU\016\020\364\006\005"
 210      B95561DF 
 210      8BCB0164 
 210      550E10F4 
 210      0605
 211 09a1 8F9055EB 		.ascii	"\217\220U\353\013\373C\225?\300\317| \260\204\367.\363"
 211      0BFB4395 
 211      3FC0CF7C 
 211      20B084F7 
 211      2EF3
 212 09b3 08394A76 		.ascii	"\0109Jv\024\020uV\363\301\240/\340\014\005\253\374K"
 212      14107556 
 212      F3C1A02F 
 212      E00C05AB 
 212      FC4B
 213 09c5 73A15E0D 		.ascii	"s\241^\0150\361\0106|\313\361J?F8o\270\300\266\244R"
 213      30F10836 
 213      7CCBF14A 
 213      3F46386F 
 213      B8C0B6A4 
 214 09da 08DB2AFD 		.ascii	"\010\333*\375\2760\266O\252\237\345%\267\021\030\276"
 214      BE30B64F 
 214      AA9FE525 
 214      B71118BE 
 215 09ea 3A581301 		.ascii	":X\023\001\360l_\220_\022\360U\346\2212\242\016\205"
 215      F06C5F90 
 215      5F12F055 
 215      E69132A2 
 215      0E85
 216 09fc 98E20C8F 		.ascii	"\230\342\014\2170\314\033\010y\227\025X\353\363\210"
 216      30CC1B08 
 216      79971558 
 216      EBF388
 217 0a0b 5083ADF2 		.ascii	"P\203\255\362c\277\215H>x\004\316\351\312\207T`s\227"
 217      63BF8D48 
 217      3E7804CE 
 217      E9CA8754 
 217      607397
ARM GAS  /tmp/ccUJk4UB.s 			page 17


 218 0a1e 3A5DB6A2 		.ascii	":]\266\242\222b\027\353vq\305s]\303\234\316RW>\221\005"
 218      926217EB 
 218      7671C573 
 218      5DC39CCE 
 218      52573E91 
 219 0a33 36A7B3D8 		.ascii	"6\247\263\330\3059\313*\270r\267\223+t\2718\227\023"
 219      C539CB2A 
 219      B872B793 
 219      2B74B938 
 219      9713
 220 0a45 9E41614E 		.ascii	"\236AaNQ\205\213+\302\232\245\205.v\201\2445\035\352"
 220      51858B2B 
 220      C29AA585 
 220      2E7681A4 
 220      351DEA
 221 0a58 2F727180 		.ascii	"/rq\200?\203&\347\015Aw\004\035\276\225\202\303Y\352"
 221      3F8326E7 
 221      0D417704 
 221      1DBE9582 
 221      C359EA
 222 0a6b 2E710347 		.ascii	".q\003G\211\346\263\371+WJ\004\253\362\247M[\271\004"
 222      89E6B3F9 
 222      2B574A04 
 222      ABF2A74D 
 222      5BB904
 223 0a7e 28E6CD2D 		.ascii	"(\346\315-/Y\340\251XU\353+\362U\001\277\371\220\346"
 223      2F59E0A9 
 223      5855EB2B 
 223      F25501BF 
 223      F990E6
 224 0a91 7125452E 		.ascii	"q%E.nA\021\264\352\006\012s\\.\333|\347\317]?\033\252"
 224      6E4111B4 
 224      EA060A73 
 224      5C2EDB7C 
 224      E7CF5D3F 
 225 0aa7 03309412 		.ascii	"\0030\224\022u\220\244\250\313\361\207$\337d\327\360"
 225      7590A4A8 
 225      CBF18724 
 225      DF64D7F0 
 226 0ab7 FEE0542F 		.ascii	"\376\340T/\363\004\015\023\026\222\221\341\255\026\252"
 226      F3040D13 
 226      169291E1 
 226      AD16AA
 227 0ac6 C33EBE32 		.ascii	"\303>\2762\002JO\232\326\211\254\212\010@\026W\312\305"
 227      024A4F9A 
 227      D689AC8A 
 227      08401657 
 227      CAC5
 228 0ad8 797F0D40 		.ascii	"y\177\015@\223X\312\177\006\342\332[]Q]\351\016\370"
 228      9358CA7F 
 228      06E2DA5B 
 228      5D515DE9 
 228      0EF8
 229 0aea 7CB5D9E0 		.ascii	"|\265\331\340I\267\020\252\035\015\367\"\177\004{W\016"
 229      49B710AA 
 229      1D0DF722 
 229      7F047B57 
ARM GAS  /tmp/ccUJk4UB.s 			page 18


 229      0E
 230 0afb 9A095052 		.ascii	"\232\011PR\034\244\012\312B\202\277\312\357\345\005"
 230      1CA40ACA 
 230      4282BFCA 
 230      EFE505
 231 0b0a 7F28384A 		.ascii	"\177(8J\377\343p\177\010\333\351\257\364\010yR\266\206"
 231      FFE3707F 
 231      08DBE9AF 
 231      F4087952 
 231      B686
 232 0b1c C7113346 		.ascii	"\307\0213F\261\321\023\361\011K\303\241\345\265\330"
 232      B1D113F1 
 232      094BC3A1 
 232      E5B5D8
 233 0b2b CC1F27D5 		.ascii	"\314\037'\325\313I\010\373\2754x\016\341\304\207\205"
 233      CB4908FB 
 233      BD34780E 
 233      E1C48785 
 234 0b3b 89A9ECC3 		.ascii	"\211\251\354\303\246y\253\335\253\"%A\277\360\223\024"
 234      A679ABDD 
 234      AB222541 
 234      BFF09314 
 235 0b4b B30354CC 		.ascii	"\263\003T\314\206\033\2566\014\317\020\371Y8z\253\226"
 235      861BAE36 
 235      0CCF10F9 
 235      59387AAB 
 235      96
 236 0b5c FE1F499A 		.ascii	"\376\037I\232\020\323"
 236      10D3
 237              		.text
 238              		.section	.gnu.lto_.symtab.a0e79b90993c279,"",%progbits
 239 0000 6D61696E 		.ascii	"main\000\000\000\000\000\000\000\000\000\000\000\000"
 239      00000000 
 239      00000000 
 239      00000000 
 240 0010 42010000 		.ascii	"B\001\000\000PWMD1\000\000\002\000\000\000\000\000\000"
 240      50574D44 
 240      31000002 
 240      00000000 
 240      0000
 241 0022 00000076 		.ascii	"\000\000\000v\001\000\000chThdSleep\000\000\002\000"
 241      01000063 
 241      68546864 
 241      536C6565 
 241      70000002 
 242 0037 00000000 		.ascii	"\000\000\000\000\000\000\000\000E\001\000\000pwmSto"
 242      00000000 
 242      45010000 
 242      70776D53 
 242      746F
 243 0049 70000002 		.ascii	"p\000\000\002\000\000\000\000\000\000\000\000\000O\001"
 243      00000000 
 243      00000000 
 243      004F01
 244 0058 00007077 		.ascii	"\000\000pwmDisableChannel\000\000\002\000\000\000\000"
 244      6D446973 
 244      61626C65 
ARM GAS  /tmp/ccUJk4UB.s 			page 19


 244      4368616E 
 244      6E656C00 
 245 0072 00000000 		.ascii	"\000\000\000\000\000Q\001\000\000pwmEnableChannelNo"
 245      00510100 
 245      0070776D 
 245      456E6162 
 245      6C654368 
 246 008d 74696669 		.ascii	"tification\000\000\002\000\000\000\000\000\000\000\000"
 246      63617469 
 246      6F6E0000 
 246      02000000 
 246      00000000 
 247 00a2 00560100 		.ascii	"\000V\001\000\000pwmEnableChannel\000\000\002\000\000"
 247      0070776D 
 247      456E6162 
 247      6C654368 
 247      616E6E65 
 248 00bc 00000000 		.ascii	"\000\000\000\000\000\000\000X\001\000\000_pal_lld_s"
 248      00000058 
 248      0100005F 
 248      70616C5F 
 248      6C6C645F 
 249 00d1 65746772 		.ascii	"etgroupmode\000\000\002\000\000\000\000\000\000\000"
 249      6F75706D 
 249      6F646500 
 249      00020000 
 249      00000000 
 250 00e6 00005E01 		.ascii	"\000\000^\001\000\000pwmEnablePeriodicNotification\000"
 250      00007077 
 250      6D456E61 
 250      626C6550 
 250      6572696F 
 251 010a 00020000 		.ascii	"\000\002\000\000\000\000\000\000\000\000\000j\001\000"
 251      00000000 
 251      0000006A 
 251      0100
 252 0118 0070776D 		.ascii	"\000pwmStart\000\000\002\000\000\000\000\000\000\000"
 252      53746172 
 252      74000002 
 252      00000000 
 252      000000
 253 012b 00006C01 		.ascii	"\000\000l\001\000\000chSysInit\000\000\002\000\000\000"
 253      00006368 
 253      53797349 
 253      6E697400 
 253      00020000 
 254 0140 00000000 		.ascii	"\000\000\000\000\000\000q\001\000\000halInit\000\000"
 254      00007101 
 254      00006861 
 254      6C496E69 
 254      740000
 255 0153 02000000 		.ascii	"\002\000\000\000\000\000\000\000\000\000t\001\000\000"
 255      00000000 
 255      00007401 
 255      0000
 256              		.text
 257              		.section	.gnu.lto_.opts,"",%progbits
ARM GAS  /tmp/ccUJk4UB.s 			page 20


 258 0000 272D6D63 		.ascii	"'-mcpu=cortex-m3' '-mno-thumb-interwork' '-mthumb' "
 258      70753D63 
 258      6F727465 
 258      782D6D33 
 258      2720272D 
 259 0033 272D6767 		.ascii	"'-ggdb' '-O2' '-fomit-frame-pointer' '-falign-funct"
 259      64622720 
 259      272D4F32 
 259      2720272D 
 259      666F6D69 
 260 0066 696F6E73 		.ascii	"ions=16' '-ffunction-sections' '-fdata-sections' '-"
 260      3D313627 
 260      20272D66 
 260      66756E63 
 260      74696F6E 
 261 0099 666E6F2D 		.ascii	"fno-common' '-flto'\000"
 261      636F6D6D 
 261      6F6E2720 
 261      272D666C 
 261      746F2700 
 262              		.text
 263              		.cfi_sections	.debug_frame
 264              		.section	.text.startup.main,"ax",%progbits
 265              		.align	2
 266              		.p2align 4,,15
 267              		.global	main
 268              		.thumb
 269              		.thumb_func
 270              		.type	main, %function
 271              	main:
 272              	.LFB219:
 273              		.file 1 "main.c"
 274              		.loc 1 22 0
 275              		.cfi_startproc
 276              		@ Volatile: function does not return.
 277              		@ args = 0, pretend = 0, frame = 0
 278              		@ frame_needed = 0, uses_anonymous_args = 0
 279 0000 08B5     		push	{r3, lr}
 280              		.cfi_def_cfa_offset 8
 281              		.cfi_offset 3, -8
 282              		.cfi_offset 14, -4
 283              		.loc 1 30 0
 284 0002 40F20004 		movw	r4, #:lower16:PWMD1
 285 0006 C0F20004 		movt	r4, #:upper16:PWMD1
 286              		.loc 1 26 0
 287 000a FFF7FEFF 		bl	halInit
 288              	.LVL0:
 289              		.loc 1 27 0
 290 000e FFF7FEFF 		bl	chSysInit
 291              	.LVL1:
 292              		.loc 1 30 0
 293 0012 40F20001 		movw	r1, #:lower16:.LANCHOR0
 294 0016 C0F20001 		movt	r1, #:upper16:.LANCHOR0
 295 001a 2046     		mov	r0, r4
 296 001c FFF7FEFF 		bl	pwmStart
 297              	.LVL2:
 298              		.loc 1 31 0
ARM GAS  /tmp/ccUJk4UB.s 			page 21


 299 0020 2046     		mov	r0, r4
 300 0022 FFF7FEFF 		bl	pwmEnablePeriodicNotification
 301              	.LVL3:
 302              		.loc 1 32 0
 303 0026 4FF40060 		mov	r0, #2048
 304 002a 4FF48071 		mov	r1, #256
 305 002e 1022     		movs	r2, #16
 306 0030 C4F20100 		movt	r0, 16385
 307 0034 FFF7FEFF 		bl	_pal_lld_setgroupmode
 308              	.LVL4:
 309              		.loc 1 33 0
 310 0038 4FF4FA60 		mov	r0, #2000
 311 003c FFF7FEFF 		bl	chThdSleep
 312              	.LVL5:
 313              		.loc 1 38 0
 314 0040 A368     		ldr	r3, [r4, #8]
 315 0042 40F2EE22 		movw	r2, #750
 316 0046 02FB03F2 		mul	r2, r2, r3
 317 004a 41F25973 		movw	r3, #5977
 318 004e CDF2B713 		movt	r3, 53687
 319 0052 A3FB0212 		umull	r1, r2, r3, r2
 320 0056 2046     		mov	r0, r4
 321 0058 520B     		lsrs	r2, r2, #13
 322 005a 0021     		movs	r1, #0
 323 005c FFF7FEFF 		bl	pwmEnableChannel
 324              	.LVL6:
 325              		.loc 1 39 0
 326 0060 0021     		movs	r1, #0
 327 0062 2046     		mov	r0, r4
 328 0064 FFF7FEFF 		bl	pwmEnableChannelNotification
 329              	.LVL7:
 330              		.loc 1 40 0
 331 0068 41F28830 		movw	r0, #5000
 332 006c FFF7FEFF 		bl	chThdSleep
 333              	.LVL8:
 334              		.loc 1 46 0
 335 0070 2046     		mov	r0, r4
 336 0072 0021     		movs	r1, #0
 337 0074 FFF7FEFF 		bl	pwmDisableChannel
 338              	.LVL9:
 339              		.loc 1 47 0
 340 0078 2046     		mov	r0, r4
 341 007a FFF7FEFF 		bl	pwmStop
 342              	.LVL10:
 343              	.L2:
 344              		.loc 1 53 0 discriminator 1
 345 007e 4FF4FA70 		mov	r0, #500
 346 0082 FFF7FEFF 		bl	chThdSleep
 347              	.LVL11:
 348 0086 FAE7     		b	.L2
 349              		.cfi_endproc
 350              	.LFE219:
 351              		.size	main, .-main
 352 0088 AFF30080 		.section	.data.pwmcfg,"aw",%progbits
 352      AFF30080 
 353              		.align	2
 354              		.set	.LANCHOR0,. + 0
ARM GAS  /tmp/ccUJk4UB.s 			page 22


 355              		.type	pwmcfg, %object
 356              		.size	pwmcfg, 56
 357              	pwmcfg:
 358 0000 10270000 		.word	10000
 359 0004 C8000000 		.word	200
 360 0008 00000000 		.word	0
 361 000c 01000000 		.word	1
 362 0010 00000000 		.word	0
 363 0014 01000000 		.word	1
 364 0018 00000000 		.word	0
 365 001c 00000000 		.word	0
 366 0020 00000000 		.word	0
 367 0024 00000000 		.word	0
 368 0028 00000000 		.word	0
 369 002c 00000000 		.word	0
 370 0030 00000000 		.word	0
 371 0034 00000000 		.word	0
 372              		.text
 373              	.Letext0:
 374              		.file 2 "/home/otto/MentorGraphics/Sourcery_CodeBench_Lite_for_ARM_EABI/arm-none-eabi/include/stdi
 375              		.file 3 "../../../os/common/ports/ARMCMx/compilers/GCC/chtypes.h"
 376              		.file 4 "../../../os/rt/include/chsystypes.h"
 377              		.file 5 "../../../os/rt/include/chschd.h"
 378              		.file 6 "../../../os/common/ext/CMSIS/ST/STM32F1xx/stm32f100xb.h"
 379              		.file 7 "../../../os/common/ports/ARMCMx/chcore.h"
 380              		.file 8 "../../../os/common/ports/ARMCMx/chcore_v7m.h"
 381              		.file 9 "../../../os/hal/ports/STM32/LLD/TIMv1/stm32_tim.h"
 382              		.file 10 "../../../os/rt/include/chsem.h"
 383              		.file 11 "../../../os/rt/include/chmtx.h"
 384              		.file 12 "../../../os/hal/ports/STM32/LLD/GPIOv1/hal_pal_lld.h"
 385              		.file 13 "../../../os/hal/include/hal_pwm.h"
 386              		.file 14 "../../../os/hal/ports/STM32/LLD/TIMv1/hal_pwm_lld.h"
 387              		.file 15 "../../../os/common/ext/CMSIS/include/core_cm3.h"
 388              		.file 16 "../../../os/hal/include/hal.h"
 389              		.file 17 "../../../os/rt/include/chsys.h"
 390              		.file 18 "../../../os/rt/include/chthreads.h"
 391              		.section	.debug_info,"",%progbits
 392              	.Ldebug_info0:
 393 0000 360B0000 		.4byte	0xb36
 394 0004 0400     		.2byte	0x4
 395 0006 00000000 		.4byte	.Ldebug_abbrev0
 396 000a 04       		.byte	0x4
 397 000b 01       		.uleb128 0x1
 398 000c 95020000 		.4byte	.LASF133
 399 0010 01       		.byte	0x1
 400 0011 10000000 		.4byte	.LASF134
 401 0015 17000000 		.4byte	.LASF135
 402 0019 00000000 		.4byte	.Ldebug_ranges0+0
 403 001d 00000000 		.4byte	0
 404 0021 00000000 		.4byte	.Ldebug_line0
 405 0025 02       		.uleb128 0x2
 406 0026 04       		.byte	0x4
 407 0027 05       		.byte	0x5
 408 0028 696E7400 		.ascii	"int\000"
 409 002c 03       		.uleb128 0x3
 410 002d 04       		.byte	0x4
 411 002e 07       		.byte	0x7
ARM GAS  /tmp/ccUJk4UB.s 			page 23


 412 002f A5000000 		.4byte	.LASF0
 413 0033 03       		.uleb128 0x3
 414 0034 01       		.byte	0x1
 415 0035 06       		.byte	0x6
 416 0036 DF050000 		.4byte	.LASF1
 417 003a 04       		.uleb128 0x4
 418 003b 90030000 		.4byte	.LASF4
 419 003f 02       		.byte	0x2
 420 0040 2A       		.byte	0x2a
 421 0041 45000000 		.4byte	0x45
 422 0045 03       		.uleb128 0x3
 423 0046 01       		.byte	0x1
 424 0047 08       		.byte	0x8
 425 0048 60050000 		.4byte	.LASF2
 426 004c 03       		.uleb128 0x3
 427 004d 02       		.byte	0x2
 428 004e 05       		.byte	0x5
 429 004f 66040000 		.4byte	.LASF3
 430 0053 04       		.uleb128 0x4
 431 0054 37040000 		.4byte	.LASF5
 432 0058 02       		.byte	0x2
 433 0059 36       		.byte	0x36
 434 005a 5E000000 		.4byte	0x5e
 435 005e 03       		.uleb128 0x3
 436 005f 02       		.byte	0x2
 437 0060 07       		.byte	0x7
 438 0061 F8050000 		.4byte	.LASF6
 439 0065 04       		.uleb128 0x4
 440 0066 41050000 		.4byte	.LASF7
 441 006a 02       		.byte	0x2
 442 006b 4F       		.byte	0x4f
 443 006c 70000000 		.4byte	0x70
 444 0070 03       		.uleb128 0x3
 445 0071 04       		.byte	0x4
 446 0072 05       		.byte	0x5
 447 0073 70040000 		.4byte	.LASF8
 448 0077 04       		.uleb128 0x4
 449 0078 77010000 		.4byte	.LASF9
 450 007c 02       		.byte	0x2
 451 007d 50       		.byte	0x50
 452 007e 82000000 		.4byte	0x82
 453 0082 03       		.uleb128 0x3
 454 0083 04       		.byte	0x4
 455 0084 07       		.byte	0x7
 456 0085 1C050000 		.4byte	.LASF10
 457 0089 03       		.uleb128 0x3
 458 008a 08       		.byte	0x8
 459 008b 05       		.byte	0x5
 460 008c BF030000 		.4byte	.LASF11
 461 0090 04       		.uleb128 0x4
 462 0091 C2040000 		.4byte	.LASF12
 463 0095 02       		.byte	0x2
 464 0096 78       		.byte	0x78
 465 0097 9B000000 		.4byte	0x9b
 466 009b 03       		.uleb128 0x3
 467 009c 08       		.byte	0x8
 468 009d 07       		.byte	0x7
ARM GAS  /tmp/ccUJk4UB.s 			page 24


 469 009e D1010000 		.4byte	.LASF13
 470 00a2 04       		.uleb128 0x4
 471 00a3 24040000 		.4byte	.LASF14
 472 00a7 03       		.byte	0x3
 473 00a8 3C       		.byte	0x3c
 474 00a9 3A000000 		.4byte	0x3a
 475 00ad 04       		.uleb128 0x4
 476 00ae 87030000 		.4byte	.LASF15
 477 00b2 03       		.byte	0x3
 478 00b3 3D       		.byte	0x3d
 479 00b4 3A000000 		.4byte	0x3a
 480 00b8 04       		.uleb128 0x4
 481 00b9 14050000 		.4byte	.LASF16
 482 00bd 03       		.byte	0x3
 483 00be 3E       		.byte	0x3e
 484 00bf 3A000000 		.4byte	0x3a
 485 00c3 04       		.uleb128 0x4
 486 00c4 A6010000 		.4byte	.LASF17
 487 00c8 03       		.byte	0x3
 488 00c9 40       		.byte	0x40
 489 00ca 77000000 		.4byte	0x77
 490 00ce 04       		.uleb128 0x4
 491 00cf CD030000 		.4byte	.LASF18
 492 00d3 03       		.byte	0x3
 493 00d4 41       		.byte	0x41
 494 00d5 65000000 		.4byte	0x65
 495 00d9 04       		.uleb128 0x4
 496 00da 88010000 		.4byte	.LASF19
 497 00de 03       		.byte	0x3
 498 00df 43       		.byte	0x43
 499 00e0 77000000 		.4byte	0x77
 500 00e4 04       		.uleb128 0x4
 501 00e5 06020000 		.4byte	.LASF20
 502 00e9 03       		.byte	0x3
 503 00ea 45       		.byte	0x45
 504 00eb 65000000 		.4byte	0x65
 505 00ef 04       		.uleb128 0x4
 506 00f0 89000000 		.4byte	.LASF21
 507 00f4 04       		.byte	0x4
 508 00f5 35       		.byte	0x35
 509 00f6 53000000 		.4byte	0x53
 510 00fa 04       		.uleb128 0x4
 511 00fb 57020000 		.4byte	.LASF22
 512 00ff 04       		.byte	0x4
 513 0100 3F       		.byte	0x3f
 514 0101 05010000 		.4byte	0x105
 515 0105 05       		.uleb128 0x5
 516 0106 A6030000 		.4byte	.LASF40
 517 010a 44       		.byte	0x44
 518 010b 05       		.byte	0x5
 519 010c 9A       		.byte	0x9a
 520 010d E3010000 		.4byte	0x1e3
 521 0111 06       		.uleb128 0x6
 522 0112 3B050000 		.4byte	.LASF23
 523 0116 05       		.byte	0x5
 524 0117 9B       		.byte	0x9b
 525 0118 18020000 		.4byte	0x218
ARM GAS  /tmp/ccUJk4UB.s 			page 25


 526 011c 00       		.byte	0
 527 011d 06       		.uleb128 0x6
 528 011e 49030000 		.4byte	.LASF24
 529 0122 05       		.byte	0x5
 530 0123 9C       		.byte	0x9c
 531 0124 C3000000 		.4byte	0xc3
 532 0128 08       		.byte	0x8
 533 0129 07       		.uleb128 0x7
 534 012a 63747800 		.ascii	"ctx\000"
 535 012e 05       		.byte	0x5
 536 012f 9D       		.byte	0x9d
 537 0130 9A040000 		.4byte	0x49a
 538 0134 0C       		.byte	0xc
 539 0135 06       		.uleb128 0x6
 540 0136 51050000 		.4byte	.LASF25
 541 013a 05       		.byte	0x5
 542 013b 9F       		.byte	0x9f
 543 013c EE010000 		.4byte	0x1ee
 544 0140 10       		.byte	0x10
 545 0141 06       		.uleb128 0x6
 546 0142 3D060000 		.4byte	.LASF26
 547 0146 05       		.byte	0x5
 548 0147 A0       		.byte	0xa0
 549 0148 EE010000 		.4byte	0x1ee
 550 014c 14       		.byte	0x14
 551 014d 06       		.uleb128 0x6
 552 014e F2040000 		.4byte	.LASF27
 553 0152 05       		.byte	0x5
 554 0153 A7       		.byte	0xa7
 555 0154 21070000 		.4byte	0x721
 556 0158 18       		.byte	0x18
 557 0159 06       		.uleb128 0x6
 558 015a 80030000 		.4byte	.LASF28
 559 015e 05       		.byte	0x5
 560 015f B0       		.byte	0xb0
 561 0160 33070000 		.4byte	0x733
 562 0164 1C       		.byte	0x1c
 563 0165 06       		.uleb128 0x6
 564 0166 A1050000 		.4byte	.LASF29
 565 016a 05       		.byte	0x5
 566 016b B5       		.byte	0xb5
 567 016c AD000000 		.4byte	0xad
 568 0170 20       		.byte	0x20
 569 0171 06       		.uleb128 0x6
 570 0172 83000000 		.4byte	.LASF30
 571 0176 05       		.byte	0x5
 572 0177 B9       		.byte	0xb9
 573 0178 A2000000 		.4byte	0xa2
 574 017c 21       		.byte	0x21
 575 017d 06       		.uleb128 0x6
 576 017e D0000000 		.4byte	.LASF31
 577 0182 05       		.byte	0x5
 578 0183 BE       		.byte	0xbe
 579 0184 B8000000 		.4byte	0xb8
 580 0188 22       		.byte	0x22
 581 0189 08       		.uleb128 0x8
 582 018a 7500     		.ascii	"u\000"
ARM GAS  /tmp/ccUJk4UB.s 			page 26


 583 018c 05       		.byte	0x5
 584 018d 0F01     		.2byte	0x10f
 585 018f 56060000 		.4byte	0x656
 586 0193 24       		.byte	0x24
 587 0194 09       		.uleb128 0x9
 588 0195 6E050000 		.4byte	.LASF32
 589 0199 05       		.byte	0x5
 590 019a 1401     		.2byte	0x114
 591 019c F4010000 		.4byte	0x1f4
 592 01a0 28       		.byte	0x28
 593 01a1 09       		.uleb128 0x9
 594 01a2 98030000 		.4byte	.LASF33
 595 01a6 05       		.byte	0x5
 596 01a7 1A01     		.2byte	0x11a
 597 01a9 18020000 		.4byte	0x218
 598 01ad 2C       		.byte	0x2c
 599 01ae 09       		.uleb128 0x9
 600 01af 9C000000 		.4byte	.LASF34
 601 01b3 05       		.byte	0x5
 602 01b4 2001     		.2byte	0x120
 603 01b6 D9000000 		.4byte	0xd9
 604 01ba 34       		.byte	0x34
 605 01bb 09       		.uleb128 0x9
 606 01bc 2C020000 		.4byte	.LASF35
 607 01c0 05       		.byte	0x5
 608 01c1 2701     		.2byte	0x127
 609 01c3 1B070000 		.4byte	0x71b
 610 01c7 38       		.byte	0x38
 611 01c8 09       		.uleb128 0x9
 612 01c9 93000000 		.4byte	.LASF36
 613 01cd 05       		.byte	0x5
 614 01ce 2B01     		.2byte	0x12b
 615 01d0 C3000000 		.4byte	0xc3
 616 01d4 3C       		.byte	0x3c
 617 01d5 09       		.uleb128 0x9
 618 01d6 51060000 		.4byte	.LASF37
 619 01da 05       		.byte	0x5
 620 01db 3201     		.2byte	0x132
 621 01dd CB020000 		.4byte	0x2cb
 622 01e1 40       		.byte	0x40
 623 01e2 00       		.byte	0
 624 01e3 04       		.uleb128 0x4
 625 01e4 6D030000 		.4byte	.LASF38
 626 01e8 04       		.byte	0x4
 627 01e9 44       		.byte	0x44
 628 01ea EE010000 		.4byte	0x1ee
 629 01ee 0A       		.uleb128 0xa
 630 01ef 04       		.byte	0x4
 631 01f0 FA000000 		.4byte	0xfa
 632 01f4 04       		.uleb128 0x4
 633 01f5 C1000000 		.4byte	.LASF39
 634 01f9 04       		.byte	0x4
 635 01fa 49       		.byte	0x49
 636 01fb FF010000 		.4byte	0x1ff
 637 01ff 05       		.uleb128 0x5
 638 0200 00000000 		.4byte	.LASF41
 639 0204 04       		.byte	0x4
ARM GAS  /tmp/ccUJk4UB.s 			page 27


 640 0205 05       		.byte	0x5
 641 0206 88       		.byte	0x88
 642 0207 18020000 		.4byte	0x218
 643 020b 06       		.uleb128 0x6
 644 020c B2000000 		.4byte	.LASF42
 645 0210 05       		.byte	0x5
 646 0211 89       		.byte	0x89
 647 0212 EE010000 		.4byte	0x1ee
 648 0216 00       		.byte	0
 649 0217 00       		.byte	0
 650 0218 04       		.uleb128 0x4
 651 0219 1C020000 		.4byte	.LASF43
 652 021d 04       		.byte	0x4
 653 021e 50       		.byte	0x50
 654 021f 23020000 		.4byte	0x223
 655 0223 05       		.uleb128 0x5
 656 0224 25010000 		.4byte	.LASF44
 657 0228 08       		.byte	0x8
 658 0229 05       		.byte	0x5
 659 022a 8F       		.byte	0x8f
 660 022b 48020000 		.4byte	0x248
 661 022f 06       		.uleb128 0x6
 662 0230 B2000000 		.4byte	.LASF42
 663 0234 05       		.byte	0x5
 664 0235 90       		.byte	0x90
 665 0236 EE010000 		.4byte	0x1ee
 666 023a 00       		.byte	0
 667 023b 06       		.uleb128 0x6
 668 023c 20010000 		.4byte	.LASF45
 669 0240 05       		.byte	0x5
 670 0241 91       		.byte	0x91
 671 0242 EE010000 		.4byte	0x1ee
 672 0246 04       		.byte	0x4
 673 0247 00       		.byte	0
 674 0248 04       		.uleb128 0x4
 675 0249 2E050000 		.4byte	.LASF46
 676 024d 04       		.byte	0x4
 677 024e 57       		.byte	0x57
 678 024f 53020000 		.4byte	0x253
 679 0253 0B       		.uleb128 0xb
 680 0254 01010000 		.4byte	.LASF47
 681 0258 1C       		.byte	0x1c
 682 0259 05       		.byte	0x5
 683 025a 6A01     		.2byte	0x16a
 684 025c AF020000 		.4byte	0x2af
 685 0260 09       		.uleb128 0x9
 686 0261 3B050000 		.4byte	.LASF23
 687 0265 05       		.byte	0x5
 688 0266 6B01     		.2byte	0x16b
 689 0268 18020000 		.4byte	0x218
 690 026c 00       		.byte	0
 691 026d 09       		.uleb128 0x9
 692 026e 49030000 		.4byte	.LASF24
 693 0272 05       		.byte	0x5
 694 0273 6C01     		.2byte	0x16c
 695 0275 C3000000 		.4byte	0xc3
 696 0279 08       		.byte	0x8
ARM GAS  /tmp/ccUJk4UB.s 			page 28


 697 027a 08       		.uleb128 0x8
 698 027b 63747800 		.ascii	"ctx\000"
 699 027f 05       		.byte	0x5
 700 0280 6E01     		.2byte	0x16e
 701 0282 9A040000 		.4byte	0x49a
 702 0286 0C       		.byte	0xc
 703 0287 09       		.uleb128 0x9
 704 0288 51050000 		.4byte	.LASF25
 705 028c 05       		.byte	0x5
 706 028d 7101     		.2byte	0x171
 707 028f EE010000 		.4byte	0x1ee
 708 0293 10       		.byte	0x10
 709 0294 09       		.uleb128 0x9
 710 0295 3D060000 		.4byte	.LASF26
 711 0299 05       		.byte	0x5
 712 029a 7201     		.2byte	0x172
 713 029c EE010000 		.4byte	0x1ee
 714 02a0 14       		.byte	0x14
 715 02a1 09       		.uleb128 0x9
 716 02a2 1B060000 		.4byte	.LASF48
 717 02a6 05       		.byte	0x5
 718 02a7 7501     		.2byte	0x175
 719 02a9 EE010000 		.4byte	0x1ee
 720 02ad 18       		.byte	0x18
 721 02ae 00       		.byte	0
 722 02af 04       		.uleb128 0x4
 723 02b0 4C010000 		.4byte	.LASF49
 724 02b4 04       		.byte	0x4
 725 02b5 5C       		.byte	0x5c
 726 02b6 BA020000 		.4byte	0x2ba
 727 02ba 0A       		.uleb128 0xa
 728 02bb 04       		.byte	0x4
 729 02bc C0020000 		.4byte	0x2c0
 730 02c0 0C       		.uleb128 0xc
 731 02c1 CB020000 		.4byte	0x2cb
 732 02c5 0D       		.uleb128 0xd
 733 02c6 CB020000 		.4byte	0x2cb
 734 02ca 00       		.byte	0
 735 02cb 0E       		.uleb128 0xe
 736 02cc 04       		.byte	0x4
 737 02cd 04       		.uleb128 0x4
 738 02ce E6030000 		.4byte	.LASF50
 739 02d2 04       		.byte	0x4
 740 02d3 61       		.byte	0x61
 741 02d4 D8020000 		.4byte	0x2d8
 742 02d8 0B       		.uleb128 0xb
 743 02d9 AE010000 		.4byte	.LASF51
 744 02dd 14       		.byte	0x14
 745 02de 05       		.byte	0x5
 746 02df 4501     		.2byte	0x145
 747 02e1 27030000 		.4byte	0x327
 748 02e5 09       		.uleb128 0x9
 749 02e6 B2000000 		.4byte	.LASF42
 750 02ea 05       		.byte	0x5
 751 02eb 4601     		.2byte	0x146
 752 02ed 39070000 		.4byte	0x739
 753 02f1 00       		.byte	0
ARM GAS  /tmp/ccUJk4UB.s 			page 29


 754 02f2 09       		.uleb128 0x9
 755 02f3 20010000 		.4byte	.LASF45
 756 02f7 05       		.byte	0x5
 757 02f8 4701     		.2byte	0x147
 758 02fa 39070000 		.4byte	0x739
 759 02fe 04       		.byte	0x4
 760 02ff 09       		.uleb128 0x9
 761 0300 F2050000 		.4byte	.LASF52
 762 0304 05       		.byte	0x5
 763 0305 4801     		.2byte	0x148
 764 0307 EF000000 		.4byte	0xef
 765 030b 08       		.byte	0x8
 766 030c 09       		.uleb128 0x9
 767 030d 0F010000 		.4byte	.LASF53
 768 0311 05       		.byte	0x5
 769 0312 4901     		.2byte	0x149
 770 0314 AF020000 		.4byte	0x2af
 771 0318 0C       		.byte	0xc
 772 0319 08       		.uleb128 0x8
 773 031a 70617200 		.ascii	"par\000"
 774 031e 05       		.byte	0x5
 775 031f 4B01     		.2byte	0x14b
 776 0321 CB020000 		.4byte	0x2cb
 777 0325 10       		.byte	0x10
 778 0326 00       		.byte	0
 779 0327 04       		.uleb128 0x4
 780 0328 76050000 		.4byte	.LASF54
 781 032c 04       		.byte	0x4
 782 032d 66       		.byte	0x66
 783 032e 32030000 		.4byte	0x332
 784 0332 0B       		.uleb128 0xb
 785 0333 34020000 		.4byte	.LASF55
 786 0337 0C       		.byte	0xc
 787 0338 05       		.byte	0x5
 788 0339 5501     		.2byte	0x155
 789 033b 74030000 		.4byte	0x374
 790 033f 09       		.uleb128 0x9
 791 0340 B2000000 		.4byte	.LASF42
 792 0344 05       		.byte	0x5
 793 0345 5601     		.2byte	0x156
 794 0347 39070000 		.4byte	0x739
 795 034b 00       		.byte	0
 796 034c 09       		.uleb128 0x9
 797 034d 20010000 		.4byte	.LASF45
 798 0351 05       		.byte	0x5
 799 0352 5801     		.2byte	0x158
 800 0354 39070000 		.4byte	0x739
 801 0358 04       		.byte	0x4
 802 0359 09       		.uleb128 0x9
 803 035a F2050000 		.4byte	.LASF52
 804 035e 05       		.byte	0x5
 805 035f 5A01     		.2byte	0x15a
 806 0361 EF000000 		.4byte	0xef
 807 0365 08       		.byte	0x8
 808 0366 09       		.uleb128 0x9
 809 0367 B9040000 		.4byte	.LASF56
 810 036b 05       		.byte	0x5
ARM GAS  /tmp/ccUJk4UB.s 			page 30


 811 036c 6201     		.2byte	0x162
 812 036e EF000000 		.4byte	0xef
 813 0372 0A       		.byte	0xa
 814 0373 00       		.byte	0
 815 0374 04       		.uleb128 0x4
 816 0375 B0030000 		.4byte	.LASF57
 817 0379 04       		.byte	0x4
 818 037a 6B       		.byte	0x6b
 819 037b 7F030000 		.4byte	0x37f
 820 037f 0B       		.uleb128 0xb
 821 0380 55010000 		.4byte	.LASF58
 822 0384 04       		.byte	0x4
 823 0385 05       		.byte	0x5
 824 0386 7C01     		.2byte	0x17c
 825 0388 9A030000 		.4byte	0x39a
 826 038c 09       		.uleb128 0x9
 827 038d 1A040000 		.4byte	.LASF59
 828 0391 05       		.byte	0x5
 829 0392 8401     		.2byte	0x184
 830 0394 3F070000 		.4byte	0x73f
 831 0398 00       		.byte	0
 832 0399 00       		.byte	0
 833 039a 04       		.uleb128 0x4
 834 039b C6050000 		.4byte	.LASF60
 835 039f 04       		.byte	0x4
 836 03a0 70       		.byte	0x70
 837 03a1 A5030000 		.4byte	0x3a5
 838 03a5 0B       		.uleb128 0xb
 839 03a6 92040000 		.4byte	.LASF61
 840 03aa 70       		.byte	0x70
 841 03ab 05       		.byte	0x5
 842 03ac 9C01     		.2byte	0x19c
 843 03ae E7030000 		.4byte	0x3e7
 844 03b2 09       		.uleb128 0x9
 845 03b3 D3040000 		.4byte	.LASF62
 846 03b7 05       		.byte	0x5
 847 03b8 A001     		.2byte	0x1a0
 848 03ba 48020000 		.4byte	0x248
 849 03be 00       		.byte	0
 850 03bf 09       		.uleb128 0x9
 851 03c0 ED000000 		.4byte	.LASF63
 852 03c4 05       		.byte	0x5
 853 03c5 A401     		.2byte	0x1a4
 854 03c7 27030000 		.4byte	0x327
 855 03cb 1C       		.byte	0x1c
 856 03cc 08       		.uleb128 0x8
 857 03cd 64626700 		.ascii	"dbg\000"
 858 03d1 05       		.byte	0x5
 859 03d2 A801     		.2byte	0x1a8
 860 03d4 74030000 		.4byte	0x374
 861 03d8 28       		.byte	0x28
 862 03d9 09       		.uleb128 0x9
 863 03da 2C040000 		.4byte	.LASF64
 864 03de 05       		.byte	0x5
 865 03df AC01     		.2byte	0x1ac
 866 03e1 FA000000 		.4byte	0xfa
 867 03e5 2C       		.byte	0x2c
ARM GAS  /tmp/ccUJk4UB.s 			page 31


 868 03e6 00       		.byte	0
 869 03e7 03       		.uleb128 0x3
 870 03e8 04       		.byte	0x4
 871 03e9 07       		.byte	0x7
 872 03ea 0B050000 		.4byte	.LASF65
 873 03ee 0F       		.uleb128 0xf
 874 03ef 77000000 		.4byte	0x77
 875 03f3 10       		.uleb128 0x10
 876 03f4 77000000 		.4byte	0x77
 877 03f8 03040000 		.4byte	0x403
 878 03fc 11       		.uleb128 0x11
 879 03fd E7030000 		.4byte	0x3e7
 880 0401 01       		.byte	0x1
 881 0402 00       		.byte	0
 882 0403 10       		.uleb128 0x10
 883 0404 77000000 		.4byte	0x77
 884 0408 13040000 		.4byte	0x413
 885 040c 11       		.uleb128 0x11
 886 040d E7030000 		.4byte	0x3e7
 887 0411 03       		.byte	0x3
 888 0412 00       		.byte	0
 889 0413 12       		.uleb128 0x12
 890 0414 1C       		.byte	0x1c
 891 0415 06       		.byte	0x6
 892 0416 5B01     		.2byte	0x15b
 893 0418 78040000 		.4byte	0x478
 894 041c 08       		.uleb128 0x8
 895 041d 43524C00 		.ascii	"CRL\000"
 896 0421 06       		.byte	0x6
 897 0422 5D01     		.2byte	0x15d
 898 0424 EE030000 		.4byte	0x3ee
 899 0428 00       		.byte	0
 900 0429 08       		.uleb128 0x8
 901 042a 43524800 		.ascii	"CRH\000"
 902 042e 06       		.byte	0x6
 903 042f 5E01     		.2byte	0x15e
 904 0431 EE030000 		.4byte	0x3ee
 905 0435 04       		.byte	0x4
 906 0436 08       		.uleb128 0x8
 907 0437 49445200 		.ascii	"IDR\000"
 908 043b 06       		.byte	0x6
 909 043c 5F01     		.2byte	0x15f
 910 043e EE030000 		.4byte	0x3ee
 911 0442 08       		.byte	0x8
 912 0443 08       		.uleb128 0x8
 913 0444 4F445200 		.ascii	"ODR\000"
 914 0448 06       		.byte	0x6
 915 0449 6001     		.2byte	0x160
 916 044b EE030000 		.4byte	0x3ee
 917 044f 0C       		.byte	0xc
 918 0450 09       		.uleb128 0x9
 919 0451 75000000 		.4byte	.LASF66
 920 0455 06       		.byte	0x6
 921 0456 6101     		.2byte	0x161
 922 0458 EE030000 		.4byte	0x3ee
 923 045c 10       		.byte	0x10
 924 045d 08       		.uleb128 0x8
ARM GAS  /tmp/ccUJk4UB.s 			page 32


 925 045e 42525200 		.ascii	"BRR\000"
 926 0462 06       		.byte	0x6
 927 0463 6201     		.2byte	0x162
 928 0465 EE030000 		.4byte	0x3ee
 929 0469 14       		.byte	0x14
 930 046a 09       		.uleb128 0x9
 931 046b 4C060000 		.4byte	.LASF67
 932 046f 06       		.byte	0x6
 933 0470 6301     		.2byte	0x163
 934 0472 EE030000 		.4byte	0x3ee
 935 0476 18       		.byte	0x18
 936 0477 00       		.byte	0
 937 0478 13       		.uleb128 0x13
 938 0479 F7040000 		.4byte	.LASF68
 939 047d 06       		.byte	0x6
 940 047e 6401     		.2byte	0x164
 941 0480 13040000 		.4byte	0x413
 942 0484 04       		.uleb128 0x4
 943 0485 7A000000 		.4byte	.LASF69
 944 0489 07       		.byte	0x7
 945 048a 65       		.byte	0x65
 946 048b CB020000 		.4byte	0x2cb
 947 048f 04       		.uleb128 0x4
 948 0490 0B060000 		.4byte	.LASF70
 949 0494 07       		.byte	0x7
 950 0495 6D       		.byte	0x6d
 951 0496 90000000 		.4byte	0x90
 952 049a 05       		.uleb128 0x5
 953 049b F4000000 		.4byte	.LASF71
 954 049f 04       		.byte	0x4
 955 04a0 07       		.byte	0x7
 956 04a1 89       		.byte	0x89
 957 04a2 B2040000 		.4byte	0x4b2
 958 04a6 07       		.uleb128 0x7
 959 04a7 737000   		.ascii	"sp\000"
 960 04aa 07       		.byte	0x7
 961 04ab 8A       		.byte	0x8a
 962 04ac 2E050000 		.4byte	0x52e
 963 04b0 00       		.byte	0
 964 04b1 00       		.byte	0
 965 04b2 0B       		.uleb128 0xb
 966 04b3 79040000 		.4byte	.LASF72
 967 04b7 24       		.byte	0x24
 968 04b8 08       		.byte	0x8
 969 04b9 5901     		.2byte	0x159
 970 04bb 2E050000 		.4byte	0x52e
 971 04bf 08       		.uleb128 0x8
 972 04c0 723400   		.ascii	"r4\000"
 973 04c3 08       		.byte	0x8
 974 04c4 6C01     		.2byte	0x16c
 975 04c6 84040000 		.4byte	0x484
 976 04ca 00       		.byte	0
 977 04cb 08       		.uleb128 0x8
 978 04cc 723500   		.ascii	"r5\000"
 979 04cf 08       		.byte	0x8
 980 04d0 6D01     		.2byte	0x16d
 981 04d2 84040000 		.4byte	0x484
ARM GAS  /tmp/ccUJk4UB.s 			page 33


 982 04d6 04       		.byte	0x4
 983 04d7 08       		.uleb128 0x8
 984 04d8 723600   		.ascii	"r6\000"
 985 04db 08       		.byte	0x8
 986 04dc 6E01     		.2byte	0x16e
 987 04de 84040000 		.4byte	0x484
 988 04e2 08       		.byte	0x8
 989 04e3 08       		.uleb128 0x8
 990 04e4 723700   		.ascii	"r7\000"
 991 04e7 08       		.byte	0x8
 992 04e8 6F01     		.2byte	0x16f
 993 04ea 84040000 		.4byte	0x484
 994 04ee 0C       		.byte	0xc
 995 04ef 08       		.uleb128 0x8
 996 04f0 723800   		.ascii	"r8\000"
 997 04f3 08       		.byte	0x8
 998 04f4 7001     		.2byte	0x170
 999 04f6 84040000 		.4byte	0x484
 1000 04fa 10       		.byte	0x10
 1001 04fb 08       		.uleb128 0x8
 1002 04fc 723900   		.ascii	"r9\000"
 1003 04ff 08       		.byte	0x8
 1004 0500 7101     		.2byte	0x171
 1005 0502 84040000 		.4byte	0x484
 1006 0506 14       		.byte	0x14
 1007 0507 08       		.uleb128 0x8
 1008 0508 72313000 		.ascii	"r10\000"
 1009 050c 08       		.byte	0x8
 1010 050d 7201     		.2byte	0x172
 1011 050f 84040000 		.4byte	0x484
 1012 0513 18       		.byte	0x18
 1013 0514 08       		.uleb128 0x8
 1014 0515 72313100 		.ascii	"r11\000"
 1015 0519 08       		.byte	0x8
 1016 051a 7301     		.2byte	0x173
 1017 051c 84040000 		.4byte	0x484
 1018 0520 1C       		.byte	0x1c
 1019 0521 08       		.uleb128 0x8
 1020 0522 6C7200   		.ascii	"lr\000"
 1021 0525 08       		.byte	0x8
 1022 0526 7401     		.2byte	0x174
 1023 0528 84040000 		.4byte	0x484
 1024 052c 20       		.byte	0x20
 1025 052d 00       		.byte	0
 1026 052e 0A       		.uleb128 0xa
 1027 052f 04       		.byte	0x4
 1028 0530 B2040000 		.4byte	0x4b2
 1029 0534 12       		.uleb128 0x12
 1030 0535 60       		.byte	0x60
 1031 0536 09       		.byte	0x9
 1032 0537 A101     		.2byte	0x1a1
 1033 0539 40060000 		.4byte	0x640
 1034 053d 08       		.uleb128 0x8
 1035 053e 43523100 		.ascii	"CR1\000"
 1036 0542 09       		.byte	0x9
 1037 0543 A201     		.2byte	0x1a2
 1038 0545 EE030000 		.4byte	0x3ee
ARM GAS  /tmp/ccUJk4UB.s 			page 34


 1039 0549 00       		.byte	0
 1040 054a 08       		.uleb128 0x8
 1041 054b 43523200 		.ascii	"CR2\000"
 1042 054f 09       		.byte	0x9
 1043 0550 A301     		.2byte	0x1a3
 1044 0552 EE030000 		.4byte	0x3ee
 1045 0556 04       		.byte	0x4
 1046 0557 09       		.uleb128 0x9
 1047 0558 A1030000 		.4byte	.LASF73
 1048 055c 09       		.byte	0x9
 1049 055d A401     		.2byte	0x1a4
 1050 055f EE030000 		.4byte	0x3ee
 1051 0563 08       		.byte	0x8
 1052 0564 09       		.uleb128 0x9
 1053 0565 90020000 		.4byte	.LASF74
 1054 0569 09       		.byte	0x9
 1055 056a A501     		.2byte	0x1a5
 1056 056c EE030000 		.4byte	0x3ee
 1057 0570 0C       		.byte	0xc
 1058 0571 08       		.uleb128 0x8
 1059 0572 535200   		.ascii	"SR\000"
 1060 0575 09       		.byte	0x9
 1061 0576 A601     		.2byte	0x1a6
 1062 0578 EE030000 		.4byte	0x3ee
 1063 057c 10       		.byte	0x10
 1064 057d 08       		.uleb128 0x8
 1065 057e 45475200 		.ascii	"EGR\000"
 1066 0582 09       		.byte	0x9
 1067 0583 A701     		.2byte	0x1a7
 1068 0585 EE030000 		.4byte	0x3ee
 1069 0589 14       		.byte	0x14
 1070 058a 09       		.uleb128 0x9
 1071 058b BF010000 		.4byte	.LASF75
 1072 058f 09       		.byte	0x9
 1073 0590 A801     		.2byte	0x1a8
 1074 0592 EE030000 		.4byte	0x3ee
 1075 0596 18       		.byte	0x18
 1076 0597 09       		.uleb128 0x9
 1077 0598 C5010000 		.4byte	.LASF76
 1078 059c 09       		.byte	0x9
 1079 059d A901     		.2byte	0x1a9
 1080 059f EE030000 		.4byte	0x3ee
 1081 05a3 1C       		.byte	0x1c
 1082 05a4 09       		.uleb128 0x9
 1083 05a5 4E030000 		.4byte	.LASF77
 1084 05a9 09       		.byte	0x9
 1085 05aa AA01     		.2byte	0x1aa
 1086 05ac EE030000 		.4byte	0x3ee
 1087 05b0 20       		.byte	0x20
 1088 05b1 08       		.uleb128 0x8
 1089 05b2 434E5400 		.ascii	"CNT\000"
 1090 05b6 09       		.byte	0x9
 1091 05b7 AB01     		.2byte	0x1ab
 1092 05b9 EE030000 		.4byte	0x3ee
 1093 05bd 24       		.byte	0x24
 1094 05be 08       		.uleb128 0x8
 1095 05bf 50534300 		.ascii	"PSC\000"
ARM GAS  /tmp/ccUJk4UB.s 			page 35


 1096 05c3 09       		.byte	0x9
 1097 05c4 AC01     		.2byte	0x1ac
 1098 05c6 EE030000 		.4byte	0x3ee
 1099 05ca 28       		.byte	0x28
 1100 05cb 08       		.uleb128 0x8
 1101 05cc 41525200 		.ascii	"ARR\000"
 1102 05d0 09       		.byte	0x9
 1103 05d1 AD01     		.2byte	0x1ad
 1104 05d3 EE030000 		.4byte	0x3ee
 1105 05d7 2C       		.byte	0x2c
 1106 05d8 08       		.uleb128 0x8
 1107 05d9 52435200 		.ascii	"RCR\000"
 1108 05dd 09       		.byte	0x9
 1109 05de AE01     		.2byte	0x1ae
 1110 05e0 EE030000 		.4byte	0x3ee
 1111 05e4 30       		.byte	0x30
 1112 05e5 08       		.uleb128 0x8
 1113 05e6 43435200 		.ascii	"CCR\000"
 1114 05ea 09       		.byte	0x9
 1115 05eb AF01     		.2byte	0x1af
 1116 05ed 40060000 		.4byte	0x640
 1117 05f1 34       		.byte	0x34
 1118 05f2 09       		.uleb128 0x9
 1119 05f3 94010000 		.4byte	.LASF78
 1120 05f7 09       		.byte	0x9
 1121 05f8 B001     		.2byte	0x1b0
 1122 05fa EE030000 		.4byte	0x3ee
 1123 05fe 44       		.byte	0x44
 1124 05ff 08       		.uleb128 0x8
 1125 0600 44435200 		.ascii	"DCR\000"
 1126 0604 09       		.byte	0x9
 1127 0605 B101     		.2byte	0x1b1
 1128 0607 EE030000 		.4byte	0x3ee
 1129 060b 48       		.byte	0x48
 1130 060c 09       		.uleb128 0x9
 1131 060d 36010000 		.4byte	.LASF79
 1132 0611 09       		.byte	0x9
 1133 0612 B201     		.2byte	0x1b2
 1134 0614 EE030000 		.4byte	0x3ee
 1135 0618 4C       		.byte	0x4c
 1136 0619 08       		.uleb128 0x8
 1137 061a 4F5200   		.ascii	"OR\000"
 1138 061d 09       		.byte	0x9
 1139 061e B301     		.2byte	0x1b3
 1140 0620 EE030000 		.4byte	0x3ee
 1141 0624 50       		.byte	0x50
 1142 0625 09       		.uleb128 0x9
 1143 0626 CB010000 		.4byte	.LASF80
 1144 062a 09       		.byte	0x9
 1145 062b B401     		.2byte	0x1b4
 1146 062d EE030000 		.4byte	0x3ee
 1147 0631 54       		.byte	0x54
 1148 0632 09       		.uleb128 0x9
 1149 0633 52040000 		.4byte	.LASF81
 1150 0637 09       		.byte	0x9
 1151 0638 B501     		.2byte	0x1b5
 1152 063a 45060000 		.4byte	0x645
ARM GAS  /tmp/ccUJk4UB.s 			page 36


 1153 063e 58       		.byte	0x58
 1154 063f 00       		.byte	0
 1155 0640 0F       		.uleb128 0xf
 1156 0641 03040000 		.4byte	0x403
 1157 0645 0F       		.uleb128 0xf
 1158 0646 F3030000 		.4byte	0x3f3
 1159 064a 13       		.uleb128 0x13
 1160 064b 75020000 		.4byte	.LASF82
 1161 064f 09       		.byte	0x9
 1162 0650 B601     		.2byte	0x1b6
 1163 0652 34050000 		.4byte	0x534
 1164 0656 14       		.uleb128 0x14
 1165 0657 04       		.byte	0x4
 1166 0658 05       		.byte	0x5
 1167 0659 D2       		.byte	0xd2
 1168 065a B9060000 		.4byte	0x6b9
 1169 065e 15       		.uleb128 0x15
 1170 065f 6E020000 		.4byte	.LASF83
 1171 0663 05       		.byte	0x5
 1172 0664 D9       		.byte	0xd9
 1173 0665 CE000000 		.4byte	0xce
 1174 0669 15       		.uleb128 0x15
 1175 066a 43060000 		.4byte	.LASF84
 1176 066e 05       		.byte	0x5
 1177 066f E0       		.byte	0xe0
 1178 0670 CE000000 		.4byte	0xce
 1179 0674 15       		.uleb128 0x15
 1180 0675 E6000000 		.4byte	.LASF85
 1181 0679 05       		.byte	0x5
 1182 067a E7       		.byte	0xe7
 1183 067b CB020000 		.4byte	0x2cb
 1184 067f 15       		.uleb128 0x15
 1185 0680 D9050000 		.4byte	.LASF86
 1186 0684 05       		.byte	0x5
 1187 0685 EE       		.byte	0xee
 1188 0686 B9060000 		.4byte	0x6b9
 1189 068a 15       		.uleb128 0x15
 1190 068b 80010000 		.4byte	.LASF87
 1191 068f 05       		.byte	0x5
 1192 0690 F3       		.byte	0xf3
 1193 0691 CE000000 		.4byte	0xce
 1194 0695 15       		.uleb128 0x15
 1195 0696 D2050000 		.4byte	.LASF88
 1196 069a 05       		.byte	0x5
 1197 069b FC       		.byte	0xfc
 1198 069c E4060000 		.4byte	0x6e4
 1199 06a0 16       		.uleb128 0x16
 1200 06a1 2C060000 		.4byte	.LASF89
 1201 06a5 05       		.byte	0x5
 1202 06a6 0501     		.2byte	0x105
 1203 06a8 1B070000 		.4byte	0x71b
 1204 06ac 16       		.uleb128 0x16
 1205 06ad 14010000 		.4byte	.LASF90
 1206 06b1 05       		.byte	0x5
 1207 06b2 0D01     		.2byte	0x10d
 1208 06b4 D9000000 		.4byte	0xd9
 1209 06b8 00       		.byte	0
ARM GAS  /tmp/ccUJk4UB.s 			page 37


 1210 06b9 0A       		.uleb128 0xa
 1211 06ba 04       		.byte	0x4
 1212 06bb E3010000 		.4byte	0x1e3
 1213 06bf 05       		.uleb128 0x5
 1214 06c0 99010000 		.4byte	.LASF91
 1215 06c4 0C       		.byte	0xc
 1216 06c5 0A       		.byte	0xa
 1217 06c6 34       		.byte	0x34
 1218 06c7 E4060000 		.4byte	0x6e4
 1219 06cb 06       		.uleb128 0x6
 1220 06cc 3B050000 		.4byte	.LASF23
 1221 06d0 0A       		.byte	0xa
 1222 06d1 35       		.byte	0x35
 1223 06d2 18020000 		.4byte	0x218
 1224 06d6 00       		.byte	0
 1225 06d7 07       		.uleb128 0x7
 1226 06d8 636E7400 		.ascii	"cnt\000"
 1227 06dc 0A       		.byte	0xa
 1228 06dd 37       		.byte	0x37
 1229 06de E4000000 		.4byte	0xe4
 1230 06e2 08       		.byte	0x8
 1231 06e3 00       		.byte	0
 1232 06e4 0A       		.uleb128 0xa
 1233 06e5 04       		.byte	0x4
 1234 06e6 BF060000 		.4byte	0x6bf
 1235 06ea 05       		.uleb128 0x5
 1236 06eb 87020000 		.4byte	.LASF92
 1237 06ef 10       		.byte	0x10
 1238 06f0 0B       		.byte	0xb
 1239 06f1 39       		.byte	0x39
 1240 06f2 1B070000 		.4byte	0x71b
 1241 06f6 06       		.uleb128 0x6
 1242 06f7 3B050000 		.4byte	.LASF23
 1243 06fb 0B       		.byte	0xb
 1244 06fc 3A       		.byte	0x3a
 1245 06fd 18020000 		.4byte	0x218
 1246 0701 00       		.byte	0
 1247 0702 06       		.uleb128 0x6
 1248 0703 16020000 		.4byte	.LASF93
 1249 0707 0B       		.byte	0xb
 1250 0708 3C       		.byte	0x3c
 1251 0709 EE010000 		.4byte	0x1ee
 1252 070d 08       		.byte	0x8
 1253 070e 06       		.uleb128 0x6
 1254 070f B2000000 		.4byte	.LASF42
 1255 0713 0B       		.byte	0xb
 1256 0714 3E       		.byte	0x3e
 1257 0715 4F070000 		.4byte	0x74f
 1258 0719 0C       		.byte	0xc
 1259 071a 00       		.byte	0
 1260 071b 0A       		.uleb128 0xa
 1261 071c 04       		.byte	0x4
 1262 071d EA060000 		.4byte	0x6ea
 1263 0721 0A       		.uleb128 0xa
 1264 0722 04       		.byte	0x4
 1265 0723 27070000 		.4byte	0x727
 1266 0727 17       		.uleb128 0x17
ARM GAS  /tmp/ccUJk4UB.s 			page 38


 1267 0728 2C070000 		.4byte	0x72c
 1268 072c 03       		.uleb128 0x3
 1269 072d 01       		.byte	0x1
 1270 072e 08       		.byte	0x8
 1271 072f 5E030000 		.4byte	.LASF94
 1272 0733 0A       		.uleb128 0xa
 1273 0734 04       		.byte	0x4
 1274 0735 8F040000 		.4byte	0x48f
 1275 0739 0A       		.uleb128 0xa
 1276 073a 04       		.byte	0x4
 1277 073b CD020000 		.4byte	0x2cd
 1278 073f 0F       		.uleb128 0xf
 1279 0740 21070000 		.4byte	0x721
 1280 0744 04       		.uleb128 0x4
 1281 0745 49050000 		.4byte	.LASF95
 1282 0749 0B       		.byte	0xb
 1283 074a 34       		.byte	0x34
 1284 074b EA060000 		.4byte	0x6ea
 1285 074f 0A       		.uleb128 0xa
 1286 0750 04       		.byte	0x4
 1287 0751 44070000 		.4byte	0x744
 1288 0755 03       		.uleb128 0x3
 1289 0756 01       		.byte	0x1
 1290 0757 02       		.byte	0x2
 1291 0758 81020000 		.4byte	.LASF96
 1292 075c 04       		.uleb128 0x4
 1293 075d F6030000 		.4byte	.LASF97
 1294 0761 0C       		.byte	0xc
 1295 0762 92       		.byte	0x92
 1296 0763 77000000 		.4byte	0x77
 1297 0767 04       		.uleb128 0x4
 1298 0768 03040000 		.4byte	.LASF98
 1299 076c 0C       		.byte	0xc
 1300 076d 97       		.byte	0x97
 1301 076e 77000000 		.4byte	0x77
 1302 0772 04       		.uleb128 0x4
 1303 0773 D9040000 		.4byte	.LASF99
 1304 0777 0C       		.byte	0xc
 1305 0778 A4       		.byte	0xa4
 1306 0779 7D070000 		.4byte	0x77d
 1307 077d 0A       		.uleb128 0xa
 1308 077e 04       		.byte	0x4
 1309 077f 78040000 		.4byte	0x478
 1310 0783 18       		.uleb128 0x18
 1311 0784 01       		.byte	0x1
 1312 0785 0D       		.byte	0xd
 1313 0786 4A       		.byte	0x4a
 1314 0787 9E070000 		.4byte	0x79e
 1315 078b 19       		.uleb128 0x19
 1316 078c 3E030000 		.4byte	.LASF100
 1317 0790 00       		.sleb128 0
 1318 0791 19       		.uleb128 0x19
 1319 0792 23060000 		.4byte	.LASF101
 1320 0796 01       		.sleb128 1
 1321 0797 19       		.uleb128 0x19
 1322 0798 33060000 		.4byte	.LASF102
 1323 079c 02       		.sleb128 2
ARM GAS  /tmp/ccUJk4UB.s 			page 39


 1324 079d 00       		.byte	0
 1325 079e 04       		.uleb128 0x4
 1326 079f 53030000 		.4byte	.LASF103
 1327 07a3 0D       		.byte	0xd
 1328 07a4 4E       		.byte	0x4e
 1329 07a5 83070000 		.4byte	0x783
 1330 07a9 04       		.uleb128 0x4
 1331 07aa B7000000 		.4byte	.LASF104
 1332 07ae 0D       		.byte	0xd
 1333 07af 53       		.byte	0x53
 1334 07b0 B4070000 		.4byte	0x7b4
 1335 07b4 0B       		.uleb128 0xb
 1336 07b5 B7000000 		.4byte	.LASF104
 1337 07b9 1C       		.byte	0x1c
 1338 07ba 0E       		.byte	0xe
 1339 07bb B301     		.2byte	0x1b3
 1340 07bd 1D080000 		.4byte	0x81d
 1341 07c1 09       		.uleb128 0x9
 1342 07c2 A1050000 		.4byte	.LASF29
 1343 07c6 0E       		.byte	0xe
 1344 07c7 B701     		.2byte	0x1b7
 1345 07c9 9E070000 		.4byte	0x79e
 1346 07cd 00       		.byte	0
 1347 07ce 09       		.uleb128 0x9
 1348 07cf 57040000 		.4byte	.LASF105
 1349 07d3 0E       		.byte	0xe
 1350 07d4 BB01     		.2byte	0x1bb
 1351 07d6 20090000 		.4byte	0x920
 1352 07da 04       		.byte	0x4
 1353 07db 09       		.uleb128 0x9
 1354 07dc EB050000 		.4byte	.LASF106
 1355 07e0 0E       		.byte	0xe
 1356 07e1 BF01     		.2byte	0x1bf
 1357 07e3 63080000 		.4byte	0x863
 1358 07e7 08       		.byte	0x8
 1359 07e8 09       		.uleb128 0x9
 1360 07e9 5E040000 		.4byte	.LASF107
 1361 07ed 0E       		.byte	0xe
 1362 07ee C301     		.2byte	0x1c3
 1363 07f0 57080000 		.4byte	0x857
 1364 07f4 0C       		.byte	0xc
 1365 07f5 09       		.uleb128 0x9
 1366 07f6 DD030000 		.4byte	.LASF108
 1367 07fa 0E       		.byte	0xe
 1368 07fb C701     		.2byte	0x1c7
 1369 07fd 4B080000 		.4byte	0x84b
 1370 0801 10       		.byte	0x10
 1371 0802 09       		.uleb128 0x9
 1372 0803 38030000 		.4byte	.LASF109
 1373 0807 0E       		.byte	0xe
 1374 0808 CF01     		.2byte	0x1cf
 1375 080a 77000000 		.4byte	0x77
 1376 080e 14       		.byte	0x14
 1377 080f 08       		.uleb128 0x8
 1378 0810 74696D00 		.ascii	"tim\000"
 1379 0814 0E       		.byte	0xe
 1380 0815 D301     		.2byte	0x1d3
ARM GAS  /tmp/ccUJk4UB.s 			page 40


 1381 0817 2B090000 		.4byte	0x92b
 1382 081b 18       		.byte	0x18
 1383 081c 00       		.byte	0
 1384 081d 04       		.uleb128 0x4
 1385 081e E4040000 		.4byte	.LASF110
 1386 0822 0D       		.byte	0xd
 1387 0823 5A       		.byte	0x5a
 1388 0824 28080000 		.4byte	0x828
 1389 0828 0A       		.uleb128 0xa
 1390 0829 04       		.byte	0x4
 1391 082a 2E080000 		.4byte	0x82e
 1392 082e 0C       		.uleb128 0xc
 1393 082f 39080000 		.4byte	0x839
 1394 0833 0D       		.uleb128 0xd
 1395 0834 39080000 		.4byte	0x839
 1396 0838 00       		.byte	0
 1397 0839 0A       		.uleb128 0xa
 1398 083a 04       		.byte	0x4
 1399 083b A9070000 		.4byte	0x7a9
 1400 083f 13       		.uleb128 0x13
 1401 0840 D3030000 		.4byte	.LASF111
 1402 0844 0E       		.byte	0xe
 1403 0845 5F01     		.2byte	0x15f
 1404 0847 77000000 		.4byte	0x77
 1405 084b 13       		.uleb128 0x13
 1406 084c 45040000 		.4byte	.LASF112
 1407 0850 0E       		.byte	0xe
 1408 0851 6401     		.2byte	0x164
 1409 0853 3A000000 		.4byte	0x3a
 1410 0857 13       		.uleb128 0x13
 1411 0858 4B020000 		.4byte	.LASF113
 1412 085c 0E       		.byte	0xe
 1413 085d 6901     		.2byte	0x169
 1414 085f 77000000 		.4byte	0x77
 1415 0863 13       		.uleb128 0x13
 1416 0864 57050000 		.4byte	.LASF114
 1417 0868 0E       		.byte	0xe
 1418 0869 6E01     		.2byte	0x16e
 1419 086b 77000000 		.4byte	0x77
 1420 086f 12       		.uleb128 0x12
 1421 0870 08       		.byte	0x8
 1422 0871 0E       		.byte	0xe
 1423 0872 7301     		.2byte	0x173
 1424 0874 93080000 		.4byte	0x893
 1425 0878 09       		.uleb128 0x9
 1426 0879 1B010000 		.4byte	.LASF115
 1427 087d 0E       		.byte	0xe
 1428 087e 7701     		.2byte	0x177
 1429 0880 3F080000 		.4byte	0x83f
 1430 0884 00       		.byte	0
 1431 0885 09       		.uleb128 0x9
 1432 0886 A7050000 		.4byte	.LASF116
 1433 088a 0E       		.byte	0xe
 1434 088b 7D01     		.2byte	0x17d
 1435 088d 1D080000 		.4byte	0x81d
 1436 0891 04       		.byte	0x4
 1437 0892 00       		.byte	0
ARM GAS  /tmp/ccUJk4UB.s 			page 41


 1438 0893 13       		.uleb128 0x13
 1439 0894 3B010000 		.4byte	.LASF117
 1440 0898 0E       		.byte	0xe
 1441 0899 7F01     		.2byte	0x17f
 1442 089b 6F080000 		.4byte	0x86f
 1443 089f 12       		.uleb128 0x12
 1444 08a0 38       		.byte	0x38
 1445 08a1 0E       		.byte	0xe
 1446 08a2 8401     		.2byte	0x184
 1447 08a4 04090000 		.4byte	0x904
 1448 08a8 09       		.uleb128 0x9
 1449 08a9 97050000 		.4byte	.LASF118
 1450 08ad 0E       		.byte	0xe
 1451 08ae 8A01     		.2byte	0x18a
 1452 08b0 77000000 		.4byte	0x77
 1453 08b4 00       		.byte	0
 1454 08b5 09       		.uleb128 0x9
 1455 08b6 EB050000 		.4byte	.LASF106
 1456 08ba 0E       		.byte	0xe
 1457 08bb 9001     		.2byte	0x190
 1458 08bd 63080000 		.4byte	0x863
 1459 08c1 04       		.byte	0x4
 1460 08c2 09       		.uleb128 0x9
 1461 08c3 A7050000 		.4byte	.LASF116
 1462 08c7 0E       		.byte	0xe
 1463 08c8 9601     		.2byte	0x196
 1464 08ca 1D080000 		.4byte	0x81d
 1465 08ce 08       		.byte	0x8
 1466 08cf 09       		.uleb128 0x9
 1467 08d0 DD030000 		.4byte	.LASF108
 1468 08d4 0E       		.byte	0xe
 1469 08d5 9A01     		.2byte	0x19a
 1470 08d7 04090000 		.4byte	0x904
 1471 08db 0C       		.byte	0xc
 1472 08dc 08       		.uleb128 0x8
 1473 08dd 63723200 		.ascii	"cr2\000"
 1474 08e1 0E       		.byte	0xe
 1475 08e2 A001     		.2byte	0x1a0
 1476 08e4 77000000 		.4byte	0x77
 1477 08e8 2C       		.byte	0x2c
 1478 08e9 09       		.uleb128 0x9
 1479 08ea 15040000 		.4byte	.LASF119
 1480 08ee 0E       		.byte	0xe
 1481 08ef A601     		.2byte	0x1a6
 1482 08f1 77000000 		.4byte	0x77
 1483 08f5 30       		.byte	0x30
 1484 08f6 09       		.uleb128 0x9
 1485 08f7 40040000 		.4byte	.LASF120
 1486 08fb 0E       		.byte	0xe
 1487 08fc AD01     		.2byte	0x1ad
 1488 08fe 77000000 		.4byte	0x77
 1489 0902 34       		.byte	0x34
 1490 0903 00       		.byte	0
 1491 0904 10       		.uleb128 0x10
 1492 0905 93080000 		.4byte	0x893
 1493 0909 14090000 		.4byte	0x914
 1494 090d 11       		.uleb128 0x11
ARM GAS  /tmp/ccUJk4UB.s 			page 42


 1495 090e E7030000 		.4byte	0x3e7
 1496 0912 03       		.byte	0x3
 1497 0913 00       		.byte	0
 1498 0914 13       		.uleb128 0x13
 1499 0915 0C020000 		.4byte	.LASF121
 1500 0919 0E       		.byte	0xe
 1501 091a AE01     		.2byte	0x1ae
 1502 091c 9F080000 		.4byte	0x89f
 1503 0920 0A       		.uleb128 0xa
 1504 0921 04       		.byte	0x4
 1505 0922 26090000 		.4byte	0x926
 1506 0926 17       		.uleb128 0x17
 1507 0927 14090000 		.4byte	0x914
 1508 092b 0A       		.uleb128 0xa
 1509 092c 04       		.byte	0x4
 1510 092d 4A060000 		.4byte	0x64a
 1511 0931 1A       		.uleb128 0x1a
 1512 0932 16060000 		.4byte	.LASF136
 1513 0936 01       		.byte	0x1
 1514 0937 16       		.byte	0x16
 1515 0938 25000000 		.4byte	0x25
 1516 093c 00000000 		.4byte	.LFB219
 1517 0940 88000000 		.4byte	.LFE219-.LFB219
 1518 0944 01       		.uleb128 0x1
 1519 0945 9C       		.byte	0x9c
 1520 0946 420A0000 		.4byte	0xa42
 1521 094a 1B       		.uleb128 0x1b
 1522 094b 0E000000 		.4byte	.LVL0
 1523 094f 7B0A0000 		.4byte	0xa7b
 1524 0953 1B       		.uleb128 0x1b
 1525 0954 12000000 		.4byte	.LVL1
 1526 0958 820A0000 		.4byte	0xa82
 1527 095c 1C       		.uleb128 0x1c
 1528 095d 20000000 		.4byte	.LVL2
 1529 0961 8A0A0000 		.4byte	0xa8a
 1530 0965 79090000 		.4byte	0x979
 1531 0969 1D       		.uleb128 0x1d
 1532 096a 01       		.uleb128 0x1
 1533 096b 51       		.byte	0x51
 1534 096c 05       		.uleb128 0x5
 1535 096d 03       		.byte	0x3
 1536 096e 00000000 		.4byte	.LANCHOR0
 1537 0972 1D       		.uleb128 0x1d
 1538 0973 01       		.uleb128 0x1
 1539 0974 50       		.byte	0x50
 1540 0975 02       		.uleb128 0x2
 1541 0976 74       		.byte	0x74
 1542 0977 00       		.sleb128 0
 1543 0978 00       		.byte	0
 1544 0979 1C       		.uleb128 0x1c
 1545 097a 26000000 		.4byte	.LVL3
 1546 097e A10A0000 		.4byte	0xaa1
 1547 0982 8D090000 		.4byte	0x98d
 1548 0986 1D       		.uleb128 0x1d
 1549 0987 01       		.uleb128 0x1
 1550 0988 50       		.byte	0x50
 1551 0989 02       		.uleb128 0x2
ARM GAS  /tmp/ccUJk4UB.s 			page 43


 1552 098a 74       		.byte	0x74
 1553 098b 00       		.sleb128 0
 1554 098c 00       		.byte	0
 1555 098d 1C       		.uleb128 0x1c
 1556 098e 38000000 		.4byte	.LVL4
 1557 0992 B30A0000 		.4byte	0xab3
 1558 0996 A7090000 		.4byte	0x9a7
 1559 099a 1D       		.uleb128 0x1d
 1560 099b 01       		.uleb128 0x1
 1561 099c 52       		.byte	0x52
 1562 099d 01       		.uleb128 0x1
 1563 099e 40       		.byte	0x40
 1564 099f 1D       		.uleb128 0x1d
 1565 09a0 01       		.uleb128 0x1
 1566 09a1 51       		.byte	0x51
 1567 09a2 03       		.uleb128 0x3
 1568 09a3 0A       		.byte	0xa
 1569 09a4 0001     		.2byte	0x100
 1570 09a6 00       		.byte	0
 1571 09a7 1C       		.uleb128 0x1c
 1572 09a8 40000000 		.4byte	.LVL5
 1573 09ac CF0A0000 		.4byte	0xacf
 1574 09b0 BC090000 		.4byte	0x9bc
 1575 09b4 1D       		.uleb128 0x1d
 1576 09b5 01       		.uleb128 0x1
 1577 09b6 50       		.byte	0x50
 1578 09b7 03       		.uleb128 0x3
 1579 09b8 0A       		.byte	0xa
 1580 09b9 D007     		.2byte	0x7d0
 1581 09bb 00       		.byte	0
 1582 09bc 1C       		.uleb128 0x1c
 1583 09bd 60000000 		.4byte	.LVL6
 1584 09c1 E10A0000 		.4byte	0xae1
 1585 09c5 D5090000 		.4byte	0x9d5
 1586 09c9 1D       		.uleb128 0x1d
 1587 09ca 01       		.uleb128 0x1
 1588 09cb 51       		.byte	0x51
 1589 09cc 01       		.uleb128 0x1
 1590 09cd 30       		.byte	0x30
 1591 09ce 1D       		.uleb128 0x1d
 1592 09cf 01       		.uleb128 0x1
 1593 09d0 50       		.byte	0x50
 1594 09d1 02       		.uleb128 0x2
 1595 09d2 74       		.byte	0x74
 1596 09d3 00       		.sleb128 0
 1597 09d4 00       		.byte	0
 1598 09d5 1C       		.uleb128 0x1c
 1599 09d6 68000000 		.4byte	.LVL7
 1600 09da FD0A0000 		.4byte	0xafd
 1601 09de EE090000 		.4byte	0x9ee
 1602 09e2 1D       		.uleb128 0x1d
 1603 09e3 01       		.uleb128 0x1
 1604 09e4 51       		.byte	0x51
 1605 09e5 01       		.uleb128 0x1
 1606 09e6 30       		.byte	0x30
 1607 09e7 1D       		.uleb128 0x1d
 1608 09e8 01       		.uleb128 0x1
ARM GAS  /tmp/ccUJk4UB.s 			page 44


 1609 09e9 50       		.byte	0x50
 1610 09ea 02       		.uleb128 0x2
 1611 09eb 74       		.byte	0x74
 1612 09ec 00       		.sleb128 0
 1613 09ed 00       		.byte	0
 1614 09ee 1C       		.uleb128 0x1c
 1615 09ef 70000000 		.4byte	.LVL8
 1616 09f3 CF0A0000 		.4byte	0xacf
 1617 09f7 030A0000 		.4byte	0xa03
 1618 09fb 1D       		.uleb128 0x1d
 1619 09fc 01       		.uleb128 0x1
 1620 09fd 50       		.byte	0x50
 1621 09fe 03       		.uleb128 0x3
 1622 09ff 0A       		.byte	0xa
 1623 0a00 8813     		.2byte	0x1388
 1624 0a02 00       		.byte	0
 1625 0a03 1C       		.uleb128 0x1c
 1626 0a04 78000000 		.4byte	.LVL9
 1627 0a08 140B0000 		.4byte	0xb14
 1628 0a0c 1C0A0000 		.4byte	0xa1c
 1629 0a10 1D       		.uleb128 0x1d
 1630 0a11 01       		.uleb128 0x1
 1631 0a12 51       		.byte	0x51
 1632 0a13 01       		.uleb128 0x1
 1633 0a14 30       		.byte	0x30
 1634 0a15 1D       		.uleb128 0x1d
 1635 0a16 01       		.uleb128 0x1
 1636 0a17 50       		.byte	0x50
 1637 0a18 02       		.uleb128 0x2
 1638 0a19 74       		.byte	0x74
 1639 0a1a 00       		.sleb128 0
 1640 0a1b 00       		.byte	0
 1641 0a1c 1C       		.uleb128 0x1c
 1642 0a1d 7E000000 		.4byte	.LVL10
 1643 0a21 2B0B0000 		.4byte	0xb2b
 1644 0a25 300A0000 		.4byte	0xa30
 1645 0a29 1D       		.uleb128 0x1d
 1646 0a2a 01       		.uleb128 0x1
 1647 0a2b 50       		.byte	0x50
 1648 0a2c 02       		.uleb128 0x2
 1649 0a2d 74       		.byte	0x74
 1650 0a2e 00       		.sleb128 0
 1651 0a2f 00       		.byte	0
 1652 0a30 1E       		.uleb128 0x1e
 1653 0a31 86000000 		.4byte	.LVL11
 1654 0a35 CF0A0000 		.4byte	0xacf
 1655 0a39 1D       		.uleb128 0x1d
 1656 0a3a 01       		.uleb128 0x1
 1657 0a3b 50       		.byte	0x50
 1658 0a3c 03       		.uleb128 0x3
 1659 0a3d 0A       		.byte	0xa
 1660 0a3e F401     		.2byte	0x1f4
 1661 0a40 00       		.byte	0
 1662 0a41 00       		.byte	0
 1663 0a42 1F       		.uleb128 0x1f
 1664 0a43 04050000 		.4byte	.LASF137
 1665 0a47 01       		.byte	0x1
ARM GAS  /tmp/ccUJk4UB.s 			page 45


 1666 0a48 05       		.byte	0x5
 1667 0a49 14090000 		.4byte	0x914
 1668 0a4d 05       		.uleb128 0x5
 1669 0a4e 03       		.byte	0x3
 1670 0a4f 00000000 		.4byte	pwmcfg
 1671 0a53 20       		.uleb128 0x20
 1672 0a54 85040000 		.4byte	.LASF122
 1673 0a58 0F       		.byte	0xf
 1674 0a59 9606     		.2byte	0x696
 1675 0a5b 5F0A0000 		.4byte	0xa5f
 1676 0a5f 0F       		.uleb128 0xf
 1677 0a60 65000000 		.4byte	0x65
 1678 0a64 21       		.uleb128 0x21
 1679 0a65 636800   		.ascii	"ch\000"
 1680 0a68 05       		.byte	0x5
 1681 0a69 D201     		.2byte	0x1d2
 1682 0a6b 9A030000 		.4byte	0x39a
 1683 0a6f 20       		.uleb128 0x20
 1684 0a70 68020000 		.4byte	.LASF123
 1685 0a74 0E       		.byte	0xe
 1686 0a75 F201     		.2byte	0x1f2
 1687 0a77 A9070000 		.4byte	0x7a9
 1688 0a7b 22       		.uleb128 0x22
 1689 0a7c CB040000 		.4byte	.LASF124
 1690 0a80 10       		.byte	0x10
 1691 0a81 E9       		.byte	0xe9
 1692 0a82 23       		.uleb128 0x23
 1693 0a83 63030000 		.4byte	.LASF125
 1694 0a87 11       		.byte	0x11
 1695 0a88 3101     		.2byte	0x131
 1696 0a8a 24       		.uleb128 0x24
 1697 0a8b 0C040000 		.4byte	.LASF126
 1698 0a8f 0D       		.byte	0xd
 1699 0a90 2101     		.2byte	0x121
 1700 0a92 A10A0000 		.4byte	0xaa1
 1701 0a96 0D       		.uleb128 0xd
 1702 0a97 39080000 		.4byte	0x839
 1703 0a9b 0D       		.uleb128 0xd
 1704 0a9c 20090000 		.4byte	0x920
 1705 0aa0 00       		.byte	0
 1706 0aa1 24       		.uleb128 0x24
 1707 0aa2 E8010000 		.4byte	.LASF127
 1708 0aa6 0D       		.byte	0xd
 1709 0aa7 2801     		.2byte	0x128
 1710 0aa9 B30A0000 		.4byte	0xab3
 1711 0aad 0D       		.uleb128 0xd
 1712 0aae 39080000 		.4byte	0x839
 1713 0ab2 00       		.byte	0
 1714 0ab3 24       		.uleb128 0x24
 1715 0ab4 B0050000 		.4byte	.LASF128
 1716 0ab8 0C       		.byte	0xc
 1717 0ab9 6D01     		.2byte	0x16d
 1718 0abb CF0A0000 		.4byte	0xacf
 1719 0abf 0D       		.uleb128 0xd
 1720 0ac0 72070000 		.4byte	0x772
 1721 0ac4 0D       		.uleb128 0xd
 1722 0ac5 5C070000 		.4byte	0x75c
ARM GAS  /tmp/ccUJk4UB.s 			page 46


 1723 0ac9 0D       		.uleb128 0xd
 1724 0aca 67070000 		.4byte	0x767
 1725 0ace 00       		.byte	0
 1726 0acf 24       		.uleb128 0x24
 1727 0ad0 8C050000 		.4byte	.LASF129
 1728 0ad4 12       		.byte	0x12
 1729 0ad5 0901     		.2byte	0x109
 1730 0ad7 E10A0000 		.4byte	0xae1
 1731 0adb 0D       		.uleb128 0xd
 1732 0adc EF000000 		.4byte	0xef
 1733 0ae0 00       		.byte	0
 1734 0ae1 24       		.uleb128 0x24
 1735 0ae2 D5000000 		.4byte	.LASF130
 1736 0ae6 0D       		.byte	0xd
 1737 0ae7 2401     		.2byte	0x124
 1738 0ae9 FD0A0000 		.4byte	0xafd
 1739 0aed 0D       		.uleb128 0xd
 1740 0aee 39080000 		.4byte	0x839
 1741 0af2 0D       		.uleb128 0xd
 1742 0af3 4B080000 		.4byte	0x84b
 1743 0af7 0D       		.uleb128 0xd
 1744 0af8 63080000 		.4byte	0x863
 1745 0afc 00       		.byte	0
 1746 0afd 24       		.uleb128 0x24
 1747 0afe 9C040000 		.4byte	.LASF131
 1748 0b02 0D       		.byte	0xd
 1749 0b03 2A01     		.2byte	0x12a
 1750 0b05 140B0000 		.4byte	0xb14
 1751 0b09 0D       		.uleb128 0xd
 1752 0b0a 39080000 		.4byte	0x839
 1753 0b0e 0D       		.uleb128 0xd
 1754 0b0f 4B080000 		.4byte	0x84b
 1755 0b13 00       		.byte	0
 1756 0b14 24       		.uleb128 0x24
 1757 0b15 65010000 		.4byte	.LASF132
 1758 0b19 0D       		.byte	0xd
 1759 0b1a 2701     		.2byte	0x127
 1760 0b1c 2B0B0000 		.4byte	0xb2b
 1761 0b20 0D       		.uleb128 0xd
 1762 0b21 39080000 		.4byte	0x839
 1763 0b25 0D       		.uleb128 0xd
 1764 0b26 4B080000 		.4byte	0x84b
 1765 0b2a 00       		.byte	0
 1766 0b2b 25       		.uleb128 0x25
 1767 0b2c 60020000 		.4byte	.LASF138
 1768 0b30 0D       		.byte	0xd
 1769 0b31 2201     		.2byte	0x122
 1770 0b33 0D       		.uleb128 0xd
 1771 0b34 39080000 		.4byte	0x839
 1772 0b38 00       		.byte	0
 1773 0b39 00       		.byte	0
 1774              		.section	.debug_abbrev,"",%progbits
 1775              	.Ldebug_abbrev0:
 1776 0000 01       		.uleb128 0x1
 1777 0001 11       		.uleb128 0x11
 1778 0002 01       		.byte	0x1
 1779 0003 25       		.uleb128 0x25
ARM GAS  /tmp/ccUJk4UB.s 			page 47


 1780 0004 0E       		.uleb128 0xe
 1781 0005 13       		.uleb128 0x13
 1782 0006 0B       		.uleb128 0xb
 1783 0007 03       		.uleb128 0x3
 1784 0008 0E       		.uleb128 0xe
 1785 0009 1B       		.uleb128 0x1b
 1786 000a 0E       		.uleb128 0xe
 1787 000b 55       		.uleb128 0x55
 1788 000c 17       		.uleb128 0x17
 1789 000d 11       		.uleb128 0x11
 1790 000e 01       		.uleb128 0x1
 1791 000f 10       		.uleb128 0x10
 1792 0010 17       		.uleb128 0x17
 1793 0011 00       		.byte	0
 1794 0012 00       		.byte	0
 1795 0013 02       		.uleb128 0x2
 1796 0014 24       		.uleb128 0x24
 1797 0015 00       		.byte	0
 1798 0016 0B       		.uleb128 0xb
 1799 0017 0B       		.uleb128 0xb
 1800 0018 3E       		.uleb128 0x3e
 1801 0019 0B       		.uleb128 0xb
 1802 001a 03       		.uleb128 0x3
 1803 001b 08       		.uleb128 0x8
 1804 001c 00       		.byte	0
 1805 001d 00       		.byte	0
 1806 001e 03       		.uleb128 0x3
 1807 001f 24       		.uleb128 0x24
 1808 0020 00       		.byte	0
 1809 0021 0B       		.uleb128 0xb
 1810 0022 0B       		.uleb128 0xb
 1811 0023 3E       		.uleb128 0x3e
 1812 0024 0B       		.uleb128 0xb
 1813 0025 03       		.uleb128 0x3
 1814 0026 0E       		.uleb128 0xe
 1815 0027 00       		.byte	0
 1816 0028 00       		.byte	0
 1817 0029 04       		.uleb128 0x4
 1818 002a 16       		.uleb128 0x16
 1819 002b 00       		.byte	0
 1820 002c 03       		.uleb128 0x3
 1821 002d 0E       		.uleb128 0xe
 1822 002e 3A       		.uleb128 0x3a
 1823 002f 0B       		.uleb128 0xb
 1824 0030 3B       		.uleb128 0x3b
 1825 0031 0B       		.uleb128 0xb
 1826 0032 49       		.uleb128 0x49
 1827 0033 13       		.uleb128 0x13
 1828 0034 00       		.byte	0
 1829 0035 00       		.byte	0
 1830 0036 05       		.uleb128 0x5
 1831 0037 13       		.uleb128 0x13
 1832 0038 01       		.byte	0x1
 1833 0039 03       		.uleb128 0x3
 1834 003a 0E       		.uleb128 0xe
 1835 003b 0B       		.uleb128 0xb
 1836 003c 0B       		.uleb128 0xb
ARM GAS  /tmp/ccUJk4UB.s 			page 48


 1837 003d 3A       		.uleb128 0x3a
 1838 003e 0B       		.uleb128 0xb
 1839 003f 3B       		.uleb128 0x3b
 1840 0040 0B       		.uleb128 0xb
 1841 0041 01       		.uleb128 0x1
 1842 0042 13       		.uleb128 0x13
 1843 0043 00       		.byte	0
 1844 0044 00       		.byte	0
 1845 0045 06       		.uleb128 0x6
 1846 0046 0D       		.uleb128 0xd
 1847 0047 00       		.byte	0
 1848 0048 03       		.uleb128 0x3
 1849 0049 0E       		.uleb128 0xe
 1850 004a 3A       		.uleb128 0x3a
 1851 004b 0B       		.uleb128 0xb
 1852 004c 3B       		.uleb128 0x3b
 1853 004d 0B       		.uleb128 0xb
 1854 004e 49       		.uleb128 0x49
 1855 004f 13       		.uleb128 0x13
 1856 0050 38       		.uleb128 0x38
 1857 0051 0B       		.uleb128 0xb
 1858 0052 00       		.byte	0
 1859 0053 00       		.byte	0
 1860 0054 07       		.uleb128 0x7
 1861 0055 0D       		.uleb128 0xd
 1862 0056 00       		.byte	0
 1863 0057 03       		.uleb128 0x3
 1864 0058 08       		.uleb128 0x8
 1865 0059 3A       		.uleb128 0x3a
 1866 005a 0B       		.uleb128 0xb
 1867 005b 3B       		.uleb128 0x3b
 1868 005c 0B       		.uleb128 0xb
 1869 005d 49       		.uleb128 0x49
 1870 005e 13       		.uleb128 0x13
 1871 005f 38       		.uleb128 0x38
 1872 0060 0B       		.uleb128 0xb
 1873 0061 00       		.byte	0
 1874 0062 00       		.byte	0
 1875 0063 08       		.uleb128 0x8
 1876 0064 0D       		.uleb128 0xd
 1877 0065 00       		.byte	0
 1878 0066 03       		.uleb128 0x3
 1879 0067 08       		.uleb128 0x8
 1880 0068 3A       		.uleb128 0x3a
 1881 0069 0B       		.uleb128 0xb
 1882 006a 3B       		.uleb128 0x3b
 1883 006b 05       		.uleb128 0x5
 1884 006c 49       		.uleb128 0x49
 1885 006d 13       		.uleb128 0x13
 1886 006e 38       		.uleb128 0x38
 1887 006f 0B       		.uleb128 0xb
 1888 0070 00       		.byte	0
 1889 0071 00       		.byte	0
 1890 0072 09       		.uleb128 0x9
 1891 0073 0D       		.uleb128 0xd
 1892 0074 00       		.byte	0
 1893 0075 03       		.uleb128 0x3
ARM GAS  /tmp/ccUJk4UB.s 			page 49


 1894 0076 0E       		.uleb128 0xe
 1895 0077 3A       		.uleb128 0x3a
 1896 0078 0B       		.uleb128 0xb
 1897 0079 3B       		.uleb128 0x3b
 1898 007a 05       		.uleb128 0x5
 1899 007b 49       		.uleb128 0x49
 1900 007c 13       		.uleb128 0x13
 1901 007d 38       		.uleb128 0x38
 1902 007e 0B       		.uleb128 0xb
 1903 007f 00       		.byte	0
 1904 0080 00       		.byte	0
 1905 0081 0A       		.uleb128 0xa
 1906 0082 0F       		.uleb128 0xf
 1907 0083 00       		.byte	0
 1908 0084 0B       		.uleb128 0xb
 1909 0085 0B       		.uleb128 0xb
 1910 0086 49       		.uleb128 0x49
 1911 0087 13       		.uleb128 0x13
 1912 0088 00       		.byte	0
 1913 0089 00       		.byte	0
 1914 008a 0B       		.uleb128 0xb
 1915 008b 13       		.uleb128 0x13
 1916 008c 01       		.byte	0x1
 1917 008d 03       		.uleb128 0x3
 1918 008e 0E       		.uleb128 0xe
 1919 008f 0B       		.uleb128 0xb
 1920 0090 0B       		.uleb128 0xb
 1921 0091 3A       		.uleb128 0x3a
 1922 0092 0B       		.uleb128 0xb
 1923 0093 3B       		.uleb128 0x3b
 1924 0094 05       		.uleb128 0x5
 1925 0095 01       		.uleb128 0x1
 1926 0096 13       		.uleb128 0x13
 1927 0097 00       		.byte	0
 1928 0098 00       		.byte	0
 1929 0099 0C       		.uleb128 0xc
 1930 009a 15       		.uleb128 0x15
 1931 009b 01       		.byte	0x1
 1932 009c 27       		.uleb128 0x27
 1933 009d 19       		.uleb128 0x19
 1934 009e 01       		.uleb128 0x1
 1935 009f 13       		.uleb128 0x13
 1936 00a0 00       		.byte	0
 1937 00a1 00       		.byte	0
 1938 00a2 0D       		.uleb128 0xd
 1939 00a3 05       		.uleb128 0x5
 1940 00a4 00       		.byte	0
 1941 00a5 49       		.uleb128 0x49
 1942 00a6 13       		.uleb128 0x13
 1943 00a7 00       		.byte	0
 1944 00a8 00       		.byte	0
 1945 00a9 0E       		.uleb128 0xe
 1946 00aa 0F       		.uleb128 0xf
 1947 00ab 00       		.byte	0
 1948 00ac 0B       		.uleb128 0xb
 1949 00ad 0B       		.uleb128 0xb
 1950 00ae 00       		.byte	0
ARM GAS  /tmp/ccUJk4UB.s 			page 50


 1951 00af 00       		.byte	0
 1952 00b0 0F       		.uleb128 0xf
 1953 00b1 35       		.uleb128 0x35
 1954 00b2 00       		.byte	0
 1955 00b3 49       		.uleb128 0x49
 1956 00b4 13       		.uleb128 0x13
 1957 00b5 00       		.byte	0
 1958 00b6 00       		.byte	0
 1959 00b7 10       		.uleb128 0x10
 1960 00b8 01       		.uleb128 0x1
 1961 00b9 01       		.byte	0x1
 1962 00ba 49       		.uleb128 0x49
 1963 00bb 13       		.uleb128 0x13
 1964 00bc 01       		.uleb128 0x1
 1965 00bd 13       		.uleb128 0x13
 1966 00be 00       		.byte	0
 1967 00bf 00       		.byte	0
 1968 00c0 11       		.uleb128 0x11
 1969 00c1 21       		.uleb128 0x21
 1970 00c2 00       		.byte	0
 1971 00c3 49       		.uleb128 0x49
 1972 00c4 13       		.uleb128 0x13
 1973 00c5 2F       		.uleb128 0x2f
 1974 00c6 0B       		.uleb128 0xb
 1975 00c7 00       		.byte	0
 1976 00c8 00       		.byte	0
 1977 00c9 12       		.uleb128 0x12
 1978 00ca 13       		.uleb128 0x13
 1979 00cb 01       		.byte	0x1
 1980 00cc 0B       		.uleb128 0xb
 1981 00cd 0B       		.uleb128 0xb
 1982 00ce 3A       		.uleb128 0x3a
 1983 00cf 0B       		.uleb128 0xb
 1984 00d0 3B       		.uleb128 0x3b
 1985 00d1 05       		.uleb128 0x5
 1986 00d2 01       		.uleb128 0x1
 1987 00d3 13       		.uleb128 0x13
 1988 00d4 00       		.byte	0
 1989 00d5 00       		.byte	0
 1990 00d6 13       		.uleb128 0x13
 1991 00d7 16       		.uleb128 0x16
 1992 00d8 00       		.byte	0
 1993 00d9 03       		.uleb128 0x3
 1994 00da 0E       		.uleb128 0xe
 1995 00db 3A       		.uleb128 0x3a
 1996 00dc 0B       		.uleb128 0xb
 1997 00dd 3B       		.uleb128 0x3b
 1998 00de 05       		.uleb128 0x5
 1999 00df 49       		.uleb128 0x49
 2000 00e0 13       		.uleb128 0x13
 2001 00e1 00       		.byte	0
 2002 00e2 00       		.byte	0
 2003 00e3 14       		.uleb128 0x14
 2004 00e4 17       		.uleb128 0x17
 2005 00e5 01       		.byte	0x1
 2006 00e6 0B       		.uleb128 0xb
 2007 00e7 0B       		.uleb128 0xb
ARM GAS  /tmp/ccUJk4UB.s 			page 51


 2008 00e8 3A       		.uleb128 0x3a
 2009 00e9 0B       		.uleb128 0xb
 2010 00ea 3B       		.uleb128 0x3b
 2011 00eb 0B       		.uleb128 0xb
 2012 00ec 01       		.uleb128 0x1
 2013 00ed 13       		.uleb128 0x13
 2014 00ee 00       		.byte	0
 2015 00ef 00       		.byte	0
 2016 00f0 15       		.uleb128 0x15
 2017 00f1 0D       		.uleb128 0xd
 2018 00f2 00       		.byte	0
 2019 00f3 03       		.uleb128 0x3
 2020 00f4 0E       		.uleb128 0xe
 2021 00f5 3A       		.uleb128 0x3a
 2022 00f6 0B       		.uleb128 0xb
 2023 00f7 3B       		.uleb128 0x3b
 2024 00f8 0B       		.uleb128 0xb
 2025 00f9 49       		.uleb128 0x49
 2026 00fa 13       		.uleb128 0x13
 2027 00fb 00       		.byte	0
 2028 00fc 00       		.byte	0
 2029 00fd 16       		.uleb128 0x16
 2030 00fe 0D       		.uleb128 0xd
 2031 00ff 00       		.byte	0
 2032 0100 03       		.uleb128 0x3
 2033 0101 0E       		.uleb128 0xe
 2034 0102 3A       		.uleb128 0x3a
 2035 0103 0B       		.uleb128 0xb
 2036 0104 3B       		.uleb128 0x3b
 2037 0105 05       		.uleb128 0x5
 2038 0106 49       		.uleb128 0x49
 2039 0107 13       		.uleb128 0x13
 2040 0108 00       		.byte	0
 2041 0109 00       		.byte	0
 2042 010a 17       		.uleb128 0x17
 2043 010b 26       		.uleb128 0x26
 2044 010c 00       		.byte	0
 2045 010d 49       		.uleb128 0x49
 2046 010e 13       		.uleb128 0x13
 2047 010f 00       		.byte	0
 2048 0110 00       		.byte	0
 2049 0111 18       		.uleb128 0x18
 2050 0112 04       		.uleb128 0x4
 2051 0113 01       		.byte	0x1
 2052 0114 0B       		.uleb128 0xb
 2053 0115 0B       		.uleb128 0xb
 2054 0116 3A       		.uleb128 0x3a
 2055 0117 0B       		.uleb128 0xb
 2056 0118 3B       		.uleb128 0x3b
 2057 0119 0B       		.uleb128 0xb
 2058 011a 01       		.uleb128 0x1
 2059 011b 13       		.uleb128 0x13
 2060 011c 00       		.byte	0
 2061 011d 00       		.byte	0
 2062 011e 19       		.uleb128 0x19
 2063 011f 28       		.uleb128 0x28
 2064 0120 00       		.byte	0
ARM GAS  /tmp/ccUJk4UB.s 			page 52


 2065 0121 03       		.uleb128 0x3
 2066 0122 0E       		.uleb128 0xe
 2067 0123 1C       		.uleb128 0x1c
 2068 0124 0D       		.uleb128 0xd
 2069 0125 00       		.byte	0
 2070 0126 00       		.byte	0
 2071 0127 1A       		.uleb128 0x1a
 2072 0128 2E       		.uleb128 0x2e
 2073 0129 01       		.byte	0x1
 2074 012a 3F       		.uleb128 0x3f
 2075 012b 19       		.uleb128 0x19
 2076 012c 03       		.uleb128 0x3
 2077 012d 0E       		.uleb128 0xe
 2078 012e 3A       		.uleb128 0x3a
 2079 012f 0B       		.uleb128 0xb
 2080 0130 3B       		.uleb128 0x3b
 2081 0131 0B       		.uleb128 0xb
 2082 0132 27       		.uleb128 0x27
 2083 0133 19       		.uleb128 0x19
 2084 0134 49       		.uleb128 0x49
 2085 0135 13       		.uleb128 0x13
 2086 0136 11       		.uleb128 0x11
 2087 0137 01       		.uleb128 0x1
 2088 0138 12       		.uleb128 0x12
 2089 0139 06       		.uleb128 0x6
 2090 013a 40       		.uleb128 0x40
 2091 013b 18       		.uleb128 0x18
 2092 013c 9742     		.uleb128 0x2117
 2093 013e 19       		.uleb128 0x19
 2094 013f 01       		.uleb128 0x1
 2095 0140 13       		.uleb128 0x13
 2096 0141 00       		.byte	0
 2097 0142 00       		.byte	0
 2098 0143 1B       		.uleb128 0x1b
 2099 0144 898201   		.uleb128 0x4109
 2100 0147 00       		.byte	0
 2101 0148 11       		.uleb128 0x11
 2102 0149 01       		.uleb128 0x1
 2103 014a 31       		.uleb128 0x31
 2104 014b 13       		.uleb128 0x13
 2105 014c 00       		.byte	0
 2106 014d 00       		.byte	0
 2107 014e 1C       		.uleb128 0x1c
 2108 014f 898201   		.uleb128 0x4109
 2109 0152 01       		.byte	0x1
 2110 0153 11       		.uleb128 0x11
 2111 0154 01       		.uleb128 0x1
 2112 0155 31       		.uleb128 0x31
 2113 0156 13       		.uleb128 0x13
 2114 0157 01       		.uleb128 0x1
 2115 0158 13       		.uleb128 0x13
 2116 0159 00       		.byte	0
 2117 015a 00       		.byte	0
 2118 015b 1D       		.uleb128 0x1d
 2119 015c 8A8201   		.uleb128 0x410a
 2120 015f 00       		.byte	0
 2121 0160 02       		.uleb128 0x2
ARM GAS  /tmp/ccUJk4UB.s 			page 53


 2122 0161 18       		.uleb128 0x18
 2123 0162 9142     		.uleb128 0x2111
 2124 0164 18       		.uleb128 0x18
 2125 0165 00       		.byte	0
 2126 0166 00       		.byte	0
 2127 0167 1E       		.uleb128 0x1e
 2128 0168 898201   		.uleb128 0x4109
 2129 016b 01       		.byte	0x1
 2130 016c 11       		.uleb128 0x11
 2131 016d 01       		.uleb128 0x1
 2132 016e 31       		.uleb128 0x31
 2133 016f 13       		.uleb128 0x13
 2134 0170 00       		.byte	0
 2135 0171 00       		.byte	0
 2136 0172 1F       		.uleb128 0x1f
 2137 0173 34       		.uleb128 0x34
 2138 0174 00       		.byte	0
 2139 0175 03       		.uleb128 0x3
 2140 0176 0E       		.uleb128 0xe
 2141 0177 3A       		.uleb128 0x3a
 2142 0178 0B       		.uleb128 0xb
 2143 0179 3B       		.uleb128 0x3b
 2144 017a 0B       		.uleb128 0xb
 2145 017b 49       		.uleb128 0x49
 2146 017c 13       		.uleb128 0x13
 2147 017d 02       		.uleb128 0x2
 2148 017e 18       		.uleb128 0x18
 2149 017f 00       		.byte	0
 2150 0180 00       		.byte	0
 2151 0181 20       		.uleb128 0x20
 2152 0182 34       		.uleb128 0x34
 2153 0183 00       		.byte	0
 2154 0184 03       		.uleb128 0x3
 2155 0185 0E       		.uleb128 0xe
 2156 0186 3A       		.uleb128 0x3a
 2157 0187 0B       		.uleb128 0xb
 2158 0188 3B       		.uleb128 0x3b
 2159 0189 05       		.uleb128 0x5
 2160 018a 49       		.uleb128 0x49
 2161 018b 13       		.uleb128 0x13
 2162 018c 3F       		.uleb128 0x3f
 2163 018d 19       		.uleb128 0x19
 2164 018e 3C       		.uleb128 0x3c
 2165 018f 19       		.uleb128 0x19
 2166 0190 00       		.byte	0
 2167 0191 00       		.byte	0
 2168 0192 21       		.uleb128 0x21
 2169 0193 34       		.uleb128 0x34
 2170 0194 00       		.byte	0
 2171 0195 03       		.uleb128 0x3
 2172 0196 08       		.uleb128 0x8
 2173 0197 3A       		.uleb128 0x3a
 2174 0198 0B       		.uleb128 0xb
 2175 0199 3B       		.uleb128 0x3b
 2176 019a 05       		.uleb128 0x5
 2177 019b 49       		.uleb128 0x49
 2178 019c 13       		.uleb128 0x13
ARM GAS  /tmp/ccUJk4UB.s 			page 54


 2179 019d 3F       		.uleb128 0x3f
 2180 019e 19       		.uleb128 0x19
 2181 019f 3C       		.uleb128 0x3c
 2182 01a0 19       		.uleb128 0x19
 2183 01a1 00       		.byte	0
 2184 01a2 00       		.byte	0
 2185 01a3 22       		.uleb128 0x22
 2186 01a4 2E       		.uleb128 0x2e
 2187 01a5 00       		.byte	0
 2188 01a6 3F       		.uleb128 0x3f
 2189 01a7 19       		.uleb128 0x19
 2190 01a8 03       		.uleb128 0x3
 2191 01a9 0E       		.uleb128 0xe
 2192 01aa 3A       		.uleb128 0x3a
 2193 01ab 0B       		.uleb128 0xb
 2194 01ac 3B       		.uleb128 0x3b
 2195 01ad 0B       		.uleb128 0xb
 2196 01ae 27       		.uleb128 0x27
 2197 01af 19       		.uleb128 0x19
 2198 01b0 3C       		.uleb128 0x3c
 2199 01b1 19       		.uleb128 0x19
 2200 01b2 00       		.byte	0
 2201 01b3 00       		.byte	0
 2202 01b4 23       		.uleb128 0x23
 2203 01b5 2E       		.uleb128 0x2e
 2204 01b6 00       		.byte	0
 2205 01b7 3F       		.uleb128 0x3f
 2206 01b8 19       		.uleb128 0x19
 2207 01b9 03       		.uleb128 0x3
 2208 01ba 0E       		.uleb128 0xe
 2209 01bb 3A       		.uleb128 0x3a
 2210 01bc 0B       		.uleb128 0xb
 2211 01bd 3B       		.uleb128 0x3b
 2212 01be 05       		.uleb128 0x5
 2213 01bf 27       		.uleb128 0x27
 2214 01c0 19       		.uleb128 0x19
 2215 01c1 3C       		.uleb128 0x3c
 2216 01c2 19       		.uleb128 0x19
 2217 01c3 00       		.byte	0
 2218 01c4 00       		.byte	0
 2219 01c5 24       		.uleb128 0x24
 2220 01c6 2E       		.uleb128 0x2e
 2221 01c7 01       		.byte	0x1
 2222 01c8 3F       		.uleb128 0x3f
 2223 01c9 19       		.uleb128 0x19
 2224 01ca 03       		.uleb128 0x3
 2225 01cb 0E       		.uleb128 0xe
 2226 01cc 3A       		.uleb128 0x3a
 2227 01cd 0B       		.uleb128 0xb
 2228 01ce 3B       		.uleb128 0x3b
 2229 01cf 05       		.uleb128 0x5
 2230 01d0 27       		.uleb128 0x27
 2231 01d1 19       		.uleb128 0x19
 2232 01d2 3C       		.uleb128 0x3c
 2233 01d3 19       		.uleb128 0x19
 2234 01d4 01       		.uleb128 0x1
 2235 01d5 13       		.uleb128 0x13
ARM GAS  /tmp/ccUJk4UB.s 			page 55


 2236 01d6 00       		.byte	0
 2237 01d7 00       		.byte	0
 2238 01d8 25       		.uleb128 0x25
 2239 01d9 2E       		.uleb128 0x2e
 2240 01da 01       		.byte	0x1
 2241 01db 3F       		.uleb128 0x3f
 2242 01dc 19       		.uleb128 0x19
 2243 01dd 03       		.uleb128 0x3
 2244 01de 0E       		.uleb128 0xe
 2245 01df 3A       		.uleb128 0x3a
 2246 01e0 0B       		.uleb128 0xb
 2247 01e1 3B       		.uleb128 0x3b
 2248 01e2 05       		.uleb128 0x5
 2249 01e3 27       		.uleb128 0x27
 2250 01e4 19       		.uleb128 0x19
 2251 01e5 3C       		.uleb128 0x3c
 2252 01e6 19       		.uleb128 0x19
 2253 01e7 00       		.byte	0
 2254 01e8 00       		.byte	0
 2255 01e9 00       		.byte	0
 2256              		.section	.debug_aranges,"",%progbits
 2257 0000 1C000000 		.4byte	0x1c
 2258 0004 0200     		.2byte	0x2
 2259 0006 00000000 		.4byte	.Ldebug_info0
 2260 000a 04       		.byte	0x4
 2261 000b 00       		.byte	0
 2262 000c 0000     		.2byte	0
 2263 000e 0000     		.2byte	0
 2264 0010 00000000 		.4byte	.LFB219
 2265 0014 88000000 		.4byte	.LFE219-.LFB219
 2266 0018 00000000 		.4byte	0
 2267 001c 00000000 		.4byte	0
 2268              		.section	.debug_ranges,"",%progbits
 2269              	.Ldebug_ranges0:
 2270 0000 00000000 		.4byte	.LFB219
 2271 0004 88000000 		.4byte	.LFE219
 2272 0008 00000000 		.4byte	0
 2273 000c 00000000 		.4byte	0
 2274              		.section	.debug_line,"",%progbits
 2275              	.Ldebug_line0:
 2276 0000 98020000 		.section	.debug_str,"MS",%progbits,1
 2276      02007202 
 2276      00000201 
 2276      FB0E0D00 
 2276      01010101 
 2277              	.LASF41:
 2278 0000 63685F74 		.ascii	"ch_threads_list\000"
 2278      68726561 
 2278      64735F6C 
 2278      69737400 
 2279              	.LASF134:
 2280 0010 6D61696E 		.ascii	"main.c\000"
 2280      2E6300
 2281              	.LASF135:
 2282 0017 2F686F6D 		.ascii	"/home/otto/Escritorio/Semestre12/Embebidos/ChibiOS_"
 2282      652F6F74 
 2282      746F2F45 
ARM GAS  /tmp/ccUJk4UB.s 			page 56


 2282      73637269 
 2282      746F7269 
 2283 004a 31372E36 		.ascii	"17.6.2/demos/STM32/NIL-STM32F100-DISCOVERY\000"
 2283      2E322F64 
 2283      656D6F73 
 2283      2F53544D 
 2283      33322F4E 
 2284              	.LASF66:
 2285 0075 42535252 		.ascii	"BSRR\000"
 2285      00
 2286              	.LASF69:
 2287 007a 72656761 		.ascii	"regarm_t\000"
 2287      726D5F74 
 2287      00
 2288              	.LASF30:
 2289 0083 666C6167 		.ascii	"flags\000"
 2289      7300
 2290              	.LASF21:
 2291 0089 73797374 		.ascii	"systime_t\000"
 2291      696D655F 
 2291      7400
 2292              	.LASF36:
 2293 0093 7265616C 		.ascii	"realprio\000"
 2293      7072696F 
 2293      00
 2294              	.LASF34:
 2295 009c 6570656E 		.ascii	"epending\000"
 2295      64696E67 
 2295      00
 2296              	.LASF0:
 2297 00a5 756E7369 		.ascii	"unsigned int\000"
 2297      676E6564 
 2297      20696E74 
 2297      00
 2298              	.LASF42:
 2299 00b2 6E657874 		.ascii	"next\000"
 2299      00
 2300              	.LASF104:
 2301 00b7 50574D44 		.ascii	"PWMDriver\000"
 2301      72697665 
 2301      7200
 2302              	.LASF39:
 2303 00c1 74687265 		.ascii	"threads_list_t\000"
 2303      6164735F 
 2303      6C697374 
 2303      5F7400
 2304              	.LASF31:
 2305 00d0 72656673 		.ascii	"refs\000"
 2305      00
 2306              	.LASF130:
 2307 00d5 70776D45 		.ascii	"pwmEnableChannel\000"
 2307      6E61626C 
 2307      65436861 
 2307      6E6E656C 
 2307      00
 2308              	.LASF85:
 2309 00e6 77746F62 		.ascii	"wtobjp\000"
ARM GAS  /tmp/ccUJk4UB.s 			page 57


 2309      6A7000
 2310              	.LASF63:
 2311 00ed 76746C69 		.ascii	"vtlist\000"
 2311      737400
 2312              	.LASF71:
 2313 00f4 706F7274 		.ascii	"port_context\000"
 2313      5F636F6E 
 2313      74657874 
 2313      00
 2314              	.LASF47:
 2315 0101 63685F72 		.ascii	"ch_ready_list\000"
 2315      65616479 
 2315      5F6C6973 
 2315      7400
 2316              	.LASF53:
 2317 010f 66756E63 		.ascii	"func\000"
 2317      00
 2318              	.LASF90:
 2319 0114 65776D61 		.ascii	"ewmask\000"
 2319      736B00
 2320              	.LASF115:
 2321 011b 6D6F6465 		.ascii	"mode\000"
 2321      00
 2322              	.LASF45:
 2323 0120 70726576 		.ascii	"prev\000"
 2323      00
 2324              	.LASF44:
 2325 0125 63685F74 		.ascii	"ch_threads_queue\000"
 2325      68726561 
 2325      64735F71 
 2325      75657565 
 2325      00
 2326              	.LASF79:
 2327 0136 444D4152 		.ascii	"DMAR\000"
 2327      00
 2328              	.LASF117:
 2329 013b 50574D43 		.ascii	"PWMChannelConfig\000"
 2329      68616E6E 
 2329      656C436F 
 2329      6E666967 
 2329      00
 2330              	.LASF49:
 2331 014c 76746675 		.ascii	"vtfunc_t\000"
 2331      6E635F74 
 2331      00
 2332              	.LASF58:
 2333 0155 63685F73 		.ascii	"ch_system_debug\000"
 2333      79737465 
 2333      6D5F6465 
 2333      62756700 
 2334              	.LASF132:
 2335 0165 70776D44 		.ascii	"pwmDisableChannel\000"
 2335      69736162 
 2335      6C654368 
 2335      616E6E65 
 2335      6C00
 2336              	.LASF9:
ARM GAS  /tmp/ccUJk4UB.s 			page 58


 2337 0177 75696E74 		.ascii	"uint32_t\000"
 2337      33325F74 
 2337      00
 2338              	.LASF87:
 2339 0180 73656E74 		.ascii	"sentmsg\000"
 2339      6D736700 
 2340              	.LASF19:
 2341 0188 6576656E 		.ascii	"eventmask_t\000"
 2341      746D6173 
 2341      6B5F7400 
 2342              	.LASF78:
 2343 0194 42445452 		.ascii	"BDTR\000"
 2343      00
 2344              	.LASF91:
 2345 0199 63685F73 		.ascii	"ch_semaphore\000"
 2345      656D6170 
 2345      686F7265 
 2345      00
 2346              	.LASF17:
 2347 01a6 74707269 		.ascii	"tprio_t\000"
 2347      6F5F7400 
 2348              	.LASF51:
 2349 01ae 63685F76 		.ascii	"ch_virtual_timer\000"
 2349      69727475 
 2349      616C5F74 
 2349      696D6572 
 2349      00
 2350              	.LASF75:
 2351 01bf 43434D52 		.ascii	"CCMR1\000"
 2351      3100
 2352              	.LASF76:
 2353 01c5 43434D52 		.ascii	"CCMR2\000"
 2353      3200
 2354              	.LASF80:
 2355 01cb 43434D52 		.ascii	"CCMR3\000"
 2355      3300
 2356              	.LASF13:
 2357 01d1 6C6F6E67 		.ascii	"long long unsigned int\000"
 2357      206C6F6E 
 2357      6720756E 
 2357      7369676E 
 2357      65642069 
 2358              	.LASF127:
 2359 01e8 70776D45 		.ascii	"pwmEnablePeriodicNotification\000"
 2359      6E61626C 
 2359      65506572 
 2359      696F6469 
 2359      634E6F74 
 2360              	.LASF20:
 2361 0206 636E745F 		.ascii	"cnt_t\000"
 2361      7400
 2362              	.LASF121:
 2363 020c 50574D43 		.ascii	"PWMConfig\000"
 2363      6F6E6669 
 2363      6700
 2364              	.LASF93:
 2365 0216 6F776E65 		.ascii	"owner\000"
ARM GAS  /tmp/ccUJk4UB.s 			page 59


 2365      7200
 2366              	.LASF43:
 2367 021c 74687265 		.ascii	"threads_queue_t\000"
 2367      6164735F 
 2367      71756575 
 2367      655F7400 
 2368              	.LASF35:
 2369 022c 6D74786C 		.ascii	"mtxlist\000"
 2369      69737400 
 2370              	.LASF55:
 2371 0234 63685F76 		.ascii	"ch_virtual_timers_list\000"
 2371      69727475 
 2371      616C5F74 
 2371      696D6572 
 2371      735F6C69 
 2372              	.LASF113:
 2373 024b 70776D63 		.ascii	"pwmchnmsk_t\000"
 2373      686E6D73 
 2373      6B5F7400 
 2374              	.LASF22:
 2375 0257 74687265 		.ascii	"thread_t\000"
 2375      61645F74 
 2375      00
 2376              	.LASF138:
 2377 0260 70776D53 		.ascii	"pwmStop\000"
 2377      746F7000 
 2378              	.LASF123:
 2379 0268 50574D44 		.ascii	"PWMD1\000"
 2379      3100
 2380              	.LASF83:
 2381 026e 7264796D 		.ascii	"rdymsg\000"
 2381      736700
 2382              	.LASF82:
 2383 0275 73746D33 		.ascii	"stm32_tim_t\000"
 2383      325F7469 
 2383      6D5F7400 
 2384              	.LASF96:
 2385 0281 5F426F6F 		.ascii	"_Bool\000"
 2385      6C00
 2386              	.LASF92:
 2387 0287 63685F6D 		.ascii	"ch_mutex\000"
 2387      75746578 
 2387      00
 2388              	.LASF74:
 2389 0290 44494552 		.ascii	"DIER\000"
 2389      00
 2390              	.LASF133:
 2391 0295 474E5520 		.ascii	"GNU C 4.8.1 -mcpu=cortex-m3 -mno-thumb-interwork -m"
 2391      4320342E 
 2391      382E3120 
 2391      2D6D6370 
 2391      753D636F 
 2392 02c8 7468756D 		.ascii	"thumb -ggdb -O2 -fomit-frame-pointer -falign-functi"
 2392      62202D67 
 2392      67646220 
 2392      2D4F3220 
 2392      2D666F6D 
ARM GAS  /tmp/ccUJk4UB.s 			page 60


 2393 02fb 6F6E733D 		.ascii	"ons=16 -ffunction-sections -fdata-sections -fno-com"
 2393      3136202D 
 2393      6666756E 
 2393      6374696F 
 2393      6E2D7365 
 2394 032e 6D6F6E20 		.ascii	"mon -flto\000"
 2394      2D666C74 
 2394      6F00
 2395              	.LASF109:
 2396 0338 636C6F63 		.ascii	"clock\000"
 2396      6B00
 2397              	.LASF100:
 2398 033e 50574D5F 		.ascii	"PWM_UNINIT\000"
 2398      554E494E 
 2398      495400
 2399              	.LASF24:
 2400 0349 7072696F 		.ascii	"prio\000"
 2400      00
 2401              	.LASF77:
 2402 034e 43434552 		.ascii	"CCER\000"
 2402      00
 2403              	.LASF103:
 2404 0353 70776D73 		.ascii	"pwmstate_t\000"
 2404      74617465 
 2404      5F7400
 2405              	.LASF94:
 2406 035e 63686172 		.ascii	"char\000"
 2406      00
 2407              	.LASF125:
 2408 0363 63685379 		.ascii	"chSysInit\000"
 2408      73496E69 
 2408      7400
 2409              	.LASF38:
 2410 036d 74687265 		.ascii	"thread_reference_t\000"
 2410      61645F72 
 2410      65666572 
 2410      656E6365 
 2410      5F7400
 2411              	.LASF28:
 2412 0380 77616261 		.ascii	"wabase\000"
 2412      736500
 2413              	.LASF15:
 2414 0387 74737461 		.ascii	"tstate_t\000"
 2414      74655F74 
 2414      00
 2415              	.LASF4:
 2416 0390 75696E74 		.ascii	"uint8_t\000"
 2416      385F7400 
 2417              	.LASF33:
 2418 0398 6D736771 		.ascii	"msgqueue\000"
 2418      75657565 
 2418      00
 2419              	.LASF73:
 2420 03a1 534D4352 		.ascii	"SMCR\000"
 2420      00
 2421              	.LASF40:
 2422 03a6 63685F74 		.ascii	"ch_thread\000"
ARM GAS  /tmp/ccUJk4UB.s 			page 61


 2422      68726561 
 2422      6400
 2423              	.LASF57:
 2424 03b0 73797374 		.ascii	"system_debug_t\000"
 2424      656D5F64 
 2424      65627567 
 2424      5F7400
 2425              	.LASF11:
 2426 03bf 6C6F6E67 		.ascii	"long long int\000"
 2426      206C6F6E 
 2426      6720696E 
 2426      7400
 2427              	.LASF18:
 2428 03cd 6D73675F 		.ascii	"msg_t\000"
 2428      7400
 2429              	.LASF111:
 2430 03d3 70776D6D 		.ascii	"pwmmode_t\000"
 2430      6F64655F 
 2430      7400
 2431              	.LASF108:
 2432 03dd 6368616E 		.ascii	"channels\000"
 2432      6E656C73 
 2432      00
 2433              	.LASF50:
 2434 03e6 76697274 		.ascii	"virtual_timer_t\000"
 2434      75616C5F 
 2434      74696D65 
 2434      725F7400 
 2435              	.LASF97:
 2436 03f6 696F706F 		.ascii	"ioportmask_t\000"
 2436      72746D61 
 2436      736B5F74 
 2436      00
 2437              	.LASF98:
 2438 0403 696F6D6F 		.ascii	"iomode_t\000"
 2438      64655F74 
 2438      00
 2439              	.LASF126:
 2440 040c 70776D53 		.ascii	"pwmStart\000"
 2440      74617274 
 2440      00
 2441              	.LASF119:
 2442 0415 62647472 		.ascii	"bdtr\000"
 2442      00
 2443              	.LASF59:
 2444 041a 70616E69 		.ascii	"panic_msg\000"
 2444      635F6D73 
 2444      6700
 2445              	.LASF14:
 2446 0424 746D6F64 		.ascii	"tmode_t\000"
 2446      655F7400 
 2447              	.LASF64:
 2448 042c 6D61696E 		.ascii	"mainthread\000"
 2448      74687265 
 2448      616400
 2449              	.LASF5:
 2450 0437 75696E74 		.ascii	"uint16_t\000"
ARM GAS  /tmp/ccUJk4UB.s 			page 62


 2450      31365F74 
 2450      00
 2451              	.LASF120:
 2452 0440 64696572 		.ascii	"dier\000"
 2452      00
 2453              	.LASF112:
 2454 0445 70776D63 		.ascii	"pwmchannel_t\000"
 2454      68616E6E 
 2454      656C5F74 
 2454      00
 2455              	.LASF81:
 2456 0452 43435852 		.ascii	"CCXR\000"
 2456      00
 2457              	.LASF105:
 2458 0457 636F6E66 		.ascii	"config\000"
 2458      696700
 2459              	.LASF107:
 2460 045e 656E6162 		.ascii	"enabled\000"
 2460      6C656400 
 2461              	.LASF3:
 2462 0466 73686F72 		.ascii	"short int\000"
 2462      7420696E 
 2462      7400
 2463              	.LASF8:
 2464 0470 6C6F6E67 		.ascii	"long int\000"
 2464      20696E74 
 2464      00
 2465              	.LASF72:
 2466 0479 706F7274 		.ascii	"port_intctx\000"
 2466      5F696E74 
 2466      63747800 
 2467              	.LASF122:
 2468 0485 49544D5F 		.ascii	"ITM_RxBuffer\000"
 2468      52784275 
 2468      66666572 
 2468      00
 2469              	.LASF61:
 2470 0492 63685F73 		.ascii	"ch_system\000"
 2470      79737465 
 2470      6D00
 2471              	.LASF131:
 2472 049c 70776D45 		.ascii	"pwmEnableChannelNotification\000"
 2472      6E61626C 
 2472      65436861 
 2472      6E6E656C 
 2472      4E6F7469 
 2473              	.LASF56:
 2474 04b9 6C617374 		.ascii	"lasttime\000"
 2474      74696D65 
 2474      00
 2475              	.LASF12:
 2476 04c2 75696E74 		.ascii	"uint64_t\000"
 2476      36345F74 
 2476      00
 2477              	.LASF124:
 2478 04cb 68616C49 		.ascii	"halInit\000"
 2478      6E697400 
ARM GAS  /tmp/ccUJk4UB.s 			page 63


 2479              	.LASF62:
 2480 04d3 726C6973 		.ascii	"rlist\000"
 2480      7400
 2481              	.LASF99:
 2482 04d9 696F706F 		.ascii	"ioportid_t\000"
 2482      72746964 
 2482      5F7400
 2483              	.LASF110:
 2484 04e4 70776D63 		.ascii	"pwmcallback_t\000"
 2484      616C6C62 
 2484      61636B5F 
 2484      7400
 2485              	.LASF27:
 2486 04f2 6E616D65 		.ascii	"name\000"
 2486      00
 2487              	.LASF68:
 2488 04f7 4750494F 		.ascii	"GPIO_TypeDef\000"
 2488      5F547970 
 2488      65446566 
 2488      00
 2489              	.LASF137:
 2490 0504 70776D63 		.ascii	"pwmcfg\000"
 2490      666700
 2491              	.LASF65:
 2492 050b 73697A65 		.ascii	"sizetype\000"
 2492      74797065 
 2492      00
 2493              	.LASF16:
 2494 0514 74726566 		.ascii	"trefs_t\000"
 2494      735F7400 
 2495              	.LASF10:
 2496 051c 6C6F6E67 		.ascii	"long unsigned int\000"
 2496      20756E73 
 2496      69676E65 
 2496      6420696E 
 2496      7400
 2497              	.LASF46:
 2498 052e 72656164 		.ascii	"ready_list_t\000"
 2498      795F6C69 
 2498      73745F74 
 2498      00
 2499              	.LASF23:
 2500 053b 71756575 		.ascii	"queue\000"
 2500      6500
 2501              	.LASF7:
 2502 0541 696E7433 		.ascii	"int32_t\000"
 2502      325F7400 
 2503              	.LASF95:
 2504 0549 6D757465 		.ascii	"mutex_t\000"
 2504      785F7400 
 2505              	.LASF25:
 2506 0551 6E657765 		.ascii	"newer\000"
 2506      7200
 2507              	.LASF114:
 2508 0557 70776D63 		.ascii	"pwmcnt_t\000"
 2508      6E745F74 
 2508      00
ARM GAS  /tmp/ccUJk4UB.s 			page 64


 2509              	.LASF2:
 2510 0560 756E7369 		.ascii	"unsigned char\000"
 2510      676E6564 
 2510      20636861 
 2510      7200
 2511              	.LASF32:
 2512 056e 77616974 		.ascii	"waiting\000"
 2512      696E6700 
 2513              	.LASF54:
 2514 0576 76697274 		.ascii	"virtual_timers_list_t\000"
 2514      75616C5F 
 2514      74696D65 
 2514      72735F6C 
 2514      6973745F 
 2515              	.LASF129:
 2516 058c 63685468 		.ascii	"chThdSleep\000"
 2516      64536C65 
 2516      657000
 2517              	.LASF118:
 2518 0597 66726571 		.ascii	"frequency\000"
 2518      75656E63 
 2518      7900
 2519              	.LASF29:
 2520 05a1 73746174 		.ascii	"state\000"
 2520      6500
 2521              	.LASF116:
 2522 05a7 63616C6C 		.ascii	"callback\000"
 2522      6261636B 
 2522      00
 2523              	.LASF128:
 2524 05b0 5F70616C 		.ascii	"_pal_lld_setgroupmode\000"
 2524      5F6C6C64 
 2524      5F736574 
 2524      67726F75 
 2524      706D6F64 
 2525              	.LASF60:
 2526 05c6 63685F73 		.ascii	"ch_system_t\000"
 2526      79737465 
 2526      6D5F7400 
 2527              	.LASF88:
 2528 05d2 77747365 		.ascii	"wtsemp\000"
 2528      6D7000
 2529              	.LASF86:
 2530 05d9 77747472 		.ascii	"wttrp\000"
 2530      7000
 2531              	.LASF1:
 2532 05df 7369676E 		.ascii	"signed char\000"
 2532      65642063 
 2532      68617200 
 2533              	.LASF106:
 2534 05eb 70657269 		.ascii	"period\000"
 2534      6F6400
 2535              	.LASF52:
 2536 05f2 64656C74 		.ascii	"delta\000"
 2536      6100
 2537              	.LASF6:
 2538 05f8 73686F72 		.ascii	"short unsigned int\000"
ARM GAS  /tmp/ccUJk4UB.s 			page 65


 2538      7420756E 
 2538      7369676E 
 2538      65642069 
 2538      6E7400
 2539              	.LASF70:
 2540 060b 73746B61 		.ascii	"stkalign_t\000"
 2540      6C69676E 
 2540      5F7400
 2541              	.LASF136:
 2542 0616 6D61696E 		.ascii	"main\000"
 2542      00
 2543              	.LASF48:
 2544 061b 63757272 		.ascii	"current\000"
 2544      656E7400 
 2545              	.LASF101:
 2546 0623 50574D5F 		.ascii	"PWM_STOP\000"
 2546      53544F50 
 2546      00
 2547              	.LASF89:
 2548 062c 77746D74 		.ascii	"wtmtxp\000"
 2548      787000
 2549              	.LASF102:
 2550 0633 50574D5F 		.ascii	"PWM_READY\000"
 2550      52454144 
 2550      5900
 2551              	.LASF26:
 2552 063d 6F6C6465 		.ascii	"older\000"
 2552      7200
 2553              	.LASF84:
 2554 0643 65786974 		.ascii	"exitcode\000"
 2554      636F6465 
 2554      00
 2555              	.LASF67:
 2556 064c 4C434B52 		.ascii	"LCKR\000"
 2556      00
 2557              	.LASF37:
 2558 0651 6D706F6F 		.ascii	"mpool\000"
 2558      6C00
 2559              		.comm	__gnu_lto_v1,1,1
 2560              		.ident	"GCC: (Sourcery CodeBench Lite 2013.11-24) 4.8.1"
ARM GAS  /tmp/ccUJk4UB.s 			page 66


DEFINED SYMBOLS
                            *ABS*:00000000 main.c
     /tmp/ccUJk4UB.s:265    .text.startup.main:00000000 $t
     /tmp/ccUJk4UB.s:271    .text.startup.main:00000000 main
     /tmp/ccUJk4UB.s:354    .data.pwmcfg:00000000 .LANCHOR0
     /tmp/ccUJk4UB.s:353    .data.pwmcfg:00000000 $d
     /tmp/ccUJk4UB.s:357    .data.pwmcfg:00000000 pwmcfg
                            *COM*:00000001 __gnu_lto_v1
                     .debug_frame:00000010 $d

UNDEFINED SYMBOLS
PWMD1
halInit
chSysInit
pwmStart
pwmEnablePeriodicNotification
_pal_lld_setgroupmode
chThdSleep
pwmEnableChannel
pwmEnableChannelNotification
pwmDisableChannel
pwmStop
