ARM GAS  /tmp/ccOEYqcl.s 			page 1


   1              		.syntax unified
   2              		.cpu cortex-m3
   3              		.fpu softvfp
   4              		.eabi_attribute 20, 1
   5              		.eabi_attribute 21, 1
   6              		.eabi_attribute 23, 3
   7              		.eabi_attribute 24, 1
   8              		.eabi_attribute 25, 1
   9              		.eabi_attribute 26, 1
  10              		.eabi_attribute 30, 2
  11              		.eabi_attribute 34, 1
  12              		.eabi_attribute 18, 4
  13              		.thumb
  14              		.file	"nvic.c"
  15              		.text
  16              	.Ltext0:
  17              		.section	.gnu.lto_.jmpfuncs.4ef3f408ff97dc58,"",%progbits
  18 0000 789C6362 		.ascii	"x\234cb`b\300\006\270\2404\013\0033##\02333#\003\000"
  18      6062C006 
  18      B8A0340B 
  18      03332323 
  18      13333323 
  19 0016 01F00021 		.ascii	"\001\360\000!"
  20              		.text
  21              		.section	.gnu.lto_.inline.4ef3f408ff97dc58,"",%progbits
  22 0000 789C6D4C 		.ascii	"x\234mL\313\025\200 \014KK\205\352\305\021\330\300%"
  22      CB158020 
  22      0C4B4B85 
  22      EAC511D8 
  22      C025
  23 0012 5D84911C 		.ascii	"]\204\221\034\305\021LQy\036\354!}\371*\024\177\267"
  23      C5114C51 
  23      791EEC21 
  23      7DF92A14 
  23      7FB7
  24 0024 3FDF8065 		.ascii	"?\337\200e\026\025\011\022`\371\334\220[U\350\261\032"
  24      16150912 
  24      60F9DC90 
  24      5B55E8B1 
  24      1A
  25 0035 C89CAAD3 		.ascii	"\310\234\252\323\363\302TD\222\265zG\350Z\037QL&\322"
  25      F3C25444 
  25      92B57A47 
  25      E85A1F51 
  25      4C26D2
  26 0048 57127B9F 		.ascii	"W\022{\237\201PP\362[\035\346\250\342\002a/\015\002"
  26      815050F2 
  26      5B1DE6A8 
  26      E202612F 
  26      0D02
  27              		.text
  28              		.section	.gnu.lto_.pureconst.4ef3f408ff97dc58,"",%progbits
  29 0000 789C6362 		.ascii	"x\234cb`b\340d\200\000\026\006)F)&)f)\000\002\326\000"
  29      6062E064 
  29      80001606 
  29      29462926 
  29      29662900 
ARM GAS  /tmp/ccOEYqcl.s 			page 2


  30 0017 80       		.ascii	"\200"
  31              		.text
  32              		.section	.gnu.lto_nvicEnableVector.4ef3f408ff97dc58,"",%progbits
  33 0000 789C9D91 		.ascii	"x\234\235\221\277K\303@\024\307\337\273k\314\217\242"
  33      BF4BC340 
  33      14C7DFBB 
  33      6BCC8FA2 
  34 0010 AE3A5974 		.ascii	"\256:Yt\021\212\211N\016N\342\344\320\245T\320\261f"
  34      118A894E 
  34      0E4EE2E4 
  34      D0A554D0 
  34      B166
  35 0022 8801DB88 		.ascii	"\210\001\333\210\025q3m\272\351\320\301\305\352`\021"
  35      1571336D 
  35      BAE9D0C1 
  35      C5EA6011 
  36 0032 11C41F7F 		.ascii	"\021\304\037\177\200 \245\233C\0257')\256\202\210\223"
  36      8020A59B 
  36      43153727 
  36      29AE8288 
  36      93
  37 0043 A010DFE5 		.ascii	"\240\020\337\345l\245\"\016\036\311\335\273{\337\367"
  37      6CA5220E 
  37      1EC9DDBB 
  37      7BDFF7
  38 0052 BE9FE318 		.ascii	"\276\237\343\0300\3709\006\351O\323\361\004\255\310"
  38      30F83906 
  38      E94FD3F1 
  38      04ADC8
  39 0061 0159E506 		.ascii	"\001Y\345\006\240\2501D\021\000\302&\303\315\005\024"
  39      A0A83144 
  39      1100C226 
  39      C3CD0514 
  40 0071 521C869A 		.ascii	"R\034\206\232\357WZG\217olw\247^>\360?\302\020\321E"
  40      EF575A47 
  40      8F6F6C77 
  40      A75E3EF0 
  40      3FC210D1 
  41 0086 6A6B22D8 		.ascii	"jk\"\330\010\363\264\301D\264\260X\267\317\005\253\267"
  41      08F3B4C1 
  41      44B4B058 
  41      B7CF05AB 
  41      B7
  42 0097 C270FFB6 		.ascii	"\302p\377\266\3720\200\275\2109Q\344\"\347bRh\213*E"
  42      FA3080BD 
  42      883951E4 
  42      22E76252 
  42      688B2A45 
  43 00ab 310DB258 		.ascii	"1\015\262X#\037\2356`\320\244P\251\002e\262M\200p\240"
  43      231F9D36 
  43      60D0A450 
  43      A90265B2 
  43      4D8070A0 
  44 00bf 91A159B0 		.ascii	"\221\241Y\260\315!\023+oB\351)\010\3371\213\207$w\220"
  44      CD21132B 
  44      6F42E929 
  44      08DF318B 
ARM GAS  /tmp/ccOEYqcl.s 			page 3


  44      87247790 
  45 00d3 39488A26 		.ascii	"9H\212&\004g\274}\304\351T@\365\010\250&4feb\014N\375"
  45      0467BC7D 
  45      C4E95440 
  45      F508A826 
  45      34666562 
  46 00ea 72D19FA4 		.ascii	"r\321\237\244D\022ND\330\357\242\272\007U\222jB\257"
  46      44124E44 
  46      D8EFA2BA 
  46      0755926A 
  46      42AF
  47 00fc FB8DC0EF 		.ascii	"\373\215\300\357\213\356\243G\267XDy\033'\002\223\021"
  47      8BEEA347 
  47      B7584479 
  47      1B270293 
  47      11
  48 010d 8FCCCE83 		.ascii	"\217\314\316\203\343\355\321\266\237JyQ\004J\344Wz\016"
  48      E3EDD1B6 
  48      9F4A7951 
  48      044AE457 
  48      7A0E
  49 011f AE3A785A 		.ascii	"\256:xZTK\025\227\035<\335\221v0\004\022<x\355\310\015"
  49      544B1597 
  49      1D3CDD91 
  49      76300412 
  49      3C78EDC8 
  50 0134 915050A8 		.ascii	"\221PP\250\"\364\353\227x\027\374\224\213\3067|\374"
  50      22F4EB97 
  50      7817FC94 
  50      8BC6377C 
  50      FC
  51 0145 6F78FC42 		.ascii	"ox\374BV;\360\206lzOO\372\377\266\354\267\266wPlm\215"
  51      563BF086 
  51      6C7A4F4F 
  51      FAFFB6EC 
  51      B7B67750 
  52 015c C8A6ED91 		.ascii	"\310\246\355\221!\002z2\241O\232\246%?\257`-e\227\255"
  52      21027A32 
  52      A14F9AA6 
  52      253FAF60 
  52      2D6597AD 
  53 0170 156F75AD 		.ascii	"\025ou\255`\331^.\347\345\255\351tj&\265a\345\327]\333"
  53      60D95E2E 
  53      E7E5ADE9 
  53      746A26B5 
  53      61E5D75D 
  54 0185 B481E7CD 		.ascii	"\264\201\347\315\361O\265\353\222\340"
  54      F14FB5EB 
  54      92E0
  55              		.text
  56              		.section	.gnu.lto_nvicDisableVector.4ef3f408ff97dc58,"",%progbits
  57 0000 789C7D50 		.ascii	"x\234}P\277K\303P\020\276\357\245\321VAqt\262\350\""
  57      BF4BC350 
  57      10BEEFA5 
  57      D1564171 
  57      74B2E822 
  58 0014 14133A39 		.ascii	"\024\023:98\211s\027\251\240c\355P\003\266\021+\342"
ARM GAS  /tmp/ccOEYqcl.s 			page 4


  58      38897317 
  58      A9A063ED 
  58      5003B611 
  58      2BE2
  59 0026 D6D4D4CD 		.ascii	"\326\324\324\315\241\203\203?\026\213[\251?\300E\020"
  59      A183833F 
  59      168B5BA9 
  59      3FC04510 
  60 0036 A4141C1C 		.ascii	"\244\024\034\034*\370\037\024\027\301AD\227\016B\274"
  60      2AF81F14 
  60      17C14144 
  60      970E42BC 
  61 0046 4B1AA50E 		.ascii	"K\032\245\016\036\311\273{\367}\367\335\335S\244\350"
  61      1EC9BB7B 
  61      F77DF7DD 
  61      DD53A4E8 
  62 0056 AF8DF37F 		.ascii	"\257\215\363\177\017\242${h\004U}$*G\025 \001\201J\012"
  62      0FA2247B 
  62      6804557D 
  62      242A4715 
  62      2001814A 
  63 006b A5150815 		.ascii	"\245\025\010\025\223Ts\234jg\357\245\253\216\016\232"
  63      9354739C 
  63      6A67EFA5 
  63      AB8E0E9A 
  64 007b 9553E7CB 		.ascii	"\225S\347\313\363\000\013,k\200\262\240e\276 \356;\025"
  64      F3000B2C 
  64      6B80B2A0 
  64      65BE20EE 
  64      3B15
  65 008d E9EF73A9 		.ascii	"\351\357s\251\232\035\317k\\_=\3271\026\003\362ReA\323"
  65      9A1DCF6B 
  65      5C5F3DD7 
  65      311603F2 
  65      526541D3 
  66 00a1 28831A2B 		.ascii	"(\203\032+G\370B:\037R\247S\205\033\305I4\331\322|\312"
  66      47F8423A 
  66      1F52A753 
  66      851BC549 
  66      34D9D27C 
  67 00b6 344B50E2 		.ascii	"4KP\342\2656\271\027\356\347\376t\006g\320)\007\225"
  67      B536B917 
  67      EEE7FE74 
  67      0667D029 
  67      0795
  68 00c8 03A427D7 		.ascii	"\003\244'\327\021\265i\367\315\275C\210i\214I\322\275"
  68      11B569F7 
  68      CDBD4388 
  68      698C49D2 
  68      BD
  69 00d9 D5C25484 		.ascii	"\325\302T\204\263>}\302\247\273\347\356\307\017]\027"
  69      B33E7DC2 
  69      A7BBE7EE 
  69      C70F5D17 
  70 00e9 20026109 		.ascii	" \002a\011\326zx\037\016\240\031j8\225\2623gAOP]\302"
  70      D67A781F 
  70      0EA0196A 
ARM GAS  /tmp/ccOEYqcl.s 			page 5


  70      3895B233 
  70      67414F50 
  71 00ff 510B0327 		.ascii	"Q\013\003't\314\374A)\212:-\327\031\361w\217\372\033"
  71      74CCFC41 
  71      298A3A2D 
  71      D719F177 
  71      8FFA1B
  72 0112 AF22D89C 		.ascii	"\257\"\330\234\347\2430\322}\321\233\303\327.\372dg"
  72      E7A330D2 
  72      7DD19BC3 
  72      D72EFA64 
  72      67
  73 0123 2DC47E65 		.ascii	"-\304~e\207\376\227EO\254\247\357c1\011\236\250\334"
  73      87FE9745 
  73      4FACA7EF 
  73      6331099E 
  73      A8DC
  74 0135 A94F05C2 		.ascii	"\251O\005\302\241\245\231\306o&#$\014\303\014>\273h"
  74      A1A599C6 
  74      6F262324 
  74      0CC30C3E 
  74      BB68
  75 0147 AE65D6CD 		.ascii	"\256e\326\315\015{s\253hf\355|\336.\230\363\213\251"
  75      0D7B73AB 
  75      6866ED7C 
  75      DE2E98F3 
  75      8BA9
  76 0159 85D48E59 		.ascii	"\205\324\216Y\330\266\262F\226\264\202\221\374\006\256"
  76      D8B6B246 
  76      96B48291 
  76      FC06AE
  77 0168 7676D4   		.ascii	"vv\324"
  78              		.text
  79              		.section	.gnu.lto_nvicSetSystemHandlerPriority.4ef3f408ff97dc58,"",%progbits
  80 0000 789C6362 		.ascii	"x\234cb`b@\007\222@\374\001\210u\201\230\221\231\201"
  80      60624007 
  80      9240FC01 
  80      88758198 
  80      919981
  81 0013 9169C239 		.ascii	"\221i\3029\006\206F\016&FF\020\203\201\221\241\236\211"
  81      0686460E 
  81      26464610 
  81      838191A1 
  81      9E89
  82 0025 B13E9211 		.ascii	"\261>\222\021\254v=\323\201\007\377\377\257\373\322"
  82      AC763DD3 
  82      8107FFFF 
  82      AFFBD2
  83 0034 76EC20E3 		.ascii	"v\354 \3439evF\306\\F\240\211\231\214\014\314 \202\025"
  83      39657646 
  83      C65C46A0 
  83      89998C0C 
  83      CC208215 
  84 0048 C805A963 		.ascii	"\310\005\251cehih\230\240\220\313\010\264,\031\2541"
  84      65686968 
  84      98A090CB 
  84      08B42C19 
ARM GAS  /tmp/ccOEYqcl.s 			page 6


  84      AC31
  85 005a 0448824C 		.ascii	"\004H\202L\013\005\012\001i\346\263\014M\257\2337\367"
  85      0B050A01 
  85      69E6B30C 
  85      4DAF9B37 
  85      F7
  86 006b E926322E 		.ascii	"\351&2.ddeHgdJ\007i<\313\320\274\226\031&\304\014\024"
  86      64646548 
  86      67644A07 
  86      693CCBD0 
  86      BC961926 
  87 0082 8D60CC64 		.ascii	"\215`\314ddda\000\311\034\362\204H\3502\254ihil0\007"
  87      64646100 
  87      C91CF284 
  87      48E832AC 
  87      6968696C 
  88 0098 4A6833AC 		.ascii	"Jh3\254\0021y3\031\231f3\314\002*e\006\251gi\270\325"
  88      02317933 
  88      19996633 
  88      CC022A65 
  88      06A96769 
  89 00ae DCC0C700 		.ascii	"\334\300\307\000f\202\335\234\004q:\320HV\006\030\213"
  89      6682DD9C 
  89      04713AD0 
  89      48560618 
  89      8B
  90 00bf 9981E122 		.ascii	"\231\201\341\"C\343\203s\312\020Ca \004\350\012\240"
  90      43E38373 
  90      CA104361 
  90      2004E80A 
  90      A0
  91 00d0 F34061A4 		.ascii	"\363@a\244\255\247\247\017A\371\305\372\031\2119\372"
  91      ADA7A70F 
  91      41F9C5FA 
  91      198939FA 
  92 00e0 05F94525 		.ascii	"\005\371E%\305\372\311\371\271\271\371y\372\216A\276"
  92      C5FAC9F9 
  92      B9B9F979 
  92      FA8E41BE 
  93 00f0 CEBE15FA 		.ascii	"\316\276\025\372ye\231\311z\311\014\000\317\274E\347"
  93      796599C9 
  93      7AC90C00 
  93      CFBC45E7 
  94              		.text
  95              		.section	.gnu.lto_nvicClearPending.4ef3f408ff97dc58,"",%progbits
  96 0000 789C5D50 		.ascii	"x\234]P1H\303P\020\275\367\177\322\352\2428:Yt\021\212"
  96      3148C350 
  96      10BDF77F 
  96      D2EAA238 
  96      3A597411 
  97 0015 09BA3A89 		.ascii	"\011\272:\211\223C\027\251\240c\315P\003\266\021+\342"
  97      934317A9 
  97      A063CD50 
  97      03B6112B 
  97      E2
  98 0026 D65FD359 		.ascii	"\326_\323Y:\270\250\213\305M\252\356v)\335+\272;\024"
  98      3AB8A88B 
ARM GAS  /tmp/ccOEYqcl.s 			page 7


  98      C54DAAEE 
  98      7629DD2B 
  98      BA3B14
  99 0039 41280EAE 		.ascii	"A(\016\256.B\274KLA\217\237\177\367\337\275{w9E\212"
  99      2E42BC4B 
  99      4C418F9F 
  99      7FF7DFBD 
  99      7B773945 
 100 004e FEDB2C7F 		.ascii	"\376\333,\177\006D\313\354\241\011\252\365D\324\230"
 100      0644CBEC 
 100      A109AAF5 
 100      44D498
 101 005d 50800404 		.ascii	"P\200\004\004\252+\324w T\314S\333\230\326\360\375\353"
 101      AA2BD477 
 101      2054CC53 
 101      DB98D6F0 
 101      FDEB
 102 006f 595F9CF7 		.ascii	"Y_\234\367\232\327\346;\212\000\037,\353\200<\3206?"
 102      9AD7E63B 
 102      8A001F2C 
 102      EB803CD0 
 102      363F
 103 0081 908B9DB2 		.ascii	"\220\213\235\262\376\366yP\275a\024\275v;o#\314L\002"
 103      FEF67950 
 103      BD6114BD 
 103      763B6F23 
 103      CC4C02
 104 0094 15A9F2A1 		.ascii	"\025\251\362\2415\225\320fe\213\037d\313\225\021\230"
 104      3595D066 
 104      658B1F64 
 104      CB951198 
 105 00a4 2B6C6A72 		.ascii	"+ljr\267\034\2110[\221o\031i\013J\274\036Px\037Fg\213"
 105      B71C8930 
 105      5B916F19 
 105      690B4ABC 
 105      1E50781F 
 106 00bb 25DCC0A6 		.ascii	"%\334\300\2462T\031\220\306\\G4\240\323\317\360\003"
 106      32541990 
 106      C65C4734 
 106      A0D3CFF0 
 106      03
 107 00cc 694E734E 		.ascii	"iNsN\300\260\253S\310b4\246\317\305\364\360n\234\261"
 107      C0B0AB53 
 107      C86234A6 
 107      CFC5F4F0 
 107      6E9CB1
 108 00df 6318C2F9 		.ascii	"c\030\302\371\025z\034\013e8-`\177#A\226\250c\232\015"
 108      157A1C0B 
 108      65382D60 
 108      7F234196 
 108      A8639A0D 
 109 00f3 B3EAC3CA 		.ascii	"\263\352\303\312\323\255\204\323>\354+\272d\211\214"
 109      D3AD84D3 
 109      3EEC2BBA 
 109      64898C
 110 0102 E8644D3F 		.ascii	"\350dM?4S\361F\262\361\036v\221\354\203\007\2464\312"
 110      3453F146 
ARM GAS  /tmp/ccOEYqcl.s 			page 8


 110      B2F11E76 
 110      91EC8307 
 110      A634CA
 111 0115 10BD5063 		.ascii	"\020\275Pc8ZHDS+\362\320\374\247\302\313;\216\233\234"
 111      385A4844 
 111      532BF2D0 
 111      FCA7C2CB 
 111      3B8E9B9C 
 112 0129 A0E6EE95 		.ascii	"\240\346\356\225\366\335\203\340\360\250\346zA\245\022"
 112      F6DD83E0 
 112      F0A8E67A 
 112      41A512
 113 0138 54DDB5CD 		.ascii	"T\335\265\315\302z\341\304\255\036\373\236\343\221\256"
 113      C27AE1C4 
 113      AD1EFB9E 
 113      E391AE
 114 0147 3A2B3F72 		.ascii	":+?r\207f\302"
 114      8766C2
 115              		.text
 116              		.section	.gnu.lto_.symbol_nodes.4ef3f408ff97dc58,"",%progbits
 117 0000 789C6362 		.ascii	"x\234cb`b\260c\200\002\246\333\214\365\014\014\023\316"
 117      6062B063 
 117      8002A6DB 
 117      8CF50C0C 
 117      13CE
 118 0012 3130D4D7 		.ascii	"10\324\327\317\353`d\272\303X\317\210\304\275\313X\317"
 118      CFEB6064 
 118      BAC358CF 
 118      88C4BDCB 
 118      58CF
 119 0024 84C4BDC7 		.ascii	"\204\304\275\307X\317\214\3402\000\000q\306\023\317"
 119      58CF8CE0 
 119      32000071 
 119      C613CF
 120              		.text
 121              		.section	.gnu.lto_.refs.4ef3f408ff97dc58,"",%progbits
 122 0000 789C6362 		.ascii	"x\234cb`b`d\200\002\000\000F\000\006"
 122      60626064 
 122      80020000 
 122      460006
 123              		.text
 124              		.section	.gnu.lto_.decls.4ef3f408ff97dc58,"",%progbits
 125 0000 789CAD59 		.ascii	"x\234\255YmpT\325\031>\347\356\015I$\215\340\370\001"
 125      6D7054D5 
 125      193EE7EE 
 125      0D49248D 
 125      E0F801
 126 0013 337488B5 		.ascii	"3t\210\265:\035\251Y\024\265\366\217\303f\023\314\316"
 126      3A1DA959 
 126      14B5F68F 
 126      C36613CC 
 126      CE
 127 0024 189BD905 		.ascii	"\030\233\331\005\246#3]\216\313\325\354L\262\233\331"
 127      A623335D 
 127      8ECBD5EC 
 127      4CB29BD9 
 128 0034 2C1DF977 		.ascii	",\035\371wb\244\245\326L\303\227d\0203\233\232X\021"
ARM GAS  /tmp/ccOEYqcl.s 			page 9


 128      62A4A5D6 
 128      4CC39764 
 128      10339B9A 
 128      5811
 129 0046 950C10AA 		.ascii	"\225\014\020\252\240e\025\005\025\021D\024\025\321\325"
 129      A0651505 
 129      15114414 
 129      15D1D5
 130 0055 DAA1B676 		.ascii	"\332\241\266v\200\342P\255\245\333\367\234\373u\316"
 130      80E250AD 
 130      A5DBF79C 
 130      FB75CE
 131 0064 DD3D9BBB 		.ascii	"\335=\233\273N\357\344\274\367\334{\317y\336\347}\316"
 131      4EEFE4BC 
 131      F7DC7BCF 
 131      79DEE77D 
 131      CE
 132 0075 C77DF746 		.ascii	"\307}\367FC\032z\030#T\204\243\1776B\327h\010\325 \204"
 132      431A7A18 
 132      235484A3 
 132      7F3642D7 
 132      6808D520 
 133 008a 6E47EEA1 		.ascii	"nG\356\241C\031\205\262\035\312$\224\275\250\364`\317"
 133      431985B2 
 133      1DCA2494 
 133      BDA8F460 
 133      CF
 134 009b 1BACB68D 		.ascii	"\033\254\266\215V\035`Q-2\361\366A\331\017\345\000\224"
 134      561D6051 
 134      2D32F1F6 
 134      41D90FE5 
 134      0094
 135 00ad 33500E43 		.ascii	"3P\016Cy\023J\000\312i(\247\240\034\262\3720,\240\201"
 135      79134A00 
 135      CA6928A7 
 135      A01CB2FA 
 135      302CA081 
 136 00c1 9E86F294 		.ascii	"\236\206\362\224\307\017\3430\335\343\307\366ac\332"
 136      C70FE330 
 136      DDE3C7F6 
 136      6163DA
 137 00d0 3E6C9F0C 		.ascii	">l\237\014\353]\313\017\2660\330y\247\007{\322\302\301"
 137      EB5DCB0F 
 137      B630D879 
 137      A7077BD2 
 137      C2C1
 138 00e2 56DFB350 		.ascii	"V\337\263P\316C\231\207\315{5\326y\322\342\375<\224"
 138      CE439987 
 138      CD7B35D6 
 138      79D2E2FD 
 138      3C94
 139 00f4 3F42F931 		.ascii	"?B\3711\226q\230>ue8z\371a+nl\365a\347\027=\234\346"
 139      9671983E 
 139      7565387A 
 139      F9612B6E 
 139      6CF561E7 
 140 010c A2119A2B 		.ascii	"\242\021\232+\024\306G\016a\272\216\376\247X\014\240"
ARM GAS  /tmp/ccOEYqcl.s 			page 10


 140      14C6470E 
 140      61BA8EFE 
 140      A7580CA0 
 141 011c 2BD1460A 		.ascii	"+\321F\012G\356W\224\342,\301\267_\201~\216\011n\254"
 141      47EE5794 
 141      E22CC1B7 
 141      5F817E8E 
 141      096EAC
 142 012f 474DBCD2 		.ascii	"GM\274\322P\317\035#D\360\357\361\225\274\026\340\022"
 142      50CF1D23 
 142      44F0EFF1 
 142      95BC16E0 
 142      12
 143 0140 A07AB486 		.ascii	"\240z\264\206\322\007X\307\366\327\200W\271^\327\242"
 143      D20758C7 
 143      F6D78057 
 143      B95ED7A2 
 144 0150 314A870A 		.ascii	"1J\207\012/\216\016\006)\255#x\014\327C\337A\214\321"
 144      2F8E0E06 
 144      29AD2378 
 144      0CD743DF 
 144      418CD1
 145 0163 F5682B38 		.ascii	"\365h+8\035\242\364\345y\032*=\010\256\255/\271&\370"
 145      1DA2F4E5 
 145      791A2A3D 
 145      08AEAD2F 
 145      B926F8
 146 0176 0FF87A64 		.ascii	"\017\370zdz\342\217\255\012\233l\227:\264L/\274\262"
 146      7AE28FAD 
 146      0A9B6C97 
 146      3AB44C2F 
 146      BCB2
 147 0188 24E00068 		.ascii	"$\340\000h\3501\360j#\260\343\207\350qJ\327\201\024"
 147      E831F06A 
 147      23B0E387 
 147      E8714AD7 
 147      8114
 148 019a 63B3694E 		.ascii	"c\263iN\263\271=\313[\215\342\271e\343\261\260\315\256"
 148      B3B93DCB 
 148      5B8DE2B9 
 148      65E3B1B0 
 148      CDAE
 149 01ac F479A3DD 		.ascii	"\364y\243\335\3566\341\247\033B\327\241q\246\365 ]="
 149      EE36E1A7 
 149      1B42D7A1 
 149      71A6F520 
 149      5D3D
 150 01be 0373A991 		.ascii	"\003s\251\221\325K\012u+\226$1\307,\277\353@\303P\177"
 150      D54B0A75 
 150      2B962431 
 150      C72CBFEB 
 150      40C3507F 
 151 01d2 A1589CEB 		.ascii	"\241X\234\353\177\300&\344\0013ixd\231,+\013]o\307F"
 151      7FC026E4 
 151      01336978 
 151      64992C2B 
 151      0B5D6FC7 
ARM GAS  /tmp/ccOEYqcl.s 			page 11


 152 01e7 F036A043 		.ascii	"\3606\240C\360\366\357\024\333vol;\312\306\366\225\035"
 152      F0F6EF14 
 152      DB766F6C 
 152      3BCAC6F6 
 152      951D
 153 01f9 9B39C934 		.ascii	"\2339\3114t\260<+A\361\317y\213I_\003u\321\015\346\031"
 153      74B03C2B 
 153      41F1CF79 
 153      8B495F03 
 153      75D10DE6 
 154 020e 1ECC14DD 		.ascii	"\036\314\024\335\024\301Lz\203\331]6\230=\007\235`&"
 154      14C14C7A 
 154      83D95D36 
 154      983D079D 
 154      6026
 155 0220 78305F96 		.ascii	"x0_\226\017f\255W\342\275\337\211\325^/\253\027dV|\231"
 155      0F66AD57 
 155      E2BDDF89 
 155      D55E2FAB 
 155      1764567C 
 156 0235 0ED0C238 		.ascii	"\016\320\3028\2355\354.\323:\333\001\333%\354e\372\305"
 156      9D35EC2E 
 156      D33ADB01 
 156      DB25EC65 
 156      FAC5
 157 0247 BF3558A6 		.ascii	"\2775X\246\326\272\256\324\201\340<\276\026,\226\027"
 157      D6BAAED4 
 157      81E03CBE 
 157      162C9617 
 158 0257 25AE772B 		.ascii	"%\256w+E\314f\327EO\350V\033\201\355\024\0203\321\020"
 158      45CC66D7 
 158      454FE856 
 158      1B81ED14 
 158      1033D110 
 159 026b 0BB969B8 		.ascii	"\013\271i\270\221\340}p\317bC/\265\351\2345wK\261\335"
 159      91E07D70 
 159      CF62432F 
 159      B5E99C35 
 159      774BB1DD 
 160 027f 4B15DA11 		.ascii	"K\025\332\021\374\012\236\351\352B\255\355\2137Q-\243"
 160      FC0A9EE9 
 160      EA42ADED 
 160      8B37512D 
 160      A3
 161 0290 572DCED6 		.ascii	"W-\316\326m\247r\006K\221\330\315\320eh-\347\"\354\212"
 161      6DA77206 
 161      4B91D8CD 
 161      D065682D 
 161      E722EC8A 
 162 02a4 B902B67B 		.ascii	"\271\002\266{=8\307U\374\321uG\026\361\215\361\000\276"
 162      3D38C755 
 162      FCD17547 
 162      16F18DF1 
 162      00BE
 163 02b6 0CD4DAAD 		.ascii	"\014\324\332\255\311j\371\000b\216_\207\316f7\016K\363"
 163      C96AF900 
 163      628E5F87 
ARM GAS  /tmp/ccOEYqcl.s 			page 12


 163      CE66370E 
 163      4BF3
 164 02c8 C5130D54 		.ascii	"\305\023\015T7\357#\011P:\256F9\372`\177~\375\346\215"
 164      37EF2309 
 164      503AAE46 
 164      39FA607F 
 164      7EFDE68D 
 165 02dc 98E65EC6 		.ascii	"\230\346^\306\266\202\2575Z3\246\322\306N\3608\237\000"
 165      B682AF35 
 165      5A33A6D2 
 165      C64EF038 
 165      9F00
 166 02ee 53EFCAF6 		.ascii	"S\357\312\366@hv\367&i\274\230\364c\302xy\232\021\374"
 166      406876F7 
 166      2669BC98 
 166      F463C278 
 166      799A11FC 
 167 0302 56D5C375 		.ascii	"V\325\303uD1\\\265\322h\331\255@\366<\227\235\251U\226"
 167      44315CB5 
 167      D268D9AD 
 167      40F63C97 
 167      9DA95596 
 168 0316 85836383 		.ascii	"\205\203c\2036:S\230I\010zo\270{\210\250\002\232f\367"
 168      363A5398 
 168      49087A6F 
 168      B87B88A8 
 168      029A66F7 
 169 032a 5F6E393E 		.ascii	"_n9>Vu@\357(\002\272\012\331\021\274Z\022\201\344V\222"
 169      567540EF 
 169      2802BA0A 
 169      D911BC5A 
 169      1281E456 
 170 033f B4340298 		.ascii	"\2644\002\230\004\217@\004\004\277\011\3244t\304\227"
 170      048F4004 
 170      04BF09D4 
 170      3474C497 
 171 034f 1C14ABF5 		.ascii	"\034\024\253\365\030\346h\3078\332q_\324r*4\340\266"
 171      18E668C7 
 171      38DA715F 
 171      D4722A34 
 171      E0B6
 172 0361 59E076CA 		.ascii	"Y\340v\312\0377M\315m\213\300\3553\177\334Th\300mD\340"
 172      1F374DCD 
 172      6D8BC0ED 
 172      337FDC54 
 172      68C06D44 
 173 0376 F6A53F6E 		.ascii	"\366\245?n\0015\267\011\201\3339\177\334Th\300m\207"
 173      0135B709 
 173      81DB397F 
 173      DC5468C0 
 173      6D87
 174 0388 C0ED5B7F 		.ascii	"\300\355[\177\334t5\267]\025\346x\243\015P\2607\331"
 174      DC7435B7 
 174      5D15E678 
 174      A30D50B0 
 174      37D9
 175 039a CFAB9EE4 		.ascii	"\317\253\236\344\177QL\362\2378\223\234\006\2741\310"
ARM GAS  /tmp/ccOEYqcl.s 			page 13


 175      7F514CF2 
 175      9F38939C 
 175      06BC31C8 
 176 03aa 7E6D4954 		.ascii	"~mITA\200$\273\357\236XN\360~.\311C%p\362\273\302\326"
 176      418024BB 
 176      EF9E584E 
 176      F07E2EC9 
 176      432570F2 
 177 03c1 649A5A93 		.ascii	"d\232Z\223\347*h2\352\354\323C\227[!\376\255jQ\376\256"
 177      E72A6832 
 177      EAECD343 
 177      975B21FE 
 177      AD6A51FE 
 178 03d6 1065A0C6 		.ascii	"\020e\240\306Qe\260$\014\217g;\246Z\225,\003\371=\037"
 178      5165B024 
 178      0C8F673B 
 178      A65A952C 
 178      03F93D1F 
 179 03ea 36B0A972 		.ascii	"6\260\251r\230'V\233\274\200\022+[\2259e\320\312\035"
 179      9827569B 
 179      BC80122B 
 179      5B953965 
 179      D0CA1D
 180 03fd E2DB89E0 		.ascii	"\342\333\211\3407\370K\343\020\276\032\354\333\334\276"
 180      37F84BE3 
 180      10BE1AEC 
 180      DBDCBE
 181 040c CBED096E 		.ascii	"\313\355\011n?\340\366$\267\247\270\375\204\333O\271"
 181      3FE0F624 
 181      B7A7B8FD 
 181      84DB4FB9 
 182 041c FD33B7A7 		.ascii	"\3753\267\247\271\375\202\333\177\200u\216\351\350!"
 182      B9FD82DB 
 182      7F80758E 
 182      E9E821
 183 042b F7D788F9 		.ascii	"\367\327\210\371BU\251z\006O\267{)\322\213\345v\227"
 183      4255A97A 
 183      064FB77B 
 183      29D28BE5 
 183      7697
 184 043d 8692562F 		.ascii	"\206\222V/)[\021|\256\352\001\376\247b\200\035\202R"
 184      295B117C 
 184      AEEA01FE 
 184      A762801D 
 184      8252
 185 044f AB720941 		.ascii	"\253r\011A\301I\314\036vS\271\374\271\223\270\211\340"
 185      C149CC1E 
 185      7653B9FC 
 185      B993B889 
 185      E0
 186 0460 F33CABD8 		.ascii	"\363<\253\330\022\2302\253\360\2000\237\027\274I\305"
 186      129832AB 
 186      F080309F 
 186      17BC49C5 
 187 0470 FA933CA9 		.ascii	"\372\223<\251\2700uR\261a \277\351\321\215\263YR\341"
 187      B8307552 
 187      B16120BF 
ARM GAS  /tmp/ccOEYqcl.s 			page 14


 187      E9D18DB3 
 187      5952E1
 188 0483 A412F9FF 		.ascii	"\244\022\371\377C*\241\241q\036\312\205\312s\023\251"
 188      432AA1A1 
 188      711ECA85 
 188      CA7313A9 
 189 0493 27FAF049 		.ascii	"'\372\360Ia\242o\253\032\254I\002\333,\202M\370\001"
 189      61A26FAB 
 189      1AAC4902 
 189      DB2C824D 
 189      F801
 190 04a5 AB5333DB 		.ascii	"\253S3\333\"\202MV\015&3\033\021\301\366\372\001\233"
 190      22824D56 
 190      0D26331B 
 190      11C1F6FA 
 190      019B
 191 04b7 A1663621 		.ascii	"\241f6!\202\355\253\032Ld\006\357\244el\003>\3137\340"
 191      82EDAB1A 
 191      4C6406EF 
 191      A4656C03 
 191      3ECB37E0 
 192 04cb FD5E2C69 		.ascii	"\375^,i=Y\325Yjb\273Db\007\375\020kRK\266[\004;\354"
 192      3D59D559 
 192      6A62BB44 
 192      6207FD10 
 192      6B524BB6 
 193 04e3 07EC476A 		.ascii	"\007\354Gjf\317\211`\307\252\006\223\231\355\021\301"
 193      66CF8960 
 193      C7AA0693 
 193      99ED11C1 
 194 04f3 4EF8019B 		.ascii	"N\370\001\233\257f\366\202\010\366Q\325`2\263?\211`"
 194      AF66F682 
 194      08F651D5 
 194      6032B33F 
 194      8960
 195 0505 9FF901BB 		.ascii	"\237\371\001\273M\315\354\250\010v\272j0\201\331\206"
 195      4DCDECA8 
 195      0876BA6A 
 195      3081D986 
 196 0515 FEFCB165 		.ascii	"\376\374\261e\316\2139\267\220m\301\337\270\273\366"
 196      CE8B39B7 
 196      906DC1DF 
 196      B8BBF6
 197 0524 42790149 		.ascii	"By\001I\315\306\224\315\010\336\244U\273\271\017k\345"
 197      CDC694CD 
 197      08DEA455 
 197      BBB90F6B 
 197      E5
 198 0535 3777F967 		.ascii	"7w\371g\243\335\212e\220\336\260%\022Vu\241BC\330u\217"
 198      A3DD8A65 
 198      90DEB025 
 198      125675A1 
 198      4243D875 
 199 054a 9B1A7EC3 		.ascii	"\233\032~\3035<\353G\303v5\330{\"\330WU\203\311\003"
 199      353CEB47 
 199      C37635D8 
 199      7B22D857 
ARM GAS  /tmp/ccOEYqcl.s 			page 15


 199      5583C903 
 200 055e F2FE3239 		.ascii	"\362\37629S\022\306\203:\351\312\014q@J\022*O3\202s"
 200      5312C683 
 200      3AE9CA0C 
 200      71404A12 
 200      2A4F3382 
 201 0573 550FC8A8 		.ascii	"U\017\310\250b@\334\357ab+\010\373ko\3302\013\253\332"
 201      6240DCEF 
 201      61622B08 
 201      FB6B6FD8 
 201      320BABDA 
 202 0587 A912B13F 		.ascii	"\251\022\261?\377\241:\356\234\003uy\245\270\275\315"
 202      FFA13AEE 
 202      9C037579 
 202      A5B8BDCD 
 203 0597 E0755975 		.ascii	"\340uYu\334O(\342\326\245\270\237p\343\276\350\215["
 203      DC4F28E2 
 203      D6A5B89F 
 203      70E3BEE8 
 203      8D5B
 204 05a9 66615597 		.ascii	"faU\227+\342\206d\341\243el\3560\246\004\037\347\037"
 204      2BE28664 
 204      E1A3656C 
 204      EE30A604 
 204      1FE71F
 205 05bc B7A602EB 		.ascii	"\267\246\002\353UL\036\330\032>\026\267\206\007t\037"
 205      554C1ED8 
 205      1A3E16B7 
 205      8607741F 
 206 05cc 33714DB9 		.ascii	"3qM\271\237\223\345\0161\317!\370_<\021\371\232'\227"
 206      9F93E50E 
 206      31CF21F8 
 206      5F3C11F9 
 206      9A2797
 207 05df DF727B91 		.ascii	"\337r{\221\333\"\267\375\032\263\003\334\256\346\366"
 207      DB22B7FD 
 207      1AB303DC 
 207      AEE6F6
 208 05ee D7DCFE86 		.ascii	"\327\334\376\206\333\337r;\310\355\357\270]\313\355"
 208      DBDF723B 
 208      C8EDEFB8 
 208      5DCBED
 209 05fd 7A6E3772 		.ascii	"zn7r\273\231\333-\334\216p\3738\267Or\273US\247\263"
 209      BB99DB2D 
 209      DC8E70FB 
 209      38B74F72 
 209      BB5553A7 
 210 0612 E72BA4B3 		.ascii	"\347+\244\263\3334'[\374\001\032\245G\217\026V\237\031"
 210      DB34275B 
 210      FC011AA5 
 210      478F1656 
 210      9F19
 211 0624 C66B0A74 		.ascii	"\306k\012t\210\376\267X\304n\362\352|\330\313W\376\022"
 211      88FEB758 
 211      C46EF2EA 
 211      7CD8CB57 
 211      FE12
ARM GAS  /tmp/ccOEYqcl.s 			page 16


 212 0636 C83ECB6B 		.ascii	"\310>\313k\302W\300Y\345\333\022\274]czM\010\263\313"
 212      C257C059 
 212      E5DB12BC 
 212      5D637A4D 
 212      08B3CB
 213 0649 ACDB35F3 		.ascii	"\254\3335\363\033\340\032\335\363\017\015W\374\312]"
 213      1BE01ADD 
 213      F30F0D57 
 213      FCCA5D
 214 0658 2DA77F75 		.ascii	"-\247\177u\246\313\367\245\205\302\262q\326T\321\214"
 214      A6CBF7A5 
 214      85C2B271 
 214      D654D18C 
 215 0668 E01D552F 		.ascii	"\340\035U/\224\235\212\2052Gb\275\323](\203\272\347"
 215      949D8A85 
 215      324762BD 
 215      D35D2883 
 215      BAE7
 216 067a 2BB49785 		.ascii	"+\264\227\205\206\036\321\355\224\372\022V\231\327\334"
 216      861ED1ED 
 216      94FA1256 
 216      99D7DC
 217 0689 1C34FFD2 		.ascii	"\0344\377\322}\301.\322\035\354Mg\262}\301D\272\247"
 217      7DC12ED2 
 217      1DEC4D67 
 217      B27DC144 
 217      BAA7
 218 069b 279D0A86 		.ascii	"'\235\012\206\242\035\341\216\373\203\251_&\023\315"
 218      A21DE18E 
 218      FB83A95F 
 218      2613CD
 219 06aa 09F48B60 		.ascii	"\011\364\213`W\272\307\010\246\263\331t\260\303He\323"
 219      57BAC708 
 219      A6B3D974 
 219      B0C34865 
 219      D3
 220 06bb 993B32A4 		.ascii	"\231;2\244\267+\231\350\013\306\322+3\011#\263*\036"
 220      B72B99E8 
 220      0BC6D22B 
 220      330923B3 
 220      2A1E
 221 06cd 4EAF305A 		.ascii	"N\2570Z\214T\242+~g2k\304\357Mg\342\000\022o\013\265"
 221      8C54A22B 
 221      7E67326B 
 221      C4EF4D67 
 221      E200126F 
 222 06e3 448224D3 		.ascii	"D\202$\323sC*\2352n0\310=\311`2\225\350^\271\302\010"
 222      73432A9D 
 222      326E30C8 
 222      3DC96032 
 222      95E85EB9 
 223 06f9 F6655724 		.ascii	"\366eW$S\331\346.T\267\022\316\013n\212g\247\335q\327"
 223      53D9E62E 
 223      54B712CE 
 223      0B6E8A67 
 223      A7DD71D7 
 224 070d 92A6309A 		.ascii	"\222\2460\232\301\334\266\245\310=\335\306R#\001\336"
ARM GAS  /tmp/ccOEYqcl.s 			page 17


 224      C1DCB6A5 
 224      C83DDDC6 
 224      522301DE 
 225 071d 704AEFCD 		.ascii	"pJ\357\315$\3233\331\375\326d\237\373`\016\273\0233"
 225      24D333D9 
 225      FDD6649F 
 225      FB600EBB 
 225      1333
 226 072f B2B1557D 		.ascii	"\262\261U}Y\243\247\235\244Vt\033\231Nh\232IfW\325v"
 226      59A3A79D 
 226      A456741B 
 226      994E689A 
 226      496657D5 
 227 0744 99D71C2E 		.ascii	"\231\327\034.\334m\220L\247\221\002\227\367\3252\177"
 227      DC6D904C 
 227      A7910297 
 227      F7D5327F 
 228 0754 B7C5B3F3 		.ascii	"\267\305\263\363E\011\254\300\215\373\263\301pG,\022"
 228      4509ACC0 
 228      8DFBB3C1 
 228      70472C12 
 229 0764 736826D2 		.ascii	"sh&\322\031#\236\350Y\000D\353\357Z\032\011\307\027"
 229      19239EE8 
 229      590044EB 
 229      EF5A1A09 
 229      C717
 230 0776 AFEA35F4 		.ascii	"\257\3525\364H\254-Z\037m\003\273\264\255u\276\036\011"
 230      48AC2D5A 
 230      1F6D03BB 
 230      B4AD75BE 
 230      1E09
 231 0788 B745EBA2 		.ascii	"\267E\353\242\346\325\215\360\260\323}x\023<\024.\027"
 231      E6D58DF0 
 231      B0D37D78 
 231      133C142E 
 231      17
 232 0799 E891508B 		.ascii	"\350\221P\213{y\263\026\351t.n\321c\213#\321\272X\270"
 232      7B79B316 
 232      E9742E6E 
 232      D1638B23 
 232      D1BA58B8 
 233 07ad 853BA909 		.ascii	"\205;\251\011w.\211\264B\367XT_\272\370g\321\232P$\032"
 233      772E89B4 
 233      42F75854 
 233      5FBAF867 
 233      D19A5024 
 234 07c2 8E066250 		.ascii	"\216\006bP\302\354\334\336Y\023kg\017\303"
 234      C2ECDCDE 
 234      59136B67 
 234      0FC3
 235 07d0 8BC0B433 		.ascii	"\213\300\2643\323\012\246\246\243cQ(\252\2670\023\202"
 235      D30AA6A6 
 235      A3635128 
 235      AAB73013 
 235      82
 236 07e1 EB40E7A2 		.ascii	"\353@\347\242h\240\025J\2505\252\303\263(\360\013E\001"
 236      68A0154A 
ARM GAS  /tmp/ccOEYqcl.s 			page 18


 236      A835AAC3 
 236      B328F00B 
 236      4501
 237 07f3 3C148EEA 		.ascii	"<\024\216\352\211.\222\251\213\307\357]\231J\304\343"
 237      892E92A9 
 237      8BC7EF5D 
 237      994AC4E3 
 238 0803 DFB32BCD 		.ascii	"\337\263+\315\267\336r\353O\377\007m\243,["
 238      B7DE72EB 
 238      4FFF076D 
 238      A32C5B
 239              		.text
 240              		.section	.gnu.lto_.symtab.4ef3f408ff97dc58,"",%progbits
 241 0000 6E766963 		.ascii	"nvicEnableVector\000\000\000\000\000\000\000\000\000"
 241      456E6162 
 241      6C655665 
 241      63746F72 
 241      00000000 
 242 0019 000000A1 		.ascii	"\000\000\000\241\000\000\000nvicDisableVector\000\000"
 242      0000006E 
 242      76696344 
 242      69736162 
 242      6C655665 
 243 0033 00000000 		.ascii	"\000\000\000\000\000\000\000\000\000\000\257\000\000"
 243      00000000 
 243      0000AF00 
 243      00
 244 0040 006E7669 		.ascii	"\000nvicSetSystemHandlerPriority\000\000\000\000\000"
 244      63536574 
 244      53797374 
 244      656D4861 
 244      6E646C65 
 245 0062 00000000 		.ascii	"\000\000\000\000\000\000\000\265\000\000\000nvicCle"
 245      000000B5 
 245      0000006E 
 245      76696343 
 245      6C65
 246 0074 61725065 		.ascii	"arPending\000\000\000\000\000\000\000\000\000\000\000"
 246      6E64696E 
 246      67000000 
 246      00000000 
 246      00000000 
 247 0088 00BB0000 		.ascii	"\000\273\000\000\000"
 247      00
 248              		.text
 249              		.section	.gnu.lto_.opts,"",%progbits
 250 0000 272D6D63 		.ascii	"'-mcpu=cortex-m3' '-mno-thumb-interwork' '-mthumb' "
 250      70753D63 
 250      6F727465 
 250      782D6D33 
 250      2720272D 
 251 0033 272D6767 		.ascii	"'-ggdb' '-O2' '-fomit-frame-pointer' '-falign-funct"
 251      64622720 
 251      272D4F32 
 251      2720272D 
 251      666F6D69 
 252 0066 696F6E73 		.ascii	"ions=16' '-ffunction-sections' '-fdata-sections' '-"
ARM GAS  /tmp/ccOEYqcl.s 			page 19


 252      3D313627 
 252      20272D66 
 252      66756E63 
 252      74696F6E 
 253 0099 666E6F2D 		.ascii	"fno-common' '-flto'\000"
 253      636F6D6D 
 253      6F6E2720 
 253      272D666C 
 253      746F2700 
 254              		.text
 255              		.cfi_sections	.debug_frame
 256              		.section	.text.nvicEnableVector,"ax",%progbits
 257              		.align	2
 258              		.p2align 4,,15
 259              		.global	nvicEnableVector
 260              		.thumb
 261              		.thumb_func
 262              		.type	nvicEnableVector, %function
 263              	nvicEnableVector:
 264              	.LFB219:
 265              		.file 1 "../../../os/hal/ports/common/ARMCMx/nvic.c"
 266              		.loc 1 57 0
 267              		.cfi_startproc
 268              		@ args = 0, pretend = 0, frame = 0
 269              		@ frame_needed = 0, uses_anonymous_args = 0
 270              		@ link register save eliminated.
 271              	.LVL0:
 272              		.loc 1 65 0
 273 0000 00F01F03 		and	r3, r0, #31
 274 0004 0122     		movs	r2, #1
 275 0006 02FA03F3 		lsl	r3, r2, r3
 276 000a 4209     		lsrs	r2, r0, #5
 277 000c 9200     		lsls	r2, r2, #2
 278              		.loc 1 63 0
 279 000e 0901     		lsls	r1, r1, #4
 280              	.LVL1:
 281 0010 00F16040 		add	r0, r0, #-536870912
 282              	.LVL2:
 283 0014 02F16042 		add	r2, r2, #-536870912
 284 0018 02F56142 		add	r2, r2, #57600
 285 001c C9B2     		uxtb	r1, r1
 286 001e 00F56140 		add	r0, r0, #57600
 287              	.LVL3:
 288 0022 80F80013 		strb	r1, [r0, #768]
 289              		.loc 1 65 0
 290 0026 C2F88031 		str	r3, [r2, #384]
 291              		.loc 1 66 0
 292 002a 1360     		str	r3, [r2]
 293 002c 7047     		bx	lr
 294              		.cfi_endproc
 295              	.LFE219:
 296              		.size	nvicEnableVector, .-nvicEnableVector
 297 002e 00BF     		.section	.text.nvicDisableVector,"ax",%progbits
 298              		.align	2
 299              		.p2align 4,,15
 300              		.global	nvicDisableVector
 301              		.thumb
ARM GAS  /tmp/ccOEYqcl.s 			page 20


 302              		.thumb_func
 303              		.type	nvicDisableVector, %function
 304              	nvicDisableVector:
 305              	.LFB220:
 306              		.loc 1 74 0
 307              		.cfi_startproc
 308              		@ args = 0, pretend = 0, frame = 0
 309              		@ frame_needed = 0, uses_anonymous_args = 0
 310              		@ link register save eliminated.
 311              	.LVL4:
 312 0000 10B4     		push	{r4}
 313              		.cfi_def_cfa_offset 4
 314              		.cfi_offset 4, -4
 315              		.loc 1 76 0
 316 0002 00F01F03 		and	r3, r0, #31
 317 0006 0124     		movs	r4, #1
 318 0008 9C40     		lsls	r4, r4, r3
 319 000a 4FF46143 		mov	r3, #57600
 320 000e 4109     		lsrs	r1, r0, #5
 321 0010 CEF20003 		movt	r3, 57344
 322 0014 2031     		adds	r1, r1, #32
 323              		.loc 1 80 0
 324 0016 1844     		add	r0, r0, r3
 325              	.LVL5:
 326 0018 0022     		movs	r2, #0
 327              		.loc 1 76 0
 328 001a 43F82140 		str	r4, [r3, r1, lsl #2]
 329              		.loc 1 80 0
 330 001e 80F80023 		strb	r2, [r0, #768]
 331              		.loc 1 82 0
 332 0022 5DF8044B 		ldr	r4, [sp], #4
 333 0026 7047     		bx	lr
 334              		.cfi_endproc
 335              	.LFE220:
 336              		.size	nvicDisableVector, .-nvicDisableVector
 337 0028 AFF30080 		.section	.text.nvicSetSystemHandlerPriority,"ax",%progbits
 337      AFF30080 
 338              		.align	2
 339              		.p2align 4,,15
 340              		.global	nvicSetSystemHandlerPriority
 341              		.thumb
 342              		.thumb_func
 343              		.type	nvicSetSystemHandlerPriority, %function
 344              	nvicSetSystemHandlerPriority:
 345              	.LFB221:
 346              		.loc 1 90 0
 347              		.cfi_startproc
 348              		@ args = 0, pretend = 0, frame = 0
 349              		@ frame_needed = 0, uses_anonymous_args = 0
 350              		@ link register save eliminated.
 351              	.LVL6:
 352              		.loc 1 100 0
 353 0000 0901     		lsls	r1, r1, #4
 354              	.LVL7:
 355 0002 00F16040 		add	r0, r0, #-536870912
 356              	.LVL8:
 357 0006 C9B2     		uxtb	r1, r1
ARM GAS  /tmp/ccOEYqcl.s 			page 21


 358 0008 00F56D40 		add	r0, r0, #60672
 359              	.LVL9:
 360 000c 0176     		strb	r1, [r0, #24]
 361 000e 7047     		bx	lr
 362              		.cfi_endproc
 363              	.LFE221:
 364              		.size	nvicSetSystemHandlerPriority, .-nvicSetSystemHandlerPriority
 365              		.section	.text.nvicClearPending,"ax",%progbits
 366              		.align	2
 367              		.p2align 4,,15
 368              		.global	nvicClearPending
 369              		.thumb
 370              		.thumb_func
 371              		.type	nvicClearPending, %function
 372              	nvicClearPending:
 373              	.LFB222:
 374              		.loc 1 109 0
 375              		.cfi_startproc
 376              		@ args = 0, pretend = 0, frame = 0
 377              		@ frame_needed = 0, uses_anonymous_args = 0
 378              		@ link register save eliminated.
 379              	.LVL10:
 380              		.loc 1 111 0
 381 0000 00F01F03 		and	r3, r0, #31
 382 0004 0122     		movs	r2, #1
 383 0006 9A40     		lsls	r2, r2, r3
 384 0008 4009     		lsrs	r0, r0, #5
 385              	.LVL11:
 386 000a 4FF46143 		mov	r3, #57600
 387 000e 6030     		adds	r0, r0, #96
 388 0010 CEF20003 		movt	r3, 57344
 389 0014 43F82020 		str	r2, [r3, r0, lsl #2]
 390 0018 7047     		bx	lr
 391              		.cfi_endproc
 392              	.LFE222:
 393              		.size	nvicClearPending, .-nvicClearPending
 394 001a 00BFAFF3 		.text
 394      0080
 395              	.Letext0:
 396              		.file 2 "/home/otto/MentorGraphics/Sourcery_CodeBench_Lite_for_ARM_EABI/arm-none-eabi/include/stdi
 397              		.file 3 "../../../os/common/ports/ARMCMx/compilers/GCC/chtypes.h"
 398              		.file 4 "../../../os/rt/include/chsystypes.h"
 399              		.file 5 "../../../os/rt/include/chschd.h"
 400              		.file 6 "../../../os/common/ext/CMSIS/include/core_cm3.h"
 401              		.file 7 "../../../os/common/ports/ARMCMx/chcore.h"
 402              		.file 8 "../../../os/common/ports/ARMCMx/chcore_v7m.h"
 403              		.file 9 "../../../os/rt/include/chsem.h"
 404              		.file 10 "../../../os/rt/include/chmtx.h"
 405              		.section	.debug_info,"",%progbits
 406              	.Ldebug_info0:
 407 0000 52090000 		.4byte	0x952
 408 0004 0400     		.2byte	0x4
 409 0006 00000000 		.4byte	.Ldebug_abbrev0
 410 000a 04       		.byte	0x4
 411 000b 01       		.uleb128 0x1
 412 000c 5D020000 		.4byte	.LASF118
 413 0010 01       		.byte	0x1
ARM GAS  /tmp/ccOEYqcl.s 			page 22


 414 0011 84000000 		.4byte	.LASF119
 415 0015 1D000000 		.4byte	.LASF120
 416 0019 00000000 		.4byte	.Ldebug_ranges0+0
 417 001d 00000000 		.4byte	0
 418 0021 00000000 		.4byte	.Ldebug_line0
 419 0025 02       		.uleb128 0x2
 420 0026 04       		.byte	0x4
 421 0027 05       		.byte	0x5
 422 0028 696E7400 		.ascii	"int\000"
 423 002c 03       		.uleb128 0x3
 424 002d 04       		.byte	0x4
 425 002e 07       		.byte	0x7
 426 002f D1000000 		.4byte	.LASF0
 427 0033 03       		.uleb128 0x3
 428 0034 01       		.byte	0x1
 429 0035 06       		.byte	0x6
 430 0036 2E050000 		.4byte	.LASF1
 431 003a 04       		.uleb128 0x4
 432 003b 3D030000 		.4byte	.LASF4
 433 003f 02       		.byte	0x2
 434 0040 2A       		.byte	0x2a
 435 0041 45000000 		.4byte	0x45
 436 0045 03       		.uleb128 0x3
 437 0046 01       		.byte	0x1
 438 0047 08       		.byte	0x8
 439 0048 D9040000 		.4byte	.LASF2
 440 004c 03       		.uleb128 0x3
 441 004d 02       		.byte	0x2
 442 004e 05       		.byte	0x5
 443 004f 1D040000 		.4byte	.LASF3
 444 0053 04       		.uleb128 0x4
 445 0054 C6030000 		.4byte	.LASF5
 446 0058 02       		.byte	0x2
 447 0059 36       		.byte	0x36
 448 005a 5E000000 		.4byte	0x5e
 449 005e 03       		.uleb128 0x3
 450 005f 02       		.byte	0x2
 451 0060 07       		.byte	0x7
 452 0061 40050000 		.4byte	.LASF6
 453 0065 04       		.uleb128 0x4
 454 0066 C3040000 		.4byte	.LASF7
 455 006a 02       		.byte	0x2
 456 006b 4F       		.byte	0x4f
 457 006c 70000000 		.4byte	0x70
 458 0070 03       		.uleb128 0x3
 459 0071 04       		.byte	0x4
 460 0072 05       		.byte	0x5
 461 0073 27040000 		.4byte	.LASF8
 462 0077 04       		.uleb128 0x4
 463 0078 7A010000 		.4byte	.LASF9
 464 007c 02       		.byte	0x2
 465 007d 50       		.byte	0x50
 466 007e 82000000 		.4byte	0x82
 467 0082 03       		.uleb128 0x3
 468 0083 04       		.byte	0x4
 469 0084 07       		.byte	0x7
 470 0085 9E040000 		.4byte	.LASF10
ARM GAS  /tmp/ccOEYqcl.s 			page 23


 471 0089 03       		.uleb128 0x3
 472 008a 08       		.byte	0x8
 473 008b 05       		.byte	0x5
 474 008c 67030000 		.4byte	.LASF11
 475 0090 04       		.uleb128 0x4
 476 0091 5C040000 		.4byte	.LASF12
 477 0095 02       		.byte	0x2
 478 0096 78       		.byte	0x78
 479 0097 9B000000 		.4byte	0x9b
 480 009b 03       		.uleb128 0x3
 481 009c 08       		.byte	0x8
 482 009d 07       		.byte	0x7
 483 009e D0010000 		.4byte	.LASF13
 484 00a2 04       		.uleb128 0x4
 485 00a3 B3030000 		.4byte	.LASF14
 486 00a7 03       		.byte	0x3
 487 00a8 3C       		.byte	0x3c
 488 00a9 3A000000 		.4byte	0x3a
 489 00ad 04       		.uleb128 0x4
 490 00ae 2E030000 		.4byte	.LASF15
 491 00b2 03       		.byte	0x3
 492 00b3 3D       		.byte	0x3d
 493 00b4 3A000000 		.4byte	0x3a
 494 00b8 04       		.uleb128 0x4
 495 00b9 96040000 		.4byte	.LASF16
 496 00bd 03       		.byte	0x3
 497 00be 3E       		.byte	0x3e
 498 00bf 3A000000 		.4byte	0x3a
 499 00c3 04       		.uleb128 0x4
 500 00c4 AE010000 		.4byte	.LASF17
 501 00c8 03       		.byte	0x3
 502 00c9 40       		.byte	0x40
 503 00ca 77000000 		.4byte	0x77
 504 00ce 04       		.uleb128 0x4
 505 00cf 7B030000 		.4byte	.LASF18
 506 00d3 03       		.byte	0x3
 507 00d4 41       		.byte	0x41
 508 00d5 65000000 		.4byte	0x65
 509 00d9 04       		.uleb128 0x4
 510 00da 90010000 		.4byte	.LASF19
 511 00de 03       		.byte	0x3
 512 00df 43       		.byte	0x43
 513 00e0 77000000 		.4byte	0x77
 514 00e4 04       		.uleb128 0x4
 515 00e5 E7010000 		.4byte	.LASF20
 516 00e9 03       		.byte	0x3
 517 00ea 45       		.byte	0x45
 518 00eb 65000000 		.4byte	0x65
 519 00ef 04       		.uleb128 0x4
 520 00f0 B5000000 		.4byte	.LASF21
 521 00f4 04       		.byte	0x4
 522 00f5 35       		.byte	0x35
 523 00f6 53000000 		.4byte	0x53
 524 00fa 04       		.uleb128 0x4
 525 00fb 22020000 		.4byte	.LASF22
 526 00ff 04       		.byte	0x4
 527 0100 3F       		.byte	0x3f
ARM GAS  /tmp/ccOEYqcl.s 			page 24


 528 0101 05010000 		.4byte	0x105
 529 0105 05       		.uleb128 0x5
 530 0106 4E030000 		.4byte	.LASF40
 531 010a 44       		.byte	0x44
 532 010b 05       		.byte	0x5
 533 010c 9A       		.byte	0x9a
 534 010d E3010000 		.4byte	0x1e3
 535 0111 06       		.uleb128 0x6
 536 0112 BD040000 		.4byte	.LASF23
 537 0116 05       		.byte	0x5
 538 0117 9B       		.byte	0x9b
 539 0118 18020000 		.4byte	0x218
 540 011c 00       		.byte	0
 541 011d 06       		.uleb128 0x6
 542 011e 05030000 		.4byte	.LASF24
 543 0122 05       		.byte	0x5
 544 0123 9C       		.byte	0x9c
 545 0124 C3000000 		.4byte	0xc3
 546 0128 08       		.byte	0x8
 547 0129 07       		.uleb128 0x7
 548 012a 63747800 		.ascii	"ctx\000"
 549 012e 05       		.byte	0x5
 550 012f 9D       		.byte	0x9d
 551 0130 CF060000 		.4byte	0x6cf
 552 0134 0C       		.byte	0xc
 553 0135 06       		.uleb128 0x6
 554 0136 D3040000 		.4byte	.LASF25
 555 013a 05       		.byte	0x5
 556 013b 9F       		.byte	0x9f
 557 013c EE010000 		.4byte	0x1ee
 558 0140 10       		.byte	0x10
 559 0141 06       		.uleb128 0x6
 560 0142 70050000 		.4byte	.LASF26
 561 0146 05       		.byte	0x5
 562 0147 A0       		.byte	0xa0
 563 0148 EE010000 		.4byte	0x1ee
 564 014c 14       		.byte	0x14
 565 014d 06       		.uleb128 0x6
 566 014e 7E040000 		.4byte	.LASF27
 567 0152 05       		.byte	0x5
 568 0153 A7       		.byte	0xa7
 569 0154 34080000 		.4byte	0x834
 570 0158 18       		.byte	0x18
 571 0159 06       		.uleb128 0x6
 572 015a 22030000 		.4byte	.LASF28
 573 015e 05       		.byte	0x5
 574 015f B0       		.byte	0xb0
 575 0160 46080000 		.4byte	0x846
 576 0164 1C       		.byte	0x1c
 577 0165 06       		.uleb128 0x6
 578 0166 0A050000 		.4byte	.LASF29
 579 016a 05       		.byte	0x5
 580 016b B5       		.byte	0xb5
 581 016c AD000000 		.4byte	0xad
 582 0170 20       		.byte	0x20
 583 0171 06       		.uleb128 0x6
 584 0172 AF000000 		.4byte	.LASF30
ARM GAS  /tmp/ccOEYqcl.s 			page 25


 585 0176 05       		.byte	0x5
 586 0177 B9       		.byte	0xb9
 587 0178 A2000000 		.4byte	0xa2
 588 017c 21       		.byte	0x21
 589 017d 06       		.uleb128 0x6
 590 017e F7000000 		.4byte	.LASF31
 591 0182 05       		.byte	0x5
 592 0183 BE       		.byte	0xbe
 593 0184 B8000000 		.4byte	0xb8
 594 0188 22       		.byte	0x22
 595 0189 08       		.uleb128 0x8
 596 018a 7500     		.ascii	"u\000"
 597 018c 05       		.byte	0x5
 598 018d 0F01     		.2byte	0x10f
 599 018f 69070000 		.4byte	0x769
 600 0193 24       		.byte	0x24
 601 0194 09       		.uleb128 0x9
 602 0195 E7040000 		.4byte	.LASF32
 603 0199 05       		.byte	0x5
 604 019a 1401     		.2byte	0x114
 605 019c F4010000 		.4byte	0x1f4
 606 01a0 28       		.byte	0x28
 607 01a1 09       		.uleb128 0x9
 608 01a2 45030000 		.4byte	.LASF33
 609 01a6 05       		.byte	0x5
 610 01a7 1A01     		.2byte	0x11a
 611 01a9 18020000 		.4byte	0x218
 612 01ad 2C       		.byte	0x2c
 613 01ae 09       		.uleb128 0x9
 614 01af C8000000 		.4byte	.LASF34
 615 01b3 05       		.byte	0x5
 616 01b4 2001     		.2byte	0x120
 617 01b6 D9000000 		.4byte	0xd9
 618 01ba 34       		.byte	0x34
 619 01bb 09       		.uleb128 0x9
 620 01bc 03020000 		.4byte	.LASF35
 621 01c0 05       		.byte	0x5
 622 01c1 2701     		.2byte	0x127
 623 01c3 2E080000 		.4byte	0x82e
 624 01c7 38       		.byte	0x38
 625 01c8 09       		.uleb128 0x9
 626 01c9 BF000000 		.4byte	.LASF36
 627 01cd 05       		.byte	0x5
 628 01ce 2B01     		.2byte	0x12b
 629 01d0 C3000000 		.4byte	0xc3
 630 01d4 3C       		.byte	0x3c
 631 01d5 09       		.uleb128 0x9
 632 01d6 7F050000 		.4byte	.LASF37
 633 01da 05       		.byte	0x5
 634 01db 3201     		.2byte	0x132
 635 01dd CB020000 		.4byte	0x2cb
 636 01e1 40       		.byte	0x40
 637 01e2 00       		.byte	0
 638 01e3 04       		.uleb128 0x4
 639 01e4 0F030000 		.4byte	.LASF38
 640 01e8 04       		.byte	0x4
 641 01e9 44       		.byte	0x44
ARM GAS  /tmp/ccOEYqcl.s 			page 26


 642 01ea EE010000 		.4byte	0x1ee
 643 01ee 0A       		.uleb128 0xa
 644 01ef 04       		.byte	0x4
 645 01f0 FA000000 		.4byte	0xfa
 646 01f4 04       		.uleb128 0x4
 647 01f5 E3000000 		.4byte	.LASF39
 648 01f9 04       		.byte	0x4
 649 01fa 49       		.byte	0x49
 650 01fb FF010000 		.4byte	0x1ff
 651 01ff 05       		.uleb128 0x5
 652 0200 00000000 		.4byte	.LASF41
 653 0204 04       		.byte	0x4
 654 0205 05       		.byte	0x5
 655 0206 88       		.byte	0x88
 656 0207 18020000 		.4byte	0x218
 657 020b 06       		.uleb128 0x6
 658 020c DE000000 		.4byte	.LASF42
 659 0210 05       		.byte	0x5
 660 0211 89       		.byte	0x89
 661 0212 EE010000 		.4byte	0x1ee
 662 0216 00       		.byte	0
 663 0217 00       		.byte	0
 664 0218 04       		.uleb128 0x4
 665 0219 F3010000 		.4byte	.LASF43
 666 021d 04       		.byte	0x4
 667 021e 50       		.byte	0x50
 668 021f 23020000 		.4byte	0x223
 669 0223 05       		.uleb128 0x5
 670 0224 50010000 		.4byte	.LASF44
 671 0228 08       		.byte	0x8
 672 0229 05       		.byte	0x5
 673 022a 8F       		.byte	0x8f
 674 022b 48020000 		.4byte	0x248
 675 022f 06       		.uleb128 0x6
 676 0230 DE000000 		.4byte	.LASF42
 677 0234 05       		.byte	0x5
 678 0235 90       		.byte	0x90
 679 0236 EE010000 		.4byte	0x1ee
 680 023a 00       		.byte	0
 681 023b 06       		.uleb128 0x6
 682 023c 4B010000 		.4byte	.LASF45
 683 0240 05       		.byte	0x5
 684 0241 91       		.byte	0x91
 685 0242 EE010000 		.4byte	0x1ee
 686 0246 04       		.byte	0x4
 687 0247 00       		.byte	0
 688 0248 04       		.uleb128 0x4
 689 0249 B0040000 		.4byte	.LASF46
 690 024d 04       		.byte	0x4
 691 024e 57       		.byte	0x57
 692 024f 53020000 		.4byte	0x253
 693 0253 0B       		.uleb128 0xb
 694 0254 1F010000 		.4byte	.LASF47
 695 0258 1C       		.byte	0x1c
 696 0259 05       		.byte	0x5
 697 025a 6A01     		.2byte	0x16a
 698 025c AF020000 		.4byte	0x2af
ARM GAS  /tmp/ccOEYqcl.s 			page 27


 699 0260 09       		.uleb128 0x9
 700 0261 BD040000 		.4byte	.LASF23
 701 0265 05       		.byte	0x5
 702 0266 6B01     		.2byte	0x16b
 703 0268 18020000 		.4byte	0x218
 704 026c 00       		.byte	0
 705 026d 09       		.uleb128 0x9
 706 026e 05030000 		.4byte	.LASF24
 707 0272 05       		.byte	0x5
 708 0273 6C01     		.2byte	0x16c
 709 0275 C3000000 		.4byte	0xc3
 710 0279 08       		.byte	0x8
 711 027a 08       		.uleb128 0x8
 712 027b 63747800 		.ascii	"ctx\000"
 713 027f 05       		.byte	0x5
 714 0280 6E01     		.2byte	0x16e
 715 0282 CF060000 		.4byte	0x6cf
 716 0286 0C       		.byte	0xc
 717 0287 09       		.uleb128 0x9
 718 0288 D3040000 		.4byte	.LASF25
 719 028c 05       		.byte	0x5
 720 028d 7101     		.2byte	0x171
 721 028f EE010000 		.4byte	0x1ee
 722 0293 10       		.byte	0x10
 723 0294 09       		.uleb128 0x9
 724 0295 70050000 		.4byte	.LASF26
 725 0299 05       		.byte	0x5
 726 029a 7201     		.2byte	0x172
 727 029c EE010000 		.4byte	0x1ee
 728 02a0 14       		.byte	0x14
 729 02a1 09       		.uleb128 0x9
 730 02a2 5E050000 		.4byte	.LASF48
 731 02a6 05       		.byte	0x5
 732 02a7 7501     		.2byte	0x175
 733 02a9 EE010000 		.4byte	0x1ee
 734 02ad 18       		.byte	0x18
 735 02ae 00       		.byte	0
 736 02af 04       		.uleb128 0x4
 737 02b0 61010000 		.4byte	.LASF49
 738 02b4 04       		.byte	0x4
 739 02b5 5C       		.byte	0x5c
 740 02b6 BA020000 		.4byte	0x2ba
 741 02ba 0A       		.uleb128 0xa
 742 02bb 04       		.byte	0x4
 743 02bc C0020000 		.4byte	0x2c0
 744 02c0 0C       		.uleb128 0xc
 745 02c1 CB020000 		.4byte	0x2cb
 746 02c5 0D       		.uleb128 0xd
 747 02c6 CB020000 		.4byte	0x2cb
 748 02ca 00       		.byte	0
 749 02cb 0E       		.uleb128 0xe
 750 02cc 04       		.byte	0x4
 751 02cd 04       		.uleb128 0x4
 752 02ce 94030000 		.4byte	.LASF50
 753 02d2 04       		.byte	0x4
 754 02d3 61       		.byte	0x61
 755 02d4 D8020000 		.4byte	0x2d8
ARM GAS  /tmp/ccOEYqcl.s 			page 28


 756 02d8 0B       		.uleb128 0xb
 757 02d9 BF010000 		.4byte	.LASF51
 758 02dd 14       		.byte	0x14
 759 02de 05       		.byte	0x5
 760 02df 4501     		.2byte	0x145
 761 02e1 27030000 		.4byte	0x327
 762 02e5 09       		.uleb128 0x9
 763 02e6 DE000000 		.4byte	.LASF42
 764 02ea 05       		.byte	0x5
 765 02eb 4601     		.2byte	0x146
 766 02ed 4C080000 		.4byte	0x84c
 767 02f1 00       		.byte	0
 768 02f2 09       		.uleb128 0x9
 769 02f3 4B010000 		.4byte	.LASF45
 770 02f7 05       		.byte	0x5
 771 02f8 4701     		.2byte	0x147
 772 02fa 4C080000 		.4byte	0x84c
 773 02fe 04       		.byte	0x4
 774 02ff 09       		.uleb128 0x9
 775 0300 3A050000 		.4byte	.LASF52
 776 0304 05       		.byte	0x5
 777 0305 4801     		.2byte	0x148
 778 0307 EF000000 		.4byte	0xef
 779 030b 08       		.byte	0x8
 780 030c 09       		.uleb128 0x9
 781 030d 2D010000 		.4byte	.LASF53
 782 0311 05       		.byte	0x5
 783 0312 4901     		.2byte	0x149
 784 0314 AF020000 		.4byte	0x2af
 785 0318 0C       		.byte	0xc
 786 0319 08       		.uleb128 0x8
 787 031a 70617200 		.ascii	"par\000"
 788 031e 05       		.byte	0x5
 789 031f 4B01     		.2byte	0x14b
 790 0321 CB020000 		.4byte	0x2cb
 791 0325 10       		.byte	0x10
 792 0326 00       		.byte	0
 793 0327 04       		.uleb128 0x4
 794 0328 EF040000 		.4byte	.LASF54
 795 032c 04       		.byte	0x4
 796 032d 66       		.byte	0x66
 797 032e 32030000 		.4byte	0x332
 798 0332 0B       		.uleb128 0xb
 799 0333 0B020000 		.4byte	.LASF55
 800 0337 0C       		.byte	0xc
 801 0338 05       		.byte	0x5
 802 0339 5501     		.2byte	0x155
 803 033b 74030000 		.4byte	0x374
 804 033f 09       		.uleb128 0x9
 805 0340 DE000000 		.4byte	.LASF42
 806 0344 05       		.byte	0x5
 807 0345 5601     		.2byte	0x156
 808 0347 4C080000 		.4byte	0x84c
 809 034b 00       		.byte	0
 810 034c 09       		.uleb128 0x9
 811 034d 4B010000 		.4byte	.LASF45
 812 0351 05       		.byte	0x5
ARM GAS  /tmp/ccOEYqcl.s 			page 29


 813 0352 5801     		.2byte	0x158
 814 0354 4C080000 		.4byte	0x84c
 815 0358 04       		.byte	0x4
 816 0359 09       		.uleb128 0x9
 817 035a 3A050000 		.4byte	.LASF52
 818 035e 05       		.byte	0x5
 819 035f 5A01     		.2byte	0x15a
 820 0361 EF000000 		.4byte	0xef
 821 0365 08       		.byte	0x8
 822 0366 09       		.uleb128 0x9
 823 0367 53040000 		.4byte	.LASF56
 824 036b 05       		.byte	0x5
 825 036c 6201     		.2byte	0x162
 826 036e EF000000 		.4byte	0xef
 827 0372 0A       		.byte	0xa
 828 0373 00       		.byte	0
 829 0374 04       		.uleb128 0x4
 830 0375 58030000 		.4byte	.LASF57
 831 0379 04       		.byte	0x4
 832 037a 6B       		.byte	0x6b
 833 037b 7F030000 		.4byte	0x37f
 834 037f 0B       		.uleb128 0xb
 835 0380 6A010000 		.4byte	.LASF58
 836 0384 04       		.byte	0x4
 837 0385 05       		.byte	0x5
 838 0386 7C01     		.2byte	0x17c
 839 0388 9A030000 		.4byte	0x39a
 840 038c 09       		.uleb128 0x9
 841 038d A9030000 		.4byte	.LASF59
 842 0391 05       		.byte	0x5
 843 0392 8401     		.2byte	0x184
 844 0394 52080000 		.4byte	0x852
 845 0398 00       		.byte	0
 846 0399 00       		.byte	0
 847 039a 04       		.uleb128 0x4
 848 039b 15050000 		.4byte	.LASF60
 849 039f 04       		.byte	0x4
 850 03a0 70       		.byte	0x70
 851 03a1 A5030000 		.4byte	0x3a5
 852 03a5 0B       		.uleb128 0xb
 853 03a6 49040000 		.4byte	.LASF61
 854 03aa 70       		.byte	0x70
 855 03ab 05       		.byte	0x5
 856 03ac 9C01     		.2byte	0x19c
 857 03ae E7030000 		.4byte	0x3e7
 858 03b2 09       		.uleb128 0x9
 859 03b3 65040000 		.4byte	.LASF62
 860 03b7 05       		.byte	0x5
 861 03b8 A001     		.2byte	0x1a0
 862 03ba 48020000 		.4byte	0x248
 863 03be 00       		.byte	0
 864 03bf 09       		.uleb128 0x9
 865 03c0 0B010000 		.4byte	.LASF63
 866 03c4 05       		.byte	0x5
 867 03c5 A401     		.2byte	0x1a4
 868 03c7 27030000 		.4byte	0x327
 869 03cb 1C       		.byte	0x1c
ARM GAS  /tmp/ccOEYqcl.s 			page 30


 870 03cc 08       		.uleb128 0x8
 871 03cd 64626700 		.ascii	"dbg\000"
 872 03d1 05       		.byte	0x5
 873 03d2 A801     		.2byte	0x1a8
 874 03d4 74030000 		.4byte	0x374
 875 03d8 28       		.byte	0x28
 876 03d9 09       		.uleb128 0x9
 877 03da BB030000 		.4byte	.LASF64
 878 03de 05       		.byte	0x5
 879 03df AC01     		.2byte	0x1ac
 880 03e1 FA000000 		.4byte	0xfa
 881 03e5 2C       		.byte	0x2c
 882 03e6 00       		.byte	0
 883 03e7 0F       		.uleb128 0xf
 884 03e8 040E     		.2byte	0xe04
 885 03ea 06       		.byte	0x6
 886 03eb 7F01     		.2byte	0x17f
 887 03ed A3040000 		.4byte	0x4a3
 888 03f1 09       		.uleb128 0x9
 889 03f2 9C010000 		.4byte	.LASF65
 890 03f6 06       		.byte	0x6
 891 03f7 8101     		.2byte	0x181
 892 03f9 BA040000 		.4byte	0x4ba
 893 03fd 00       		.byte	0
 894 03fe 09       		.uleb128 0x9
 895 03ff EB030000 		.4byte	.LASF66
 896 0403 06       		.byte	0x6
 897 0404 8201     		.2byte	0x182
 898 0406 BF040000 		.4byte	0x4bf
 899 040a 20       		.byte	0x20
 900 040b 09       		.uleb128 0x9
 901 040c 05050000 		.4byte	.LASF67
 902 0410 06       		.byte	0x6
 903 0411 8301     		.2byte	0x183
 904 0413 CF040000 		.4byte	0x4cf
 905 0417 80       		.byte	0x80
 906 0418 09       		.uleb128 0x9
 907 0419 B6010000 		.4byte	.LASF68
 908 041d 06       		.byte	0x6
 909 041e 8401     		.2byte	0x184
 910 0420 BF040000 		.4byte	0x4bf
 911 0424 A0       		.byte	0xa0
 912 0425 10       		.uleb128 0x10
 913 0426 66050000 		.4byte	.LASF69
 914 042a 06       		.byte	0x6
 915 042b 8501     		.2byte	0x185
 916 042d D4040000 		.4byte	0x4d4
 917 0431 0001     		.2byte	0x100
 918 0433 10       		.uleb128 0x10
 919 0434 F5030000 		.4byte	.LASF70
 920 0438 06       		.byte	0x6
 921 0439 8601     		.2byte	0x186
 922 043b BF040000 		.4byte	0x4bf
 923 043f 2001     		.2byte	0x120
 924 0441 10       		.uleb128 0x10
 925 0442 A4030000 		.4byte	.LASF71
 926 0446 06       		.byte	0x6
ARM GAS  /tmp/ccOEYqcl.s 			page 31


 927 0447 8701     		.2byte	0x187
 928 0449 D9040000 		.4byte	0x4d9
 929 044d 8001     		.2byte	0x180
 930 044f 10       		.uleb128 0x10
 931 0450 FF030000 		.4byte	.LASF72
 932 0454 06       		.byte	0x6
 933 0455 8801     		.2byte	0x188
 934 0457 BF040000 		.4byte	0x4bf
 935 045b A001     		.2byte	0x1a0
 936 045d 10       		.uleb128 0x10
 937 045e 10050000 		.4byte	.LASF73
 938 0462 06       		.byte	0x6
 939 0463 8901     		.2byte	0x189
 940 0465 DE040000 		.4byte	0x4de
 941 0469 0002     		.2byte	0x200
 942 046b 10       		.uleb128 0x10
 943 046c 09040000 		.4byte	.LASF74
 944 0470 06       		.byte	0x6
 945 0471 8A01     		.2byte	0x18a
 946 0473 E3040000 		.4byte	0x4e3
 947 0477 2002     		.2byte	0x220
 948 0479 11       		.uleb128 0x11
 949 047a 495000   		.ascii	"IP\000"
 950 047d 06       		.byte	0x6
 951 047e 8B01     		.2byte	0x18b
 952 0480 03050000 		.4byte	0x503
 953 0484 0003     		.2byte	0x300
 954 0486 10       		.uleb128 0x10
 955 0487 13040000 		.4byte	.LASF75
 956 048b 06       		.byte	0x6
 957 048c 8C01     		.2byte	0x18c
 958 048e 08050000 		.4byte	0x508
 959 0492 F003     		.2byte	0x3f0
 960 0494 10       		.uleb128 0x10
 961 0495 CF030000 		.4byte	.LASF76
 962 0499 06       		.byte	0x6
 963 049a 8D01     		.2byte	0x18d
 964 049c 19050000 		.4byte	0x519
 965 04a0 000E     		.2byte	0xe00
 966 04a2 00       		.byte	0
 967 04a3 12       		.uleb128 0x12
 968 04a4 77000000 		.4byte	0x77
 969 04a8 B3040000 		.4byte	0x4b3
 970 04ac 13       		.uleb128 0x13
 971 04ad B3040000 		.4byte	0x4b3
 972 04b1 07       		.byte	0x7
 973 04b2 00       		.byte	0
 974 04b3 03       		.uleb128 0x3
 975 04b4 04       		.byte	0x4
 976 04b5 07       		.byte	0x7
 977 04b6 8D040000 		.4byte	.LASF77
 978 04ba 14       		.uleb128 0x14
 979 04bb A3040000 		.4byte	0x4a3
 980 04bf 12       		.uleb128 0x12
 981 04c0 77000000 		.4byte	0x77
 982 04c4 CF040000 		.4byte	0x4cf
 983 04c8 13       		.uleb128 0x13
ARM GAS  /tmp/ccOEYqcl.s 			page 32


 984 04c9 B3040000 		.4byte	0x4b3
 985 04cd 17       		.byte	0x17
 986 04ce 00       		.byte	0
 987 04cf 14       		.uleb128 0x14
 988 04d0 A3040000 		.4byte	0x4a3
 989 04d4 14       		.uleb128 0x14
 990 04d5 A3040000 		.4byte	0x4a3
 991 04d9 14       		.uleb128 0x14
 992 04da A3040000 		.4byte	0x4a3
 993 04de 14       		.uleb128 0x14
 994 04df A3040000 		.4byte	0x4a3
 995 04e3 12       		.uleb128 0x12
 996 04e4 77000000 		.4byte	0x77
 997 04e8 F3040000 		.4byte	0x4f3
 998 04ec 13       		.uleb128 0x13
 999 04ed B3040000 		.4byte	0x4b3
 1000 04f1 37       		.byte	0x37
 1001 04f2 00       		.byte	0
 1002 04f3 12       		.uleb128 0x12
 1003 04f4 3A000000 		.4byte	0x3a
 1004 04f8 03050000 		.4byte	0x503
 1005 04fc 13       		.uleb128 0x13
 1006 04fd B3040000 		.4byte	0x4b3
 1007 0501 EF       		.byte	0xef
 1008 0502 00       		.byte	0
 1009 0503 14       		.uleb128 0x14
 1010 0504 F3040000 		.4byte	0x4f3
 1011 0508 12       		.uleb128 0x12
 1012 0509 77000000 		.4byte	0x77
 1013 050d 19050000 		.4byte	0x519
 1014 0511 15       		.uleb128 0x15
 1015 0512 B3040000 		.4byte	0x4b3
 1016 0516 8302     		.2byte	0x283
 1017 0518 00       		.byte	0
 1018 0519 14       		.uleb128 0x14
 1019 051a 77000000 		.4byte	0x77
 1020 051e 16       		.uleb128 0x16
 1021 051f 6B040000 		.4byte	.LASF78
 1022 0523 06       		.byte	0x6
 1023 0524 8E01     		.2byte	0x18e
 1024 0526 E7030000 		.4byte	0x3e7
 1025 052a 17       		.uleb128 0x17
 1026 052b 8C       		.byte	0x8c
 1027 052c 06       		.byte	0x6
 1028 052d A101     		.2byte	0x1a1
 1029 052f 45060000 		.4byte	0x645
 1030 0533 09       		.uleb128 0x9
 1031 0534 32020000 		.4byte	.LASF79
 1032 0538 06       		.byte	0x6
 1033 0539 A301     		.2byte	0x1a3
 1034 053b 45060000 		.4byte	0x645
 1035 053f 00       		.byte	0
 1036 0540 09       		.uleb128 0x9
 1037 0541 29030000 		.4byte	.LASF80
 1038 0545 06       		.byte	0x6
 1039 0546 A401     		.2byte	0x1a4
 1040 0548 19050000 		.4byte	0x519
ARM GAS  /tmp/ccOEYqcl.s 			page 33


 1041 054c 04       		.byte	0x4
 1042 054d 09       		.uleb128 0x9
 1043 054e 88040000 		.4byte	.LASF81
 1044 0552 06       		.byte	0x6
 1045 0553 A501     		.2byte	0x1a5
 1046 0555 19050000 		.4byte	0x519
 1047 0559 08       		.byte	0x8
 1048 055a 09       		.uleb128 0x9
 1049 055b 37030000 		.4byte	.LASF82
 1050 055f 06       		.byte	0x6
 1051 0560 A601     		.2byte	0x1a6
 1052 0562 19050000 		.4byte	0x519
 1053 0566 0C       		.byte	0xc
 1054 0567 08       		.uleb128 0x8
 1055 0568 53435200 		.ascii	"SCR\000"
 1056 056c 06       		.byte	0x6
 1057 056d A701     		.2byte	0x1a7
 1058 056f 19050000 		.4byte	0x519
 1059 0573 10       		.byte	0x10
 1060 0574 08       		.uleb128 0x8
 1061 0575 43435200 		.ascii	"CCR\000"
 1062 0579 06       		.byte	0x6
 1063 057a A801     		.2byte	0x1a8
 1064 057c 19050000 		.4byte	0x519
 1065 0580 14       		.byte	0x14
 1066 0581 08       		.uleb128 0x8
 1067 0582 53485000 		.ascii	"SHP\000"
 1068 0586 06       		.byte	0x6
 1069 0587 A901     		.2byte	0x1a9
 1070 0589 5A060000 		.4byte	0x65a
 1071 058d 18       		.byte	0x18
 1072 058e 09       		.uleb128 0x9
 1073 058f 75030000 		.4byte	.LASF83
 1074 0593 06       		.byte	0x6
 1075 0594 AA01     		.2byte	0x1aa
 1076 0596 19050000 		.4byte	0x519
 1077 059a 24       		.byte	0x24
 1078 059b 09       		.uleb128 0x9
 1079 059c 81030000 		.4byte	.LASF84
 1080 05a0 06       		.byte	0x6
 1081 05a1 AB01     		.2byte	0x1ab
 1082 05a3 19050000 		.4byte	0x519
 1083 05a7 28       		.byte	0x28
 1084 05a8 09       		.uleb128 0x9
 1085 05a9 00030000 		.4byte	.LASF85
 1086 05ad 06       		.byte	0x6
 1087 05ae AC01     		.2byte	0x1ac
 1088 05b0 19050000 		.4byte	0x519
 1089 05b4 2C       		.byte	0x2c
 1090 05b5 09       		.uleb128 0x9
 1091 05b6 F2000000 		.4byte	.LASF86
 1092 05ba 06       		.byte	0x6
 1093 05bb AD01     		.2byte	0x1ad
 1094 05bd 19050000 		.4byte	0x519
 1095 05c1 30       		.byte	0x30
 1096 05c2 09       		.uleb128 0x9
 1097 05c3 E5030000 		.4byte	.LASF87
ARM GAS  /tmp/ccOEYqcl.s 			page 34


 1098 05c7 06       		.byte	0x6
 1099 05c8 AE01     		.2byte	0x1ae
 1100 05ca 19050000 		.4byte	0x519
 1101 05ce 34       		.byte	0x34
 1102 05cf 09       		.uleb128 0x9
 1103 05d0 83040000 		.4byte	.LASF88
 1104 05d4 06       		.byte	0x6
 1105 05d5 AF01     		.2byte	0x1af
 1106 05d7 19050000 		.4byte	0x519
 1107 05db 38       		.byte	0x38
 1108 05dc 09       		.uleb128 0x9
 1109 05dd 47020000 		.4byte	.LASF89
 1110 05e1 06       		.byte	0x6
 1111 05e2 B001     		.2byte	0x1b0
 1112 05e4 19050000 		.4byte	0x519
 1113 05e8 3C       		.byte	0x3c
 1114 05e9 08       		.uleb128 0x8
 1115 05ea 50465200 		.ascii	"PFR\000"
 1116 05ee 06       		.byte	0x6
 1117 05ef B101     		.2byte	0x1b1
 1118 05f1 6F060000 		.4byte	0x66f
 1119 05f5 40       		.byte	0x40
 1120 05f6 08       		.uleb128 0x8
 1121 05f7 44465200 		.ascii	"DFR\000"
 1122 05fb 06       		.byte	0x6
 1123 05fc B201     		.2byte	0x1b2
 1124 05fe 45060000 		.4byte	0x645
 1125 0602 48       		.byte	0x48
 1126 0603 08       		.uleb128 0x8
 1127 0604 41445200 		.ascii	"ADR\000"
 1128 0608 06       		.byte	0x6
 1129 0609 B301     		.2byte	0x1b3
 1130 060b 45060000 		.4byte	0x645
 1131 060f 4C       		.byte	0x4c
 1132 0610 09       		.uleb128 0x9
 1133 0611 8B010000 		.4byte	.LASF90
 1134 0615 06       		.byte	0x6
 1135 0616 B401     		.2byte	0x1b4
 1136 0618 89060000 		.4byte	0x689
 1137 061c 50       		.byte	0x50
 1138 061d 09       		.uleb128 0x9
 1139 061e 6B050000 		.4byte	.LASF91
 1140 0622 06       		.byte	0x6
 1141 0623 B501     		.2byte	0x1b5
 1142 0625 A3060000 		.4byte	0x6a3
 1143 0629 60       		.byte	0x60
 1144 062a 09       		.uleb128 0x9
 1145 062b EB030000 		.4byte	.LASF66
 1146 062f 06       		.byte	0x6
 1147 0630 B601     		.2byte	0x1b6
 1148 0632 93060000 		.4byte	0x693
 1149 0636 74       		.byte	0x74
 1150 0637 09       		.uleb128 0x9
 1151 0638 10000000 		.4byte	.LASF92
 1152 063c 06       		.byte	0x6
 1153 063d B701     		.2byte	0x1b7
 1154 063f 19050000 		.4byte	0x519
ARM GAS  /tmp/ccOEYqcl.s 			page 35


 1155 0643 88       		.byte	0x88
 1156 0644 00       		.byte	0
 1157 0645 18       		.uleb128 0x18
 1158 0646 19050000 		.4byte	0x519
 1159 064a 12       		.uleb128 0x12
 1160 064b 3A000000 		.4byte	0x3a
 1161 064f 5A060000 		.4byte	0x65a
 1162 0653 13       		.uleb128 0x13
 1163 0654 B3040000 		.4byte	0x4b3
 1164 0658 0B       		.byte	0xb
 1165 0659 00       		.byte	0
 1166 065a 14       		.uleb128 0x14
 1167 065b 4A060000 		.4byte	0x64a
 1168 065f 12       		.uleb128 0x12
 1169 0660 77000000 		.4byte	0x77
 1170 0664 6F060000 		.4byte	0x66f
 1171 0668 13       		.uleb128 0x13
 1172 0669 B3040000 		.4byte	0x4b3
 1173 066d 01       		.byte	0x1
 1174 066e 00       		.byte	0
 1175 066f 18       		.uleb128 0x18
 1176 0670 74060000 		.4byte	0x674
 1177 0674 14       		.uleb128 0x14
 1178 0675 5F060000 		.4byte	0x65f
 1179 0679 12       		.uleb128 0x12
 1180 067a 77000000 		.4byte	0x77
 1181 067e 89060000 		.4byte	0x689
 1182 0682 13       		.uleb128 0x13
 1183 0683 B3040000 		.4byte	0x4b3
 1184 0687 03       		.byte	0x3
 1185 0688 00       		.byte	0
 1186 0689 18       		.uleb128 0x18
 1187 068a 8E060000 		.4byte	0x68e
 1188 068e 14       		.uleb128 0x14
 1189 068f 79060000 		.4byte	0x679
 1190 0693 12       		.uleb128 0x12
 1191 0694 77000000 		.4byte	0x77
 1192 0698 A3060000 		.4byte	0x6a3
 1193 069c 13       		.uleb128 0x13
 1194 069d B3040000 		.4byte	0x4b3
 1195 06a1 04       		.byte	0x4
 1196 06a2 00       		.byte	0
 1197 06a3 18       		.uleb128 0x18
 1198 06a4 A8060000 		.4byte	0x6a8
 1199 06a8 14       		.uleb128 0x14
 1200 06a9 93060000 		.4byte	0x693
 1201 06ad 16       		.uleb128 0x16
 1202 06ae 75040000 		.4byte	.LASF93
 1203 06b2 06       		.byte	0x6
 1204 06b3 B801     		.2byte	0x1b8
 1205 06b5 2A050000 		.4byte	0x52a
 1206 06b9 04       		.uleb128 0x4
 1207 06ba 7B000000 		.4byte	.LASF94
 1208 06be 07       		.byte	0x7
 1209 06bf 65       		.byte	0x65
 1210 06c0 CB020000 		.4byte	0x2cb
 1211 06c4 04       		.uleb128 0x4
ARM GAS  /tmp/ccOEYqcl.s 			page 36


 1212 06c5 53050000 		.4byte	.LASF95
 1213 06c9 07       		.byte	0x7
 1214 06ca 6D       		.byte	0x6d
 1215 06cb 90000000 		.4byte	0x90
 1216 06cf 05       		.uleb128 0x5
 1217 06d0 12010000 		.4byte	.LASF96
 1218 06d4 04       		.byte	0x4
 1219 06d5 07       		.byte	0x7
 1220 06d6 89       		.byte	0x89
 1221 06d7 E7060000 		.4byte	0x6e7
 1222 06db 07       		.uleb128 0x7
 1223 06dc 737000   		.ascii	"sp\000"
 1224 06df 07       		.byte	0x7
 1225 06e0 8A       		.byte	0x8a
 1226 06e1 63070000 		.4byte	0x763
 1227 06e5 00       		.byte	0
 1228 06e6 00       		.byte	0
 1229 06e7 0B       		.uleb128 0xb
 1230 06e8 30040000 		.4byte	.LASF97
 1231 06ec 24       		.byte	0x24
 1232 06ed 08       		.byte	0x8
 1233 06ee 5901     		.2byte	0x159
 1234 06f0 63070000 		.4byte	0x763
 1235 06f4 08       		.uleb128 0x8
 1236 06f5 723400   		.ascii	"r4\000"
 1237 06f8 08       		.byte	0x8
 1238 06f9 6C01     		.2byte	0x16c
 1239 06fb B9060000 		.4byte	0x6b9
 1240 06ff 00       		.byte	0
 1241 0700 08       		.uleb128 0x8
 1242 0701 723500   		.ascii	"r5\000"
 1243 0704 08       		.byte	0x8
 1244 0705 6D01     		.2byte	0x16d
 1245 0707 B9060000 		.4byte	0x6b9
 1246 070b 04       		.byte	0x4
 1247 070c 08       		.uleb128 0x8
 1248 070d 723600   		.ascii	"r6\000"
 1249 0710 08       		.byte	0x8
 1250 0711 6E01     		.2byte	0x16e
 1251 0713 B9060000 		.4byte	0x6b9
 1252 0717 08       		.byte	0x8
 1253 0718 08       		.uleb128 0x8
 1254 0719 723700   		.ascii	"r7\000"
 1255 071c 08       		.byte	0x8
 1256 071d 6F01     		.2byte	0x16f
 1257 071f B9060000 		.4byte	0x6b9
 1258 0723 0C       		.byte	0xc
 1259 0724 08       		.uleb128 0x8
 1260 0725 723800   		.ascii	"r8\000"
 1261 0728 08       		.byte	0x8
 1262 0729 7001     		.2byte	0x170
 1263 072b B9060000 		.4byte	0x6b9
 1264 072f 10       		.byte	0x10
 1265 0730 08       		.uleb128 0x8
 1266 0731 723900   		.ascii	"r9\000"
 1267 0734 08       		.byte	0x8
 1268 0735 7101     		.2byte	0x171
ARM GAS  /tmp/ccOEYqcl.s 			page 37


 1269 0737 B9060000 		.4byte	0x6b9
 1270 073b 14       		.byte	0x14
 1271 073c 08       		.uleb128 0x8
 1272 073d 72313000 		.ascii	"r10\000"
 1273 0741 08       		.byte	0x8
 1274 0742 7201     		.2byte	0x172
 1275 0744 B9060000 		.4byte	0x6b9
 1276 0748 18       		.byte	0x18
 1277 0749 08       		.uleb128 0x8
 1278 074a 72313100 		.ascii	"r11\000"
 1279 074e 08       		.byte	0x8
 1280 074f 7301     		.2byte	0x173
 1281 0751 B9060000 		.4byte	0x6b9
 1282 0755 1C       		.byte	0x1c
 1283 0756 08       		.uleb128 0x8
 1284 0757 6C7200   		.ascii	"lr\000"
 1285 075a 08       		.byte	0x8
 1286 075b 7401     		.2byte	0x174
 1287 075d B9060000 		.4byte	0x6b9
 1288 0761 20       		.byte	0x20
 1289 0762 00       		.byte	0
 1290 0763 0A       		.uleb128 0xa
 1291 0764 04       		.byte	0x4
 1292 0765 E7060000 		.4byte	0x6e7
 1293 0769 19       		.uleb128 0x19
 1294 076a 04       		.byte	0x4
 1295 076b 05       		.byte	0x5
 1296 076c D2       		.byte	0xd2
 1297 076d CC070000 		.4byte	0x7cc
 1298 0771 1A       		.uleb128 0x1a
 1299 0772 2B020000 		.4byte	.LASF98
 1300 0776 05       		.byte	0x5
 1301 0777 D9       		.byte	0xd9
 1302 0778 CE000000 		.4byte	0xce
 1303 077c 1A       		.uleb128 0x1a
 1304 077d 76050000 		.4byte	.LASF99
 1305 0781 05       		.byte	0x5
 1306 0782 E0       		.byte	0xe0
 1307 0783 CE000000 		.4byte	0xce
 1308 0787 1A       		.uleb128 0x1a
 1309 0788 FC000000 		.4byte	.LASF100
 1310 078c 05       		.byte	0x5
 1311 078d E7       		.byte	0xe7
 1312 078e CB020000 		.4byte	0x2cb
 1313 0792 1A       		.uleb128 0x1a
 1314 0793 28050000 		.4byte	.LASF101
 1315 0797 05       		.byte	0x5
 1316 0798 EE       		.byte	0xee
 1317 0799 CC070000 		.4byte	0x7cc
 1318 079d 1A       		.uleb128 0x1a
 1319 079e 83010000 		.4byte	.LASF102
 1320 07a2 05       		.byte	0x5
 1321 07a3 F3       		.byte	0xf3
 1322 07a4 CE000000 		.4byte	0xce
 1323 07a8 1A       		.uleb128 0x1a
 1324 07a9 21050000 		.4byte	.LASF103
 1325 07ad 05       		.byte	0x5
ARM GAS  /tmp/ccOEYqcl.s 			page 38


 1326 07ae FC       		.byte	0xfc
 1327 07af F7070000 		.4byte	0x7f7
 1328 07b3 1B       		.uleb128 0x1b
 1329 07b4 16000000 		.4byte	.LASF104
 1330 07b8 05       		.byte	0x5
 1331 07b9 0501     		.2byte	0x105
 1332 07bb 2E080000 		.4byte	0x82e
 1333 07bf 1B       		.uleb128 0x1b
 1334 07c0 32010000 		.4byte	.LASF105
 1335 07c4 05       		.byte	0x5
 1336 07c5 0D01     		.2byte	0x10d
 1337 07c7 D9000000 		.4byte	0xd9
 1338 07cb 00       		.byte	0
 1339 07cc 0A       		.uleb128 0xa
 1340 07cd 04       		.byte	0x4
 1341 07ce E3010000 		.4byte	0x1e3
 1342 07d2 05       		.uleb128 0x5
 1343 07d3 A1010000 		.4byte	.LASF106
 1344 07d7 0C       		.byte	0xc
 1345 07d8 09       		.byte	0x9
 1346 07d9 34       		.byte	0x34
 1347 07da F7070000 		.4byte	0x7f7
 1348 07de 06       		.uleb128 0x6
 1349 07df BD040000 		.4byte	.LASF23
 1350 07e3 09       		.byte	0x9
 1351 07e4 35       		.byte	0x35
 1352 07e5 18020000 		.4byte	0x218
 1353 07e9 00       		.byte	0
 1354 07ea 07       		.uleb128 0x7
 1355 07eb 636E7400 		.ascii	"cnt\000"
 1356 07ef 09       		.byte	0x9
 1357 07f0 37       		.byte	0x37
 1358 07f1 E4000000 		.4byte	0xe4
 1359 07f5 08       		.byte	0x8
 1360 07f6 00       		.byte	0
 1361 07f7 0A       		.uleb128 0xa
 1362 07f8 04       		.byte	0x4
 1363 07f9 D2070000 		.4byte	0x7d2
 1364 07fd 05       		.uleb128 0x5
 1365 07fe 3E020000 		.4byte	.LASF107
 1366 0802 10       		.byte	0x10
 1367 0803 0A       		.byte	0xa
 1368 0804 39       		.byte	0x39
 1369 0805 2E080000 		.4byte	0x82e
 1370 0809 06       		.uleb128 0x6
 1371 080a BD040000 		.4byte	.LASF23
 1372 080e 0A       		.byte	0xa
 1373 080f 3A       		.byte	0x3a
 1374 0810 18020000 		.4byte	0x218
 1375 0814 00       		.byte	0
 1376 0815 06       		.uleb128 0x6
 1377 0816 ED010000 		.4byte	.LASF108
 1378 081a 0A       		.byte	0xa
 1379 081b 3C       		.byte	0x3c
 1380 081c EE010000 		.4byte	0x1ee
 1381 0820 08       		.byte	0x8
 1382 0821 06       		.uleb128 0x6
ARM GAS  /tmp/ccOEYqcl.s 			page 39


 1383 0822 DE000000 		.4byte	.LASF42
 1384 0826 0A       		.byte	0xa
 1385 0827 3E       		.byte	0x3e
 1386 0828 62080000 		.4byte	0x862
 1387 082c 0C       		.byte	0xc
 1388 082d 00       		.byte	0
 1389 082e 0A       		.uleb128 0xa
 1390 082f 04       		.byte	0x4
 1391 0830 FD070000 		.4byte	0x7fd
 1392 0834 0A       		.uleb128 0xa
 1393 0835 04       		.byte	0x4
 1394 0836 3A080000 		.4byte	0x83a
 1395 083a 18       		.uleb128 0x18
 1396 083b 3F080000 		.4byte	0x83f
 1397 083f 03       		.uleb128 0x3
 1398 0840 01       		.byte	0x1
 1399 0841 08       		.byte	0x8
 1400 0842 0A030000 		.4byte	.LASF109
 1401 0846 0A       		.uleb128 0xa
 1402 0847 04       		.byte	0x4
 1403 0848 C4060000 		.4byte	0x6c4
 1404 084c 0A       		.uleb128 0xa
 1405 084d 04       		.byte	0x4
 1406 084e CD020000 		.4byte	0x2cd
 1407 0852 14       		.uleb128 0x14
 1408 0853 34080000 		.4byte	0x834
 1409 0857 04       		.uleb128 0x4
 1410 0858 CB040000 		.4byte	.LASF110
 1411 085c 0A       		.byte	0xa
 1412 085d 34       		.byte	0x34
 1413 085e FD070000 		.4byte	0x7fd
 1414 0862 0A       		.uleb128 0xa
 1415 0863 04       		.byte	0x4
 1416 0864 57080000 		.4byte	0x857
 1417 0868 03       		.uleb128 0x3
 1418 0869 01       		.byte	0x1
 1419 086a 02       		.byte	0x2
 1420 086b 38020000 		.4byte	.LASF111
 1421 086f 1C       		.uleb128 0x1c
 1422 0870 D4030000 		.4byte	.LASF112
 1423 0874 01       		.byte	0x1
 1424 0875 39       		.byte	0x39
 1425 0876 00000000 		.4byte	.LFB219
 1426 087a 2E000000 		.4byte	.LFE219-.LFB219
 1427 087e 01       		.uleb128 0x1
 1428 087f 9C       		.byte	0x9c
 1429 0880 A1080000 		.4byte	0x8a1
 1430 0884 1D       		.uleb128 0x1d
 1431 0885 6E00     		.ascii	"n\000"
 1432 0887 01       		.byte	0x1
 1433 0888 39       		.byte	0x39
 1434 0889 77000000 		.4byte	0x77
 1435 088d 00000000 		.4byte	.LLST0
 1436 0891 1E       		.uleb128 0x1e
 1437 0892 05030000 		.4byte	.LASF24
 1438 0896 01       		.byte	0x1
 1439 0897 39       		.byte	0x39
ARM GAS  /tmp/ccOEYqcl.s 			page 40


 1440 0898 77000000 		.4byte	0x77
 1441 089c 35000000 		.4byte	.LLST1
 1442 08a0 00       		.byte	0
 1443 08a1 1C       		.uleb128 0x1c
 1444 08a2 39010000 		.4byte	.LASF113
 1445 08a6 01       		.byte	0x1
 1446 08a7 4A       		.byte	0x4a
 1447 08a8 00000000 		.4byte	.LFB220
 1448 08ac 28000000 		.4byte	.LFE220-.LFB220
 1449 08b0 01       		.uleb128 0x1
 1450 08b1 9C       		.byte	0x9c
 1451 08b2 C4080000 		.4byte	0x8c4
 1452 08b6 1D       		.uleb128 0x1d
 1453 08b7 6E00     		.ascii	"n\000"
 1454 08b9 01       		.byte	0x1
 1455 08ba 4A       		.byte	0x4a
 1456 08bb 77000000 		.4byte	0x77
 1457 08bf 56000000 		.4byte	.LLST2
 1458 08c3 00       		.byte	0
 1459 08c4 1C       		.uleb128 0x1c
 1460 08c5 85050000 		.4byte	.LASF114
 1461 08c9 01       		.byte	0x1
 1462 08ca 5A       		.byte	0x5a
 1463 08cb 00000000 		.4byte	.LFB221
 1464 08cf 10000000 		.4byte	.LFE221-.LFB221
 1465 08d3 01       		.uleb128 0x1
 1466 08d4 9C       		.byte	0x9c
 1467 08d5 01090000 		.4byte	0x901
 1468 08d9 1E       		.uleb128 0x1e
 1469 08da 03010000 		.4byte	.LASF115
 1470 08de 01       		.byte	0x1
 1471 08df 5A       		.byte	0x5a
 1472 08e0 77000000 		.4byte	0x77
 1473 08e4 77000000 		.4byte	.LLST3
 1474 08e8 1E       		.uleb128 0x1e
 1475 08e9 05030000 		.4byte	.LASF24
 1476 08ed 01       		.byte	0x1
 1477 08ee 5A       		.byte	0x5a
 1478 08ef 77000000 		.4byte	0x77
 1479 08f3 AC000000 		.4byte	.LLST4
 1480 08f7 1F       		.uleb128 0x1f
 1481 08f8 86030000 		.4byte	.LASF121
 1482 08fc 11090000 		.4byte	0x911
 1483 0900 00       		.byte	0
 1484 0901 12       		.uleb128 0x12
 1485 0902 3F080000 		.4byte	0x83f
 1486 0906 11090000 		.4byte	0x911
 1487 090a 13       		.uleb128 0x13
 1488 090b B3040000 		.4byte	0x4b3
 1489 090f 1C       		.byte	0x1c
 1490 0910 00       		.byte	0
 1491 0911 18       		.uleb128 0x18
 1492 0912 01090000 		.4byte	0x901
 1493 0916 1C       		.uleb128 0x1c
 1494 0917 4C020000 		.4byte	.LASF116
 1495 091b 01       		.byte	0x1
 1496 091c 6D       		.byte	0x6d
ARM GAS  /tmp/ccOEYqcl.s 			page 41


 1497 091d 00000000 		.4byte	.LFB222
 1498 0921 1A000000 		.4byte	.LFE222-.LFB222
 1499 0925 01       		.uleb128 0x1
 1500 0926 9C       		.byte	0x9c
 1501 0927 39090000 		.4byte	0x939
 1502 092b 1D       		.uleb128 0x1d
 1503 092c 6E00     		.ascii	"n\000"
 1504 092e 01       		.byte	0x1
 1505 092f 6D       		.byte	0x6d
 1506 0930 77000000 		.4byte	0x77
 1507 0934 CD000000 		.4byte	.LLST5
 1508 0938 00       		.byte	0
 1509 0939 20       		.uleb128 0x20
 1510 093a 3C040000 		.4byte	.LASF117
 1511 093e 06       		.byte	0x6
 1512 093f 9606     		.2byte	0x696
 1513 0941 45090000 		.4byte	0x945
 1514 0945 14       		.uleb128 0x14
 1515 0946 65000000 		.4byte	0x65
 1516 094a 21       		.uleb128 0x21
 1517 094b 636800   		.ascii	"ch\000"
 1518 094e 05       		.byte	0x5
 1519 094f D201     		.2byte	0x1d2
 1520 0951 9A030000 		.4byte	0x39a
 1521 0955 00       		.byte	0
 1522              		.section	.debug_abbrev,"",%progbits
 1523              	.Ldebug_abbrev0:
 1524 0000 01       		.uleb128 0x1
 1525 0001 11       		.uleb128 0x11
 1526 0002 01       		.byte	0x1
 1527 0003 25       		.uleb128 0x25
 1528 0004 0E       		.uleb128 0xe
 1529 0005 13       		.uleb128 0x13
 1530 0006 0B       		.uleb128 0xb
 1531 0007 03       		.uleb128 0x3
 1532 0008 0E       		.uleb128 0xe
 1533 0009 1B       		.uleb128 0x1b
 1534 000a 0E       		.uleb128 0xe
 1535 000b 55       		.uleb128 0x55
 1536 000c 17       		.uleb128 0x17
 1537 000d 11       		.uleb128 0x11
 1538 000e 01       		.uleb128 0x1
 1539 000f 10       		.uleb128 0x10
 1540 0010 17       		.uleb128 0x17
 1541 0011 00       		.byte	0
 1542 0012 00       		.byte	0
 1543 0013 02       		.uleb128 0x2
 1544 0014 24       		.uleb128 0x24
 1545 0015 00       		.byte	0
 1546 0016 0B       		.uleb128 0xb
 1547 0017 0B       		.uleb128 0xb
 1548 0018 3E       		.uleb128 0x3e
 1549 0019 0B       		.uleb128 0xb
 1550 001a 03       		.uleb128 0x3
 1551 001b 08       		.uleb128 0x8
 1552 001c 00       		.byte	0
 1553 001d 00       		.byte	0
ARM GAS  /tmp/ccOEYqcl.s 			page 42


 1554 001e 03       		.uleb128 0x3
 1555 001f 24       		.uleb128 0x24
 1556 0020 00       		.byte	0
 1557 0021 0B       		.uleb128 0xb
 1558 0022 0B       		.uleb128 0xb
 1559 0023 3E       		.uleb128 0x3e
 1560 0024 0B       		.uleb128 0xb
 1561 0025 03       		.uleb128 0x3
 1562 0026 0E       		.uleb128 0xe
 1563 0027 00       		.byte	0
 1564 0028 00       		.byte	0
 1565 0029 04       		.uleb128 0x4
 1566 002a 16       		.uleb128 0x16
 1567 002b 00       		.byte	0
 1568 002c 03       		.uleb128 0x3
 1569 002d 0E       		.uleb128 0xe
 1570 002e 3A       		.uleb128 0x3a
 1571 002f 0B       		.uleb128 0xb
 1572 0030 3B       		.uleb128 0x3b
 1573 0031 0B       		.uleb128 0xb
 1574 0032 49       		.uleb128 0x49
 1575 0033 13       		.uleb128 0x13
 1576 0034 00       		.byte	0
 1577 0035 00       		.byte	0
 1578 0036 05       		.uleb128 0x5
 1579 0037 13       		.uleb128 0x13
 1580 0038 01       		.byte	0x1
 1581 0039 03       		.uleb128 0x3
 1582 003a 0E       		.uleb128 0xe
 1583 003b 0B       		.uleb128 0xb
 1584 003c 0B       		.uleb128 0xb
 1585 003d 3A       		.uleb128 0x3a
 1586 003e 0B       		.uleb128 0xb
 1587 003f 3B       		.uleb128 0x3b
 1588 0040 0B       		.uleb128 0xb
 1589 0041 01       		.uleb128 0x1
 1590 0042 13       		.uleb128 0x13
 1591 0043 00       		.byte	0
 1592 0044 00       		.byte	0
 1593 0045 06       		.uleb128 0x6
 1594 0046 0D       		.uleb128 0xd
 1595 0047 00       		.byte	0
 1596 0048 03       		.uleb128 0x3
 1597 0049 0E       		.uleb128 0xe
 1598 004a 3A       		.uleb128 0x3a
 1599 004b 0B       		.uleb128 0xb
 1600 004c 3B       		.uleb128 0x3b
 1601 004d 0B       		.uleb128 0xb
 1602 004e 49       		.uleb128 0x49
 1603 004f 13       		.uleb128 0x13
 1604 0050 38       		.uleb128 0x38
 1605 0051 0B       		.uleb128 0xb
 1606 0052 00       		.byte	0
 1607 0053 00       		.byte	0
 1608 0054 07       		.uleb128 0x7
 1609 0055 0D       		.uleb128 0xd
 1610 0056 00       		.byte	0
ARM GAS  /tmp/ccOEYqcl.s 			page 43


 1611 0057 03       		.uleb128 0x3
 1612 0058 08       		.uleb128 0x8
 1613 0059 3A       		.uleb128 0x3a
 1614 005a 0B       		.uleb128 0xb
 1615 005b 3B       		.uleb128 0x3b
 1616 005c 0B       		.uleb128 0xb
 1617 005d 49       		.uleb128 0x49
 1618 005e 13       		.uleb128 0x13
 1619 005f 38       		.uleb128 0x38
 1620 0060 0B       		.uleb128 0xb
 1621 0061 00       		.byte	0
 1622 0062 00       		.byte	0
 1623 0063 08       		.uleb128 0x8
 1624 0064 0D       		.uleb128 0xd
 1625 0065 00       		.byte	0
 1626 0066 03       		.uleb128 0x3
 1627 0067 08       		.uleb128 0x8
 1628 0068 3A       		.uleb128 0x3a
 1629 0069 0B       		.uleb128 0xb
 1630 006a 3B       		.uleb128 0x3b
 1631 006b 05       		.uleb128 0x5
 1632 006c 49       		.uleb128 0x49
 1633 006d 13       		.uleb128 0x13
 1634 006e 38       		.uleb128 0x38
 1635 006f 0B       		.uleb128 0xb
 1636 0070 00       		.byte	0
 1637 0071 00       		.byte	0
 1638 0072 09       		.uleb128 0x9
 1639 0073 0D       		.uleb128 0xd
 1640 0074 00       		.byte	0
 1641 0075 03       		.uleb128 0x3
 1642 0076 0E       		.uleb128 0xe
 1643 0077 3A       		.uleb128 0x3a
 1644 0078 0B       		.uleb128 0xb
 1645 0079 3B       		.uleb128 0x3b
 1646 007a 05       		.uleb128 0x5
 1647 007b 49       		.uleb128 0x49
 1648 007c 13       		.uleb128 0x13
 1649 007d 38       		.uleb128 0x38
 1650 007e 0B       		.uleb128 0xb
 1651 007f 00       		.byte	0
 1652 0080 00       		.byte	0
 1653 0081 0A       		.uleb128 0xa
 1654 0082 0F       		.uleb128 0xf
 1655 0083 00       		.byte	0
 1656 0084 0B       		.uleb128 0xb
 1657 0085 0B       		.uleb128 0xb
 1658 0086 49       		.uleb128 0x49
 1659 0087 13       		.uleb128 0x13
 1660 0088 00       		.byte	0
 1661 0089 00       		.byte	0
 1662 008a 0B       		.uleb128 0xb
 1663 008b 13       		.uleb128 0x13
 1664 008c 01       		.byte	0x1
 1665 008d 03       		.uleb128 0x3
 1666 008e 0E       		.uleb128 0xe
 1667 008f 0B       		.uleb128 0xb
ARM GAS  /tmp/ccOEYqcl.s 			page 44


 1668 0090 0B       		.uleb128 0xb
 1669 0091 3A       		.uleb128 0x3a
 1670 0092 0B       		.uleb128 0xb
 1671 0093 3B       		.uleb128 0x3b
 1672 0094 05       		.uleb128 0x5
 1673 0095 01       		.uleb128 0x1
 1674 0096 13       		.uleb128 0x13
 1675 0097 00       		.byte	0
 1676 0098 00       		.byte	0
 1677 0099 0C       		.uleb128 0xc
 1678 009a 15       		.uleb128 0x15
 1679 009b 01       		.byte	0x1
 1680 009c 27       		.uleb128 0x27
 1681 009d 19       		.uleb128 0x19
 1682 009e 01       		.uleb128 0x1
 1683 009f 13       		.uleb128 0x13
 1684 00a0 00       		.byte	0
 1685 00a1 00       		.byte	0
 1686 00a2 0D       		.uleb128 0xd
 1687 00a3 05       		.uleb128 0x5
 1688 00a4 00       		.byte	0
 1689 00a5 49       		.uleb128 0x49
 1690 00a6 13       		.uleb128 0x13
 1691 00a7 00       		.byte	0
 1692 00a8 00       		.byte	0
 1693 00a9 0E       		.uleb128 0xe
 1694 00aa 0F       		.uleb128 0xf
 1695 00ab 00       		.byte	0
 1696 00ac 0B       		.uleb128 0xb
 1697 00ad 0B       		.uleb128 0xb
 1698 00ae 00       		.byte	0
 1699 00af 00       		.byte	0
 1700 00b0 0F       		.uleb128 0xf
 1701 00b1 13       		.uleb128 0x13
 1702 00b2 01       		.byte	0x1
 1703 00b3 0B       		.uleb128 0xb
 1704 00b4 05       		.uleb128 0x5
 1705 00b5 3A       		.uleb128 0x3a
 1706 00b6 0B       		.uleb128 0xb
 1707 00b7 3B       		.uleb128 0x3b
 1708 00b8 05       		.uleb128 0x5
 1709 00b9 01       		.uleb128 0x1
 1710 00ba 13       		.uleb128 0x13
 1711 00bb 00       		.byte	0
 1712 00bc 00       		.byte	0
 1713 00bd 10       		.uleb128 0x10
 1714 00be 0D       		.uleb128 0xd
 1715 00bf 00       		.byte	0
 1716 00c0 03       		.uleb128 0x3
 1717 00c1 0E       		.uleb128 0xe
 1718 00c2 3A       		.uleb128 0x3a
 1719 00c3 0B       		.uleb128 0xb
 1720 00c4 3B       		.uleb128 0x3b
 1721 00c5 05       		.uleb128 0x5
 1722 00c6 49       		.uleb128 0x49
 1723 00c7 13       		.uleb128 0x13
 1724 00c8 38       		.uleb128 0x38
ARM GAS  /tmp/ccOEYqcl.s 			page 45


 1725 00c9 05       		.uleb128 0x5
 1726 00ca 00       		.byte	0
 1727 00cb 00       		.byte	0
 1728 00cc 11       		.uleb128 0x11
 1729 00cd 0D       		.uleb128 0xd
 1730 00ce 00       		.byte	0
 1731 00cf 03       		.uleb128 0x3
 1732 00d0 08       		.uleb128 0x8
 1733 00d1 3A       		.uleb128 0x3a
 1734 00d2 0B       		.uleb128 0xb
 1735 00d3 3B       		.uleb128 0x3b
 1736 00d4 05       		.uleb128 0x5
 1737 00d5 49       		.uleb128 0x49
 1738 00d6 13       		.uleb128 0x13
 1739 00d7 38       		.uleb128 0x38
 1740 00d8 05       		.uleb128 0x5
 1741 00d9 00       		.byte	0
 1742 00da 00       		.byte	0
 1743 00db 12       		.uleb128 0x12
 1744 00dc 01       		.uleb128 0x1
 1745 00dd 01       		.byte	0x1
 1746 00de 49       		.uleb128 0x49
 1747 00df 13       		.uleb128 0x13
 1748 00e0 01       		.uleb128 0x1
 1749 00e1 13       		.uleb128 0x13
 1750 00e2 00       		.byte	0
 1751 00e3 00       		.byte	0
 1752 00e4 13       		.uleb128 0x13
 1753 00e5 21       		.uleb128 0x21
 1754 00e6 00       		.byte	0
 1755 00e7 49       		.uleb128 0x49
 1756 00e8 13       		.uleb128 0x13
 1757 00e9 2F       		.uleb128 0x2f
 1758 00ea 0B       		.uleb128 0xb
 1759 00eb 00       		.byte	0
 1760 00ec 00       		.byte	0
 1761 00ed 14       		.uleb128 0x14
 1762 00ee 35       		.uleb128 0x35
 1763 00ef 00       		.byte	0
 1764 00f0 49       		.uleb128 0x49
 1765 00f1 13       		.uleb128 0x13
 1766 00f2 00       		.byte	0
 1767 00f3 00       		.byte	0
 1768 00f4 15       		.uleb128 0x15
 1769 00f5 21       		.uleb128 0x21
 1770 00f6 00       		.byte	0
 1771 00f7 49       		.uleb128 0x49
 1772 00f8 13       		.uleb128 0x13
 1773 00f9 2F       		.uleb128 0x2f
 1774 00fa 05       		.uleb128 0x5
 1775 00fb 00       		.byte	0
 1776 00fc 00       		.byte	0
 1777 00fd 16       		.uleb128 0x16
 1778 00fe 16       		.uleb128 0x16
 1779 00ff 00       		.byte	0
 1780 0100 03       		.uleb128 0x3
 1781 0101 0E       		.uleb128 0xe
ARM GAS  /tmp/ccOEYqcl.s 			page 46


 1782 0102 3A       		.uleb128 0x3a
 1783 0103 0B       		.uleb128 0xb
 1784 0104 3B       		.uleb128 0x3b
 1785 0105 05       		.uleb128 0x5
 1786 0106 49       		.uleb128 0x49
 1787 0107 13       		.uleb128 0x13
 1788 0108 00       		.byte	0
 1789 0109 00       		.byte	0
 1790 010a 17       		.uleb128 0x17
 1791 010b 13       		.uleb128 0x13
 1792 010c 01       		.byte	0x1
 1793 010d 0B       		.uleb128 0xb
 1794 010e 0B       		.uleb128 0xb
 1795 010f 3A       		.uleb128 0x3a
 1796 0110 0B       		.uleb128 0xb
 1797 0111 3B       		.uleb128 0x3b
 1798 0112 05       		.uleb128 0x5
 1799 0113 01       		.uleb128 0x1
 1800 0114 13       		.uleb128 0x13
 1801 0115 00       		.byte	0
 1802 0116 00       		.byte	0
 1803 0117 18       		.uleb128 0x18
 1804 0118 26       		.uleb128 0x26
 1805 0119 00       		.byte	0
 1806 011a 49       		.uleb128 0x49
 1807 011b 13       		.uleb128 0x13
 1808 011c 00       		.byte	0
 1809 011d 00       		.byte	0
 1810 011e 19       		.uleb128 0x19
 1811 011f 17       		.uleb128 0x17
 1812 0120 01       		.byte	0x1
 1813 0121 0B       		.uleb128 0xb
 1814 0122 0B       		.uleb128 0xb
 1815 0123 3A       		.uleb128 0x3a
 1816 0124 0B       		.uleb128 0xb
 1817 0125 3B       		.uleb128 0x3b
 1818 0126 0B       		.uleb128 0xb
 1819 0127 01       		.uleb128 0x1
 1820 0128 13       		.uleb128 0x13
 1821 0129 00       		.byte	0
 1822 012a 00       		.byte	0
 1823 012b 1A       		.uleb128 0x1a
 1824 012c 0D       		.uleb128 0xd
 1825 012d 00       		.byte	0
 1826 012e 03       		.uleb128 0x3
 1827 012f 0E       		.uleb128 0xe
 1828 0130 3A       		.uleb128 0x3a
 1829 0131 0B       		.uleb128 0xb
 1830 0132 3B       		.uleb128 0x3b
 1831 0133 0B       		.uleb128 0xb
 1832 0134 49       		.uleb128 0x49
 1833 0135 13       		.uleb128 0x13
 1834 0136 00       		.byte	0
 1835 0137 00       		.byte	0
 1836 0138 1B       		.uleb128 0x1b
 1837 0139 0D       		.uleb128 0xd
 1838 013a 00       		.byte	0
ARM GAS  /tmp/ccOEYqcl.s 			page 47


 1839 013b 03       		.uleb128 0x3
 1840 013c 0E       		.uleb128 0xe
 1841 013d 3A       		.uleb128 0x3a
 1842 013e 0B       		.uleb128 0xb
 1843 013f 3B       		.uleb128 0x3b
 1844 0140 05       		.uleb128 0x5
 1845 0141 49       		.uleb128 0x49
 1846 0142 13       		.uleb128 0x13
 1847 0143 00       		.byte	0
 1848 0144 00       		.byte	0
 1849 0145 1C       		.uleb128 0x1c
 1850 0146 2E       		.uleb128 0x2e
 1851 0147 01       		.byte	0x1
 1852 0148 3F       		.uleb128 0x3f
 1853 0149 19       		.uleb128 0x19
 1854 014a 03       		.uleb128 0x3
 1855 014b 0E       		.uleb128 0xe
 1856 014c 3A       		.uleb128 0x3a
 1857 014d 0B       		.uleb128 0xb
 1858 014e 3B       		.uleb128 0x3b
 1859 014f 0B       		.uleb128 0xb
 1860 0150 27       		.uleb128 0x27
 1861 0151 19       		.uleb128 0x19
 1862 0152 11       		.uleb128 0x11
 1863 0153 01       		.uleb128 0x1
 1864 0154 12       		.uleb128 0x12
 1865 0155 06       		.uleb128 0x6
 1866 0156 40       		.uleb128 0x40
 1867 0157 18       		.uleb128 0x18
 1868 0158 9742     		.uleb128 0x2117
 1869 015a 19       		.uleb128 0x19
 1870 015b 01       		.uleb128 0x1
 1871 015c 13       		.uleb128 0x13
 1872 015d 00       		.byte	0
 1873 015e 00       		.byte	0
 1874 015f 1D       		.uleb128 0x1d
 1875 0160 05       		.uleb128 0x5
 1876 0161 00       		.byte	0
 1877 0162 03       		.uleb128 0x3
 1878 0163 08       		.uleb128 0x8
 1879 0164 3A       		.uleb128 0x3a
 1880 0165 0B       		.uleb128 0xb
 1881 0166 3B       		.uleb128 0x3b
 1882 0167 0B       		.uleb128 0xb
 1883 0168 49       		.uleb128 0x49
 1884 0169 13       		.uleb128 0x13
 1885 016a 02       		.uleb128 0x2
 1886 016b 17       		.uleb128 0x17
 1887 016c 00       		.byte	0
 1888 016d 00       		.byte	0
 1889 016e 1E       		.uleb128 0x1e
 1890 016f 05       		.uleb128 0x5
 1891 0170 00       		.byte	0
 1892 0171 03       		.uleb128 0x3
 1893 0172 0E       		.uleb128 0xe
 1894 0173 3A       		.uleb128 0x3a
 1895 0174 0B       		.uleb128 0xb
ARM GAS  /tmp/ccOEYqcl.s 			page 48


 1896 0175 3B       		.uleb128 0x3b
 1897 0176 0B       		.uleb128 0xb
 1898 0177 49       		.uleb128 0x49
 1899 0178 13       		.uleb128 0x13
 1900 0179 02       		.uleb128 0x2
 1901 017a 17       		.uleb128 0x17
 1902 017b 00       		.byte	0
 1903 017c 00       		.byte	0
 1904 017d 1F       		.uleb128 0x1f
 1905 017e 34       		.uleb128 0x34
 1906 017f 00       		.byte	0
 1907 0180 03       		.uleb128 0x3
 1908 0181 0E       		.uleb128 0xe
 1909 0182 49       		.uleb128 0x49
 1910 0183 13       		.uleb128 0x13
 1911 0184 34       		.uleb128 0x34
 1912 0185 19       		.uleb128 0x19
 1913 0186 00       		.byte	0
 1914 0187 00       		.byte	0
 1915 0188 20       		.uleb128 0x20
 1916 0189 34       		.uleb128 0x34
 1917 018a 00       		.byte	0
 1918 018b 03       		.uleb128 0x3
 1919 018c 0E       		.uleb128 0xe
 1920 018d 3A       		.uleb128 0x3a
 1921 018e 0B       		.uleb128 0xb
 1922 018f 3B       		.uleb128 0x3b
 1923 0190 05       		.uleb128 0x5
 1924 0191 49       		.uleb128 0x49
 1925 0192 13       		.uleb128 0x13
 1926 0193 3F       		.uleb128 0x3f
 1927 0194 19       		.uleb128 0x19
 1928 0195 3C       		.uleb128 0x3c
 1929 0196 19       		.uleb128 0x19
 1930 0197 00       		.byte	0
 1931 0198 00       		.byte	0
 1932 0199 21       		.uleb128 0x21
 1933 019a 34       		.uleb128 0x34
 1934 019b 00       		.byte	0
 1935 019c 03       		.uleb128 0x3
 1936 019d 08       		.uleb128 0x8
 1937 019e 3A       		.uleb128 0x3a
 1938 019f 0B       		.uleb128 0xb
 1939 01a0 3B       		.uleb128 0x3b
 1940 01a1 05       		.uleb128 0x5
 1941 01a2 49       		.uleb128 0x49
 1942 01a3 13       		.uleb128 0x13
 1943 01a4 3F       		.uleb128 0x3f
 1944 01a5 19       		.uleb128 0x19
 1945 01a6 3C       		.uleb128 0x3c
 1946 01a7 19       		.uleb128 0x19
 1947 01a8 00       		.byte	0
 1948 01a9 00       		.byte	0
 1949 01aa 00       		.byte	0
 1950              		.section	.debug_loc,"",%progbits
 1951              	.Ldebug_loc0:
 1952              	.LLST0:
ARM GAS  /tmp/ccOEYqcl.s 			page 49


 1953 0000 00000000 		.4byte	.LVL0
 1954 0004 14000000 		.4byte	.LVL2
 1955 0008 0100     		.2byte	0x1
 1956 000a 50       		.byte	0x50
 1957 000b 14000000 		.4byte	.LVL2
 1958 000f 22000000 		.4byte	.LVL3
 1959 0013 0700     		.2byte	0x7
 1960 0015 70       		.byte	0x70
 1961 0016 80808080 		.sleb128 536870912
 1961      02
 1962 001b 9F       		.byte	0x9f
 1963 001c 22000000 		.4byte	.LVL3
 1964 0020 2E000000 		.4byte	.LFE219
 1965 0024 0700     		.2byte	0x7
 1966 0026 70       		.byte	0x70
 1967 0027 80BEFCFF 		.sleb128 536813312
 1967      01
 1968 002c 9F       		.byte	0x9f
 1969 002d 00000000 		.4byte	0
 1970 0031 00000000 		.4byte	0
 1971              	.LLST1:
 1972 0035 00000000 		.4byte	.LVL0
 1973 0039 10000000 		.4byte	.LVL1
 1974 003d 0100     		.2byte	0x1
 1975 003f 51       		.byte	0x51
 1976 0040 10000000 		.4byte	.LVL1
 1977 0044 2E000000 		.4byte	.LFE219
 1978 0048 0400     		.2byte	0x4
 1979 004a F3       		.byte	0xf3
 1980 004b 01       		.uleb128 0x1
 1981 004c 51       		.byte	0x51
 1982 004d 9F       		.byte	0x9f
 1983 004e 00000000 		.4byte	0
 1984 0052 00000000 		.4byte	0
 1985              	.LLST2:
 1986 0056 00000000 		.4byte	.LVL4
 1987 005a 18000000 		.4byte	.LVL5
 1988 005e 0100     		.2byte	0x1
 1989 0060 50       		.byte	0x50
 1990 0061 18000000 		.4byte	.LVL5
 1991 0065 28000000 		.4byte	.LFE220
 1992 0069 0400     		.2byte	0x4
 1993 006b F3       		.byte	0xf3
 1994 006c 01       		.uleb128 0x1
 1995 006d 50       		.byte	0x50
 1996 006e 9F       		.byte	0x9f
 1997 006f 00000000 		.4byte	0
 1998 0073 00000000 		.4byte	0
 1999              	.LLST3:
 2000 0077 00000000 		.4byte	.LVL6
 2001 007b 06000000 		.4byte	.LVL8
 2002 007f 0100     		.2byte	0x1
 2003 0081 50       		.byte	0x50
 2004 0082 06000000 		.4byte	.LVL8
 2005 0086 0C000000 		.4byte	.LVL9
 2006 008a 0700     		.2byte	0x7
 2007 008c 70       		.byte	0x70
ARM GAS  /tmp/ccOEYqcl.s 			page 50


 2008 008d 80808080 		.sleb128 536870912
 2008      02
 2009 0092 9F       		.byte	0x9f
 2010 0093 0C000000 		.4byte	.LVL9
 2011 0097 10000000 		.4byte	.LFE221
 2012 009b 0700     		.2byte	0x7
 2013 009d 70       		.byte	0x70
 2014 009e 80A6FCFF 		.sleb128 536810240
 2014      01
 2015 00a3 9F       		.byte	0x9f
 2016 00a4 00000000 		.4byte	0
 2017 00a8 00000000 		.4byte	0
 2018              	.LLST4:
 2019 00ac 00000000 		.4byte	.LVL6
 2020 00b0 02000000 		.4byte	.LVL7
 2021 00b4 0100     		.2byte	0x1
 2022 00b6 51       		.byte	0x51
 2023 00b7 02000000 		.4byte	.LVL7
 2024 00bb 10000000 		.4byte	.LFE221
 2025 00bf 0400     		.2byte	0x4
 2026 00c1 F3       		.byte	0xf3
 2027 00c2 01       		.uleb128 0x1
 2028 00c3 51       		.byte	0x51
 2029 00c4 9F       		.byte	0x9f
 2030 00c5 00000000 		.4byte	0
 2031 00c9 00000000 		.4byte	0
 2032              	.LLST5:
 2033 00cd 00000000 		.4byte	.LVL10
 2034 00d1 0A000000 		.4byte	.LVL11
 2035 00d5 0100     		.2byte	0x1
 2036 00d7 50       		.byte	0x50
 2037 00d8 0A000000 		.4byte	.LVL11
 2038 00dc 1A000000 		.4byte	.LFE222
 2039 00e0 0400     		.2byte	0x4
 2040 00e2 F3       		.byte	0xf3
 2041 00e3 01       		.uleb128 0x1
 2042 00e4 50       		.byte	0x50
 2043 00e5 9F       		.byte	0x9f
 2044 00e6 00000000 		.4byte	0
 2045 00ea 00000000 		.4byte	0
 2046              		.section	.debug_aranges,"",%progbits
 2047 0000 34000000 		.4byte	0x34
 2048 0004 0200     		.2byte	0x2
 2049 0006 00000000 		.4byte	.Ldebug_info0
 2050 000a 04       		.byte	0x4
 2051 000b 00       		.byte	0
 2052 000c 0000     		.2byte	0
 2053 000e 0000     		.2byte	0
 2054 0010 00000000 		.4byte	.LFB219
 2055 0014 2E000000 		.4byte	.LFE219-.LFB219
 2056 0018 00000000 		.4byte	.LFB220
 2057 001c 28000000 		.4byte	.LFE220-.LFB220
 2058 0020 00000000 		.4byte	.LFB221
 2059 0024 10000000 		.4byte	.LFE221-.LFB221
 2060 0028 00000000 		.4byte	.LFB222
 2061 002c 1A000000 		.4byte	.LFE222-.LFB222
 2062 0030 00000000 		.4byte	0
ARM GAS  /tmp/ccOEYqcl.s 			page 51


 2063 0034 00000000 		.4byte	0
 2064              		.section	.debug_ranges,"",%progbits
 2065              	.Ldebug_ranges0:
 2066 0000 00000000 		.4byte	.LFB219
 2067 0004 2E000000 		.4byte	.LFE219
 2068 0008 00000000 		.4byte	.LFB220
 2069 000c 28000000 		.4byte	.LFE220
 2070 0010 00000000 		.4byte	.LFB221
 2071 0014 10000000 		.4byte	.LFE221
 2072 0018 00000000 		.4byte	.LFB222
 2073 001c 1A000000 		.4byte	.LFE222
 2074 0020 00000000 		.4byte	0
 2075 0024 00000000 		.4byte	0
 2076              		.section	.debug_line,"",%progbits
 2077              	.Ldebug_line0:
 2078 0000 E7010000 		.section	.debug_str,"MS",%progbits,1
 2078      02009501 
 2078      00000201 
 2078      FB0E0D00 
 2078      01010101 
 2079              	.LASF41:
 2080 0000 63685F74 		.ascii	"ch_threads_list\000"
 2080      68726561 
 2080      64735F6C 
 2080      69737400 
 2081              	.LASF92:
 2082 0010 43504143 		.ascii	"CPACR\000"
 2082      5200
 2083              	.LASF104:
 2084 0016 77746D74 		.ascii	"wtmtxp\000"
 2084      787000
 2085              	.LASF120:
 2086 001d 2F686F6D 		.ascii	"/home/otto/Escritorio/Semestre12/Embebidos/ChibiOS_"
 2086      652F6F74 
 2086      746F2F45 
 2086      73637269 
 2086      746F7269 
 2087 0050 31372E36 		.ascii	"17.6.2/demos/STM32/NIL-STM32F100-DISCOVERY\000"
 2087      2E322F64 
 2087      656D6F73 
 2087      2F53544D 
 2087      33322F4E 
 2088              	.LASF94:
 2089 007b 72656761 		.ascii	"regarm_t\000"
 2089      726D5F74 
 2089      00
 2090              	.LASF119:
 2091 0084 2E2E2F2E 		.ascii	"../../../os/hal/ports/common/ARMCMx/nvic.c\000"
 2091      2E2F2E2E 
 2091      2F6F732F 
 2091      68616C2F 
 2091      706F7274 
 2092              	.LASF30:
 2093 00af 666C6167 		.ascii	"flags\000"
 2093      7300
 2094              	.LASF21:
 2095 00b5 73797374 		.ascii	"systime_t\000"
ARM GAS  /tmp/ccOEYqcl.s 			page 52


 2095      696D655F 
 2095      7400
 2096              	.LASF36:
 2097 00bf 7265616C 		.ascii	"realprio\000"
 2097      7072696F 
 2097      00
 2098              	.LASF34:
 2099 00c8 6570656E 		.ascii	"epending\000"
 2099      64696E67 
 2099      00
 2100              	.LASF0:
 2101 00d1 756E7369 		.ascii	"unsigned int\000"
 2101      676E6564 
 2101      20696E74 
 2101      00
 2102              	.LASF42:
 2103 00de 6E657874 		.ascii	"next\000"
 2103      00
 2104              	.LASF39:
 2105 00e3 74687265 		.ascii	"threads_list_t\000"
 2105      6164735F 
 2105      6C697374 
 2105      5F7400
 2106              	.LASF86:
 2107 00f2 44465352 		.ascii	"DFSR\000"
 2107      00
 2108              	.LASF31:
 2109 00f7 72656673 		.ascii	"refs\000"
 2109      00
 2110              	.LASF100:
 2111 00fc 77746F62 		.ascii	"wtobjp\000"
 2111      6A7000
 2112              	.LASF115:
 2113 0103 68616E64 		.ascii	"handler\000"
 2113      6C657200 
 2114              	.LASF63:
 2115 010b 76746C69 		.ascii	"vtlist\000"
 2115      737400
 2116              	.LASF96:
 2117 0112 706F7274 		.ascii	"port_context\000"
 2117      5F636F6E 
 2117      74657874 
 2117      00
 2118              	.LASF47:
 2119 011f 63685F72 		.ascii	"ch_ready_list\000"
 2119      65616479 
 2119      5F6C6973 
 2119      7400
 2120              	.LASF53:
 2121 012d 66756E63 		.ascii	"func\000"
 2121      00
 2122              	.LASF105:
 2123 0132 65776D61 		.ascii	"ewmask\000"
 2123      736B00
 2124              	.LASF113:
 2125 0139 6E766963 		.ascii	"nvicDisableVector\000"
 2125      44697361 
ARM GAS  /tmp/ccOEYqcl.s 			page 53


 2125      626C6556 
 2125      6563746F 
 2125      7200
 2126              	.LASF45:
 2127 014b 70726576 		.ascii	"prev\000"
 2127      00
 2128              	.LASF44:
 2129 0150 63685F74 		.ascii	"ch_threads_queue\000"
 2129      68726561 
 2129      64735F71 
 2129      75657565 
 2129      00
 2130              	.LASF49:
 2131 0161 76746675 		.ascii	"vtfunc_t\000"
 2131      6E635F74 
 2131      00
 2132              	.LASF58:
 2133 016a 63685F73 		.ascii	"ch_system_debug\000"
 2133      79737465 
 2133      6D5F6465 
 2133      62756700 
 2134              	.LASF9:
 2135 017a 75696E74 		.ascii	"uint32_t\000"
 2135      33325F74 
 2135      00
 2136              	.LASF102:
 2137 0183 73656E74 		.ascii	"sentmsg\000"
 2137      6D736700 
 2138              	.LASF90:
 2139 018b 4D4D4652 		.ascii	"MMFR\000"
 2139      00
 2140              	.LASF19:
 2141 0190 6576656E 		.ascii	"eventmask_t\000"
 2141      746D6173 
 2141      6B5F7400 
 2142              	.LASF65:
 2143 019c 49534552 		.ascii	"ISER\000"
 2143      00
 2144              	.LASF106:
 2145 01a1 63685F73 		.ascii	"ch_semaphore\000"
 2145      656D6170 
 2145      686F7265 
 2145      00
 2146              	.LASF17:
 2147 01ae 74707269 		.ascii	"tprio_t\000"
 2147      6F5F7400 
 2148              	.LASF68:
 2149 01b6 52534552 		.ascii	"RSERVED1\000"
 2149      56454431 
 2149      00
 2150              	.LASF51:
 2151 01bf 63685F76 		.ascii	"ch_virtual_timer\000"
 2151      69727475 
 2151      616C5F74 
 2151      696D6572 
 2151      00
 2152              	.LASF13:
ARM GAS  /tmp/ccOEYqcl.s 			page 54


 2153 01d0 6C6F6E67 		.ascii	"long long unsigned int\000"
 2153      206C6F6E 
 2153      6720756E 
 2153      7369676E 
 2153      65642069 
 2154              	.LASF20:
 2155 01e7 636E745F 		.ascii	"cnt_t\000"
 2155      7400
 2156              	.LASF108:
 2157 01ed 6F776E65 		.ascii	"owner\000"
 2157      7200
 2158              	.LASF43:
 2159 01f3 74687265 		.ascii	"threads_queue_t\000"
 2159      6164735F 
 2159      71756575 
 2159      655F7400 
 2160              	.LASF35:
 2161 0203 6D74786C 		.ascii	"mtxlist\000"
 2161      69737400 
 2162              	.LASF55:
 2163 020b 63685F76 		.ascii	"ch_virtual_timers_list\000"
 2163      69727475 
 2163      616C5F74 
 2163      696D6572 
 2163      735F6C69 
 2164              	.LASF22:
 2165 0222 74687265 		.ascii	"thread_t\000"
 2165      61645F74 
 2165      00
 2166              	.LASF98:
 2167 022b 7264796D 		.ascii	"rdymsg\000"
 2167      736700
 2168              	.LASF79:
 2169 0232 43505549 		.ascii	"CPUID\000"
 2169      4400
 2170              	.LASF111:
 2171 0238 5F426F6F 		.ascii	"_Bool\000"
 2171      6C00
 2172              	.LASF107:
 2173 023e 63685F6D 		.ascii	"ch_mutex\000"
 2173      75746578 
 2173      00
 2174              	.LASF89:
 2175 0247 41465352 		.ascii	"AFSR\000"
 2175      00
 2176              	.LASF116:
 2177 024c 6E766963 		.ascii	"nvicClearPending\000"
 2177      436C6561 
 2177      7250656E 
 2177      64696E67 
 2177      00
 2178              	.LASF118:
 2179 025d 474E5520 		.ascii	"GNU C 4.8.1 -mcpu=cortex-m3 -mno-thumb-interwork -m"
 2179      4320342E 
 2179      382E3120 
 2179      2D6D6370 
 2179      753D636F 
ARM GAS  /tmp/ccOEYqcl.s 			page 55


 2180 0290 7468756D 		.ascii	"thumb -ggdb -O2 -fomit-frame-pointer -falign-functi"
 2180      62202D67 
 2180      67646220 
 2180      2D4F3220 
 2180      2D666F6D 
 2181 02c3 6F6E733D 		.ascii	"ons=16 -ffunction-sections -fdata-sections -fno-com"
 2181      3136202D 
 2181      6666756E 
 2181      6374696F 
 2181      6E2D7365 
 2182 02f6 6D6F6E20 		.ascii	"mon -flto\000"
 2182      2D666C74 
 2182      6F00
 2183              	.LASF85:
 2184 0300 48465352 		.ascii	"HFSR\000"
 2184      00
 2185              	.LASF24:
 2186 0305 7072696F 		.ascii	"prio\000"
 2186      00
 2187              	.LASF109:
 2188 030a 63686172 		.ascii	"char\000"
 2188      00
 2189              	.LASF38:
 2190 030f 74687265 		.ascii	"thread_reference_t\000"
 2190      61645F72 
 2190      65666572 
 2190      656E6365 
 2190      5F7400
 2191              	.LASF28:
 2192 0322 77616261 		.ascii	"wabase\000"
 2192      736500
 2193              	.LASF80:
 2194 0329 49435352 		.ascii	"ICSR\000"
 2194      00
 2195              	.LASF15:
 2196 032e 74737461 		.ascii	"tstate_t\000"
 2196      74655F74 
 2196      00
 2197              	.LASF82:
 2198 0337 41495243 		.ascii	"AIRCR\000"
 2198      5200
 2199              	.LASF4:
 2200 033d 75696E74 		.ascii	"uint8_t\000"
 2200      385F7400 
 2201              	.LASF33:
 2202 0345 6D736771 		.ascii	"msgqueue\000"
 2202      75657565 
 2202      00
 2203              	.LASF40:
 2204 034e 63685F74 		.ascii	"ch_thread\000"
 2204      68726561 
 2204      6400
 2205              	.LASF57:
 2206 0358 73797374 		.ascii	"system_debug_t\000"
 2206      656D5F64 
 2206      65627567 
 2206      5F7400
ARM GAS  /tmp/ccOEYqcl.s 			page 56


 2207              	.LASF11:
 2208 0367 6C6F6E67 		.ascii	"long long int\000"
 2208      206C6F6E 
 2208      6720696E 
 2208      7400
 2209              	.LASF83:
 2210 0375 53484353 		.ascii	"SHCSR\000"
 2210      5200
 2211              	.LASF18:
 2212 037b 6D73675F 		.ascii	"msg_t\000"
 2212      7400
 2213              	.LASF84:
 2214 0381 43465352 		.ascii	"CFSR\000"
 2214      00
 2215              	.LASF121:
 2216 0386 5F5F6675 		.ascii	"__func__.6569\000"
 2216      6E635F5F 
 2216      2E363536 
 2216      3900
 2217              	.LASF50:
 2218 0394 76697274 		.ascii	"virtual_timer_t\000"
 2218      75616C5F 
 2218      74696D65 
 2218      725F7400 
 2219              	.LASF71:
 2220 03a4 49435052 		.ascii	"ICPR\000"
 2220      00
 2221              	.LASF59:
 2222 03a9 70616E69 		.ascii	"panic_msg\000"
 2222      635F6D73 
 2222      6700
 2223              	.LASF14:
 2224 03b3 746D6F64 		.ascii	"tmode_t\000"
 2224      655F7400 
 2225              	.LASF64:
 2226 03bb 6D61696E 		.ascii	"mainthread\000"
 2226      74687265 
 2226      616400
 2227              	.LASF5:
 2228 03c6 75696E74 		.ascii	"uint16_t\000"
 2228      31365F74 
 2228      00
 2229              	.LASF76:
 2230 03cf 53544952 		.ascii	"STIR\000"
 2230      00
 2231              	.LASF112:
 2232 03d4 6E766963 		.ascii	"nvicEnableVector\000"
 2232      456E6162 
 2232      6C655665 
 2232      63746F72 
 2232      00
 2233              	.LASF87:
 2234 03e5 4D4D4641 		.ascii	"MMFAR\000"
 2234      5200
 2235              	.LASF66:
 2236 03eb 52455345 		.ascii	"RESERVED0\000"
 2236      52564544 
ARM GAS  /tmp/ccOEYqcl.s 			page 57


 2236      3000
 2237              	.LASF70:
 2238 03f5 52455345 		.ascii	"RESERVED2\000"
 2238      52564544 
 2238      3200
 2239              	.LASF72:
 2240 03ff 52455345 		.ascii	"RESERVED3\000"
 2240      52564544 
 2240      3300
 2241              	.LASF74:
 2242 0409 52455345 		.ascii	"RESERVED4\000"
 2242      52564544 
 2242      3400
 2243              	.LASF75:
 2244 0413 52455345 		.ascii	"RESERVED5\000"
 2244      52564544 
 2244      3500
 2245              	.LASF3:
 2246 041d 73686F72 		.ascii	"short int\000"
 2246      7420696E 
 2246      7400
 2247              	.LASF8:
 2248 0427 6C6F6E67 		.ascii	"long int\000"
 2248      20696E74 
 2248      00
 2249              	.LASF97:
 2250 0430 706F7274 		.ascii	"port_intctx\000"
 2250      5F696E74 
 2250      63747800 
 2251              	.LASF117:
 2252 043c 49544D5F 		.ascii	"ITM_RxBuffer\000"
 2252      52784275 
 2252      66666572 
 2252      00
 2253              	.LASF61:
 2254 0449 63685F73 		.ascii	"ch_system\000"
 2254      79737465 
 2254      6D00
 2255              	.LASF56:
 2256 0453 6C617374 		.ascii	"lasttime\000"
 2256      74696D65 
 2256      00
 2257              	.LASF12:
 2258 045c 75696E74 		.ascii	"uint64_t\000"
 2258      36345F74 
 2258      00
 2259              	.LASF62:
 2260 0465 726C6973 		.ascii	"rlist\000"
 2260      7400
 2261              	.LASF78:
 2262 046b 4E564943 		.ascii	"NVIC_Type\000"
 2262      5F547970 
 2262      6500
 2263              	.LASF93:
 2264 0475 5343425F 		.ascii	"SCB_Type\000"
 2264      54797065 
 2264      00
ARM GAS  /tmp/ccOEYqcl.s 			page 58


 2265              	.LASF27:
 2266 047e 6E616D65 		.ascii	"name\000"
 2266      00
 2267              	.LASF88:
 2268 0483 42464152 		.ascii	"BFAR\000"
 2268      00
 2269              	.LASF81:
 2270 0488 56544F52 		.ascii	"VTOR\000"
 2270      00
 2271              	.LASF77:
 2272 048d 73697A65 		.ascii	"sizetype\000"
 2272      74797065 
 2272      00
 2273              	.LASF16:
 2274 0496 74726566 		.ascii	"trefs_t\000"
 2274      735F7400 
 2275              	.LASF10:
 2276 049e 6C6F6E67 		.ascii	"long unsigned int\000"
 2276      20756E73 
 2276      69676E65 
 2276      6420696E 
 2276      7400
 2277              	.LASF46:
 2278 04b0 72656164 		.ascii	"ready_list_t\000"
 2278      795F6C69 
 2278      73745F74 
 2278      00
 2279              	.LASF23:
 2280 04bd 71756575 		.ascii	"queue\000"
 2280      6500
 2281              	.LASF7:
 2282 04c3 696E7433 		.ascii	"int32_t\000"
 2282      325F7400 
 2283              	.LASF110:
 2284 04cb 6D757465 		.ascii	"mutex_t\000"
 2284      785F7400 
 2285              	.LASF25:
 2286 04d3 6E657765 		.ascii	"newer\000"
 2286      7200
 2287              	.LASF2:
 2288 04d9 756E7369 		.ascii	"unsigned char\000"
 2288      676E6564 
 2288      20636861 
 2288      7200
 2289              	.LASF32:
 2290 04e7 77616974 		.ascii	"waiting\000"
 2290      696E6700 
 2291              	.LASF54:
 2292 04ef 76697274 		.ascii	"virtual_timers_list_t\000"
 2292      75616C5F 
 2292      74696D65 
 2292      72735F6C 
 2292      6973745F 
 2293              	.LASF67:
 2294 0505 49434552 		.ascii	"ICER\000"
 2294      00
 2295              	.LASF29:
ARM GAS  /tmp/ccOEYqcl.s 			page 59


 2296 050a 73746174 		.ascii	"state\000"
 2296      6500
 2297              	.LASF73:
 2298 0510 49414252 		.ascii	"IABR\000"
 2298      00
 2299              	.LASF60:
 2300 0515 63685F73 		.ascii	"ch_system_t\000"
 2300      79737465 
 2300      6D5F7400 
 2301              	.LASF103:
 2302 0521 77747365 		.ascii	"wtsemp\000"
 2302      6D7000
 2303              	.LASF101:
 2304 0528 77747472 		.ascii	"wttrp\000"
 2304      7000
 2305              	.LASF1:
 2306 052e 7369676E 		.ascii	"signed char\000"
 2306      65642063 
 2306      68617200 
 2307              	.LASF52:
 2308 053a 64656C74 		.ascii	"delta\000"
 2308      6100
 2309              	.LASF6:
 2310 0540 73686F72 		.ascii	"short unsigned int\000"
 2310      7420756E 
 2310      7369676E 
 2310      65642069 
 2310      6E7400
 2311              	.LASF95:
 2312 0553 73746B61 		.ascii	"stkalign_t\000"
 2312      6C69676E 
 2312      5F7400
 2313              	.LASF48:
 2314 055e 63757272 		.ascii	"current\000"
 2314      656E7400 
 2315              	.LASF69:
 2316 0566 49535052 		.ascii	"ISPR\000"
 2316      00
 2317              	.LASF91:
 2318 056b 49534152 		.ascii	"ISAR\000"
 2318      00
 2319              	.LASF26:
 2320 0570 6F6C6465 		.ascii	"older\000"
 2320      7200
 2321              	.LASF99:
 2322 0576 65786974 		.ascii	"exitcode\000"
 2322      636F6465 
 2322      00
 2323              	.LASF37:
 2324 057f 6D706F6F 		.ascii	"mpool\000"
 2324      6C00
 2325              	.LASF114:
 2326 0585 6E766963 		.ascii	"nvicSetSystemHandlerPriority\000"
 2326      53657453 
 2326      79737465 
 2326      6D48616E 
 2326      646C6572 
ARM GAS  /tmp/ccOEYqcl.s 			page 60


 2327              		.comm	__gnu_lto_v1,1,1
 2328              		.ident	"GCC: (Sourcery CodeBench Lite 2013.11-24) 4.8.1"
ARM GAS  /tmp/ccOEYqcl.s 			page 61


DEFINED SYMBOLS
                            *ABS*:00000000 nvic.c
     /tmp/ccOEYqcl.s:257    .text.nvicEnableVector:00000000 $t
     /tmp/ccOEYqcl.s:263    .text.nvicEnableVector:00000000 nvicEnableVector
     /tmp/ccOEYqcl.s:298    .text.nvicDisableVector:00000000 $t
     /tmp/ccOEYqcl.s:304    .text.nvicDisableVector:00000000 nvicDisableVector
     /tmp/ccOEYqcl.s:338    .text.nvicSetSystemHandlerPriority:00000000 $t
     /tmp/ccOEYqcl.s:344    .text.nvicSetSystemHandlerPriority:00000000 nvicSetSystemHandlerPriority
     /tmp/ccOEYqcl.s:366    .text.nvicClearPending:00000000 $t
     /tmp/ccOEYqcl.s:372    .text.nvicClearPending:00000000 nvicClearPending
                            *COM*:00000001 __gnu_lto_v1
                     .debug_frame:00000010 $d

NO UNDEFINED SYMBOLS
