ARM GAS  /tmp/ccOEYqcl.s 			page 1


   1              		.syntax unified
   2              		.cpu cortex-m3
   3              		.fpu softvfp
   4              		.eabi_attribute 20, 1
   5              		.eabi_attribute 21, 1
   6              		.eabi_attribute 23, 3
   7              		.eabi_attribute 24, 1
   8              		.eabi_attribute 25, 1
   9              		.eabi_attribute 26, 1
  10              		.eabi_attribute 30, 2
  11              		.eabi_attribute 34, 1
  12              		.eabi_attribute 18, 4
  13              		.thumb
  14              		.file	"nvic.c"
  15              		.text
  16              	.Ltext0:
  17              		.section	.gnu.lto_.jmpfuncs.4ef3f408ff97dc58,"",%progbits
  18 0000 789C6362 		.ascii	"x\234cb`b\300\006\270\2404\013\0033##\02333#\003\000"
  18      6062C006 
  18      B8A0340B 
  18      03332323 
  18      13333323 
  19 0016 01F00021 		.ascii	"\001\360\000!"
  20              		.text
  21              		.section	.gnu.lto_.inline.4ef3f408ff97dc58,"",%progbits
  22 0000 789C6D4C 		.ascii	"x\234mL\313\025\200 \014KK\205\352\305\021\330\300%"
  22      CB158020 
  22      0C4B4B85 
  22      EAC511D8 
  22      C025
  23 0012 5D84911C 		.ascii	"]\204\221\034\305\021LQy\036\354!}\371*\024\177\267"
  23      C5114C51 
  23      791EEC21 
  23      7DF92A14 
  23      7FB7
  24 0024 3FDF8065 		.ascii	"?\337\200e\026\025\011\022`\371\334\220[U\350\261\032"
  24      16150912 
  24      60F9DC90 
  24      5B55E8B1 
  24      1A
  25 0035 C89CAAD3 		.ascii	"\310\234\252\323\363\302TD\222\265zG\350Z\037QL&\322"
  25      F3C25444 
  25      92B57A47 
  25      E85A1F51 
  25      4C26D2
  26 0048 57127B9F 		.ascii	"W\022{\237\201PP\362[\035\346\250\342\002a/\015\002"
  26      815050F2 
  26      5B1DE6A8 
  26      E202612F 
  26      0D02
  27              		.text
  28              		.section	.gnu.lto_.pureconst.4ef3f408ff97dc58,"",%progbits
  29 0000 789C6362 		.ascii	"x\234cb`b\340d\200\000\026\006)F)&)f)\000\002\326\000"
  29      6062E064 
  29      80001606 
  29      29462926 
  29      29662900 
ARM GAS  /tmp/ccOEYqcl.s 			page 2


  30 0017 80       		.ascii	"\200"
  31              		.text
  32              		.section	.gnu.lto_nvicEnableVector.4ef3f408ff97dc58,"",%progbits
  33 0000 789C9D91 		.ascii	"x\234\235\221\277K\303@\024\307\337\273k\314\217\242"
  33      BF4BC340 
  33      14C7DFBB 
  33      6BCC8FA2 
  34 0010 AE3A5974 		.ascii	"\256:Yt\021\212\211N\016N\342\344\320\245T\320\261f"
  34      118A894E 
  34      0E4EE2E4 
  34      D0A554D0 
  34      B166
  35 0022 8801DB88 		.ascii	"\210\001\333\210\025q3m\272\351\320\301\305\352`\021"
  35      1571336D 
  35      BAE9D0C1 
  35      C5EA6011 
  36 0032 11C41F7F 		.ascii	"\021\304\037\177\200 \245\233C\0257')\256\202\210\223"
  36      8020A59B 
  36      43153727 
  36      29AE8288 
  36      93
  37 0043 A010DFE5 		.ascii	"\240\020\337\345l\245\"\016\036\311\335\273{\337\367"
  37      6CA5220E 
  37      1EC9DDBB 
  37      7BDFF7
  38 0052 BE9FE318 		.ascii	"\276\237\343\0300\3709\006\351O\323\361\004\255\310"
  38      30F83906 
  38      E94FD3F1 
  38      04ADC8
  39 0061 0159E506 		.ascii	"\001Y\345\006\240\2501D\021\000\302&\303\315\005\024"
  39      A0A83144 
  39      1100C226 
  39      C3CD0514 
  40 0071 521C869A 		.ascii	"R\034\206\232\357WZG\217olw\247^>\360?\302\020\321E"
  40      EF575A47 
  40      8F6F6C77 
  40      A75E3EF0 
  40      3FC210D1 
  41 0086 6A6B22D8 		.ascii	"jk\"\330\010\363\264\301D\264\260X\267\317\005\253\267"
  41      08F3B4C1 
  41      44B4B058 
  41      B7CF05AB 
  41      B7
  42 0097 C270FFB6 		.ascii	"\302p\377\266\3720\200\275\2109Q\344\"\347bRh\213*E"
  42      FA3080BD 
  42      883951E4 
  42      22E76252 
  42      688B2A45 
  43 00ab 310DB258 		.ascii	"1\015\262X#\037\2356`\320\244P\251\002e\262M\200p\240"
  43      231F9D36 
  43      60D0A450 
  43      A90265B2 
  43      4D8070A0 
  44 00bf 91A159B0 		.ascii	"\221\241Y\260\315!\023+oB\351)\010\3371\213\207$w\220"
  44      CD21132B 
  44      6F42E929 
  44      08DF318B 
ARM GAS  /tmp/ccOEYqcl.s 			page 3


  44      87247790 
  45 00d3 39488A26 		.ascii	"9H\212&\004g\274}\304\351T@\365\010\250&4feb\014N\375"
  45      0467BC7D 
  45      C4E95440 
  45      F508A826 
  45      34666562 
  46 00ea 72D19FA4 		.ascii	"r\321\237\244D\022ND\330\357\242\272\007U\222jB\257"
  46      44124E44 
  46      D8EFA2BA 
  46      0755926A 
  46      42AF
  47 00fc FB8DC0EF 		.ascii	"\373\215\300\357\213\356\243G\267XDy\033'\002\223\021"
  47      8BEEA347 
  47      B7584479 
  47      1B270293 
  47      11
  48 010d 8FCCCE83 		.ascii	"\217\314\316\203\343\355\321\266\237JyQ\004J\344Wz\016"
  48      E3EDD1B6 
  48      9F4A7951 
  48      044AE457 
  48      7A0E
  49 011f AE3A785A 		.ascii	"\256:xZTK\025\227\035<\335\221v0\004\022<x\355\310\015"
  49      544B1597 
  49      1D3CDD91 
  49      76300412 
  49      3C78EDC8 
  50 0134 915050A8 		.ascii	"\221PP\250\"\364\353\227x\027\374\224\213\3067|\374"
  50      22F4EB97 
  50      7817FC94 
  50      8BC6377C 
  50      FC
  51 0145 6F78FC42 		.ascii	"ox\374BV;\360\206lzOO\372\377\266\354\267\266wPlm\215"
  51      563BF086 
  51      6C7A4F4F 
  51      FAFFB6EC 
  51      B7B67750 
  52 015c C8A6ED91 		.ascii	"\310\246\355\221!\002z2\241O\232\246%?\257`-e\227\255"
  52      21027A32 
  52      A14F9AA6 
  52      253FAF60 
  52      2D6597AD 
  53 0170 156F75AD 		.ascii	"\025ou\255`\331^.\347\345\255\351tj&\265a\345\327]\333"
  53      60D95E2E 
  53      E7E5ADE9 
  53      746A26B5 
  53      61E5D75D 
  54 0185 B481E7CD 		.ascii	"\264\201\347\315\361O\265\353\222\340"
  54      F14FB5EB 
  54      92E0
  55              		.text
  56              		.section	.gnu.lto_nvicDisableVector.4ef3f408ff97dc58,"",%progbits
  57 0000 789C7D50 		.ascii	"x\234}P\277K\303P\020\276\357\245\321VAqt\262\350\""
  57      BF4BC350 
  57      10BEEFA5 
  57      D1564171 
  57      74B2E822 
  58 0014 14133A39 		.ascii	"\024\023:98\211s\027\251\240c\355P\003\266\021+\342"
ARM GAS  /tmp/ccOEYqcl.s 			page 4


  58      38897317 
  58      A9A063ED 
  58      5003B611 
  58      2BE2
  59 0026 D6D4D4CD 		.ascii	"\326\324\324\315\241\203\203?\026\213[\251?\300E\020"
  59      A183833F 
  59      168B5BA9 
  59      3FC04510 
  60 0036 A4141C1C 		.ascii	"\244\024\034\034*\370\037\024\027\301AD\227\016B\274"
  60      2AF81F14 
  60      17C14144 
  60      970E42BC 
  61 0046 4B1AA50E 		.ascii	"K\032\245\016\036\311\273{\367}\367\335\335S\244\350"
  61      1EC9BB7B 
  61      F77DF7DD 
  61      DD53A4E8 
  62 0056 AF8DF37F 		.ascii	"\257\215\363\177\017\242${h\004U}$*G\025 \001\201J\012"
  62      0FA2247B 
  62      6804557D 
  62      242A4715 
  62      2001814A 
  63 006b A5150815 		.ascii	"\245\025\010\025\223Ts\234jg\357\245\253\216\016\232"
  63      9354739C 
  63      6A67EFA5 
  63      AB8E0E9A 
  64 007b 9553E7CB 		.ascii	"\225S\347\313\363\000\013,k\200\262\240e\276 \356;\025"
  64      F3000B2C 
  64      6B80B2A0 
  64      65BE20EE 
  64      3B15
  65 008d E9EF73A9 		.ascii	"\351\357s\251\232\035\317k\\_=\3271\026\003\362ReA\323"
  65      9A1DCF6B 
  65      5C5F3DD7 
  65      311603F2 
  65      526541D3 
  66 00a1 28831A2B 		.ascii	"(\203\032+G\370B:\037R\247S\205\033\305I4\331\322|\312"
  66      47F8423A 
  66      1F52A753 
  66      851BC549 
  66      34D9D27C 
  67 00b6 344B50E2 		.ascii	"4KP\342\2656\271\027\356\347\376t\006g\320)\007\225"
  67      B536B917 
  67      EEE7FE74 
  67      0667D029 
  67      0795
  68 00c8 03A427D7 		.ascii	"\003\244'\327\021\265i\367\315\275C\210i\214I\322\275"
  68      11B569F7 
  68      CDBD4388 
  68      698C49D2 
  68      BD
  69 00d9 D5C25484 		.ascii	"\325\302T\204\263>}\302\247\273\347\356\307\017]\027"
  69      B33E7DC2 
  69      A7BBE7EE 
  69      C70F5D17 
  70 00e9 20026109 		.ascii	" \002a\011\326zx\037\016\240\031j8\225\2623gAOP]\302"
  70      D67A781F 
  70      0EA0196A 
ARM GAS  /tmp/ccOEYqcl.s 			page 5


  70      3895B233 
  70      67414F50 
  71 00ff 510B0327 		.ascii	"Q\013\003't\314\374A)\212:-\327\031\361w\217\372\033"
  71      74CCFC41 
  71      298A3A2D 
  71      D719F177 
  71      8FFA1B
  72 0112 AF22D89C 		.ascii	"\257\"\330\234\347\2430\322}\321\233\303\327.\372dg"
  72      E7A330D2 
  72      7DD19BC3 
  72      D72EFA64 
  72      67
  73 0123 2DC47E65 		.ascii	"-\304~e\207\376\227EO\254\247\357c1\011\236\250\334"
  73      87FE9745 
  73      4FACA7EF 
  73      6331099E 
  73      A8DC
  74 0135 A94F05C2 		.ascii	"\251O\005\302\241\245\231\306o&#$\014\303\014>\273h"
  74      A1A599C6 
  74      6F262324 
  74      0CC30C3E 
  74      BB68
  75 0147 AE65D6CD 		.ascii	"\256e\326\315\015{s\253hf\355|\336.\230\363\213\251"
  75      0D7B73AB 
  75      6866ED7C 
  75      DE2E98F3 
  75      8BA9
  76 0159 85D48E59 		.ascii	"\205\324\216Y\330\266\262F\226\264\202\221\374\006\256"
  76      D8B6B246 
  76      96B48291 
  76      FC06AE
  77 0168 7676D4   		.ascii	"vv\324"
  78              		.text
  79              		.section	.gnu.lto_nvicSetSystemHandlerPriority.4ef3f408ff97dc58,"",%progbits
  80 0000 789C6362 		.ascii	"x\234cb`b@\007\222@\374\001\210u\201\230\221\231\201"
  80      60624007 
  80      9240FC01 
  80      88758198 
  80      919981
  81 0013 9169C239 		.ascii	"\221i\3029\006\206F\016&FF\020\203\201\221\241\236\211"
  81      0686460E 
  81      26464610 
  81      838191A1 
  81      9E89
  82 0025 B13E9211 		.ascii	"\261>\222\021\254v=\323\201\007\377\377\257\373\322"
  82      AC763DD3 
  82      8107FFFF 
  82      AFFBD2
  83 0034 76EC20E3 		.ascii	"v\354 \3439evF\306\\F\240\211\231\214\014\314 \202\025"
  83      39657646 
  83      C65C46A0 
  83      89998C0C 
  83      CC208215 
  84 0048 C805A963 		.ascii	"\310\005\251cehih\230\240\220\313\010\264,\031\2541"
  84      65686968 
  84      98A090CB 
  84      08B42C19 
ARM GAS  /tmp/ccOEYqcl.s 			page 6


  84      AC31
  85 005a 0448824C 		.ascii	"\004H\202L\013\005\012\001i\346\263\014M\257\2337\367"
  85      0B050A01 
  85      69E6B30C 
  85      4DAF9B37 
  85      F7
  86 006b E926322E 		.ascii	"\351&2.ddeHgdJ\007i<\313\320\274\226\031&\304\014\024"
  86      64646548 
  86      67644A07 
  86      693CCBD0 
  86      BC961926 
  87 0082 8D60CC64 		.ascii	"\215`\314ddda\000\311\034\362\204H\3502\254ihil0\007"
  87      64646100 
  87      C91CF284 
  87      48E832AC 
  87      6968696C 
  88 0098 4A6833AC 		.ascii	"Jh3\254\0021y3\031\231f3\314\002*e\006\251gi\270\325"
  88      02317933 
  88      19996633 
  88      CC022A65 
  88      06A96769 
  89 00ae DCC0C700 		.ascii	"\334\300\307\000f\202\335\234\004q:\320HV\006\030\213"
  89      6682DD9C 
  89      04713AD0 
  89      48560618 
  89      8B
  90 00bf 9981E122 		.ascii	"\231\201\341\"C\343\203s\312\020Ca \004\350\012\240"
  90      43E38373 
  90      CA104361 
  90      2004E80A 
  90      A0
  91 00d0 F34061A4 		.ascii	"\363@a\244\255\247\247\017A\371\305\372\031\2119\372"
  91      ADA7A70F 
  91      41F9C5FA 
  91      198939FA 
  92 00e0 05F94525 		.ascii	"\005\371E%\305\372\311\371\271\271\371y\372\216A\276"
  92      C5FAC9F9 
  92      B9B9F979 
  92      FA8E41BE 
  93 00f0 CEBE15FA 		.ascii	"\316\276\025\372ye\231\311z\311\014\000\317\274E\347"
  93      796599C9 
  93      7AC90C00 
  93      CFBC45E7 
  94              		.text
  95              		.section	.gnu.lto_nvicClearPending.4ef3f408ff97dc58,"",%progbits
  96 0000 789C5D50 		.ascii	"x\234]P1H\303P\020\275\367\177\322\352\2428:Yt\021\212"
  96      3148C350 
  96      10BDF77F 
  96      D2EAA238 
  96      3A597411 
  97 0015 09BA3A89 		.ascii	"\011\272:\211\223C\027\251\240c\315P\003\266\021+\342"
  97      934317A9 
  97      A063CD50 
  97      03B6112B 
  97      E2
  98 0026 D65FD359 		.ascii	"\326_\323Y:\270\250\213\305M\252\356v)\335+\272;\024"
  98      3AB8A88B 
ARM GAS  /tmp/ccOEYqcl.s 			page 7


  98      C54DAAEE 
  98      7629DD2B 
  98      BA3B14
  99 0039 41280EAE 		.ascii	"A(\016\256.B\274KLA\217\237\177\367\337\275{w9E\212"
  99      2E42BC4B 
  99      4C418F9F 
  99      7FF7DFBD 
  99      7B773945 
 100 004e FEDB2C7F 		.ascii	"\376\333,\177\006D\313\354\241\011\252\365D\324\230"
 100      0644CBEC 
 100      A109AAF5 
 100      44D498
 101 005d 50800404 		.ascii	"P\200\004\004\252+\324w T\314S\333\230\326\360\375\353"
 101      AA2BD477 
 101      2054CC53 
 101      DB98D6F0 
 101      FDEB
 102 006f 595F9CF7 		.ascii	"Y_\234\367\232\327\346;\212\000\037,\353\200<\3206?"
 102      9AD7E63B 
 102      8A001F2C 
 102      EB803CD0 
 102      363F
 103 0081 908B9DB2 		.ascii	"\220\213\235\262\376\366yP\275a\024\275v;o#\314L\002"
 103      FEF67950 
 103      BD6114BD 
 103      763B6F23 
 103      CC4C02
 104 0094 15A9F2A1 		.ascii	"\025\251\362\2415\225\320fe\213\037d\313\225\021\230"
 104      3595D066 
 104      658B1F64 
 104      CB951198 
 105 00a4 2B6C6A72 		.ascii	"+ljr\267\034\2110[\221o\031i\013J\274\036Px\037Fg\213"
 105      B71C8930 
 105      5B916F19 
 105      690B4ABC 
 105      1E50781F 
 106 00bb 25DCC0A6 		.ascii	"%\334\300\2462T\031\220\306\\G4\240\323\317\360\003"
 106      32541990 
 106      C65C4734 
 106      A0D3CFF0 
 106      03
 107 00cc 694E734E 		.ascii	"iNsN\300\260\253S\310b4\246\317\305\364\360n\234\261"
 107      C0B0AB53 
 107      C86234A6 
 107      CFC5F4F0 
 107      6E9CB1
 108 00df 6318C2F9 		.ascii	"c\030\302\371\025z\034\013e8-`\177#A\226\250c\232\015"
 108      157A1C0B 
 108      65382D60 
 108      7F234196 
 108      A8639A0D 
 109 00f3 B3EAC3CA 		.ascii	"\263\352\303\312\323\255\204\323>\354+\272d\211\214"
 109      D3AD84D3 
 109      3EEC2BBA 
 109      64898C
 110 0102 E8644D3F 		.ascii	"\350dM?4S\361F\262\361\036v\221\354\203\007\2464\312"
 110      3453F146 
ARM GAS  /tmp/ccOEYqcl.s 			page 8


 110      B2F11E76 
 110      91EC8307 
 110      A634CA
 111 0115 10BD5063 		.ascii	"\020\275Pc8ZHDS+\362\320\374\247\302\313;\216\233\234"
 111      385A4844 
 111      532BF2D0 
 111      FCA7C2CB 
 111      3B8E9B9C 
 112 0129 A0E6EE95 		.ascii	"\240\346\356\225\366\335\203\340\360\250\346zA\245\022"
 112      F6DD83E0 
 112      F0A8E67A 
 112      41A512
 113 0138 54DDB5CD 		.ascii	"T\335\265\315\302z\341\304\255\036\373\236\343\221\256"
 113      C27AE1C4 
 113      AD1EFB9E 
 113      E391AE
 114 0147 3A2B3F72 		.ascii	":+?r\207f\302"
 114      8766C2
 115              		.text
 116              		.section	.gnu.lto_.symbol_nodes.4ef3f408ff97dc58,"",%progbits
 117 0000 789C6362 		.ascii	"x\234cb`b\260c\200\002\246\333\214\365\014\014\023\316"
 117      6062B063 
 117      8002A6DB 
 117      8CF50C0C 
 117      13CE
 118 0012 3130D4D7 		.ascii	"10\324\327\317\353`d\272\303X\317\210\304\275\313X\317"
 118      CFEB6064 
 118      BAC358CF 
 118      88C4BDCB 
 118      58CF
 119 0024 84C4BDC7 		.ascii	"\204\304\275\307X\317\214\3402\000\000q\306\023\317"
 119      58CF8CE0 
 119      32000071 
 119      C613CF
 120              		.text
 121              		.section	.gnu.lto_.refs.4ef3f408ff97dc58,"",%progbits
 122 0000 789C6362 		.ascii	"x\234cb`b`d\200\002\000\000F\000\006"
 122      60626064 
 122      80020000 
 122      460006
 123              		.text
 124              		.section	.gnu.lto_.decls.4ef3f408ff97dc58,"",%progbits
 125 0000 789CAD59 		.ascii	"x\234\255YmpT\325\031>\347\356\015I$\215\340\370\001"
 125      6D7054D5 
 125      193EE7EE 
 125      0D49248D 
 125      E0F801
 126 0013 337488B5 		.ascii	"3t\210\265:\035\251Y\024\265\366\217\303f\023\314\316"
 126      3A1DA959 
 126      14B5F68F 
 126      C36613CC 
 126      CE
 127 0024 189BD905 		.ascii	"\030\233\331\005\246#3]\216\313\325\354L\262\233\331"
 127      A623335D 
 127      8ECBD5EC 
 127      4CB29BD9 
 128 0034 2C1DF977 		.ascii	",\035\371wb\244\245\326L\303\227d\0203\233\232X\021"
ARM GAS  /tmp/ccOEYqcl.s 			page 9


 128      62A4A5D6 
 128      4CC39764 
 128      10339B9A 
 128      5811
 129 0046 950C10AA 		.ascii	"\225\014\020\252\240e\025\005\025\021D\024\025\321\325"
 129      A0651505 
 129      15114414 
 129      15D1D5
 130 0055 DAA1B676 		.ascii	"\332\241\266v\200\342P\255\245\333\367\234\373u\316"
 130      80E250AD 
 130      A5DBF79C 
 130      FB75CE
 131 0064 DD3D9BBB 		.ascii	"\335=\233\273N\357\344\274\367\334{\317y\336\347}\316"
 131      4EEFE4BC 
 131      F7DC7BCF 
 131      79DEE77D 
 131      CE
 132 0075 C77DF746 		.ascii	"\307}\367FC\032z\030#T\204\243\1776B\327h\010\325 \204"
 132      431A7A18 
 132      235484A3 
 132      7F3642D7 
 132      6808D520 
 133 008a 6E47EEA1 		.ascii	"nG\356\241C\031\205\262\035\312$\224\275\250\364`\317"
 133      431985B2 
 133      1DCA2494 
 133      BDA8F460 
 133      CF
 134 009b 1BACB68D 		.ascii	"\033\254\266\215V\035`Q-2\361\366A\331\017\345\000\224"
 134      561D6051 
 134      2D32F1F6 
 134      41D90FE5 
 134      0094
 135 00ad 33500E43 		.ascii	"3P\016Cy\023J\000\312i(\247\240\034\262\3720,\240\201"
 135      79134A00 
 135      CA6928A7 
 135      A01CB2FA 
 135      302CA081 
 136 00c1 9E86F294 		.ascii	"\236\206\362\224\307\017\3430\335\343\307\366ac\332"
 136      C70FE330 
 136      DDE3C7F6 
 136      6163DA
 137 00d0 3E6C9F0C 		.ascii	">l\237\014\353]\313\017\2660\330y\247\007{\322\302\301"
 137      EB5DCB0F 
 137      B630D879 
 137      A7077BD2 
 137      C2C1
 138 00e2 56DFB350 		.ascii	"V\337\263P\316C\231\207\315{5\326y\322\342\375<\224"
 138      CE439987 
 138      CD7B35D6 
 138      79D2E2FD 
 138      3C94
 139 00f4 3F42F931 		.ascii	"?B\3711\226q\230>ue8z\371a+nl\365a\347\027=\234\346"
 139      9671983E 
 139      7565387A 
 139      F9612B6E 
 139      6CF561E7 
 140 010c A2119A2B 		.ascii	"\242\021\232+\024\306G\016a\272\216\376\247X\014\240"
ARM GAS  /tmp/ccOEYqcl.s 			page 10


 140      14C6470E 
 140      61BA8EFE 
 140      A7580CA0 
 141 011c 2BD1460A 		.ascii	"+\321F\012G\356W\224\342,\301\267_\201~\216\011n\254"
 141      47EE5794 
 141      E22CC1B7 
 141      5F817E8E 
 141      096EAC
 142 012f 474DBCD2 		.ascii	"GM\274\322P\317\035#D\360\357\361\225\274\026\340\022"
 142      50CF1D23 
 142      44F0EFF1 
 142      95BC16E0 
 142      12
 143 0140 A07AB486 		.ascii	"\240z\264\206\322\007X\307\366\327\200W\271^\327\242"
 143      D20758C7 
 143      F6D78057 
 143      B95ED7A2 
 144 0150 314A870A 		.ascii	"1J\207\012/\216\016\006)\255#x\014\327C\337A\214\321"
 144      2F8E0E06 
 144      29AD2378 
 144      0CD743DF 
 144      418CD1
 145 0163 F5682B38 		.ascii	"\365h+8\035\242\364\345y\032*=\010\256\255/\271&\370"
 145      1DA2F4E5 
 145      791A2A3D 
 145      08AEAD2F 
 145      B926F8
 146 0176 0FF87A64 		.ascii	"\017\370zdz\342\217\255\012\233l\227:\264L/\274\262"
 146      7AE28FAD 
 146      0A9B6C97 
 146      3AB44C2F 
 146      BCB2
 147 0188 24E00068 		.ascii	"$\340\000h\3501\360j#\260\343\207\350qJ\327\201\024"
 147      E831F06A 
 147      23B0E387 
 147      E8714AD7 
 147      8114
 148 019a 63B3694E 		.ascii	"c\263iN\263\271=\313[\215\342\271e\343\261\260\315\256"
 148      B3B93DCB 
 148      5B8DE2B9 
 148      65E3B1B0 
 148      CDAE
 149 01ac F479A3DD 		.ascii	"\364y\243\335\3566\341\247\033B\327\241q\246\365 ]="
 149      EE36E1A7 
 149      1B42D7A1 
 149      71A6F520 
 149      5D3D
 150 01be 0373A991 		.ascii	"\003s\251\221\325K\012u+\226$1\307,\277\353@\303P\177"
 150      D54B0A75 
 150      2B962431 
 150      C72CBFEB 
 150      40C3507F 
 151 01d2 A1589CEB 		.ascii	"\241X\234\353\177\300&\344\0013ixd\231,+\013]o\307F"
 151      7FC026E4 
 151      01336978 
 151      64992C2B 
 151      0B5D6FC7 
ARM GAS  /tmp/ccOEYqcl.s 			page 11


 152 01e7 F036A043 		.ascii	"\3606\240C\360\366\357\024\333vol;\312\306\366\225\035"
 152      F0F6EF14 
 152      DB766F6C 
 152      3BCAC6F6 
 152      951D
 153 01f9 9B39C934 		.ascii	"\2339\3114t\260<+A\361\317y\213I_\003u\321\015\346\031"
 153      74B03C2B 
 153      41F1CF79 
 153      8B495F03 
 153      75D10DE6 
 154 020e 1ECC14DD 		.ascii	"\036\314\024\335\024\301Lz\203\331]6\230=\007\235`&"
 154      14C14C7A 
 154      83D95D36 
 154      983D079D 
 154      6026
 155 0220 78305F96 		.ascii	"x0_\226\017f\255W\342\275\337\211\325^/\253\027dV|\231"
 155      0F66AD57 
 155      E2BDDF89 
 155      D55E2FAB 
 155      1764567C 
 156 0235 0ED0C238 		.ascii	"\016\320\3028\2355\354.\323:\333\001\333%\354e\372\305"
 156      9D35EC2E 
 156      D33ADB01 
 156      DB25EC65 
 156      FAC5
 157 0247 BF3558A6 		.ascii	"\2775X\246\326\272\256\324\201\340<\276\026,\226\027"
 157      D6BAAED4 
 157      81E03CBE 
 157      162C9617 
 158 0257 25AE772B 		.ascii	"%\256w+E\314f\327EO\350V\033\201\355\024\0203\321\020"
 158      45CC66D7 
 158      454FE856 
 158      1B81ED14 
 158      1033D110 
 159 026b 0BB969B8 		.ascii	"\013\271i\270\221\340}p\317bC/\265\351\2345wK\261\335"
 159      91E07D70 
 159      CF62432F 
 159      B5E99C35 
 159      774BB1DD 
 160 027f 4B15DA11 		.ascii	"K\025\332\021\374\012\236\351\352B\255\355\2137Q-\243"
 160      FC0A9EE9 
 160      EA42ADED 
 160      8B37512D 
 160      A3
 161 0290 572DCED6 		.ascii	"W-\316\326m\247r\006K\221\330\315\320eh-\347\"\354\212"
 161      6DA77206 
 161      4B91D8CD 
 161      D065682D 
 161      E722EC8A 
 162 02a4 B902B67B 		.ascii	"\271\002\266{=8\307U\374\321uG\026\361\215\361\000\276"
 162      3D38C755 
 162      FCD17547 
 162      16F18DF1 
 162      00BE
 163 02b6 0CD4DAAD 		.ascii	"\014\324\332\255\311j\371\000b\216_\207\316f7\016K\363"
 163      C96AF900 
 163      628E5F87 
ARM GAS  /tmp/ccOEYqcl.s 			page 12


 163      CE66370E 
 163      4BF3
 164 02c8 C5130D54 		.ascii	"\305\023\015T7\357#\011P:\256F9\372`\177~\375\346\215"
 164      37EF2309 
 164      503AAE46 
 164      39FA607F 
 164      7EFDE68D 
 165 02dc 98E65EC6 		.ascii	"\230\346^\306\266\202\2575Z3\246\322\306N\3608\237\000"
 165      B682AF35 
 165      5A33A6D2 
 165      C64EF038 
 165      9F00
 166 02ee 53EFCAF6 		.ascii	"S\357\312\366@hv\367&i\274\230\364c\302xy\232\021\374"
 166      406876F7 
 166      2669BC98 
 166      F463C278 
 166      799A11FC 
 167 0302 56D5C375 		.ascii	"V\325\303uD1\\\265\322h\331\255@\366<\227\235\251U\226"
 167      44315CB5 
 167      D268D9AD 
 167      40F63C97 
 167      9DA95596 
 168 0316 85836383 		.ascii	"\205\203c\2036:S\230I\010zo\270{\210\250\002\232f\367"
 168      363A5398 
 168      49087A6F 
 168      B87B88A8 
 168      029A66F7 
 169 032a 5F6E393E 		.ascii	"_n9>Vu@\357(\002\272\012\331\021\274Z\022\201\344V\222"
 169      567540EF 
 169      2802BA0A 
 169      D911BC5A 
 169      1281E456 
 170 033f B4340298 		.ascii	"\2644\002\230\004\217@\004\004\277\011\3244t\304\227"
 170      048F4004 
 170      04BF09D4 
 170      3474C497 
 171 034f 1C14ABF5 		.ascii	"\034\024\253\365\030\346h\3078\332q_\324r*4\340\266"
 171      18E668C7 
 171      38DA715F 
 171      D4722A34 
 171      E0B6
 172 0361 59E076CA 		.ascii	"Y\340v\312\0377M\315m\213\300\3553\177\334Th\300mD\340"
 172      1F374DCD 
 172      6D8BC0ED 
 172      337FDC54 
 172      68C06D44 
 173 0376 F6A53F6E 		.ascii	"\366\245?n\0015\267\011\201\3339\177\334Th\300m\207"
 173      0135B709 
 173      81DB397F 
 173      DC5468C0 
 173      6D87
 174 0388 C0ED5B7F 		.ascii	"\300\355[\177\334t5\267]\025\346x\243\015P\2607\331"
 174      DC7435B7 
 174      5D15E678 
 174      A30D50B0 
 174      37D9
 175 039a CFAB9EE4 		.ascii	"\317\253\236\344\177QL\362\2378\223\234\006\2741\310"
ARM GAS  /tmp/ccOEYqcl.s 			page 13


 175      7F514CF2 
 175      9F38939C 
 175      06BC31C8 
 176 03aa 7E6D4954 		.ascii	"~mITA\200$\273\357\236XN\360~.\311C%p\362\273\302\326"
 176      418024BB 
 176      EF9E584E 
 176      F07E2EC9 
 176      432570F2 
 177 03c1 649A5A93 		.ascii	"d\232Z\223\347*h2\352\354\323C\227[!\376\255jQ\376\256"
 177      E72A6832 
 177      EAECD343 
 177      975B21FE 
 177      AD6A51FE 
 178 03d6 1065A0C6 		.ascii	"\020e\240\306Qe\260$\014\217g;\246Z\225,\003\371=\037"
 178      5165B024 
 178      0C8F673B 
 178      A65A952C 
 178      03F93D1F 
 179 03ea 36B0A972 		.ascii	"6\260\251r\230'V\233\274\200\022+[\2259e\320\312\035"
 179      9827569B 
 179      BC80122B 
 179      5B953965 
 179      D0CA1D
 180 03fd E2DB89E0 		.ascii	"\342\333\211\3407\370K\343\020\276\032\354\333\334\276"
 180      37F84BE3 
 180      10BE1AEC 
 180      DBDCBE
 181 040c CBED096E 		.ascii	"\313\355\011n?\340\366$\267\247\270\375\204\333O\271"
 181      3FE0F624 
 181      B7A7B8FD 
 181      84DB4FB9 
 182 041c FD33B7A7 		.ascii	"\3753\267\247\271\375\202\333\177\200u\216\351\350!"
 182      B9FD82DB 
 182      7F80758E 
 182      E9E821
 183 042b F7D788F9 		.ascii	"\367\327\210\371BU\251z\006O\267{)\322\213\345v\227"
 183      4255A97A 
 183      064FB77B 
 183      29D28BE5 
 183      7697
 184 043d 8692562F 		.ascii	"\206\222V/)[\021|\256\352\001\376\247b\200\035\202R"
 184      295B117C 
 184      AEEA01FE 
 184      A762801D 
 184      8252
 185 044f AB720941 		.ascii	"\253r\011A\301I\314\036vS\271\374\271\223\270\211\340"
 185      C149CC1E 
 185      7653B9FC 
 185      B993B889 
 185      E0
 186 0460 F33CABD8 		.ascii	"\363<\253\330\022\2302\253\360\2000\237\027\274I\305"
 186      129832AB 
 186      F080309F 
 186      17BC49C5 
 187 0470 FA933CA9 		.ascii	"\372\223<\251\2700uR\261a \277\351\321\215\263YR\341"
 187      B8307552 
 187      B16120BF 
ARM GAS  /tmp/ccOEYqcl.s 			page 14


 187      E9D18DB3 
 187      5952E1
 188 0483 A412F9FF 		.ascii	"\244\022\371\377C*\241\241q\036\312\205\312s\023\251"
 188      432AA1A1 
 188      711ECA85 
 188      CA7313A9 
 189 0493 27FAF049 		.ascii	"'\372\360Ia\242o\253\032\254I\002\333,\202M\370\001"
 189      61A26FAB 
 189      1AAC4902 
 189      DB2C824D 
 189      F801
 190 04a5 AB5333DB 		.ascii	"\253S3\333\"\202MV\015&3\033\021\301\366\372\001\233"
 190      22824D56 
 190      0D26331B 
 190      11C1F6FA 
 190      019B
 191 04b7 A1663621 		.ascii	"\241f6!\202\355\253\032Ld\006\357\244el\003>\3137\340"
 191      82EDAB1A 
 191      4C6406EF 
 191      A4656C03 
 191      3ECB37E0 
 192 04cb FD5E2C69 		.ascii	"\375^,i=Y\325Yjb\273Db\007\375\020kRK\266[\004;\354"
 192      3D59D559 
 192      6A62BB44 
 192      6207FD10 
 192      6B524BB6 
 193 04e3 07EC476A 		.ascii	"\007\354Gjf\317\211`\307\252\006\223\231\355\021\301"
 193      66CF8960 
 193      C7AA0693 
 193      99ED11C1 
 194 04f3 4EF8019B 		.ascii	"N\370\001\233\257f\366\202\010\366Q\325`2\263?\211`"
 194      AF66F682 
 194      08F651D5 
 194      6032B33F 
 194      8960
 195 0505 9FF901BB 		.ascii	"\237\371\001\273M\315\354\250\010v\272j0\201\331\206"
 195      4DCDECA8 
 195      0876BA6A 
 195      3081D986 
 196 0515 FEFCB165 		.ascii	"\376\374\261e\316\2139\267\220m\301\337\270\273\366"
 196      CE8B39B7 
 196      906DC1DF 
 196      B8BBF6
 197 0524 42790149 		.ascii	"By\001I\315\306\224\315\010\336\244U\273\271\017k\345"
 197      CDC694CD 
 197      08DEA455 
 197      BBB90F6B 
 197      E5
 198 0535 3777F967 		.ascii	"7w\371g\243\335\212e\220\336\260%\022Vu\241BC\330u\217"
 198      A3DD8A65 
 198      90DEB025 
 198      125675A1 
 198      4243D875 
 199 054a 9B1A7EC3 		.ascii	"\233\032~\3035<\353G\303v5\330{\"\330WU\203\311\003"
 199      353CEB47 
 199      C37635D8 
 199      7B22D857 
ARM GAS  /tmp/ccOEYqcl.s 			page 15


 199      5583C903 
 200 055e F2FE3239 		.ascii	"\362\37629S\022\306\203:\351\312\014q@J\022*O3\202s"
 200      5312C683 
 200      3AE9CA0C 
 200      71404A12 
 200      2A4F3382 
 201 0573 550FC8A8 		.ascii	"U\017\310\250b@\334\357ab+\010\373ko\3302\013\253\332"
 201      6240DCEF 
 201      61622B08 
 201      FB6B6FD8 
 201      320BABDA 
 202 0587 A912B13F 		.ascii	"\251\022\261?\377\241:\356\234\003uy\245\270\275\315"
 202      FFA13AEE 
 202      9C037579 
 202      A5B8BDCD 
 203 0597 E0755975 		.ascii	"\340uYu\334O(\342\326\245\270\237p\343\276\350\215["
 203      DC4F28E2 
 203      D6A5B89F 
 203      70E3BEE8 
 203      8D5B
 204 05a9 66615597 		.ascii	"faU\227+\342\206d\341\243el\3560\246\004\037\347\037"
 204      2BE28664 
 204      E1A3656C 
 204      EE30A604 
 204      1FE71F
 205 05bc B7A602EB 		.ascii	"\267\246\002\353UL\036\330\032>\026\267\206\007t\037"
 205      554C1ED8 
 205      1A3E16B7 
 205      8607741F 
 206 05cc 33714DB9 		.ascii	"3qM\271\237\223\345\0161\317!\370_<\021\371\232'\227"
 206      9F93E50E 
 206      31CF21F8 
 206      5F3C11F9 
 206      9A2797
 207 05df DF727B91 		.ascii	"\337r{\221\333\"\267\375\032\263\003\334\256\346\366"
 207      DB22B7FD 
 207      1AB303DC 
 207      AEE6F6
 208 05ee D7DCFE86 		.ascii	"\327\334\376\206\333\337r;\310\355\357\270]\313\355"
 208      DBDF723B 
 208      C8EDEFB8 
 208      5DCBED
 209 05fd 7A6E3772 		.ascii	"zn7r\273\231\333-\334\216p\3738\267Or\273US\247\263"
 209      BB99DB2D 
 209      DC8E70FB 
 209      38B74F72 
 209      BB5553A7 
 210 0612 E72BA4B3 		.ascii	"\347+\244\263\3334'[\374\001\032\245G\217\026V\237\031"
 210      DB34275B 
 210      FC011AA5 
 210      478F1656 
 210      9F19
 211 0624 C66B0A74 		.ascii	"\306k\012t\210\376\267X\304n\362\352|\330\313W\376\022"
 211      88FEB758 
 211      C46EF2EA 
 211      7CD8CB57 
 211      FE12
ARM GAS  /tmp/ccOEYqcl.s 			page 16


 212 0636 C83ECB6B 		.ascii	"\310>\313k\302W\300Y\345\333\022\274]czM\010\263\313"
 212      C257C059 
 212      E5DB12BC 
 212      5D637A4D 
 212      08B3CB
 213 0649 ACDB35F3 		.ascii	"\254\3335\363\033\340\032\335\363\017\015W\374\312]"
 213      1BE01ADD 
 213      F30F0D57 
 213      FCCA5D
 214 0658 2DA77F75 		.ascii	"-\247\177u\246\313\367\245\205\302\262q\326T\321\214"
 214      A6CBF7A5 
 214      85C2B271 
 214      D654D18C 
 215 0668 E01D552F 		.ascii	"\340\035U/\224\235\212\2052Gb\275\323](\203\272\347"
 215      949D8A85 
 215      324762BD 
 215      D35D2883 
 215      BAE7
 216 067a 2BB49785 		.ascii	"+\264\227\205\206\036\321\355\224\372\022V\231\327\334"
 216      861ED1ED 
 216      94FA1256 
 216      99D7DC
 217 0689 1C34FFD2 		.ascii	"\0344\377\322}\301.\322\035\354Mg\262}\301D\272\247"
 217      7DC12ED2 
 217      1DEC4D67 
 217      B27DC144 
 217      BAA7
 218 069b 279D0A86 		.ascii	"'\235\012\206\242\035\341\216\373\203\251_&\023\315"
 218      A21DE18E 
 218      FB83A95F 
 218      2613CD
 219 06aa 09F48B60 		.ascii	"\011\364\213`W\272\307\010\246\263\331t\260\303He\323"
 219      57BAC708 
 219      A6B3D974 
 219      B0C34865 
 219      D3
 220 06bb 993B32A4 		.ascii	"\231;2\244\267+\231\350\013\306\322+3\011#\263*\036"
 220      B72B99E8 
 220      0BC6D22B 
 220      330923B3 
 220      2A1E
 221 06cd 4EAF305A 		.ascii	"N\2570Z\214T\242+~g2k\304\357Mg\342\000\022o\013\265"
 221      8C54A22B 
 221      7E67326B 
 221      C4EF4D67 
 221      E200126F 
 222 06e3 448224D3 		.ascii	"D\202$\323sC*\2352n0\310=\311`2\225\350^\271\302\010"
 222      73432A9D 
 222      326E30C8 
 222      3DC96032 
 222      95E85EB9 
 223 06f9 F6655724 		.ascii	"\366eW$S\331\346.T\267\022\316\013n\212g\247\335q\327"
 223      53D9E62E 
 223      54B712CE 
 223      0B6E8A67 
 223      A7DD71D7 
 224 070d 92A6309A 		.ascii	"\222\2460\232\301\334\266\245\310=\335\306R#\001\336"
ARM GAS  /tmp/ccOEYqcl.s 			page 17


 224      C1DCB6A5 
 224      C83DDDC6 
 224      522301DE 
 225 071d 704AEFCD 		.ascii	"pJ\357\315$\3233\331\375\326d\237\373`\016\273\0233"
 225      24D333D9 
 225      FDD6649F 
 225      FB600EBB 
 225      1333
 226 072f B2B1557D 		.ascii	"\262\261U}Y\243\247\235\244Vt\033\231Nh\232IfW\325v"
 226      59A3A79D 
 226      A456741B 
 226      994E689A 
 226      496657D5 
 227 0744 99D71C2E 		.ascii	"\231\327\034.\334m\220L\247\221\002\227\367\3252\177"
 227      DC6D904C 
 227      A7910297 
 227      F7D5327F 
 228 0754 B7C5B3F3 		.ascii	"\267\305\263\363E\011\254\300\215\373\263\301pG,\022"
 228      4509ACC0 
 228      8DFBB3C1 
 228      70472C12 
 229 0764 736826D2 		.ascii	"sh&\322\031#\236\350Y\000D\353\357Z\032\011\307\027"
 229      19239EE8 
 229      590044EB 
 229      EF5A1A09 
 229      C717
 230 0776 AFEA35F4 		.ascii	"\257\3525\364H\254-Z\037m\003\273\264\255u\276\036\011"
 230      48AC2D5A 
 230      1F6D03BB 
 230      B4AD75BE 
 230      1E09
 231 0788 B745EBA2 		.ascii	"\267E\353\242\346\325\215\360\260\323}x\023<\024.\027"
 231      E6D58DF0 
 231      B0D37D78 
 231      133C142E 
 231      17
 232 0799 E891508B 		.ascii	"\350\221P\213{y\263\026\351t.n\321c\213#\321\272X\270"
 232      7B79B316 
 232      E9742E6E 
 232      D1638B23 
 232      D1BA58B8 
 233 07ad 853BA909 		.ascii	"\205;\251\011w.\211\264B\367XT_\272\370g\321\232P$\032"
 233      772E89B4 
 233      42F75854 
 233      5FBAF867 
 233      D19A5024 
 234 07c2 8E066250 		.ascii	"\216\006bP\302\354\334\336Y\023kg\017\303"
 234      C2ECDCDE 
 234      59136B67 
 234      0FC3
 235 07d0 8BC0B433 		.ascii	"\213\300\2643\323\012\246\246\243cQ(\252\2670\023\202"
 235      D30AA6A6 
 235      A3635128 
 235      AAB73013 
 235      82
 236 07e1 EB40E7A2 		.ascii	"\353@\347\242h\240\025J\2505\252\303\263(\360\013E\001"
 236      68A0154A 
ARM GAS  /tmp/ccOEYqcl.s 			page 18


 236      A835AAC3 
 236      B328F00B 
 236      4501
 237 07f3 3C148EEA 		.ascii	"<\024\216\352\211.\222\251\213\307\357]\231J\304\343"
 237      892E92A9 
 237      8BC7EF5D 
 237      994AC4E3 
 238 0803 DFB32BCD 		.ascii	"\337\263+\315\267\336r\353O\377\007m\243,["
 238      B7DE72EB 
 238      4FFF076D 
 238      A32C5B
 239              		.text
 240              		.section	.gnu.lto_.symtab.4ef3f408ff97dc58,"",%progbits
 241 0000 6E766963 		.ascii	"nvicEnableVector\000\000\000\000\000\000\000\000\000"
 241      456E6162 
 241      6C655665 
 241      63746F72 
 241      00000000 
 242 0019 000000A1 		.ascii	"\000\000\000\241\000\000\000nvicDisableVector\000\000"
 242      0000006E 
 242      76696344 
 242      69736162 
 242      6C655665 
 243 0033 00000000 		.ascii	"\000\000\000\000\000\000\000\000\000\000\257\000\000"
 243      00000000 
 243      0000AF00 
 243      00
 244 0040 006E7669 		.ascii	"\000nvicSetSystemHandlerPriority\000\000\000\000\000"
 244      63536574 
 244      53797374 
 244      656D4861 
 244      6E646C65 
 245 0062 00000000 		.ascii	"\000\000\000\000\000\000\000\265\000\000\000nvicCle"
 245      000000B5 
 245      0000006E 
 245      76696343 
 245      6C65
 246 0074 61725065 		.ascii	"arPending\000\000\000\000\000\000\000\000\000\000\000"
 246      6E64696E 
 246      67000000 
 246      00000000 
 246      00000000 
 247 0088 00BB0000 		.ascii	"\000\273\000\000\000"
 247      00
 248              		.text
 249              		.section	.gnu.lto_.opts,"",%progbits
 250 0000 272D6D63 		.ascii	"'-mcpu=cortex-m3' '-mno-thumb-interwork' '-mthumb' "
 250      70753D63 
 250      6F727465 
 250      782D6D33 
 250      2720272D 
 251 0033 272D6767 		.ascii	"'-ggdb' '-O2' '-fomit-frame-pointer' '-falign-funct"
 251      64622720 
 251      272D4F32 
 251      2720272D 
 251      666F6D69 
 252 0066 696F6E73 		.ascii	"ions=16' '-ffunction-sections' '-fdata-sections' '-"
ARM GAS  /tmp/ccOEYqcl.s 			page 19


 252      3D313627 
 252      20272D66 
 252      66756E63 
 252      74696F6E 
 253 0099 666E6F2D 		.ascii	"fno-common' '-flto'\000"
 253      636F6D6D 
 253      6F6E2720 
 253      272D666C 
 253      746F2700 
 254              		.text
 255              		.cfi_sections	.debug_frame
 256              		.section	.text.nvicEnableVector,"ax",%progbits
 257              		.align	2
 258              		.p2align 4,,15
 259              		.global	nvicEnableVector
 260              		.thumb
 261              		.thumb_func
 262              		.type	nvicEnableVector, %function
 263              	nvicEnableVector:
 264              	.LFB219:
 265              		.file 1 "../../../os/hal/ports/common/ARMCMx/nvic.c"
 266              		.loc 1 57 0
 267              		.cfi_startproc
 268              		@ args = 0, pretend = 0, frame = 0
 269              		@ frame_needed = 0, uses_anonymous_args = 0
 270              		@ link register save eliminated.
 271              	.LVL0:
 272              		.loc 1 65 0
 273 0000 00F01F03 		and	r3, r0, #31
 274 0004 0122     		movs	r2, #1
 275 0006 02FA03F3 		lsl	r3, r2, r3
 276 000a 4209     		lsrs	r2, r0, #5
 277 000c 9200     		lsls	r2, r2, #2
 278              		.loc 1 63 0
 279 000e 0901     		lsls	r1, r1, #4
 280              	.LVL1:
 281 0010 00F16040 		add	r0, r0, #-536870912
 282              	.LVL2:
 283 0014 02F16042 		add	r2, r2, #-536870912
 284 0018 02F56142 		add	r2, r2, #57600
 285 001c C9B2     		uxtb	r1, r1
 286 001e 00F56140 		add	r0, r0, #57600
 287              	.LVL3:
 288 0022 80F80013 		strb	r1, [r0, #768]
 289              		.loc 1 65 0
 290 0026 C2F88031 		str	r3, [r2, #384]
 291              		.loc 1 66 0
 292 002a 1360     		str	r3, [r2]
 293 002c 7047     		bx	lr
 294              		.cfi_endproc
 295              	.LFE219:
 296              		.size	nvicEnableVector, .-nvicEnableVector
 297 002e 00BF     		.section	.text.nvicDisableVector,"ax",%progbits
 298              		.align	2
 299              		.p2align 4,,15
 300              		.global	nvicDisableVector
 301              		.thumb
ARM GAS  /tmp/ccOEYqcl.s 			page 20


 302              		.thumb_func
 303              		.type	nvicDisableVector, %function
 304              	nvicDisableVector:
 305              	.LFB220:
 306              		.loc 1 74 0
 307              		.cfi_startproc
 308              		@ args = 0, pretend = 0, frame = 0
 309              		@ frame_needed = 0, uses_anonymous_args = 0
 310              		@ link register save eliminated.
 311              	.LVL4:
 312 0000 10B4     		push	{r4}
 313              		.cfi_def_cfa_offset 4
 314              		.cfi_offset 4, -4
 315              		.loc 1 76 0
 316 0002 00F01F03 		and	r3, r0, #31
 317 0006 0124     		movs	r4, #1
 318 0008 9C40     		lsls	r4, r4, r3
 319 000a 4FF46143 		mov	r3, #57600
 320 000e 4109     		lsrs	r1, r0, #5
 321 0010 CEF20003 		movt	r3, 57344
 322 0014 2031     		adds	r1, r1, #32
 323              		.loc 1 80 0
 324 0016 1844     		add	r0, r0, r3
 325              	.LVL5:
 326 0018 0022     		movs	r2, #0
 327              		.loc 1 76 0
 328 001a 43F82140 		str	r4, [r3, r1, lsl #2]
 329              		.loc 1 80 0
 330 001e 80F80023 		strb	r2, [r0, #768]
 331              		.loc 1 82 0
 332 0022 5DF8044B 		ldr	r4, [sp], #4
 333 0026 7047     		bx	lr
 334              		.cfi_endproc
 335              	.LFE220:
 336              		.size	nvicDisableVector, .-nvicDisableVector
 337 0028 AFF30080 		.section	.text.nvicSetSystemHandlerPriority,"ax",%progbits
 337      AFF30080 
 338              		.align	2
 339              		.p2align 4,,15
 340              		.global	nvicSetSystemHandlerPriority
 341              		.thumb
 342              		.thumb_func
 343              		.type	nvicSetSystemHandlerPriority, %function
 344              	nvicSetSystemHandlerPriority:
 345              	.LFB221:
 346              		.loc 1 90 0
 347              		.cfi_startproc
 348              		@ args = 0, pretend = 0, frame = 0
 349              		@ frame_needed = 0, uses_anonymous_args = 0
 350              		@ link register save eliminated.
 351              	.LVL6:
 352              		.loc 1 100 0
 353 0000 0901     		lsls	r1, r1, #4
 354              	.LVL7:
 355 0002 00F16040 		add	r0, r0, #-536870912
 356              	.LVL8:
 357 0006 C9B2     		uxtb	r1, r1
ARM GAS  /tmp/ccOEYqcl.s 			page 21


 358 0008 00F56D40 		add	r0, r0, #60672
 359              	.LVL9:
 360 000c 0176     		strb	r1, [r0, #24]
 361 000e 7047     		bx	lr
 362              		.cfi_endproc
 363              	.LFE221:
 364              		.size	nvicSetSystemHandlerPriority, .-nvicSetSystemHandlerPriority
 365              		.section	.text.nvicClearPending,"ax",%progbits
 366              		.align	2
 367              		.p2align 4,,15
 368              		.global	nvicClearPending
 369              		.thumb
 370              		.thumb_func
 371              		.type	nvicClearPending, %function
 372              	nvicClearPending:
 373              	.LFB222:
 374              		.loc 1 109 0
 375              		.cfi_startproc
 376              		@ args = 0, pretend = 0, frame = 0
 377              		@ frame_needed = 0, uses_anonymous_args = 0
 378              		@ link register save eliminated.
 379              	.LVL10:
 380              		.loc 1 111 0
 381 0000 00F01F03 		and	r3, r0, #31
 382 0004 0122     		movs	r2, #1
 383 0006 9A40     		lsls	r2, r2, r3
 384 0008 4009     		lsrs	r0, r0, #5
 385              	.LVL11:
 386 000a 4FF46143 		mov	r3, #57600
 387 000e 6030     		adds	r0, r0, #96
 388 0010 CEF20003 		movt	r3, 57344
 389 0014 43F82020 		str	r2, [r3, r0, lsl #2]
 390 0018 7047     		bx	lr
 391              		.cfi_endproc
 392              	.LFE222:
 393              		.size	nvicClearPending, .-nvicClearPending
 394 001a 00BFAFF3 		.text
 394      0080
 395              	.Letext0:
 396              		.file 2 "/home/otto/MentorGraphics/Sourcery_CodeBench_Lite_for_ARM_EABI/arm-none-eabi/include/stdi
 397              		.file 3 "../../../os/common/ports/ARMCMx/compilers/GCC/chtypes.h"
 398              		.file 4 "../../../os/rt/include/chsystypes.h"
 399              		.file 5 "../../../os/rt/include/chschd.h"
 400              		.file 6 "../../../os/common/ext/CMSIS/include/core_cm3.h"
 401              		.file 7 "../../../os/common/ports/ARMCMx/chcore.h"
 402              		.file 8 "../../../os/common/ports/ARMCMx/chcore_v7m.h"
 403              		.file 9 "../../../os/rt/include/chsem.h"
 404              		.file 10 "../../../os/rt/include/chmtx.h"