ARM GAS  /tmp/ccBWYvbe.s 			page 1


   1              		.syntax unified
   2              		.cpu cortex-m3
   3              		.fpu softvfp
   4              		.eabi_attribute 20, 1
   5              		.eabi_attribute 21, 1
   6              		.eabi_attribute 23, 3
   7              		.eabi_attribute 24, 1
   8              		.eabi_attribute 25, 1
   9              		.eabi_attribute 26, 1
  10              		.eabi_attribute 30, 2
  11              		.eabi_attribute 34, 1
  12              		.eabi_attribute 18, 4
  13              		.thumb
  14              		.file	"test_sequence_004.c"
  15              		.text
  16              	.Ltext0:
  17              		.section	.gnu.lto_.jmpfuncs.3b389065dcbff3e1,"",%progbits
  18 0000 789C6362 		.ascii	"x\234cb`b\300\006L\031\031\030,\2014\013\003\003\023"
  18      6062C006 
  18      4C191918 
  18      2C81340B 
  18      030313
  19 0013 2390CDC0 		.ascii	"#\220\315\300\304T\315\360\253\241\243A \223\221!\227"
  19      C454CDF0 
  19      ABA1A341 
  19      20939121 
  19      97
  20 0024 11AC8629 		.ascii	"\021\254\206)\2021\023,\307\214[\232\351\005;X\036\310"
  20      8231132C 
  20      C78C5B9A 
  20      E9053B58 
  20      1EC8
  21 0036 05299801 		.ascii	"\005)\230\001R\300,\307\3008\267a\206C&#\013D!\262$"
  21      52C02CC7 
  21      C038B761 
  21      86432623 
  21      0B4421B2 
  22 004b AB1C8328 		.ascii	"\253\034\203(D\222\015S\222]\216A\036\"\311\001\226"
  22      44920D53 
  22      925D8E41 
  22      1E22C901 
  22      96
  23 005c 6425208F 		.ascii	"d% \217\337d\\N\376\377\237\031b4\210\307y\202\011\356"
  23      DF645C4E 
  23      FEFF9F19 
  23      623488C7 
  23      798209EE 
  24 0070 7AB05AAE 		.ascii	"z\260Z\256d\250Z\270\301\334r\014\346\020\203y \201"
  24      64A85AB8 
  24      C1DC720C 
  24      E6108379 
  24      2081
  25 0082 279C5F5A 		.ascii	"'\234_Z\242\220\237\246P\222\231\233\252P\236\231\227"
  25      A2909FA6 
  25      5092999B 
  25      AA509E99 
  25      97
ARM GAS  /tmp/ccBWYvbe.s 			page 2


  26 0093 925FCEC0 		.ascii	"\222_\316\300\231\227_\242\340\027\352\343\303 ^^\224"
  26      99975FA2 
  26      E017EAE3 
  26      C3205E5E 
  26      94
  27 00a4 9F97AE50 		.ascii	"\237\227\256P\224ZRZ\224\227\232\242\220\233Z\\\234"
  27      945A525A 
  27      94979AA2 
  27      909B5A5C 
  27      9C
  28 00b5 989ECAC0 		.ascii	"\230\236\312\300\344\310\000\000\234\273N\331"
  28      E4C80000 
  28      9CBB4ED9 
  29              		.text
  30              		.section	.gnu.lto_.inline.3b389065dcbff3e1,"",%progbits
  31 0000 789C6362 		.ascii	"x\234cb`b\300\0066Ai\026 bfd`b\272\300\317\300\266@"
  31      6062C006 
  31      36416916 
  31      20626664 
  31      6062BAC0 
  32 0018 1EAC9889 		.ascii	"\036\254\230\211\201G\015(\304\332\241\316\300\336\241"
  32      81470D28 
  32      C4DAA1CE 
  32      C0DEA1
  33 0027 0E11E266 		.ascii	"\016\021\342f``\234\340\307\310\005d3\363\200\22400"
  33      60609CE0 
  33      C7C80564 
  33      33F38094 
  33      3030
  34 0039 33285A00 		.ascii	"3(Z\000UI]\233\316\010\327\011\226g\341\005\313\263"
  34      55495D9B 
  34      CE08D709 
  34      9667E105 
  34      CBB3
  35 004b F201D54C 		.ascii	"\362\001\325L\360\233\340\007\021\000\322`\215@\232"
  35      F09BE007 
  35      1100D260 
  35      8D409A
  36 005a 9541ED00 		.ascii	"\225A\355\000\003P\253\334\275\263\330\264\"\351\200"
  36      0350ABDC 
  36      BDB3D8B4 
  36      22E980
  37 0069 1AC52E00 		.ascii	"\032\305.\0004\016\310\005\"\006\006\000hZ\022\355"
  37      340EC805 
  37      22060600 
  37      685A12ED 
  38              		.text
  39              		.section	.gnu.lto_.pureconst.3b389065dcbff3e1,"",%progbits
  40 0000 789C6362 		.ascii	"x\234cb`b\340d\200\000\026\006\011&+f+V+\000\003\366"
  40      6062E064 
  40      80001606 
  40      09262B66 
  40      2B562B00 
  41 0016 00E2     		.ascii	"\000\342"
  42              		.text
  43              		.section	.gnu.lto_test_004_001_setup.3b389065dcbff3e1,"",%progbits
  44 0000 789C6362 		.ascii	"x\234cb`b@\007\222@<\001\210\215\201\230\221\231\201"
ARM GAS  /tmp/ccBWYvbe.s 			page 3


  44      60624007 
  44      92403C01 
  44      888D8198 
  44      919981
  45 0013 9169C239 		.ascii	"\221i\3029\006\206F\016&FF\020\203\201\221\241\236\211"
  45      0686460E 
  45      26464610 
  45      838191A1 
  45      9E89
  46 0025 B13E9211 		.ascii	"\261>\222\021\254v=\323\201\007\377\377\257\333\322"
  46      AC763DD3 
  46      8107FFFF 
  46      AFDBD2
  47 0034 B6FC0CE3 		.ascii	"\266\374\014\343L&f\240\010+CKC\303\004\005\006\206"
  47      4C2666A0 
  47      082B434B 
  47      43C30405 
  47      0686
  48 0046 64B08A10 		.ascii	"d\260\212\020 \011\322\026\312\310\004\242\231\3172"
  48      2009D216 
  48      CAC804A2 
  48      99CF32
  49 0055 34EDF8F1 		.ascii	"4\355\370\361\314\"\221q!#+\303l\206Y\215\015\015\002"
  49      CC229171 
  49      21232BC3 
  49      6C86598D 
  49      0D0D02
  50 0068 998C0CD5 		.ascii	"\231\214\014\325\014\277\032:@,\306\\\260\266\010F "
  50      0CBF1A3A 
  50      402CC65C 
  50      B0B60846 
  50      20
  51 0079 9301C602 		.ascii	"\223\001\306\0023.24>\230\243\014\321\010\003!@E@SA"
  51      332E3234 
  51      3E98A30C 
  51      D1080321 
  51      40454053 
  52 008e 7E30D4D3 		.ascii	"~0\324\323\323\207\240\222\324\342\022\375\242\022\375"
  52      D387A092 
  52      D4E212FD 
  52      A212FD
  53 009d E2FCD2A2 		.ascii	"\342\374\322\242\344T\010\027D\304\027\247\026\226\246"
  53      E4540817 
  53      44C417A7 
  53      1696A6
  54 00ac E625A7C6 		.ascii	"\346%\247\306\033\030\230\350%3\000\000\306\2027\323"
  54      1B1898E8 
  54      25330000 
  54      C68237D3 
  55              		.text
  56              		.section	.gnu.lto_thread1.3b389065dcbff3e1,"",%progbits
  57 0000 789C8552 		.ascii	"x\234\205RMh\023A\024~o6\177\032+\275*\222\206\202\340"
  57      4D681341 
  57      147E6F36 
  57      7F1A2BBD 
  57      2A928682 
  58 0015 41332914 		.ascii	"A3)\024\274I\245'\017\2714U\364\024\266\343\320\014"
ARM GAS  /tmp/ccBWYvbe.s 			page 4


  58      BC49A527 
  58      0FB93455 
  58      F414B6E3 
  58      D00C
  59 0027 76B37537 		.ascii	"v\263u7)-=t\233\264\240\267R\020\304R\244\212BQT\360"
  59      292D3D74 
  59      9BB4A0B7 
  59      5210C452 
  59      A48A4251 
  60 003d 223DC55B 		.ascii	"\"=\305[\2134\"E\320\223\301\223\222\2237\361\022\337"
  60      8B342245 
  60      D093C193 
  60      929337F1 
  60      12DF
  61 004f EC26DBA6 		.ascii	"\354&\333\246-:\354\314\274y\357}\357{\363\3152`px\234"
  61      2D3AECCC 
  61      BC79EF7D 
  61      EF7BF3CD 
  61      32607078 
  62 0064 A1B94DEE 		.ascii	"\241\271M\356\317\264\243\001\310V\032\000\213\011\206"
  62      CFB4A301 
  62      C8561A00 
  62      8B0986
  63 0073 A80D4058 		.ascii	"\250\015@X`\270p\013\375\334\327\254\336l\267_\275{"
  63      60B8700B 
  63      FDDCD7AC 
  63      DE6CB75F 
  63      BD7B
  64 0085 F6FD0E26 		.ascii	"\366\375\016&ch!\304A\371\241(,y\336J\032@\370\307q"
  64      636821C4 
  64      41F9A128 
  64      2C79DE4A 
  64      1A40F8C7 
  65 009a 5A35FC3A 		.ascii	"Z5\374:2\275\033;PM\000\014\302\206\347\2556\277n\356"
  65      32BD1B3B 
  65      504D000C 
  65      C286E7AD 
  65      36BF6EEE 
  66 00ae BEC7D59A 		.ascii	"\276\307\325\232\267\355-\325\333m\034PHY\023\250\241"
  66      B7ED2DD5 
  66      DB6D1C50 
  66      485913A8 
  66      A1
  67 00bf 3751214B 		.ascii	"7Q!K\373\233\021\351\355S\373\220\010\240\001\325__"
  67      FB9B11E9 
  67      ED53FB90 
  67      08A001D5 
  67      5F5F
  68 00d1 6ACFCF86 		.ascii	"j\317\317\206\224\201Q\177\273\267f\\0\361\011\016\206"
  68      9481517F 
  68      BBB7665C 
  68      30F1090E 
  68      86
  69 00e2 FDD45B0F 		.ascii	"\375\324[\017~'\317\205\247\373\034\300\304\015\214"
  69      7E27CF85 
  69      A7FB1CC0 
  69      C40D8C
ARM GAS  /tmp/ccBWYvbe.s 			page 5


  70 00f1 1295A663 		.ascii	"\022\225\246c4\015\360/\211\260E&\311`\004\022\245\340"
  70      340DF02F 
  70      89B04526 
  70      C9600412 
  70      A5E0
  71 0103 03AE7B0F 		.ascii	"\003\256{\017G\024Fz\310\367\343\215N<\032\264\367\021"
  71      4714467A 
  71      C8F7E38D 
  71      4E3C1AB4 
  71      F711
  72 0115 969BDFAE 		.ascii	"\226\233\337\256\004\325\001\346\341\217w\317\353W\030"
  72      04D501E6 
  72      E18F77CF 
  72      EB5718
  73 0124 134101DF 		.ascii	"\023A\001\337\223P\030\267\020;I\272&\211\242\360\204"
  73      935018B7 
  73      103B49BA 
  73      2689A2F0 
  73      84
  74 0135 46D79A3F 		.ascii	"F\327\232?n\034A\237\024\235\362\012\223\000\275\"\376"
  74      6E1C419F 
  74      149DF20A 
  74      9300BD22 
  74      FE
  75 0146 6C1C16D1 		.ascii	"l\034\026\321\304\247\376\225\376\253\"\374K\305\326"
  75      C4A7FE95 
  75      FEAB22FC 
  75      4BC5D6
  76 0155 BA56F14D 		.ascii	"\272V\361M\257\212\217\373R\007\336\270\343\336\031"
  76      AF8A8FFB 
  76      5207DEB8 
  76      E3DE19
  77 0164 DE9733A6 		.ascii	"\336\2273\246k\012\214\037\243\250\211\233d\204\304"
  77      6B0A8C1F 
  77      A3A8899B 
  77      6484C4
  78 0173 5D054D7C 		.ascii	"]\005M|\211\251\240\251]\250n-\277\330cA\261I\214\257"
  78      89A9A0A9 
  78      5DA86E2D 
  78      BFD86341 
  78      B1498CAF 
  79 0187 C1234A27 		.ascii	"\301#J'+\246a\247\240+q\344\210B}BkH\203P\012O\003|"
  79      2BA661A7 
  79      A02B71E4 
  79      88427D42 
  79      6B488350 
  80 019f 82C5668B 		.ascii	"\202\305f\213u\363\2021N\314\364\027j\332\241L\206\007"
  80      75F38231 
  80      4ECCF417 
  80      6ADAA14C 
  80      8607
  81 01b1 5F59BA65 		.ascii	"_Y\272e\356\224\271kW\034!\203\243^\012\256\274[\221"
  81      EE94B96B 
  81      571C2183 
  81      A35E0AAE 
  81      BC5B91
  82 01c4 25210BD9 		.ascii	"%!\013\331\354pF\300\245\020a\273\\\330\226e\227\370"
ARM GAS  /tmp/ccBWYvbe.s 			page 6


  82      EC7046C0 
  82      A51061BB 
  82      5CD89665 
  82      97F8
  83 01d6 B4ED945D 		.ascii	"\264\355\224]~u,7\232\233\345\242(lG\026f.[\231\"Dg"
  83      7E752C37 
  83      9A9BE5A2 
  83      286C4716 
  83      662E5B99 
  84 01ed CCA98A1C 		.ascii	"\314\251\212\034:\006#g\313|4\227\277\226\347\252$\246"
  84      3A062367 
  84      CB7C3497 
  84      BF96E7AA 
  84      24A6
  85 01ff 2AB72517 		.ascii	"*\267%\027\226\253\334\302\244\020\204\0338\210\240"
  85      96ABDCC2 
  85      A410841B 
  85      3888A0
  86 020e AEC29CA2 		.ascii	"\256\302\234\242;\347R\274?\227\037KO\230\256\234v\324"
  86      3BE752BC 
  86      3F971F4B 
  86      4F98AE9C 
  86      76D4
  87 0220 C5F4F92C 		.ascii	"\305\364\371,0\007\342\226\264lg\016\376\002\011\"\345"
  87      3007E296 
  87      B46C670E 
  87      FE020922 
  87      E5
  88 0231 C4       		.ascii	"\304"
  89              		.text
  90              		.section	.gnu.lto_test_004_001_execute.part.0.3b389065dcbff3e1,"",%progbits
  91 0000 789C8D55 		.ascii	"x\234\215U]h\034U\024>gfg\177\22346\255Mb\335\216\005"
  91      5D681C55 
  91      143E6766 
  91      677F9334 
  91      36AD4D62 
  92 0017 9FD44C62 		.ascii	"\237\324Lb\013\372\"(\365%\220\365\241I@\237\302t2n"
  92      0BFA2228 
  92      F52590F5 
  92      A149409F 
  92      C274326E 
  93 002b 06B23BED 		.ascii	"\006\262;\355\314n\322\342C\356fc\211XJ\010\242\245"
  93      CC6ED2E2 
  93      43EE6663 
  93      89584A08 
  93      A2A5
  94 003d 259850AA 		.ascii	"%\230P\252V\252\205 \330\006\305E1\030\245\011}\320"
  94      56AA8520 
  94      D806C545 
  94      3118A509 
  94      7DD0
  95 004f 874A6115 		.ascii	"\207Ja\0254\021\253\255\2124Jq=w\376v\263D\223\273;"
  95      3411ABAD 
  95      8A344A71 
  95      3D77FE76 
  95      B34493BB 
  96 0064 77EEB9E7 		.ascii	"w\356\271\347\347~\347;\347\356\012 @\375\350\246g>"
ARM GAS  /tmp/ccBWYvbe.s 			page 7


  96      E77EE73B 
  96      E7EE0A20 
  96      40FDE8A6 
  96      673E
  97 0076 0C308300 		.ascii	"\0140\203\000\030\001\014O-\323\"\214\202\363\026\004"
  97      18010C4F 
  97      2DD3228C 
  97      82F31604 
  98 0086 E91B0558 		.ascii	"\351\033\005X\\\\H\002k\020=)\344H!\224\270M!*!\362"
  98      5C5C4802 
  98      6B103D29 
  98      E4482194 
  98      B84D212A 
  99 009c 05208C85 		.ascii	"\005 \214\205\0051$\341\330\013\310CK\373a\216\261\263"
  99      053124E1 
  99      D80BC843 
  99      4BFB618E 
  99      B1B3
 100 00ae E5CF57D7 		.ascii	"\345\317W\327\360\314k\245\361Yv\257RA4\270RCx\236V"
 100      F0CC6BA5 
 100      F15976AF 
 100      524134B8 
 100      5243789E 
 101 00c3 D8ECBC84 		.ascii	"\330\354\274\204:\\\256#\233\177\207\305\034'\321@\261"
 101      3A5CAE23 
 101      9B7F87C5 
 101      1C27D140 
 101      B1
 102 00d4 EA23BB3E 		.ascii	"\352#\273>\241M|\246J\327\027O\265\261\331\361)\366"
 102      A14D7CA6 
 102      4AD7174F 
 102      B5B1D9F1 
 102      29F6
 103 00e6 0F9D6560 		.ascii	"\017\235e`H\200\203\270\035\317\351\322'\213\247[\331"
 103      488083B8 
 103      1DCFE9D2 
 103      278BA75B 
 103      D9
 104 00f7 6CC1F724 		.ascii	"l\301\367$\256\236\304\355\340\234.\335]\374r\016\331"
 104      AE9EC4ED 
 104      E09C2EDD 
 104      5DFC720E 
 104      D9
 105 0108 342BDCA9 		.ascii	"4+\334\251Tv\030(\011\360\324Vg^\026X\271R\371\353n"
 105      54761828 
 105      09F0D456 
 105      675E1658 
 105      B952F9EB 
 106 011d 74378281 		.ascii	"t7\202\201a\201&\020A\305\363\270\037B$D$>\205i\212"
 106      61812610 
 106      41C5F3B8 
 106      1F422444 
 106      243E8569 
 107 0132 4668FB6D 		.ascii	"Fh\373m\332\216r!\306\2478\2378\3010A)\313*^ \265\353"
 107      DA8E7221 
 107      C6A7389F 
 107      38C13041 
ARM GAS  /tmp/ccBWYvbe.s 			page 8


 107      29CB2A5E 
 108 0149 EBB044A3 		.ascii	"\353\260D\243\217f^\224>\014\363\267\330\217\202\363"
 108      8F665E94 
 108      3E0CF3B7 
 108      D88F82F3 
 109 0159 5E8162F9 		.ascii	"^\201b\371\343\317\022*^D\211\314^\202\277\331$k60\246"
 109      E3CF122A 
 109      5E4489CC 
 109      5E82BFD9 
 109      246B3630 
 110 016e A1E34791 		.ascii	"\241\343G\221\343\000\327`\374\312\372\357\255\256\325"
 110      E300D760 
 110      FCCAFAEF 
 110      ADAED5
 111 017d 39385B60 		.ascii	"98[`\334&\021X7d\034c\236X\003\370\253\004'g\011\306"
 111      DC261158 
 111      37641C63 
 111      9E5803F8 
 111      AB042767 
 112 0193 A33E2FE5 		.ascii	"\243>/\3457N~\335vi\236\261WJl\275\202\274\212\215\002"
 112      374E7EDD 
 112      76699EB1 
 112      574A6CBD 
 112      82BC8A8D 
 113 01a8 1CDB8A1A 		.ascii	"\034\333\212\032\276\327(\323b\031\306\177\273]|\253"
 113      BED728D3 
 113      6219C67F 
 113      BB5D7CAB 
 114 01b8 DD4BD3CF 		.ascii	"\335K\323\317\267t\371\324BKAR\361='_os\365\365\365"
 114      B774F9D4 
 114      424B4152 
 114      F13D275F 
 114      6F73F5F5 
 115 01cd C4DE40FA 		.ascii	"\304\336@\372\352\307\357\250a\\\374\032\245\256Q\377"
 115      EAC7EFA8 
 115      615CFC1A 
 115      A5AE51FF 
 116 01dd 68E81C84 		.ascii	"h\350\034\204\364Y\"\221\320\212\356}H\302\015\234a"
 116      F4592291 
 116      D08AEE7D 
 116      48C20D9C 
 116      61
 117 01ee 679E36B0 		.ascii	"g\2366\260i\303\371U\375MO\277\303Ex\015>\275\361\321"
 117      69C3F955 
 117      FD4D4FBF 
 117      C345780D 
 117      3EBDF1D1 
 118 0202 1F3F5D9C 		.ascii	"\037?]\234\306zh\253\027\276\025\305@\372\341\322Lc"
 118      C67A68AB 
 118      17BE15C5 
 118      40FAE1D2 
 118      4C63
 119 0214 20BCBA3A 		.ascii	" \274\272:W\003\211?az\"<^\032\361\021x\227M\024\312"
 119      5703893F 
 119      617A223C 
 119      5E1AF111 
 119      78974D14 
ARM GAS  /tmp/ccBWYvbe.s 			page 9


 120 0229 E75696A7 		.ascii	"\347V\226\2471d`3'}\212S}\037\207\263\223\321\0109\310"
 120      31646033 
 120      277D8A53 
 120      7D1F87B3 
 120      93D10839 
 121 023e 763A088E 		.ascii	"v:\010\216p\376U\274\352\024\221\227\353\327b\223\212"
 121      70FE55BC 
 121      EA149197 
 121      EBD76293 
 121      8A
 122 024f 57484CA3 		.ascii	"WHL\243\220\346\245\244B\334\371\376\352\220{\236\333"
 122      90E6A5A4 
 122      42DCF9FE 
 122      EA907B9E 
 122      DB
 123 0260 217CACC0 		.ascii	"!|\254\300\313\345\225\363aw;\215bP\322\026\315i)\277"
 123      CBE595F3 
 123      61773B8D 
 123      6250D216 
 123      CD6929BF 
 124 0274 25D89881 		.ascii	"%\330\230\201\2732\210^\243\360\223#k\021\352\216\335"
 124      BB32885E 
 124      A3F09323 
 124      6B11EA8E 
 124      DD
 125 0285 4EE8529B 		.ascii	"N\350R\233\037\2307]\232\337\316\272\312\377R_y\025"
 125      1F98375D 
 125      9ADFCEBA 
 125      CAFF525F 
 125      7915
 126 0297 DF770AB1 		.ascii	"\337w\012\261e\351\341\177K\177\323)}ic\351\337lL\006"
 126      65E9E17F 
 126      4B7FD329 
 126      7D6963E9 
 126      DF6C4C06 
 127 02ab B7A14AF8 		.ascii	"\267\241J\370\255\202T%<\006\316\335\210o\322\006*~"
 127      AD825425 
 127      3C06CEDD 
 127      886FD206 
 127      2A7E
 128 02bd 408BE06C 		.ascii	"@\213\340l\277\354*~\210I\277\340\305\311\342\352i\311"
 128      BFEC2A7E 
 128      8849BFE0 
 128      C5C9E2EA 
 128      69C9
 129 02cf A72D442C 		.ascii	"\247-D,s{X\213xZ\321WI\276\352\347\210Cw@u8\240\372"
 129      737B588B 
 129      785AD157 
 129      49BEEAE7 
 129      88437740 
 130 02e7 7E0D13E0 		.ascii	"~\015\023\340\326\235\002I|\277\325\300=IX\023\3346"
 130      D69D0249 
 130      7CBFD5C0 
 130      3D495813 
 130      DC36
 131 02f9 6BF55013 		.ascii	"k\365P\023\335m\000_\300\304-\014\242\360\330\321Z\316"
 131      DD6D005F 
ARM GAS  /tmp/ccBWYvbe.s 			page 10


 131      C0C42D0C 
 131      A2F0D8D1 
 131      5ACE
 132 030b FA09FB42 		.ascii	"\372\011\373BR\244\036X\232\034\365\315\"\301\245m\017"
 132      52A41E58 
 132      9A1CF5CD 
 132      22C1A56D 
 132      0F
 133 031c 8EE5E5F4 		.ascii	"\216\345\345\3648\336\005A^+\001\362(\271qe\273\333"
 133      38DE0541 
 133      5E2B01F2 
 133      28B97165 
 133      BBDB
 134 032e 2741B2B1 		.ascii	"'A\262\261 \302\003\232w\335\311\330C\2757\011\367<"
 134      20C2039A 
 134      77DDC9D8 
 134      43BD3709 
 134      F73C
 135 0340 D40F5651 		.ascii	"\324\017VQ'\353P\3076A\035\202\333\011\221\003(\376"
 135      27EB50C7 
 135      36411D82 
 135      DB099103 
 135      28FE
 136 0352 D9E4DBC5 		.ascii	"\331\344\333\305\251\223\270\351\276\212?p\254\006K"
 136      A993B8E9 
 136      BE8A3F70 
 136      AC064B
 137 0361 CDEF550D 		.ascii	"\315\357U\015\224\270\007EN\302I\321\205\362\320\006"
 137      94B80745 
 137      4EC249D1 
 137      85F2D006 
 138 0371 28EE7992 		.ascii	"(\356y\222\363\373w\235\376\257\252(\372\210\021\332"
 138      F3FB779D 
 138      FEAFAA28 
 138      FA8811DA 
 139 0381 E5E5EEEA 		.ascii	"\345\345\356\352\350P\334oN\267s\212\225Sl3oi\272+\362"
 139      E850DC6F 
 139      4EB7738A 
 139      95536C33 
 139      6F69BA2B 
 140 0396 69C0D68F 		.ascii	"i\300\326\217\345\365\254\246\017tv\036\354\320@\314"
 140      E5F5ACA6 
 140      0F74761E 
 140      ECD040CC 
 141 03a6 D8E950CE 		.ascii	"\330\351P\316\310\350R\316\352\352\350|,\010`\332\212"
 141      C8E852CE 
 141      EAEAE87C 
 141      2C0860DA 
 141      8A
 142 03b7 66663266 		.ascii	"ff2fV9jZ9[y\346p\352P\352\270\242\015i\246\245\017\214"
 142      56396A5A 
 142      395B79E6 
 142      70EA50EA 
 142      B8A20D69 
 143 03cf 3C91E918 		.ascii	"<\221\351\030\002iD\035\316\353]\233\370\350\307s\312"
 143      0269441D 
 143      CEEB5D9B 
ARM GAS  /tmp/ccBWYvbe.s 			page 11


 143      F8E8C773 
 143      CA
 144 03e0 A1546F77 		.ascii	"\241Tow\257bd\265\341\374\240\256h\031\333\260\007\322"
 144      AF6264B5 
 144      E1FCA0AE 
 144      6819DBB0 
 144      07D2
 145 03f2 9A467EFB 		.ascii	"\232F~\373j=\010d`3d\237\260I\337\234\352=,\037Qm\375"
 145      6A3D0864 
 145      6033649F 
 145      B049DF9C 
 145      EA3D2C1F 
 146 0409 A8653C2A 		.ascii	"\250e<*?\334\011\202\005\221\214\2361\255\023p\240\326"
 146      3FDC0982 
 146      05918C9E 
 146      31AD1370 
 146      A0D6
 147 041b 77481DF6 		.ascii	"wH\035\366\340\365\366\245\016<\256\364\364<\253\364"
 147      E0F5F6A5 
 147      0E3CAEF4 
 147      F43CABF4 
 148 042b 75A746BA 		.ascii	"u\247F\272\270f\200\262\035\036\036\244x\3126\263\342"
 148      B86680B2 
 148      1D1E1EA4 
 148      78CA36B3 
 148      E2
 149 043c 3C58649F 		.ascii	"<Xd\237\374O|#9R\267\230\371\234l\276(ssy\324\310\016"
 149      FC4F7C23 
 149      3952B798 
 149      F99C6CBE 
 149      28737379 
 150 0453 9AA310CB 		.ascii	"\232\243\020\313\2329\371\271\376\236\036\3303j\231"
 150      9A39F9B9 
 150      FE9E1ED8 
 150      336A99
 151 0462 D9B46CE9 		.ascii	"\331\264l\351\271\274\225\325\007\345\214n\333jZ\207"
 151      B9BC95D5 
 151      07E58C6E 
 151      DB6A5A87 
 152 0472 7F01EDE1 		.ascii	"\177\001\355\341\035\347"
 152      1DE7
 153              		.text
 154              		.section	.gnu.lto_test_004_001_execute.3b389065dcbff3e1,"",%progbits
 155 0000 789C8D55 		.ascii	"x\234\215U_lSe\024?\347\336\336\322v\255\353\206J;G"
 155      5F6C5365 
 155      143FE7DE 
 155      DED276AD 
 155      EB864A3B 
 156 0015 A94314A3 		.ascii	"\251C\024\243[\267\204\304\350\203\201\360d\302|`,\321"
 156      5BB784C4 
 156      E88381F0 
 156      64C27C60 
 156      2CD1
 157 0027 A7E57277 		.ascii	"\247\345rw\323\335\204\333\342\275\267\010\361a\267"
 157      D3DD84DB 
 157      E2BDB708 
 157      F161B7
ARM GAS  /tmp/ccBWYvbe.s 			page 12


 158 0036 DB501442 		.ascii	"\333P\024B\032\036t\321\020!Sb\014\021\321hp\017\320"
 158      1A1E74D1 
 158      10215362 
 158      0C11D168 
 158      700FD0
 159 0049 C448B62C 		.ascii	"\304H\266,\262\354A1\006B%\361i\310\237\267\306\030"
 159      B2EC4131 
 159      064225F1 
 159      69C89FB7 
 159      C618
 160 005b EB39F75F 		.ascii	"\3539\367_G-\342M\357\367\367\234\337\367;\277\363\235"
 160      472DE24D 
 160      EFF7F79C 
 160      DFF73BBF 
 160      F39D
 161 006d 5B010468 		.ascii	"[\001\004h}\266\323\333\010\003\364#\000\206\001\205"
 161      7DB6D3DB 
 161      0803F423 
 161      00860185 
 162 007d CA158072 		.ascii	"\312\025\200rD\020\244\237s`\307\304\371\014\330q\321"
 162      4410A49F 
 162      7360C7C4 
 162      F90CD871 
 162      D1
 163 008e 9B859C59 		.ascii	"\233\205\234Y\010%6B\011\221{@\230\024\304\220\204\223"
 163      08253642 
 163      09917B40 
 163      9814C490 
 163      8493
 164 00a0 AF23230A 		.ascii	"\257##\012}p\332\266O\324~\277\375Y\372\275SS\025\373"
 164      7D70DAB6 
 164      4FD47EBF 
 164      FD59FABD 
 164      535315FB 
 165 00b4 EF460335 		.ascii	"\357F\0035\244\263\267!(\010\257\321\004\263N'\204\356"
 165      A4B3B721 
 165      2808AFD1 
 165      04B34E27 
 165      84EE
 166 00c6 27E37856 		.ascii	"'\343xV\252+\227\217\245\355\246\247(\300K\017\363<"
 166      AA2B978F 
 166      A5EDA6A7 
 166      28C04B0F 
 166      F33C
 167 00d8 27546B8D 		.ascii	"'Tk\215\306\255\257k7o`W\257\010\032\206B\324Haj \006"
 167      C6ADAF6B 
 167      376F6057 
 167      AF081A86 
 167      42D44861 
 168 00ef 32CE611F 		.ascii	"2\316a\037\304\251?M}\202\026\303\235\334$\271\351\346"
 168      C4A93F4D 
 168      7D8216C3 
 168      9DDC24B9 
 168      E9E6
 169 0101 26C58669 		.ascii	"&\305\206ij\326\021\232\0043\304#\353\006R\275t\371"
 169      6AD6119A 
 169      0433C423 
ARM GAS  /tmp/ccBWYvbe.s 			page 13


 169      EB0652BD 
 169      74F9
 170 0113 78CA3E55 		.ascii	"x\312>U\366\351D\004x\271I'\351\322i\021\326=\017\330"
 170      F6E94404 
 170      78B94927 
 170      E9D26911 
 170      D63D0FD8 
 171 0127 8A9E3DD4 		.ascii	"\212\236=\324\262R\243(p/\376\010S\027.\254\246d\374"
 171      B252A328 
 171      702FFE08 
 171      53172EAC 
 171      A664FC
 172 013a 1425F808 		.ascii	"\024%\370\010>,\333vR\303\350[\360\247}\204G1\335qc"
 172      3E2CDB76 
 172      52C3E85B 
 172      F0A77D84 
 172      4731DD71 
 173 014f E018F8A3 		.ascii	"\340\030\370\243(\257\221\347\265\372\352/!\3275\217"
 173      28AF91E7 
 173      B5FAEA2F 
 173      21D7358F 
 174 015f 623F9C65 		.ascii	"b?\234e\217\016F\251\360(\316(\263<J\350\210\236o\""
 174      8F0E46A9 
 174      F028CE28 
 174      B33C4AE8 
 174      889E6F22 
 175 0173 4079640D 		.ascii	"@yd\015I\002\373\365\257\233w\227\302^\270~\334\366"
 175      4902FBF5 
 175      AF9B7797 
 175      C25EB87E 
 175      DCF6
 176 0185 9D33B940 		.ascii	"\2353\271@\003\177P]\272\272\322\205\034\031\237\254"
 176      037F505D 
 176      BABAD285 
 176      1C199FAC 
 177 0195 38D0D439 		.ascii	"8\320\3249q\3471\365\034|n\333v\355\203\267o|\202\002"
 177      71E731F5 
 177      1C7C6EDB 
 177      76ED83B7 
 177      6F7C8202 
 178 01a9 29E9CEED 		.ascii	")\351\316\355\0275\354\014\002L\006\001v\351\216#\023"
 178      1735EC0C 
 178      024C0601 
 178      76E98E23 
 178      13
 179 01ba EA72A8EC 		.ascii	"\352r\250\354EG\264/\010\232\306\030\214]\222\365o{"
 179      4547B42F 
 179      089AC618 
 179      8C5D92F5 
 179      6F7B
 180 01cc 643CE704 		.ascii	"d<\347\004\234\366\200MJT\000\334M\004\030\013<,\201"
 180      9CF6804D 
 180      4A5400DC 
 180      4D04180B 
 180      3C2C81
 181 01df FDBFF4FD 		.ascii	"\375\277\364\375\247\217|\277t\365|\324\227,D l,5\350"
 181      A78F7CBF 
ARM GAS  /tmp/ccBWYvbe.s 			page 14


 181      74F57CD4 
 181      972C4420 
 181      6C2C35E8 
 182 01f3 E9248B65 		.ascii	"\351$\213eH\371{\341\200\341z\005Epc\023\035\365\027"
 182      48F97BE1 
 182      80E17A05 
 182      45706313 
 182      1DF517
 183 0206 04F6E5FD 		.ascii	"\004\366\345\375\210\206\217*\350\245\000x%\245\341"
 183      88868F2A 
 183      E8A50078 
 183      25A5E1
 184 0215 6319C89F 		.ascii	"c\031\310\237\264g\267k\370\270'\021]\245\015\016\375"
 184      B467B76B 
 184      F8B82711 
 184      5DA50D0E 
 184      FD
 185 0226 C54ACC5D 		.ascii	"\305J\314]\341\\\271\2324\223\236\012NL\353\316\211"
 185      E15CB99A 
 185      34939E0A 
 185      4E4CEBCE 
 185      89
 186 0237 7C58BA4D 		.ascii	"|X\272M\272\210\034\300\"LE\274*9Q\373\346\235\237\322"
 186      BA881CC0 
 186      224C45BC 
 186      2A3951FB 
 186      E69D9FD2 
 187 024b 67BFB2ED 		.ascii	"g\277\262\355w\253v\275\201\015Q\303\036\001f\361a\225"
 187      77AB76BD 
 187      810D51C3 
 187      1E0166F1 
 187      6195
 188 025d C26B3D94 		.ascii	"\302k=\224V\270\002S\367.\036>\323\323\232\350\325\343"
 188      56B80253 
 188      F72E1E3E 
 188      D3D39AE8 
 188      D5E3
 189 026f F3EBCB92 		.ascii	"\363\353\313\222\214\027\235\033\354-\316\235\254w\364"
 189      8C179D1B 
 189      EC2DCE9D 
 189      AC77F4
 190 027e 06B3A3D7 		.ascii	"\006\263\243\327~\023\233W\201\3370\275\\9\3641@\270"
 190      7E139B57 
 190      81DF30BD 
 190      5C39F431 
 190      40B8
 191 0290 4B91500E 		.ascii	"K\221P\016D\367s\223\201\262\340K\263\366\374\346\376"
 191      44F77393 
 191      81B2E04B 
 191      B3F6FCE6 
 191      FE
 192 02a1 8CB7FF84 		.ascii	"\214\267\377\204\313p\031\016\327\276\233\013\373I\211"
 192      CB70190E 
 192      D7BE9B0B 
 192      FB4989
 193 02b0 0512F52A 		.ascii	"\005\022\365*\030q,\334\025{R\303\215z\220\011\006\316"
 193      18712CDC 
ARM GAS  /tmp/ccBWYvbe.s 			page 15


 193      157B52C3 
 193      8D7A9009 
 193      06CE
 194 02c2 341A5CFB 		.ascii	"4\032\\\373\233\034\251\252iw\307-\306<\327R\213\200"
 194      9B1CA9AA 
 194      6977C72D 
 194      C63CD752 
 194      8B80
 195 02d4 7FB40A28 		.ascii	"\177\264\012(\343%\272=\377C@\370O\001\257;\002.\335"
 195      E325BA3D 
 195      FF4340F8 
 195      4F01AF3B 
 195      022EDD
 196 02e7 2FE0C789 		.ascii	"/\340\307\211\314\277\253\352\350\365\262\324T2\352"
 196      CCBFABEA 
 196      E8F5B2D4 
 196      5432EA
 197 02f6 1655AC8D 		.ascii	"\026U\254\215\2302\376@\203\340l_<\031\0270\023\224"
 197      9832FE40 
 197      83E06C5F 
 197      3C191730 
 197      1394
 198 0308 F362FDF6 		.ascii	"\363b\375\366V_\266xp\307\262\201\200\254\226\027\301"
 198      565FB678 
 198      70C7B281 
 198      80AC9617 
 198      C1
 199 0319 C6E02330 		.ascii	"\306\340#0\275,\372>\011r\343\315\254\233\006\311_\357"
 199      BD2CFA3E 
 199      0972E3CD 
 199      AC9B06C9 
 199      5FEF
 200 032b 0C109E54 		.ascii	"\014\020\236T\260\303\273\217\011\357\352\367e\340\230"
 200      B0C3BB8F 
 200      09EFEAF7 
 200      65E098
 201 033a 97C0CDCD 		.ascii	"\227\300\315\315\273\377\024\300\002\314\334\302\000"
 201      BBFF14C0 
 201      02CCDCC2 
 201      00
 202 0347 8271C36B 		.ascii	"\202q\303ku\034\245x\3463\"\023\230\276\227\360\355"
 202      751CA578 
 202      E6332213 
 202      98BE97F0 
 202      ED
 203 0358 92942736 		.ascii	"\222\224'6\335\322B\241\273\035\205\244G\341\351\014"
 203      DDD242A1 
 203      BB1D85A4 
 203      47E1E90C 
 204 0368 BCEF5178 		.ascii	"\274\357Qx\346\301\024\272\333P\010\301\235\016q\031"
 204      E6C114BA 
 204      DB5008C1 
 204      9D0E7119 
 205 0378 A6239E17 		.ascii	"\246#\236\027\004\307lU0\356\030i\370\254o-9\237\357"
 205      04C76C55 
 205      30EE1869 
 205      F8AC6F2D 
ARM GAS  /tmp/ccBWYvbe.s 			page 16


 205      399FEF
 206 038b 15FA7F6C 		.ascii	"\025\372\177lb\354\241\212\243U\316\306\320\300@\316"
 206      62ECA18A 
 206      A355CEC6 
 206      D0C040CE 
 207 039b FD59AA69 		.ascii	"\375Y\252i\345\014+g\026K\206\242\272Sn\306L\365\215"
 207      E50C2B67 
 207      164B86A2 
 207      BA536EC6 
 207      4CF58D
 208 03ae 925A50D4 		.ascii	"\222ZP\324\261\301\301m\003\012H\226140(\352f>di\272"
 208      B1C1C16D 
 208      030A4896 
 208      31343028 
 208      EA663E64 
 209 03c4 BA390028 		.ascii	"\2729\000(\232\354\256\025\224}\245q5\247LX\023\206"
 209      9AECAE15 
 209      947DA571 
 209      35A74C58 
 209      1386
 210 03d6 2A8F9B03 		.ascii	"*\217\233\003\023 \354\200\376\265fJQ\327\213\205\334"
 210      1320EC80 
 210      FEB5664A 
 210      51D78B85 
 210      DC
 211 03e7 FEA26199 		.ascii	"\376\242a\231\271\035\273\207w\016\037${\245h\250c\007"
 211      B91DBB87 
 211      770E1F24 
 211      7BA568A8 
 211      6307
 212 03f9 5ED0C941 		.ascii	"^\320\311A: \357+\251Cm|\324\203Vn\347\360\310+#\315"
 212      3A20EF2B 
 212      A9436D7C 
 212      D483566E 
 212      E7F0C82B 
 213 040f 83745333 		.ascii	"\203tS3\307\362\212B~\233\036H\306<\304D\222\303#\273"
 213      C7F28A42 
 213      7E9B1E48 
 213      C63CC444 
 213      92C323BB 
 214 0423 B37B6553 		.ascii	"\263{eS\335oh\317g\267\014\202`\300:]\325\213\306!\210"
 214      DD6F68CF 
 214      67B70C82 
 214      60C03A5D 
 214      D58BC621 
 215 0438 168A56F6 		.ascii	"\026\212V\366\325\321]\273`\303\233F\261\220\317\032"
 215      D5D15DBB 
 215      60C39B46 
 215      B190CF1A 
 216 0448 AA55320A 		.ascii	"\252U2\012\352xVWMS\316\253\360\017\203{\001\005"
 216      EA785657 
 216      4D53CEAB 
 216      F00F837B 
 216      0105
 217              		.text
 218              		.section	.gnu.lto_.symbol_nodes.3b389065dcbff3e1,"",%progbits
 219 0000 789C4D8C 		.ascii	"x\234M\214MN\002Q\020\204\253\272\247\007\025\024\360"
ARM GAS  /tmp/ccBWYvbe.s 			page 17


 219      4D4E0251 
 219      1084ABBA 
 219      A7071514 
 219      F0
 220 0011 021EC773 		.ascii	"\002\036\307sx\222&\222\010\356<\200\254\346($, a\313"
 220      78922692 
 220      08EE3C80 
 220      ACE62824 
 220      2C2061CB 
 221 0025 027FC001 		.ascii	"\002\177\300\001Ae\307\336\370\036C|\364\346\313W\335"
 221      4165C7DE 
 221      F81E437C 
 221      F4E6CB57 
 221      DD
 222 0036 D502C12D 		.ascii	"\325\002\301-Q\215\274\322\211\247)\340\376\374xgs\""
 222      518DBCD2 
 222      89A729E0 
 222      FEFC7867 
 222      7322
 223 0048 7395173A 		.ascii	"s\225\027:R*{\272\034u\320\247-I8\344\215\256'\325\017"
 223      522A7BBA 
 223      1C75D0A7 
 223      2D4938E4 
 223      8DAE27D5 
 224 005d 4A486D47 		.ascii	"JHmG\215X1\213X\320,\340\235yx\313\037zV5:\035\362\233"
 224      8D58318B 
 224      58D02CE0 
 224      9D7978CB 
 224      1F7A5635 
 225 0075 6EC9BEE8 		.ascii	"n\311\276\350y\262\015\275\226lM?K\266\245\237'\373"
 225      79B20DBD 
 225      966C4D3F 
 225      4BB6A59F 
 225      27FB
 226 0087 A45F242B 		.ascii	"\244_$+\351\365\177S\271\304p\361\033\330@y`\035\345"
 226      E9F57F53 
 226      B9C470F1 
 226      1BD84079 
 226      601DE5
 227 009a 3250DBE8 		.ascii	"2P\333\350Nf\022Y\214G\271j\013Eow\243\332<\356\257"
 227      4E661259 
 227      8C47B96A 
 227      0B456F77 
 227      A3DA3CEE 
 228 00af D08DF776 		.ascii	"\320\215\367v\215\"\2725Q<\204\275\265Q\366*\016c\317"
 228      8D22BA35 
 228      513C84BD 
 228      B551F62A 
 228      0E63CF
 229 00c2 14F7E10F 		.ascii	"\024\367\341\017\376\000\027\316b\016"
 229      FE0017CE 
 229      620E
 230              		.text
 231              		.section	.gnu.lto_.refs.3b389065dcbff3e1,"",%progbits
 232 0000 789C2588 		.ascii	"x\234%\210\321\025\000\020\014\304.G\025\253\330\177"
 232      D1150010 
 232      0CC42E47 
ARM GAS  /tmp/ccBWYvbe.s 			page 18


 232      15ABD87F 
 233 0010 3FF5245F 		.ascii	"?\365$_\211e\035}\020`\323\032\335\025\031t\015e\255"
 233      89651D7D 
 233      1060D31A 
 233      DD151974 
 233      0D65AD
 234 0023 F99AE55D 		.ascii	"\371\232\345]\312\241\013\021\353\000\242"
 234      CAA10B11 
 234      EB00A2
 235              		.text
 236              		.section	.gnu.lto_.decls.3b389065dcbff3e1,"",%progbits
 237 0000 789CAD5B 		.ascii	"x\234\255[\011t\024\325\232\256\245;IKX]\006G\237\204"
 237      097414D5 
 237      9AAEA53B 
 237      494B585D 
 237      06479F84 
 238 0014 373AA3EF 		.ascii	"7:\243\357\215\204\250\243\314\2343\012\006\217p\216"
 238      8D84A8A3 
 238      CC9C330A 
 238      068F708E 
 239 0024 719804DF 		.ascii	"q\230\004\337a\226cSt\212\244\237\235\356\330]!\360"
 239      61966353 
 239      748AA49F 
 239      9DEED85D 
 239      21F0
 240 0036 E6CCB108 		.ascii	"\346\314\261\010$\242\243\274\220\000\002\262\004\""
 240      24A2A3BC 
 240      900002B2 
 240      0422
 241 0044 88B84110 		.ascii	"\210\270A\020\211\022\260`0,\"$,A\210J\004\002\017|"
 241      8912B060 
 241      302C2224 
 241      2C41884A 
 241      04020F7C 
 242 0058 6CA26C4F 		.ascii	"l\242lO\311\374\367\277U\335U\325U\335U0uro\327r\357"
 242      C9FCF7BF 
 242      55DD55D5 
 242      55DD5530 
 242      75726FD7 
 243 006e 77FFF5DE 		.ascii	"w\377\365\336\377.\341\030\216\031\3173L\017\\\217>"
 243      FF2EE118 
 243      8E19CF33 
 243      4C0F5C8F 
 243      3E
 244 007f C330FD7D 		.ascii	"\3030\375}\014\343e\030\346qH\275!-\205\224\001\011"
 244      0CE36518 
 244      E67148BD 
 244      212D8594 
 244      0109
 245 0091 8A30052C 		.ascii	"\2120\005,\303<\013i\014\244\177\205T\004i,K\313\377"
 245      C33C0B69 
 245      0CA47F85 
 245      5404692C 
 245      4BCBFF
 246 00a4 0E7EFF0D 		.ascii	"\016~\377\015\322\277C\"W6\244\377\204{\001\222\010"
 246      D2BF4322 
 246      5736A4FF 
ARM GAS  /tmp/ccBWYvbe.s 			page 19


 246      847B0192 
 246      08
 247 00b5 29082904 		.ascii	")\010)\004\251\034R\024R%\244)\220\246Cz\035R\035\244"
 247      A91C5214 
 247      5225A429 
 247      90A6437A 
 247      1D521DA4 
 248 00c9 4CA8D300 		.ascii	"L\250\323\000\277\313 \275\005i\025\2443\220\316\223"
 248      BFCB20BD 
 248      056915A4 
 248      3390CE93 
 249 00d9 6F1C63B8 		.ascii	"o\034c\270\010.y\265L\245\221\\\254\372\236Uq\364\027"
 249      082E79B5 
 249      4CA5915C 
 249      ACFA9E55 
 249      71F417
 250 00ec A1A52FFC 		.ascii	"\241\245/\374\236\204\264\001R\037\225FBo\177\000\272"
 250      9E84B401 
 250      521F9546 
 250      426F7F00 
 250      BA
 251 00fd 954BF01A 		.ascii	"\225K\360\032\203w\327 M\200t\033\274\277\035R\231\212"
 251      8377D720 
 251      4D80741B 
 251      BCBF1D52 
 251      998A
 252 010f E753B1EE 		.ascii	"\347S\261\356\200wwB\272\233\243\374\020\276\356\203"
 252      80777742 
 252      BA9BA3FC 
 252      10BEEE83 
 253 011f FBFB39CA 		.ascii	"\373\3739\312'\241\355y6\231\016\"\213_\303\357\177"
 253      27A1ED79 
 253      36990E22 
 253      8B5FC3EF 
 253      7F
 254 0130 B3091A9A 		.ascii	"\263\011\032\232\011.<71T\006D\3265:\032\210|\177\313"
 254      092E3C37 
 254      31540644 
 254      D6353A1A 
 254      887C7FCB 
 255 0144 51BA357A 		.ascii	"Q\2725z\377\036\322\203\220\374\220\306\253\264\377"
 255      FF1ED283 
 255      90FC90C6 
 255      ABB4FF
 256 0153 81C89B4B 		.ascii	"\201\310\233K\350\251\232\245\362\231\300%t6\223\245"
 256      E8A99AA5 
 256      F299C025 
 256      743693A5 
 257 0163 3C6ABA23 		.ascii	"<j\272#\344\215\344\250\256EU/z\336\002\220J \375\236"
 257      E48DE4A8 
 257      AE45552F 
 257      7ADE0290 
 257      4A20FD9E 
 258 0177 A3FAD278 		.ascii	"\243\372\322x\324\364\206:\260\340\223\350\3737\014"
 258      D4F4863A 
 258      B0E093E8 
 258      FB370C
ARM GAS  /tmp/ccBWYvbe.s 			page 20


 259 0186 E549E393 		.ascii	"\345I\343\223\360\370\204\312#\341\257Y\225\203\306"
 259      F0F884CA 
 259      23E1AF59 
 259      9583C6
 260 0195 DF0AB85F 		.ascii	"\337\012\270_\016\251\014\356=\244.\334\277\013)\014"
 260      0EA90CEE 
 260      3DA42EDC 
 260      BF0B290C 
 261 01a5 CF8DF01C 		.ascii	"\317\215\360\034\341\214vV\017\351,\221\275*\233\376"
 261      E18C7656 
 261      0FE92C91 
 261      BD2A9BFE 
 262 01b5 3A59F0AA 		.ascii	":Y\360\252<\322\361\377\"|\233\310\322\362k\340w#\244"
 262      3CD2F1FF 
 262      227C9BC8 
 262      D2F26BE0 
 262      7723A4
 263 01c8 F5AAED13 		.ascii	"\365\252\355\023\036\242\360}\022G\355\323\254w\275"
 263      1EA2F07D 
 263      1247EDD3 
 263      AC77BD
 264 01d7 3C5E57ED 		.ascii	"<^W\355\334\313$\333\257Y6\275\230We\271Jn\250\221G"
 264      DCCB24DB 
 264      AF5936BD 
 264      985765B9 
 264      4A6EA891 
 265 01ec 6DEF6378 		.ascii	"m\357cx\030\300\314\222\341\312\331\016\"\033\307\012"
 265      18C0CC92 
 265      E1CAD90E 
 265      221BC70A 
 266 01fc 6C1F1FD3 		.ascii	"l\037\037\323\340\301\273l\0373\022\252\336\307\274"
 266      E0C1BB6C 
 266      1F3312AA 
 266      DEC7BC
 267 020b 25CBB55D 		.ascii	"%\313\265]\335K~%{\004\266\221\035\000\012\370;\026"
 267      DD4B7E25 
 267      7B04B691 
 267      1D000AF8 
 267      3B16
 268 021d 24FD0E54 		.ascii	"$\375\016T\253\005\240\277f\222\257\264\250\034\363"
 268      AB05A0BF 
 268      6692AFB4 
 268      A81CF3
 269 022c 180B9EF3 		.ascii	"\030\013\236\3636\300\011\354\012\3667\264\031\271\253"
 269      36C009EC 
 269      0AF637B4 
 269      19B9AB
 270 023b BEE69B2A 		.ascii	"\276\346\233*v\252,\263\364\033\243~\265\270\0063\015"
 270      76AA2CB3 
 270      F41BA37E 
 270      B5B80633 
 270      0D
 271 024c 5041B9BC 		.ascii	"PA\271\274s!+7la-Z\034\2565\230\225`\243\372\364v\217"
 271      73212B37 
 271      6C612D5A 
 271      1CAE3598 
 271      9560A3FA 
ARM GAS  /tmp/ccBWYvbe.s 			page 21


 272 0263 2C6709EC 		.ascii	",g\011\354\273\310\310\004\326\320\200\012\3220\334"
 272      BBC8C804 
 272      D6D0800A 
 272      D230DC
 273 0272 0E85239E 		.ascii	"\016\205#\236'\260\037$\221\335\272G#\373\003\007dW"
 273      27B01F24 
 273      91DDBA47 
 273      23FB0307 
 273      6457
 274 0284 29EDAF2E 		.ascii	")\355\257.\272\223\220m\320\005\025\257\332n\216\326"
 274      BA93906D 
 274      D00515AF 
 274      DA6E8ED6 
 275 0294 AE07EB09 		.ascii	"\256\007\353\011l\023\024\326\301r\3144V\243\305\252"
 275      6C1314D6 
 275      C172CC34 
 275      56A3C5AA 
 276 02a4 8A7A4B2F 		.ascii	"\212zK/\265\200\221\206\275;\263k\005\212\31313\\\203"
 276      B5809186 
 276      BD3BB36B 
 276      058ACB31 
 276      335C83
 277 02b7 E558B1C7 		.ascii	"\345X\261\307\250\304&$$\260\253\331\373 _\303\016\206"
 277      A8C42624 
 277      24B0ABD9 
 277      FB205FC3 
 277      0E86
 278 02c9 FC23C8E3 		.ascii	"\374#\310\343\027\0076\254Y\201\225\264\323\263pu\347"
 278      170736AC 
 278      598195B4 
 278      D3B37075 
 278      E7
 279 02da 4214A38F 		.ascii	"B\024\243\217\231\221\020#c\311\202j\000\007_\335\332"
 279      99911023 
 279      63C9826A 
 279      00075FDD 
 279      DA
 280 02eb CE4E434D 		.ascii	"\316NCM5C5\216\331\305\032m\3009\324\241\231\373/\260"
 280      3543358E 
 280      D9C51A6D 
 280      C039D4A1 
 280      99FB2FB0 
 281 02ff 5508B501 		.ascii	"U\010\265\001\241\326rF(\201\315\3641\272\013\237\265"
 281      A1D67246 
 281      2881CDF4 
 281      31BA0B9F 
 281      B5
 282 0310 02040F3F 		.ascii	"\002\004\017?\2537d8\354\313\270-\3161-\234I\204V\212"
 282      AB376438 
 282      ECCBB82D 
 282      CE312D9C 
 282      4984568A 
 283 0324 CBB21321 		.ascii	"\313\262\023!1\335o\353\330\372i\362\366\241\232\365"
 283      31DD6FEB 
 283      D8FA69F2 
 283      F6A19AF5 
 284 0334 67D8F1CD 		.ascii	"g\330\361\3151\233\2611\305l\376\033;vi\346\25782\377"
ARM GAS  /tmp/ccBWYvbe.s 			page 22


 284      319BB131 
 284      C56CFE1B 
 284      3B7669E6 
 284      AF3832FF 
 285 0348 753BDF48 		.ascii	"u;\337H6\177\253N\203\323\332\277\027\333\277\202\355"
 285      367FAB4E 
 285      83D3DABF 
 285      17DBBF82 
 285      ED
 286 0359 7F6E6E7F 		.ascii	"\177nn\177\376\341\257\253\325\366?w\324\376'\007g["
 286      FEE1AFAB 
 286      D5F63F77 
 286      D4FE2707 
 286      675B
 287 036b B9DFE3B7 		.ascii	"\271\337\343\267\247\322\367\306\216\023\027\324Vv\240"
 287      A7D2F7C6 
 287      8E1317D4 
 287      5676A0
 288 037a CF34F166 		.ascii	"\3174\361f}?\321\313\250\300'L.\273\201\327\350\277"
 288      7D3FD1CB 
 288      A8C0274C 
 288      2EBB81D7 
 288      E8BF
 289 038c 21970546 		.ascii	"!\227\005F\317\316a\353\210\2624\0326\271F\3141H\242"
 289      CFCE61EB 
 289      88B2341A 
 289      36B946CC 
 289      3148A2
 290 039f E5207602 		.ascii	"\345 v\002\024l\263\0230[[\252R6\351\301\266\272\006"
 290      146CB313 
 290      305B5BAA 
 290      5236E9C1 
 290      B6BA06
 291 03b2 3352D6A6 		.ascii	"3R\326\246\007\333\346\004\254\237=e{\365`;]\203\031"
 291      07DBE604 
 291      AC9F3D65 
 291      7BF5603B 
 291      5D8319
 292 03c5 29DBAF07 		.ascii	")\333\257\007\373\322\011\330@{\312:\364`\355\256\301"
 292      FBD209D8 
 292      407BCA3A 
 292      F460EDAE 
 292      C1
 293 03d6 8C947DA5 		.ascii	"\214\224}\245\007;\340\004,\307\202\262\370e7\024me"
 293      073BE004 
 293      2CC782B2 
 293      F8653714 
 293      6D65
 294 03e8 E376CE31 		.ascii	"\343v\3161_\361Z\237\340\322\246\231\004F'\357\266\023"
 294      5FF15A9F 
 294      E0D2A699 
 294      044627EF 
 294      B613
 295 03fa 33F00D9D 		.ascii	"3\360\015\235\330\221e\264\023\323\306\263#N\020S\030"
 295      D89165B4 
 295      13D3C6B3 
 295      234E1053 
ARM GAS  /tmp/ccBWYvbe.s 			page 23


 295      18
 296 040b 4CED17BA 		.ascii	"L\355\027\272\301\261\3335\230Q-\213\011\230\241\257"
 296      C1B1DB35 
 296      98512D8B 
 296      0998A1AF 
 297 041b 514799AE 		.ascii	"QG\231\256\345\312\300y\211\356.K\303\"\341\033\355"
 297      E5CAC079 
 297      89EE2E4B 
 297      C322E11B 
 297      ED
 298 042c DB20C2E2 		.ascii	"\333 \302\342\342\205\345\201\003\255\313\012\354\011"
 298      E285E581 
 298      03ADCB0A 
 298      EC09
 299 043a 1C644FB2 		.ascii	"\034dO\262\2768\025\364^\273\353\301\310\371{\336\024"
 299      BE3815F4 
 299      5EBBEBC1 
 299      C8F97BDE 
 299      14
 300 044b 186A57BA 		.ascii	"\030jW\272\252v\226p\\o\011\347\235\210)\205+\264\331"
 300      AA769670 
 300      5C6F09E7 
 300      9D882985 
 300      2BB4D9
 301 045e 8949A991 		.ascii	"\211I\251\221g\260S\327\334\2352\264\333\330qv\251:"
 301      67B053D7 
 301      DC9D32B4 
 301      DBD87176 
 301      A93A
 302 0470 1CFF1987 		.ascii	"\034\377\031\207\343\237x\313\221\335\021\330\241\231"
 302      E39F78CB 
 302      91DD11D8 
 302      A199
 303 047e 3F6F56C3 		.ascii	"?oV\303\204s\010&{\314}\275\3174\266\373\214\203\265"
 303      84730826 
 303      7BCC7DBD 
 303      CF34B6FB 
 303      8C83B5
 304 0491 CF97B8E9 		.ascii	"\317\227\270\351\321.\243\364\035\327\261\223\376\367"
 304      D12EA3F4 
 304      1DD7B193 
 304      FEF7
 305 049f 7AE9BFE2 		.ascii	"z\351\277\342q+}\263\017]\252c/V\311\363\206\352\354"
 305      712B7DB3 
 305      0F5DAA63 
 305      2F56C9F3 
 305      86EAEC
 306 04b2 2DA57142 		.ascii	"-\245qB4\265s\323?c8\375#\012\251\326c)q\007@\207f\276"
 306      34B573D3 
 306      3F6338FD 
 306      230AA9D6 
 306      63297107 
 307 04ca 9F8B4097 		.ascii	"\237\213@\227\021h~\222\264Y\223\264Y\243\344\342\006"
 307      11687E92 
 307      B45993B4 
 307      59A3E4E2 
 307      06
ARM GAS  /tmp/ccBWYvbe.s 			page 24


 308 04db ABDAAB9B 		.ascii	"\253\332\253\233\262\034\263\324,:\003\211)z\312\270"
 308      B21CB3D4 
 308      2C3A0389 
 308      297ACAB8 
 309 04eb E87E762F 		.ascii	"\350~v/\272WU\321\375\214\034\277\235\304\361e\227,"
 309      BA5755D1 
 309      FD8C1CBF 
 309      9DC4F165 
 309      972C
 310 04fd 73CC87AE 		.ascii	"s\314\207\256\331\3102\262Q\323s\003l|F\331\230\312"
 310      D9C832B2 
 310      51D37303 
 310      6C7C46D9 
 310      98CA
 311 050f 1136D6FD 		.ascii	"\0216\326\375?\260\261\3215\033\375tl\340dl6\035\014"
 311      3FB0B1D1 
 311      351BFD74 
 311      6CE0646C 
 311      361D0C
 312 0522 6E65EA52 		.ascii	"ne\352RG\264\204\236\032\356VC4\251\034\330\315\346"
 312      47B4849E 
 312      1AEE5643 
 312      34A91CD8 
 312      CDE6
 313 0534 D0D7E9A7 		.ascii	"\320\327\351\247\237\027w\353& \262\243\011\310\316"
 313      9F1777EB 
 313      2620B2A3 
 313      09C8CE
 314 0543 F804E415 		.ascii	"\370\004\344\025\024\331\026+\247q\004uh\367\236v\265"
 314      14D9162B 
 314      A7710475 
 314      68F79E76 
 314      B5
 315 0554 C77B0DA1 		.ascii	"\307{\015\241\266'I?\303$\374\014\243\360\341\221\264"
 315      B627493F 
 315      C324FC0C 
 315      A3F0E191 
 315      B4
 316 0565 7505FB99 		.ascii	"u\005\373\231\227\3247\344!\223\271\341z\034\323\206"
 316      97D437E4 
 316      2193B9E1 
 316      7A1CD386 
 317 0575 641001DE 		.ascii	"d\020\001\336H\224K\026\001\216\327k\2439\225\321\301"
 317      48944B16 
 317      018ED76B 
 317      A33995D1 
 317      C1
 318 0586 9B42AC52 		.ascii	"\233B\254R\226\374\221N\2671\"\347\230\256\233\204k"
 318      96FC914E 
 318      B73122E7 
 318      98AE9B84 
 318      6B
 319 0597 D983C1C1 		.ascii	"\331\203\301\301R\014\016N\336\034\267\312\301=\013"
 319      520C0E4E 
 319      DE1CB7CA 
 319      C13D0B
 320 05a6 55DA28AF 		.ascii	"U\332(\257gn\222\270\253\177\264XZ\260\230[\215\327"
ARM GAS  /tmp/ccBWYvbe.s 			page 25


 320      676E92B8 
 320      AB7FB458 
 320      5AB0985B 
 320      8DD7
 321 05b8 B0C84219 		.ascii	"\260\310B\031\214\226\330\354\002\3164\265\232s\272"
 321      8C96D8EC 
 321      02CE34B5 
 321      9A73BA
 322 05c7 AB46B531 		.ascii	"\253F\2651\362-\275Gtv\373\344\272l\272\300\"\260\037"
 322      F22DBD47 
 322      7476FBE4 
 322      BA6CBAC0 
 322      22B01F
 323 05da B39C8A6A 		.ascii	"\263\234\212j5\330\246\027\316\267\342\366\241n|\253"
 323      35D8A617 
 323      CEB7E2F6 
 323      A16E7CAB 
 324 05ea 55F3AD25 		.ascii	"U\363\255%(\313e^\263C\020G\271q\313^\351e\215\3548"
 324      28CB655E 
 324      B3431047 
 324      B971CB5E 
 324      E9658DEC 
 325 05ff 9D20C52F 		.ascii	"\235 \305/\273^h>\247\033\312\337\363\336\224\011@\017"
 325      BB5E683E 
 325      A71BCADF 
 325      F3DE9409 
 325      400F
 326 0611 D8FA1675 		.ascii	"\330\372\026u\240tF \263\372\360\225c\326R\201\231\255"
 326      A0744620 
 326      B3FAF095 
 326      63D65281 
 326      99AD
 327 0623 E0EAF7DB 		.ascii	"\340\352\367\333_V\247\276+\034Y\301O\026V\260\342\006"
 327      5F56A7BE 
 327      2B1C59C1 
 327      4F1656B0 
 327      E206
 328 0635 AD004CFA 		.ascii	"\255\000L\372\324\016\026\341h8\376u\234H\227ZP\341"
 328      D40E16E1 
 328      6838FE75 
 328      9C48975A 
 328      50E1
 329 0647 7E16DD0A 		.ascii	"~\026\335\012\206\332\227r\250\233\214\014\037pd\351"
 329      86DA9772 
 329      A89B8C0C 
 329      1F7064E9 
 330 0657 F0689269 		.ascii	"\360h\222iQ\311\350L+!F\201]\311\221\370\374\035\216"
 330      51C9E84C 
 330      2B214681 
 330      5DC991F8 
 330      FC1D8E
 331 066a 2C82ADC2 		.ascii	",\202\255\302\374=N\267\024fg\026\357'\314B`\327\232"
 331      FC3D4EB7 
 331      14666716 
 331      EF27CC42 
 331      60D79A
 332 067d C5E87496 		.ascii	"\305\350t\226\224\266\231\345z\353;}\223\326W\327\272"
ARM GAS  /tmp/ccBWYvbe.s 			page 26


 332      94B699E5 
 332      7AEB3B7D 
 332      93D657D7 
 332      BA
 333 068e DB335F56 		.ascii	"\3333_V\246\363.V\345v~\2569\356Zt\334\013I\322\335"
 333      A6F32E56 
 333      E5767EAE 
 333      39EE5A74 
 333      DC0B49D2 
 334 06a3 608E239C 		.ascii	"`\216#\234,\216\375r\243\254\304/\216\231\236\341 \256"
 334      2C8EFD72 
 334      A3ACC42F 
 334      8E999EE1 
 334      20AE
 335 06b5 CEB1907A 		.ascii	"\316\261\220z|4\353\230\355p\201M\225\306\362\023\012"
 335      7C34EB98 
 335      ED70814D 
 335      95C6F213 
 335      0A
 336 06c6 5DA4FE04 		.ascii	"]\244\376\004-\255&\303z\225:\305:\335\034\254\322b"
 336      2DAD26C3 
 336      7A953AC5 
 336      3ADD1CAC 
 336      D262
 337 06d8 76E3FA9A 		.ascii	"v\343\372\232\370:]\213\0037\256R\326\276\252\215\233"
 337      F83A5D8B 
 337      0337AE52 
 337      D6BEAA8D 
 337      9B
 338 06e9 74F5995A 		.ascii	"t\365\231Z`Kj\013L)O\203\012[t\016\262\011\035\3443"
 338      604B6A0B 
 338      4C294F83 
 338      0A5B740E 
 338      B2091DE4 
 339 06fe BD5370CC 		.ascii	"\275Sp\314r'\262\277\337\316\024\241\033\332Kw\007\264"
 339      7227B2BF 
 339      DFCE14A1 
 339      1BDA4B77 
 339      07B4
 340 0710 F5FEF7CD 		.ascii	"\365\376\367\315xV\035\221\001O\257\313*\245v\037\016"
 340      78561D91 
 340      014FAFCB 
 340      2AA5761F 
 340      0E
 341 0721 FCD4463F 		.ascii	"\374\324F?vB\334P{\260%\365\232p\211\373q\314gN\360"
 341      7642DC50 
 341      7BB025F5 
 341      9A7089FB 
 341      71CC674E 
 342 0736 86D9315B 		.ascii	"\206\3311[\245\254\337\247\005\022te{\233k<#}\007\352"
 342      A5ACDFA7 
 342      05127465 
 342      7B9B6B3C 
 342      237D07EA 
 343 074a 0D41539B 		.ascii	"\015AS\233\023\270\341\216u\237\330\372\201n\021\027"
 343      13B8E18E 
 343      759FD8FA 
ARM GAS  /tmp/ccBWYvbe.s 			page 27


 343      816E1117 
 344 075a 2F56E10E 		.ascii	"/V\341\016\301z\314?\303\374\010\346\337a~\014\363\323"
 344      C17ACC3F 
 344      C3FC08E6 
 344      DF617E0C 
 344      F3D3
 345 076c 985FC4FC 		.ascii	"\230_\304\374/\230\313\330\231Vc\336\214\371f\314\377"
 345      2F98CBD8 
 345      995663DE 
 345      8CF966CC 
 345      FF
 346 077d 17F3CF31 		.ascii	"\027\363\3171\337\206\371\216t\035\256\266Gt\254\213"
 346      DF86F98E 
 346      741DAEB6 
 346      4774AC8B 
 347 078d 43F75B86 		.ascii	"C\367[\206\243MG\206\271+jbM\313\274\246\255\031\273"
 347      A34D4786 
 347      B92B6A62 
 347      4DCBBCA6 
 347      AD19BB
 348 07a0 5E7669A2 		.ascii	"^vi\242\236a\370\351\317\324\342\3603\257\017]pQ\353"
 348      9E61F8E9 
 348      CFD4E2F0 
 348      33AF0F5D 
 348      7051EB
 349 07b3 CF8B0F41 		.ascii	"\317\213\017A\267\252\000\273\271\376xg\210\210\260"
 349      B7AA00BB 
 349      B9FE7867 
 349      8888B0
 350 07c2 845D937B 		.ascii	"\204]\223{\270\304\252N\266/q\243\215T"
 350      B8C4AA4E 
 350      B62F71A3 
 350      8D54
 351 07d0 76F5BEE4 		.ascii	"v\365\276\344\\\221:J\253\357S\353\267\273\246t\257"
 351      5C913A4A 
 351      ABEF53EB 
 351      B7BBA674 
 351      AF
 352 07e1 0DA55969 		.ascii	"\015\245Yi(msGis\\\250\177\245\002\354wM\352\001\033"
 352      286D7347 
 352      69735CA8 
 352      7FA502EC 
 352      774DEA01 
 353 07f6 52EF4843 		.ascii	"R\357HC\352>\033R\357`\346\250-\313\254d\273\013A\020"
 353      EA3E1B52 
 353      EF60E6A8 
 353      2DCBAC64 
 353      BB0B4110 
 354 080a 0E72B40D 		.ascii	"\016r\264\015\036w\301\031u\203\3419>\245Y\223r\035"
 354      1E77C119 
 354      7583E139 
 354      3EA55993 
 354      721D
 355 081c 9CC142AD 		.ascii	"\234\301B\255$\3250\334$\252~\032\010\247\202\034v-"
 355      24D530DC 
 355      24AA7E1A 
 355      08A7821C 
ARM GAS  /tmp/ccBWYvbe.s 			page 28


 355      762D
 356 082e A94E1B49 		.ascii	"\251N\033I\261i\310=\224\220\324 f\261\254\234\357Z"
 356      B169C83D 
 356      9490D420 
 356      66B1AC9C 
 356      EF5A
 357 0840 7BB9AB9A 		.ascii	"{\271\253\232\235\005\243\250|\236\214\355T\024\034"
 357      9D05A3A8 
 357      7C9E8CED 
 357      54141C
 358 084f F366A6D1 		.ascii	"\363f\246\3219\357e\032e\271Nn\222e\237\332m5b\211\257"
 358      39EF651A 
 358      65B94E6E 
 358      92659FDA 
 358      6D356289 
 359 0864 B941968D 		.ascii	"\271A\226\215i[6\177\313,',\311+e\036\025\300\250ut"
 359      695B367F 
 359      CB2C272C 
 359      C92B651E 
 359      15C0A875 
 360 0879 97C07EC3 		.ascii	"\227\300~\303\031\216\204P\312\224u\2553\241\233\254"
 360      198E8450 
 360      CA9475AD 
 360      33A19BAC 
 361 0889 527A7A9E 		.ascii	"Rzz\236`\234k\362\250\252\311\204\366`\26431cM\326w"
 361      609C6BF2 
 361      A8AAC984 
 361      F660B433 
 361      31634DD6 
 362 089e 66B28E59 		.ascii	"f\262\216Y\222\325\322\372ZV\355\324\256\236\236A\316"
 362      92D5D2FA 
 362      5A56EDD4 
 362      AE9E9E41 
 362      CE
 363 08af 893A6141 		.ascii	"\211:aAT\2635Q\265F\242\272\315D\235\264\"\012\365\""
 363      54B33551 
 363      B546A2BA 
 363      CD449DB4 
 363      220AF522 
 364 08c3 43702673 		.ascii	"Cp&sT\002\034\263\337\021\317\247\314\360\247\223\341"
 364      54021CB3 
 364      DF11CFA7 
 364      CCF0A793 
 364      E1
 365 08d4 BB6ABBD6 		.ascii	"\273j\273\326\366\234\177p^\223<\375\025\371z\317K\254"
 365      F69C7F70 
 365      5E933CFD 
 365      15F97ACF 
 365      4BAC
 366 08e6 73BECF98 		.ascii	"s\276\317\230\335\352$.R\351\374\012\242\260,3\241\264"
 366      DDEA242E 
 366      52E9FC0A 
 366      A2B02C33 
 366      A1B4
 367 08f8 E8394B4A 		.ascii	"\3509KJ\352Z\217g\316\227\267L\007f_b4^\347\332@\\\260"
 367      EA5A8F67 
 367      CE97B74C 
ARM GAS  /tmp/ccBWYvbe.s 			page 29


 367      07665F62 
 367      345EE7DA 
 368 090f 8458DC78 		.ascii	"\204X\334xhT\034\3029/\027\315\274\220Q'\376\360\012"
 368      68541CC2 
 368      392F17CD 
 368      BC905127 
 368      FEF00A
 369 0922 7548136F 		.ascii	"uH\023o_\330\020v\311\222\260\013+v\334=wZC\334\023"
 369      5FD81076 
 369      C992B00B 
 369      2B76DC3D 
 369      775A43DC 
 370 0937 2973553E 		.ascii	")sU>k\214+\226\030K\032\333G\315\267\323\024!\322\216"
 370      6B8C2B96 
 370      184B1ADB 
 370      47CDB7D3 
 370      1421D28E 
 371 094b BD6B29D8 		.ascii	"\275k)\330S\347\033r\215|\377\312Dhl\350\306\264\010"
 371      53E71B72 
 371      8D7CFFCA 
 371      44686CE8 
 371      C6B408
 372 095e FBCDDBC9 		.ascii	"\373\315\333\311i\226_0\216\233m\242\3349\314\241\231"
 372      69965F30 
 372      8E9B6DA2 
 372      DC39CCA1 
 372      99
 373 096f EB8761A4 		.ascii	"\353\207a\244 \363\344\375b\2379R\340Ms\026\3368g\341"
 373      20F3E4FD 
 373      629F3952 
 373      E04D7316 
 373      DE3867E1 
 374 0983 7D899B9E 		.ascii	"}\211\233\236\036\236q]\330\244\307\267mt0\215\267\366"
 374      1E9E715D 
 374      D8A4C7B7 
 374      6D74308D 
 374      B7F6
 375 0995 16C5CE5B 		.ascii	"\026\305\316[\262\230\227q\375\267Z\236\312\276\030"
 375      B2989771 
 375      FDB75A9E 
 375      CABE18
 376 09a4 1781CDF6 		.ascii	"\027\201\315\366\024L\260\370,r\022\301g\273\271D\012"
 376      144CB0F8 
 376      2C7212C1 
 376      67BBB944 
 376      0A
 377 09b5 302AF9F4 		.ascii	"0*\371\364^\273K\261\273Q\315\233TM\324ex\320\177Tw"
 377      5EBB4BB1 
 377      BB51CD9B 
 377      544DD465 
 377      78D07F54 
 378 09ca A24C12D9 		.ascii	"\242L\022\331b#\221\327\254$\242,\374\3425\231\265\354"
 378      622391D7 
 378      AC24A22C 
 378      FCE23599 
 378      B5EC
 379 09dc 3409A976 		.ascii	"4\011\251vt\3164\323I\012\247\241\253\323\206\256Y\226"
ARM GAS  /tmp/ccBWYvbe.s 			page 30


 379      74CE34D3 
 379      490AA7A1 
 379      ABD386AE 
 379      5996
 380 09ee 9A5AD278 		.ascii	"\232Z\322x\350\361Ev\336B\202O;\322\352\315\244=av\026"
 380      E8F14576 
 380      DE42824F 
 380      3BD2EACD 
 380      A43D6176 
 381 0a03 0793F335 		.ascii	"\007\223\3635\037~\367O\037\312r?\201\235\213f~\340"
 381      1F7EF74F 
 381      1FCA723F 
 381      819D8B66 
 381      7EE0
 382 0a15 16B3997B 		.ascii	"\026\263\231{Mf\3565Z\256\327\227\270I\034s\211\323"
 382      4D66EE35 
 382      5AAED797 
 382      B8491C73 
 382      89D3
 383 0a27 D4CCEA35 		.ascii	"\324\314\3525i:\222A\206\371\024\264-i\334<p%\322\366"
 383      693A9241 
 383      86F914B4 
 383      2D69DC3C 
 383      7025D2F6 
 384 0a3b 268F4B43 		.ascii	"&\217KCI\264up\246`\335\024\012\231\244\223\254\252"
 384      49B47570 
 384      A660DD14 
 384      0A99A493 
 384      ACAA
 385 0a4d E3B758AB 		.ascii	"\343\267X\253j\211QU\277f\226\312\312^\210S\332\326"
 385      6A895155 
 385      BF6696CA 
 385      CA5E8853 
 385      DAD6
 386 0a5f E16C1F66 		.ascii	"\341l\037f\237==\354 m\026q)\216b;;H\340\021\254\206"
 386      9F3D3DEC 
 386      206D1671 
 386      298E623B 
 386      3B48E011 
 387 0a75 3A329CFD 		.ascii	":2\234\375\366\035T\273|\245\207\355\341Q\200\034s-"
 387      F61D54BB 
 387      7CA587ED 
 387      E151801C 
 387      732D
 388 0a87 2D54A311 		.ascii	"-T\243\021j5\351\263O\335\325\\\225\200\322\242c\335"
 388      6A35E9B3 
 388      4FDDD55C 
 388      9580D2A2 
 388      63DD
 389 0a99 694025D5 		.ascii	"i@%\325\021\230\344\303,j\251\206x<}\033\276N\000c\005"
 389      1198E4C3 
 389      2C6AA986 
 389      783C7D1B 
 389      BE4E0063 
 390 0aae 9B5230FD 		.ascii	"\233R0\375\343\335\306\222+y\353X\322c\320\212V\212"
 390      E3DDC692 
 390      2B79EB58 
ARM GAS  /tmp/ccBWYvbe.s 			page 31


 390      D263D08A 
 390      568A
 391 0ac0 2CDCF432 		.ascii	",\334\3642\311)\231\212w\214\202\002W\253\2579\260\215"
 391      C929998A 
 391      778C8202 
 391      57ABAF39 
 391      B08D
 392 0ad2 AD931B34 		.ascii	"\255\223\0334\375Y-\015fj0\345\011C\254\276\326\306"
 392      FD592D0D 
 392      666A30E5 
 392      0943ACBE 
 392      D6C6
 393 0ae4 D383853C 		.ascii	"\323\203\205<Yhx\271\227\321h\322\302pL=V\371\200OZ"
 393      596878B9 
 393      97D168D2 
 393      C2704C3D 
 393      56F9804F 
 394 0af9 B3F9B646 		.ascii	"\263\371\266F;Z\310;Yz\235\325i{\"\262+.\200\273\023"
 394      3B5AC83B 
 394      597A9DD5 
 394      697B22B2 
 394      2B2E80BB 
 395 0b0e 94777F7F 		.ascii	"\224w\177\177\236R\336\204\224/JO\271\021\206cVa\225"
 395      9E52DE84 
 395      942F4A4F 
 395      B9118663 
 395      566195
 396 0b21 75C9949F 		.ascii	"u\311\224\237\321Ne\255sD\371\372\203\372\325\032m\331"
 396      D14E65AD 
 396      7344F9FA 
 396      83FAD51A 
 396      6DD9
 397 0b33 98D44DB1 		.ascii	"\230\324M\261Zc\260F=^\225\322LO\3034c0\267\311\014"
 397      5A63B046 
 397      3D5E95D2 
 397      4C4FC334 
 397      6330B7C9 
 398 0b48 E66AD158 		.ascii	"\346j\321X\326\016J\321\263o\337\272\006\3131P\266\357"
 398      D60E4AD1 
 398      B36FDFBA 
 398      06CB3150 
 398      B6EF
 399 0b5a 0DE3BA5A 		.ascii	"\015\343\272Z\227\023\274\024\247U\324\023I\024\354"
 399      9713BC14 
 399      A755D413 
 399      4914EC
 400 0b69 A86B3023 		.ascii	"\250k0#q\207\017\352\216\2764\307u\233\002\314\352L"
 400      71870FEA 
 400      8EBE34C7 
 400      759B02CC 
 400      EA4C
 401 0b7b 87D5A537 		.ascii	"\207\325\2457\022\201]\317\223U\237f\236\254\315|\202"
 401      12815DCF 
 401      93559F66 
 401      9EACCD7C 
 401      82
 402 0b8c F9A7986F 		.ascii	"\371\247\230o\300\274\005\363\215\274a=P\211\373\210"
ARM GAS  /tmp/ccBWYvbe.s 			page 32


 402      C0BC05F3 
 402      8DBC613D 
 402      5089FB88 
 403 0b9c A529A633 		.ascii	"\245)\2463\011Y\231o\357\034\343\265\352\331\011\337"
 403      0959996F 
 403      EF1CE3B5 
 403      EAD909DF 
 404 0bac F8FCA2E2 		.ascii	"\370\374\242\342E\337\330\214\276\321\232\3367\014("
 404      45DFD88C 
 404      BED19ADE 
 404      370C28
 405 0bbb 301E618D 		.ascii	"0\036a\215\255I\256\321\332\241\271\306V\007\256Q\245"
 405      AD49AED1 
 405      DAA1B9C6 
 405      5607AE51 
 405      A5
 406 0bcc 7C33D7D9 		.ascii	"|3\327\331\246\236\261\213\323\242\335\037\324C\317"
 406      A69EB18B 
 406      D3A2DD1F 
 406      D443CF
 407 0bdb 3B908B8B 		.ascii	";\220\213\213\351\2710\302p\314\264lReW2\033\255\032"
 407      E9B930C2 
 407      70CCB46C 
 407      52655732 
 407      1BAD1A
 408 0bee 1BBB1CB1 		.ascii	"\033\273\034\261\261h\256f\367\333\371\304z\362\256"
 408      B168AE66 
 408      F7DBF9C4 
 408      7AF2AE
 409 0bfd D4D665AB 		.ascii	"\324\326e\253\316*eq\007\232*\005[\347\032\314h\367"
 409      CE2A6571 
 409      079A2A05 
 409      5BE71ACC 
 409      68F7
 410 0c0f 6B3A160E 		.ascii	"k:\026\016\224\0336\263\361yA\234i\253)@\272\036\243"
 410      941B36B3 
 410      F179419C 
 410      69AB2940 
 410      BA1EA3
 411 0c22 4A69EA30 		.ascii	"Ji\3520\037gJ\033\316T\237S\350\322\343~\214f\026d\273"
 411      1F674A1B 
 411      CE549F53 
 411      E8D2E37E 
 411      8C661664 
 412 0c37 8D6638A6 		.ascii	"\215f8\246\321L\265\273\256\011t\372\345rm\363\035\027"
 412      D14CB5BB 
 412      AE0974FA 
 412      E5726DF3 
 412      1D17
 413 0c49 50563A01 		.ascii	"PV:\001\264\352\233\254.\275\021\011\354n\354\001\366"
 413      B4EA9BAC 
 413      2EBD1109 
 413      EC6EEC01 
 413      F6
 414 0c5a A0A7B761 		.ascii	"\240\247\267a\336\216\371>\314\277\322\373\276]T@T\037"
 414      DE8EF93E 
 414      CCBFD2FB 
ARM GAS  /tmp/ccBWYvbe.s 			page 33


 414      BE5D5440 
 414      541F
 415 0c6c C7A6E6B4 		.ascii	"\307\246\346\264\365\206\315\351|\2629\271\0013\232"
 415      F586CDE9 
 415      7CB239B9 
 415      01339A
 416 0c7b D34F0673 		.ascii	"\323O\006s\022\330\275\274\011\317\2459\315~#\273m\274"
 416      12D8BDBC 
 416      09CFA539 
 416      CD7E23BB 
 416      6DBC
 417 0c8d 669BEF65 		.ascii	"f\233\357e\263.\301\372\245R\312V\235RZQ)\333P\005\207"
 417      B32EC1FA 
 417      A552CA56 
 417      9D525A51 
 417      29DB5005 
 418 0ca2 31EFC4FC 		.ascii	"1\357\304\374kcW\274.\333\324\025\033z>\253\201A/\036"
 418      6B6357BC 
 418      2EDBD415 
 418      1B7A3EAB 
 418      81412F1E 
 419 0cb6 5959DD09 		.ascii	"YY\335\011\262v\272#\326}I\241=X\027\366`-\331\226="
 419      B276BA23 
 419      D67D49A1 
 419      3D5817F6 
 419      602DD996 
 420 0ccb 58AA1DB1 		.ascii	"X\252\035\261/\260\312\261\344\030\345\272\326\203\035"
 420      2FB0CAB1 
 420      E418E5BA 
 420      D6831D
 421 0cda 4BDF834D 		.ascii	"K\337\203M\237\246\314_\260\"\321\021O\213\373u7k\037"
 421      9FA6CC5F 
 421      B022D111 
 421      4F8BFB75 
 421      376B1F
 422 0ced B81ACE48 		.ascii	"\270\032\316Hv\306\351pi\242\326\212;\246S\\7*\356\204"
 422      76C6E970 
 422      69A2D68A 
 422      3BA6535C 
 422      372AEE84 
 423 0d01 514DDD66 		.ascii	"QM\335f5Y\265\227b\007\355\223N-&\243\377\372s\312\214"
 423      3559B597 
 423      6207ED93 
 423      4E2D26A3 
 423      FFFA73CA 
 424 0d16 D760F8BF 		.ascii	"\327`\370\277\036+\300\234T\014|\240c`52\260\006\255"
 424      1E2BC09C 
 424      540C7CA0 
 424      63603532 
 424      B006AD
 425 0d29 4DC1FC08 		.ascii	"M\301\374\010\346\247\215,\375\030\327\276e$MP\377l"
 425      E6A78D2C 
 425      FD18D7BE 
 425      65244D50 
 425      FF6C
 426 0d3b 9A4B9109 		.ascii	"\232K\221\011\320ww\255\262\234\000\031f\320\311S\204"
 426      D07777AD 
ARM GAS  /tmp/ccBWYvbe.s 			page 34


 426      B29C0019 
 426      66D0C953 
 426      84
 427 0d4c B3EA44C5 		.ascii	"\263\352D\3050\265\270l&!\271\3369\323\034L\201\251"
 427      30B5B86C 
 427      2621B9DE 
 427      39D31C4C 
 427      81A9
 428 0d5e E195419F 		.ascii	"\341\225A\237V\311\262\211\004\362\337F\206I\230f\315"
 428      56C9B289 
 428      04F2DF46 
 428      86499866 
 428      CD
 429 0d6f 6095690E 		.ascii	"`\225i\016$\300\014\261m \3316O{\200A`\177\004\341\246"
 429      24C00CB1 
 429      6D20D936 
 429      4F7B8041 
 429      607F04E1 
 430 0d84 2D868B7E 		.ascii	"-\206\213~&\037Q\376\"\346\320\267\351\307\367_~\331"
 430      261F51FE 
 430      22E6D0B7 
 430      E9C7F75F 
 430      7ED9
 431 0d96 4E0F6A1C 		.ascii	"N\017j\034\307H\364\024v\241\227n\270?\3569\205p\246"
 431      C748F414 
 431      76A1976E 
 431      B83FEE39 
 431      8570A6
 432 0da9 31F4A8CD 		.ascii	"1\364\250\315\030\212\313\203\274i8\354AM\271!!\307"
 432      188ACB83 
 432      BC6938EC 
 432      414DB921 
 432      21C7
 433 0dbb 40426D2B 		.ascii	"@Bm+\016\011\327p<\256\356\355\000,E\027^\247\007\233"
 433      0E09D770 
 433      3CAEEEED 
 433      002C4517 
 433      5EA7079B 
 434 0dcf E91A2C27 		.ascii	"\351\032,'\311{\250\337\\F\277\271\202\276r\025\363"
 434      C97BA8DF 
 434      5C46BFB9 
 434      82BE7215 
 434      F3
 435 0de0 9F31BF6E 		.ascii	"\2371\277n\364\233\271\275\315\321\004U\252\016/\241"
 435      F49BB9BD 
 435      CDD10455 
 435      AA0E2FA1 
 436 0df0 7B263DA2 		.ascii	"{&=\242\265\016L\312\272h\303\037\301\237\3521\0043"
 436      B50E4CCA 
 436      BA68C31F 
 436      C19FEA31 
 436      0433
 437 0e02 09C8E146 		.ascii	"\011\310\341F\366u\216B+Y\027\023\330*\217\346\253\235"
 437      F6758E42 
 437      2B591713 
 437      D82A8FE6 
 437      AB9D
ARM GAS  /tmp/ccBWYvbe.s 			page 35


 438 0e14 FA635EBA 		.ascii	"\372c^\272G\216Y\332\333\344\272I(\323<\034s\017\263"
 438      478E59DA 
 438      DBE4BA49 
 438      28D33C1C 
 438      730FB3
 439 0e27 B6F72299 		.ascii	"\266\367\"\231\276y\204Y+\317P\300\007.\200\313\306"
 439      BE798459 
 439      2BCF50C0 
 439      072E80CB 
 439      C6
 440 0e38 F5FA5FCC 		.ascii	"\365\372_\3145y\236\014N\255\334\317S\252\210\233\267"
 440      35799E0C 
 440      4EADDCCF 
 440      53AA889B 
 440      B7
 441 0e49 B529FBB6 		.ascii	"\265)\373\266\221\036\023\374\374zO\017K\005\3001_\232"
 441      911E13FC 
 441      FC7A4F0F 
 441      4B05C031 
 441      5F9A
 442 0e5b 5B4DF6BB 		.ascii	"[M\366\273\031\036N\327\334pZ\223*\201\266\245\034\330"
 442      191E4ED7 
 442      DC705A93 
 442      2A81B6A5 
 442      1CD8
 443 0e6d C63AD9E2 		.ascii	"\306:\331\342\234\021\377\247\251\301*\364k\036\267"
 443      9C11FFA7 
 443      A9C12AF4 
 443      6B1EB7
 444 0e7c 8B2DAF7B 		.ascii	"\213-\257{\254\027[4\023\264\253\367?\011\225\336\303"
 444      AC175B34 
 444      13B4ABF7 
 444      3F0995DE 
 444      C3
 445 0e8d 1C0611CE 		.ascii	"\034\006\021\316\033\236h\236\332\022af\206\254tdj\336"
 445      1B9E689E 
 445      DA126166 
 445      86AC7464 
 445      6ADE
 446 0e9f AA6E6851 		.ascii	"\252nhQ\033#x\3270\246\243\326\246\226>\034/\255\337"
 446      1B2378D7 
 446      30A6A3D6 
 446      A6963E1C 
 446      2FADDF
 447 0eb2 0A52A9A0 		.ascii	"\012R\251\240\242\324\254\311F*\3034R3UZf\271\026J\235"
 447      A2D4ACC9 
 447      462AC334 
 447      5233555A 
 447      66B9164A 
 448 0ec7 8D503254 		.ascii	"\215P2Tr\314\246\237\242\237\252\367Xo\005\033HN\252"
 448      72CCA69F 
 448      A29FAAF7 
 448      586F051B 
 448      484EAA
 449 0eda 35DBB6D6 		.ascii	"5\333\266\326\231\024m\315\361\2307S\257\236\273\360"
 449      99146DCD 
 449      F1983753 
ARM GAS  /tmp/ccBWYvbe.s 			page 36


 449      AF9EBBF0 
 450 0eea FC7B4D64 		.ascii	"\374{Md$\272\336\363\322\324\351\254\266\207\263\260"
 450      24BADEF3 
 450      D2D4E9AC 
 450      B687B3B0 
 451 0efa 8F93CDB8 		.ascii	"\217\223\315\270\271\036\323f\334\033\036\213\275\276"
 451      B91ED366 
 451      DC1B1E8B 
 451      BDBE
 452 0f08 AE790B0E 		.ascii	"\256y\013\016\334I\216\201\221\375\253\301Z\013+\034"
 452      DC498E81 
 452      91FDABC1 
 452      5A0B2B1C 
 453 0f18 B530DFDC 		.ascii	"\2650\337\334\302\002\313\026\332/^\030u5\301\306`\347"
 453      C202CB16 
 453      DA2F5E18 
 453      7535C1C6 
 453      60E7
 454 0f2a 9B648B3C 		.ascii	"\233d\213<\246u\361\015\311\033~G\015\244bI\2169\337"
 454      A675F10D 
 454      C91B7E47 
 454      0DA46249 
 454      8E39DF
 455 0f3d 47DDE350 		.ascii	"G\335\343P7\232\333\241Gg\265\377\377\274\2165\026z"
 455      379ADBA1 
 455      4767B5FF 
 455      FFBC8E35 
 455      167A
 456 0f4f ECB69AD5 		.ascii	"\354\266\232\325#l*\307\027\247\216\031\030\347x\241"
 456      236C2AC7 
 456      17A78E19 
 456      18E778A1 
 457 0f5f 99E32596 		.ascii	"\231\343%\226\034_=\327^j\245\270\351}\235\210u\271"
 457      1C5F3DD7 
 457      5E6AA5B8 
 457      E97D9D88 
 457      75B9
 458 0f71 B9911536 		.ascii	"\271\221\0256\212;\223\254\270ZG-\2544\267\360\216\261"
 458      8A3B93AC 
 458      B85A472D 
 458      AC34B7F0 
 458      8EB1
 459 0f83 0593D57A 		.ascii	"\005\223\325z\355M\375\335\204\321\242\203NK\271S!\260"
 459      ED4DFDDD 
 459      84D1A283 
 459      4E4BB953 
 459      21B0
 460 0f95 2D788428 		.ascii	"-x\204(\375\231@\253\020(C"
 460      FD9940AB 
 460      102843
 461 0fa0 831ACFC4 		.ascii	"\203\032\317\304#\253\253\327.\204\351\201\304\367="
 461      23ABABD7 
 461      2E84E981 
 461      C4F73D
 462 0faf A403DFD3 		.ascii	"\244\003\337\323\327r\312a\217C\210Z\3551\205R\365\235"
 462      D772CA61 
 462      8F43885A 
ARM GAS  /tmp/ccBWYvbe.s 			page 37


 462      ED318552 
 462      F59D
 463 0fc1 D964DF91 		.ascii	"\331d\337\221\274O?\325\230\323\251\235\347z\317C\314"
 463      BC4F3FD5 
 463      98D3A99D 
 463      E77ACF43 
 463      CC
 464 0fd2 AB134920 		.ascii	"\253\023I uo \232\002\274\271\235\030}P\260#\256\301"
 464      756F209A 
 464      02BCB99D 
 464      187D50B0 
 464      23AEC1
 465 0fe5 720C60F3 		.ascii	"r\014`\363\364`\307\234\200\331\305E\000\266@\017\366"
 465      F460C79C 
 465      80D9C545 
 465      00B6400F 
 465      F6
 466 0ff6 27D76046 		.ascii	"'\327`F\312\026\352\301\3168"
 466      CA16EAC1 
 466      CE38
 467 1000 01B35B58 		.ascii	"\001\263[X\005\260\305z\260\363\256\301\214\224\255"
 467      05B0C57A 
 467      B0F3AEC1 
 467      8C94AD
 468 100f D683FDE8 		.ascii	"\326\203\375\350\004\314\356\237\345\000\254I\017v\315"
 468      04CCEE9F 
 468      E500AC49 
 468      0F76CD
 469 101e 359891B2 		.ascii	"5\230\221\262\217\364`r?\007`9\366\224}\254\007\253"
 469      8FF46072 
 469      3F076039 
 469      F6947DAC 
 469      07AB
 470 1030 760D66A4 		.ascii	"v\015f\244\254Y\017\366\212\0230\273\311,\200}\252\007"
 470      AC590FF6 
 470      8A1330BB 
 470      C92C807D 
 470      AA07
 471 1042 7BDD3598 		.ascii	"{\3355\230\221\262\026=\330,'`C\355(\233\252l\372\217"
 471      91B2163D 
 471      D82C2760 
 471      43ED289B 
 471      AA6CFA8F 
 472 1056 5A413F25 		.ascii	"ZA?%%\2506\221\242\276\330\006\326\266\230\300\356v"
 472      25A83691 
 472      A2BED806 
 472      D6B698C0 
 472      EE76
 473 1068 1DE0ECB1 		.ascii	"\035\340\354\261\011p\364'\023\022\245\3109c3\333F*"
 473      0970F427 
 473      1312A5C8 
 473      396333DB 
 473      462A
 474 107a ACF8360A 		.ascii	"\254\3706\012\261M/\304\371N\2048\334\036l\257\036l"
 474      B14D2FC4 
 474      F94E8438 
 474      DC1E6CAF 
ARM GAS  /tmp/ccBWYvbe.s 			page 38


 474      1E6C
 475 108c B113B051 		.ascii	"\261\023\260Q\366\266\262_\017\266\3145\230\221\262"
 475      F6B6B25F 
 475      0FB6CC35 
 475      9891B2
 476 109b 0E3DD8DB 		.ascii	"\016=\330\333N\300\306\330S\366\225\036l\225k0=eS\225"
 476      4EC0C6D8 
 476      53F6951E 
 476      6C956B30 
 476      3D655395 
 477 10af C309C3A3 		.ascii	"\303\011\303\243\363+\235\345\245\232\206\351,/i\002"
 477      F32B9DE5 
 477      A59A86E9 
 477      2C2F6902 
 478 10bf F58D8369 		.ascii	"\365\215\203i\330j3\335\006\024\365v\234\205\020\254"
 478      D86A33DD 
 478      0614F576 
 478      9C8510AC 
 479 10cf 2EFD482B 		.ascii	".\375H+\260k<$\024h\362\220\011\353G\230\177\214y3\346"
 479      B06B3C24 
 479      1468F290 
 479      09EB4798 
 479      7F8C7933 
 480 10e4 9F62DE82 		.ascii	"\237b\336\202\371&\314\025\314\267`\276\025\363V\314"
 480      F926CC15 
 480      CCB760BE 
 480      15F356CC 
 481 10f4 B763BE13 		.ascii	"\267c\276\023\363]\230\267c\276\017\363\003\230\037"
 481      F35D98B7 
 481      63BE0FF3 
 481      03981F
 482 1103 C4FC10E6 		.ascii	"\304\374\020\346\235\036\335\344\330\024\351\274o\243"
 482      9D1EDDE4 
 482      D814E9BC 
 482      6FA3
 483 1111 2042FB11 		.ascii	" B\373\021\333\250\376Z\212\250\276\313\266\02697cW"
 483      DBA8FE5A 
 483      8AA8BECB 
 483      B6163937 
 483      6357
 484 1123 EB3BDB5A 		.ascii	"\353;\333Z3S\324:\2324\2038\334\270%\030\217\021Mq\367"
 484      3353D43A 
 484      9A348338 
 484      DCB82518 
 484      8F114D71 
 485 1138 2F298E6F 		.ascii	"/)\216o\035\367$\2370\334\337\3172\264\254\222W\257"
 485      1DF7249F 
 485      30DCDFCF 
 485      32B4AC92 
 485      57AF
 486 114a 94BDDA41 		.ascii	"\224\275\332A\037\201=\226\210\253M'S\361s\267e,\273"
 486      1F813D96 
 486      88AB4D27 
 486      53F173B7 
 486      652CBB
 487 115d F8ED9DBF 		.ascii	"\370\355\235\277\322\305\262\244y\216y\243\277\243\006"
 487      D2C5B2A4 
ARM GAS  /tmp/ccBWYvbe.s 			page 39


 487      798E79A3 
 487      BFA306
 488 116c 4FA66EF0 		.ascii	"O\246n\360O\226\015~\374\356\341\007\222\032<\342\254"
 488      4F960D7E 
 488      FCEEE107 
 488      921A3CE2 
 488      AC
 489 117d C1D3A91B 		.ascii	"\301\323\251\033\374>e,\275<\2618\221$\3653\266Z\177"
 489      FC3E652C 
 489      BD3CB138 
 489      9124F533 
 489      B65A7F
 490 1190 37C5F2CC 		.ascii	"7\305\362\314Y\333Z\365)l\345\234m\255\263)(<o[\353"
 490      59DB5AF5 
 490      296CE59C 
 490      6DADB329 
 490      283C6F5B 
 491 11a5 440A1FB8 		.ascii	"D\012\037\270\220d\227K\032w\024|\230\230 \2150\231"
 491      9064974B 
 491      1A77147C 
 491      9898208D 
 491      3099
 492 11b7 66738AC9 		.ascii	"fs\212\311\365E\013\323\374\301NqM+\311\001czrI`\177"
 492      F5450BD3 
 492      FCC14E71 
 492      4D2BC901 
 492      637A7249 
 493 11cd B099F2A9 		.ascii	"\260\231\362\251x?ZY\212ru\357B\365\334\360g\362\340"
 493      783F5A59 
 493      8A7275EF 
 493      42F5DCF0 
 493      67F2E0
 494 11e0 2C1787BA 		.ascii	",\027\207\272.[\020:}@JB\351\177,\010\354\245\324\204"
 494      2E5B103A 
 494      7D404A42 
 494      E97F2C08 
 494      ECA5D484 
 495 11f4 5E3112CA 		.ascii	"^1\022\312\334;dH.\375\213\304r\243Rn0\034\010U\024"
 495      DC3B6448 
 495      2EFD8BC4 
 495      72A3526E 
 495      301C0855 
 496 1209 8BB981D2 		.ascii	"\213\271\201\322\330\224\2304\245\\\214\015)e\262\244"
 496      D8949834 
 496      A55C8C0D 
 496      2965B2A4 
 497 1219 D2A82814 		.ascii	"\322\250(\024\373\245\214\247\237}.'\237\361\005J\375"
 497      FBA58CA7 
 497      9F7D2E27 
 497      9FF1054A 
 497      FD
 498 122a F4558E7D 		.ascii	"\364U\216}\365@i1T\355K\313\305\374/V\210\025\242_\352"
 498      F5406931 
 498      54ED4BCB 
 498      C5FC2F56 
 498      8815A25F 
 499 123f 17AFAABE 		.ascii	"\027\257\252\276\362\204\305\311\222\247<*N\362\342"
ARM GAS  /tmp/ccBWYvbe.s 			page 40


 499      F284C5C9 
 499      92A73C2A 
 499      4EF2E2
 500 124e F3303D62 		.ascii	"\3630=b RV\026\011\347\226G\242R,wDaA~\301d\362\256"
 500      20525616 
 500      09E79647 
 500      A2522C77 
 500      4461417E 
 501 1266 3C1812A3 		.ascii	"<\030\022\243\261\334\247\363\363\241!\215\310L\251"
 501      B1DCA7F3 
 501      F3A1218D 
 501      C84CA9
 502 1275 3C1A8CF8 		.ascii	"<\032\214\370\245\347sK#ebnD\222\"\271\005bX\212D\237"
 502      A5E7734B 
 502      2365626E 
 502      449222B9 
 502      0562588A 
 503 128b 8E0AE5A5 		.ascii	"\216\012\345\245\301@,\267(R\021\015\210\321)\376\374"
 503      C1402CB7 
 503      2852110D 
 503      88D129FE 
 503      FC
 504 129c 48B1F8A4 		.ascii	"H\261\370\244\030\006Z\236\011J\242\177b$\352\007t\377"
 504      18065A9E 
 504      094AA27F 
 504      6224EA07 
 504      74FF
 505 12ae 53239E1C 		.ascii	"S#\236\034\235+D\313\036\014G\302\342\203\2420!\030"
 505      9D2B44CB 
 505      1E0C47C2 
 505      E283A230 
 505      2118
 506 12c0 67282615 		.ascii	"g(&\025\007\303\022\221E\005\374>\374\220\237\320\034"
 506      07C31291 
 506      4505FC3E 
 506      FC909FD0 
 506      1C
 507 12d1 8C6413D2 		.ascii	"\214d\023\322\374\201HX\002.\036HKzi \022\025\001\244"
 507      FC814858 
 507      022E1E48 
 507      4B7A6920 
 507      121501A4 
 508 12e5 175603A0 		.ascii	"\027V\003\240\2004\371Ag\265\374\223\036+#\315G\305"
 508      8034F941 
 508      67B5FC93 
 508      1E2B23CD 
 508      47C5
 509 12f7 12A0D02F 		.ascii	"\022\240\320/q\321G\270\350?p\321G\271\350c\\t\030\027"
 509      71D147B8 
 509      E83F70D1 
 509      47B9E863 
 509      5C741817 
 510 130b FD473E9A 		.ascii	"\375G>\2327\024R\036\027\212r\261r\036\240\275a\261"
 510      3714521E 
 510      178A72B1 
 510      721EA0BD 
 510      61B1
ARM GAS  /tmp/ccBWYvbe.s 			page 41


 511 131d 528C7A23 		.ascii	"R\214z#\241b1\352\011\224\012QOX(\023o\211I/\010\241"
 511      A16231EA 
 511      09940A51 
 511      4F582813 
 511      6F89492F 
 512 1333 6049D82F 		.ascii	"`I\330/!3\217>\002\212\255\024&\01011K\212I\002\010"
 512      21338F3E 
 512      028AAD14 
 512      26083131 
 512      4B8A4902 
 513 1348 44CA241F 		.ascii	"D\312$\037\206\371%/>gJe 0x\232\030\022Jb\231RT\234"
 513      86F9252F 
 513      3E674A65 
 513      2030789A 
 513      18124A62 
 514 1360 18030190 		.ascii	"\030\003\001\220\037oY\254\004\212\2532\311\210\026"
 514      1F6F59AC 
 514      048AAB32 
 514      C98816
 515 136f 4F811759 		.ascii	"O\201\027Y\342\344\240\024\200*\031\225Rd\302\357\313"
 515      E2E4A014 
 515      802A1995 
 515      5264C2EF 
 515      CB
 516 1380 BD959214 		.ascii	"\275\225\222\024-\317\214\2016\340k6\210=&\226\201N"
 516      2DCF8C81 
 516      36E06B36 
 516      883D2696 
 516      814E
 517 1392 80AD41F6 		.ascii	"\200\255A\366\006$\022~\275\201\260\344\227x\310\001"
 517      0624127E 
 517      BD81B0E4 
 517      9778C801 
 518 13a2 0B5E9567 		.ascii	"\013^\225gA\355\262\012\020\267}\3152i2\251\031\251"
 518      41EDB20A 
 518      10B77DCD 
 518      326932A9 
 518      19A9
 519 13b4 0C8BD14C 		.ascii	"\014\213\321L,K\030\224\340uy/q\022!B\210\275\000\257"
 519      2C4B1894 
 519      E075792F 
 519      71122142 
 519      88BD00AF 
 520 13c8 C44A72C3 		.ascii	"\304Jr\303V\364\321\0142\024\214Ac}u&J\336dV\012A)\030"
 520      56F4D10C 
 520      32148C41 
 520      637D7526 
 520      4ADE6456 
 521 13e0 2EC902DA 		.ascii	".\311\002\332\321D\263\304r1\014\346P\222\011\220\244"
 521      D144B3C4 
 521      72310CE6 
 521      50920990 
 521      A4
 522 13f1 04284508 		.ascii	"\004(E\010\021s\360\226\225G\"\241\001\252\273\200|"
 522      1173F096 
 522      954722A1 
 522      01AABB80 
ARM GAS  /tmp/ccBWYvbe.s 			page 42


 522      7C
 523 1402 C4285819 		.ascii	"\304(X\031H./N\254$\306$Bn\014m\221>\222\014D\002\340"
 523      482E2F4E 
 523      AC24C624 
 523      426E0C6D 
 523      913E920C 
 524 1419 A4F0D0A1 		.ascii	"\244\360\320\241\217\014\011\2009#H\036[>\000?\303["
 524      8F0C0980 
 524      3923481E 
 524      5B3E003F 
 524      C35B
 525 142b 4879504C 		.ascii	"HyPL\252(\277\313\360J\234,\006\200\313!\345BT\0322"
 525      AA28BFCB 
 525      F04A9C2C 
 525      0680CB21 
 525      E542541A 
 526 1440 F436AB6F 		.ascii	"\3646\253ow\033\333\017\005'\344\022.\341\036}\224\324"
 526      771BDB0F 
 526      0527E412 
 526      2EE11E7D 
 526      94D4
 527 1452 10CB82C0 		.ascii	"\020\313\202\300|\344\0051\014>Z\024(-\024\301\205\305"
 527      7CE40531 
 527      0C3E5A14 
 527      282D14C1 
 527      85C5
 528 1464 E28A9058 		.ascii	"\342\212\220X\3647\266\242V\345\004 \240\325\261\245"
 528      F437B6A2 
 528      56E50420 
 528      A0D5B1A5 
 529 1474 C550A9A2 		.ascii	"\305P\251\242L\034\375@zv\243\221\010i\273?>\020\011"
 529      4C1CFD40 
 529      7A76A391 
 529      0869BB3F 
 529      3E1009
 530 1487 6B32F791 		.ascii	"k2\367\221\216'X&\252\326\231\367\250_\272\015\261\213"
 530      8E275826 
 530      AAD699F7 
 530      A85FBA0D 
 530      B18B
 531 1499 2A6244EE 		.ascii	"*bD\356c\341[\244B*\362\372\237\004Y\017D&\374B,&\202"
 531      63E15BA4 
 531      422AF2FA 
 531      9F04590F 
 531      4426FC42 
 532 14b0 4761BDCA 		.ascii	"Ga\275\312`\2708R\231\255\377\020\272\311>\201\310\253"
 532      60B83852 
 532      99ADFF10 
 532      BAC93E81 
 532      C8AB
 533 14c2 241030F5 		.ascii	"$\0200\365\015\217\014\0316$O\337C\024\213\023\201\245"
 533      0D8F0C19 
 533      36244FDF 
 533      43148B13 
 533      81A5
 534 14d4 8C58F00F 		.ascii	"\214X\360\017\304\205\244\211\025\341\200_\352\217\304"
 534      C485A489 
ARM GAS  /tmp/ccBWYvbe.s 			page 43


 534      15E1805F 
 534      EA8FC4
 535 14e3 E7036F92 		.ascii	"\347\003o\222X\004\336\024\014\360R4\317Gu.\211\345"
 535      5804DE14 
 535      0CF05234 
 535      CF47752E 
 535      89E5
 536 14f5 5CA5D08B 		.ascii	"\\\245\320\213x\004p-\202_\373\342\367\331D\034ST\243"
 536      7804702D 
 536      825FFBE2 
 536      F7D9441C 
 536      5354A3
 537 1508 EC0DAF13 		.ascii	"\354\015\257\023\317\231\201\212(X\226\344\215\222\247"
 537      CF99818A 
 537      285896E4 
 537      8D92A7
 538 1517 DB2705A3 		.ascii	"\333'\005\243R\205\020B\366\243\232\031\337\0015,>\364"
 538      52851042 
 538      F6A39A19 
 538      DF01352C 
 538      3EF4
 539 1529 35BCA31D 		.ascii	"5\274\243\035\262\341\225\267X\014IB\326$\225|\017\371"
 539      B2E195B7 
 539      580C4942 
 539      D624957C 
 539      0FF9
 540 153b E1C1B4B2 		.ascii	"\341\301\264\262BBL\"%2&I\004\250\217Jq\2618\241\242"
 540      42424C22 
 540      25322649 
 540      04A88F4A 
 540      71B138A1 
 541 1550 847A8DFE 		.ascii	"\204z\215\376\215\257\\\010\007\003~\360\031\276xB\311"
 541      8DAF5C08 
 541      07037EF0 
 541      19BE7842 
 541      C9
 542 1561 2D6502E8 		.ascii	"-e\002\350\022\025\314\005JU\333\216y\321\230\263$Q"
 542      1215CC05 
 542      4A55DB8E 
 542      79D198B3 
 542      2451
 543 1573 8882C6C2 		.ascii	"\210\202\306\302\231\252\261\336Bd\023\200\356\010\204"
 543      99AAB1DE 
 543      42641380 
 543      EE0884
 544 1582 97E41A77 		.ascii	"\227\344\032w\016\211F\212\005I\030\222\364%[o\370\203"
 544      0E89468A 
 544      05491892 
 544      F4255B6F 
 544      F883
 545 1594 556BC911 		.ascii	"Uk\311\021 Q\253\314!\234H\301H\030:?i\012\223\242\347"
 545      2051ABCC 
 545      219C48C1 
 545      48183A3F 
 545      690A93A2 
 546 15a9 99420C1A 		.ascii	"\231B\014\032\024Q4%\366L$\360\202\017{\353\020\334"
 546      14513425 
ARM GAS  /tmp/ccBWYvbe.s 			page 44


 546      F64C24F0 
 546      820F7BEB 
 546      10DC
 547 15bb E559F4D5 		.ascii	"\345Y\364\325\320\361\347\346\027\024\215.J \224\305"
 547      D0F1E7E6 
 547      17148D2E 
 547      4A2094C5 
 548 15cb 82313FD8 		.ascii	"\2021?\330\013\240\364\366\023\217\365?9\242\350\251"
 548      0BA0F4F6 
 548      138FF53F 
 548      39A2E8A9 
 549 15db 3185A37B 		.ascii	"1\205\243{\013\241JaJ\014z\376P0,z'\011\241\012\261"
 549      0BA14A61 
 549      4A0C7AFE 
 549      50302C7A 
 549      2709A10A 
 550 15f0 17B6F35C 		.ascii	"\027\266\363\\\230\340\323q\241\002\357\037\322\267"
 550      98E0D371 
 550      A102EF1F 
 550      D2B7
 551 15fe 552A84D4 		.ascii	"U*\204\324A\241hl\301\303\017\345>\363\314\310\334\261"
 551      41A1686C 
 551      C1C30FE5 
 551      3EF3CCC8 
 551      DCB1
 552 1610 A30B26E5 		.ascii	"\243\013&\345\201\331\225\221\2367H:\313^\361\007\350"
 552      81D99591 
 552      9E37483A 
 552      CB5EF107 
 552      E8
 553 1621 32F30BF3 		.ascii	"2\363\013\363 =\344)*\310/\364\214\034\375T!WT\310?"
 553      203DE429 
 553      2AC82FF4 
 553      8C1CFD54 
 553      215754C8 
 554 1636 F574A137 		.ascii	"\365t\2417?\277\2400\017\363\207<\371\371O\025\362\371"
 554      3FBFA030 
 554      0FF3873C 
 554      F9F94F15 
 554      F2F9
 555 1648 CF8EE5C7 		.ascii	"\317\216\345\307\024\345\363#\012\013\371\302|x\206"
 555      14E5F323 
 555      0A0BF9C2 
 555      7C7886
 556 1657 0A4F8E1C 		.ascii	"\012O\216\034[\310\217$5\013F\024r\377Bk=\014\345\307"
 556      5BC88F24 
 556      350B4614 
 556      72FF426B 
 556      3D0CE5C7 
 557 166b 15DE632B 		.ascii	"\025\336c+\270I\304\243\007\004J\1777\366iQ*Bc \336"
 557      B849C4A3 
 557      07044A7F 
 557      37F66951 
 557      2A426320 
 558 1680 3A2ED7E1 		.ascii	":.\327\341\020\207\366\007\020\267\242\030\250\201\226"
 558      1087F607 
 558      10B7A218 
ARM GAS  /tmp/ccBWYvbe.s 			page 45


 558      A88196
 559 168f 88F4EE61 		.ascii	"\210\364\356ag\342\200/\340U\376P\210\004\037\003\350"
 559      67E2802F 
 559      E055FE50 
 559      88041F03 
 559      E8
 560 16a0 1D620422 		.ascii	"\035b\004\"\0250HG\2517\002yc\240\273\216\202\035\214"
 560      15304847 
 560      A9370279 
 560      63A0BB8E 
 560      821D8C
 561 16b3 EBADBD29 		.ascii	"\353\255\275)\022C\023\307\375\037?\261L\331"
 561      124313C7 
 561      FD1F3FB1 
 561      4CD9
 562              		.text
 563              		.section	.gnu.lto_.symtab.3b389065dcbff3e1,"",%progbits
 564 0000 74657374 		.ascii	"test_sequence_004\000\000\000\000\000\000\000\000\000"
 564      5F736571 
 564      75656E63 
 564      655F3030 
 564      34000000 
 565 001a 000000F0 		.ascii	"\000\000\000\360\001\000\000test_step\000\000\002\000"
 565      01000074 
 565      6573745F 
 565      73746570 
 565      00000200 
 566 002e 00000000 		.ascii	"\000\000\000\000\000\000\000\000\242\001\000\000wa\000"
 566      00000000 
 566      A2010000 
 566      776100
 567 003d 00020000 		.ascii	"\000\002\000\000\000\000\000\000\000\000\000\244\001"
 567      00000000 
 567      000000A4 
 567      01
 568 004a 00006368 		.ascii	"\000\000ch\000\000\002\000\000\000\000\000\000\000\000"
 568      00000200 
 568      00000000 
 568      000000
 569 0059 00AA0100 		.ascii	"\000\252\001\000\000threads\000\000\002\000\000\000"
 569      00746872 
 569      65616473 
 569      00000200 
 569      0000
 570 006b 00000000 		.ascii	"\000\000\000\000\000\000\355\001\000\000test_emit_t"
 570      0000ED01 
 570      00007465 
 570      73745F65 
 570      6D69745F 
 571 0080 6F6B656E 		.ascii	"oken\000\000\002\000\000\000\000\000\000\000\000\000"
 571      00000200 
 571      00000000 
 571      00000000 
 572 0090 6C010000 		.ascii	"l\001\000\000chSchRescheduleS\000\000\002\000\000\000"
 572      63685363 
 572      68526573 
 572      63686564 
ARM GAS  /tmp/ccBWYvbe.s 			page 46


 572      756C6553 
 573 00aa 00000000 		.ascii	"\000\000\000\000\000\000p\001\000\000chThdResumeI\000"
 573      00007001 
 573      00006368 
 573      54686452 
 573      6573756D 
 574 00c1 00020000 		.ascii	"\000\002\000\000\000\000\000\000\000\000\000r\001\000"
 574      00000000 
 574      00000072 
 574      0100
 575 00cf 00746573 		.ascii	"\000test_wait_threads\000\000\002\000\000\000\000\000"
 575      745F7761 
 575      69745F74 
 575      68726561 
 575      64730000 
 576 00e9 00000000 		.ascii	"\000\000\000\000w\001\000\000chThdSuspendTimeoutS\000"
 576      77010000 
 576      63685468 
 576      64537573 
 576      70656E64 
 577 0106 00020000 		.ascii	"\000\002\000\000\000\000\000\000\000\000\000y\001\000"
 577      00000000 
 577      00000079 
 577      0100
 578 0114 005F7465 		.ascii	"\000_test_assert_time_window\000\000\002\000\000\000"
 578      73745F61 
 578      73736572 
 578      745F7469 
 578      6D655F77 
 579 0133 00000000 		.ascii	"\000\000\000\000\000\000\204\001\000\000_test_asser"
 579      00008401 
 579      00005F74 
 579      6573745F 
 579      61737365 
 580 0148 74000002 		.ascii	"t\000\000\002\000\000\000\000\000\000\000\000\000\215"
 580      00000000 
 580      00000000 
 580      008D
 581 0156 01000063 		.ascii	"\001\000\000chThdCreateStatic\000\000\002\000\000\000"
 581      68546864 
 581      43726561 
 581      74655374 
 581      61746963 
 582 0170 00000000 		.ascii	"\000\000\000\000\000\000\222\001\000\000"
 582      00009201 
 582      0000
 583              		.text
 584              		.section	.gnu.lto_.opts,"",%progbits
 585 0000 272D6D63 		.ascii	"'-mcpu=cortex-m3' '-mno-thumb-interwork' '-mthumb' "
 585      70753D63 
 585      6F727465 
 585      782D6D33 
 585      2720272D 
 586 0033 272D6767 		.ascii	"'-ggdb' '-O2' '-fomit-frame-pointer' '-falign-funct"
 586      64622720 
 586      272D4F32 
 586      2720272D 
ARM GAS  /tmp/ccBWYvbe.s 			page 47


 586      666F6D69 
 587 0066 696F6E73 		.ascii	"ions=16' '-ffunction-sections' '-fdata-sections' '-"
 587      3D313627 
 587      20272D66 
 587      66756E63 
 587      74696F6E 
 588 0099 666E6F2D 		.ascii	"fno-common' '-flto'\000"
 588      636F6D6D 
 588      6F6E2720 
 588      272D666C 
 588      746F2700 
 589              		.text
 590              		.cfi_sections	.debug_frame
 591              		.section	.text.test_004_001_setup,"ax",%progbits
 592              		.align	2
 593              		.p2align 4,,15
 594              		.thumb
 595              		.thumb_func
 596              		.type	test_004_001_setup, %function
 597              	test_004_001_setup:
 598              	.LFB220:
 599              		.file 1 "../../../test/rt/source/test/test_sequence_004.c"
 600              		.loc 1 74 0
 601              		.cfi_startproc
 602              		@ args = 0, pretend = 0, frame = 0
 603              		@ frame_needed = 0, uses_anonymous_args = 0
 604              		@ link register save eliminated.
 605              		.loc 1 75 0
 606 0000 40F20003 		movw	r3, #:lower16:.LANCHOR0
 607 0004 C0F20003 		movt	r3, #:upper16:.LANCHOR0
 608 0008 0022     		movs	r2, #0
 609 000a 1A60     		str	r2, [r3]
 610 000c 7047     		bx	lr
 611              		.cfi_endproc
 612              	.LFE220:
 613              		.size	test_004_001_setup, .-test_004_001_setup
 614 000e 00BF     		.section	.text.thread1,"ax",%progbits
 615              		.align	2
 616              		.p2align 4,,15
 617              		.thumb
 618              		.thumb_func
 619              		.type	thread1, %function
 620              	thread1:
 621              	.LFB219:
 622              		.loc 1 44 0
 623              		.cfi_startproc
 624              		@ args = 0, pretend = 0, frame = 0
 625              		@ frame_needed = 0, uses_anonymous_args = 0
 626              	.LVL0:
 627 0000 10B5     		push	{r4, lr}
 628              		.cfi_def_cfa_offset 8
 629              		.cfi_offset 4, -8
 630              		.cfi_offset 14, -4
 631              	.LBB87:
 632              	.LBB88:
 633              	.LBB89:
 634              	.LBB90:
ARM GAS  /tmp/ccBWYvbe.s 			page 48


 635              		.file 2 "../../../os/common/ext/CMSIS/include/cmsis_gcc.h"
 636              		.loc 2 264 0
 637 0002 2023     		movs	r3, #32
 638              	.LBE90:
 639              	.LBE89:
 640              	.LBE88:
 641              	.LBE87:
 642              		.loc 1 44 0
 643 0004 0446     		mov	r4, r0
 644              	.LBB94:
 645              	.LBB93:
 646              	.LBB92:
 647              	.LBB91:
 648              		.loc 2 264 0
 649              	@ 264 "../../../os/common/ext/CMSIS/include/cmsis_gcc.h" 1
 650 0006 83F31188 		MSR basepri, r3
 651              	@ 0 "" 2
 652              		.thumb
 653              	.LBE91:
 654              	.LBE92:
 655              	.LBE93:
 656              	.LBE94:
 657              		.loc 1 47 0
 658 000a 40F20000 		movw	r0, #:lower16:.LANCHOR0
 659              	.LVL1:
 660 000e C0F20000 		movt	r0, #:upper16:.LANCHOR0
 661 0012 0021     		movs	r1, #0
 662 0014 FFF7FEFF 		bl	chThdResumeI
 663              	.LVL2:
 664              		.loc 1 48 0
 665 0018 FFF7FEFF 		bl	chSchRescheduleS
 666              	.LVL3:
 667              	.LBB95:
 668              	.LBB96:
 669              	.LBB97:
 670              	.LBB98:
 671              	.LBB99:
 672              		.loc 2 264 0
 673 001c 0023     		movs	r3, #0
 674              	@ 264 "../../../os/common/ext/CMSIS/include/cmsis_gcc.h" 1
 675 001e 83F31188 		MSR basepri, r3
 676              	@ 0 "" 2
 677              		.thumb
 678              	.LBE99:
 679              	.LBE98:
 680              	.LBE97:
 681              	.LBE96:
 682              	.LBE95:
 683              		.loc 1 50 0
 684 0022 2078     		ldrb	r0, [r4]	@ zero_extendqisi2
 685              		.loc 1 51 0
 686 0024 BDE81040 		pop	{r4, lr}
 687              	.LVL4:
 688              		.loc 1 50 0
 689 0028 FFF7FEBF 		b	test_emit_token
 690              	.LVL5:
 691              		.cfi_endproc
ARM GAS  /tmp/ccBWYvbe.s 			page 49


 692              	.LFE219:
 693              		.size	thread1, .-thread1
 694 002c AFF30080 		.section	.text.test_004_001_execute,"ax",%progbits
 695              		.align	2
 696              		.p2align 4,,15
 697              		.thumb
 698              		.thumb_func
 699              		.type	test_004_001_execute, %function
 700              	test_004_001_execute:
 701              	.LFB221:
 702              		.loc 1 78 0
 703              		.cfi_startproc
 704              		@ args = 0, pretend = 0, frame = 0
 705              		@ frame_needed = 0, uses_anonymous_args = 0
 706 0000 70B5     		push	{r4, r5, r6, lr}
 707              		.cfi_def_cfa_offset 16
 708              		.cfi_offset 4, -16
 709              		.cfi_offset 5, -12
 710              		.cfi_offset 6, -8
 711              		.cfi_offset 14, -4
 712              	.LBB141:
 713              	.LBB142:
 714              	.LBB143:
 715              	.LBB144:
 716              		.file 3 "../../../os/rt/include/chthreads.h"
 717              		.loc 3 286 0
 718 0002 40F20003 		movw	r3, #:lower16:ch
 719 0006 C0F20003 		movt	r3, #:upper16:ch
 720              	.LBE144:
 721              	.LBE143:
 722              		.loc 3 299 0
 723 000a 9A69     		ldr	r2, [r3, #24]
 724              	.LBE142:
 725              	.LBE141:
 726              		.loc 1 87 0
 727 000c 40F20003 		movw	r3, #:lower16:wa
 728 0010 9268     		ldr	r2, [r2, #8]
 729 0012 C0F20003 		movt	r3, #:upper16:wa
 730 0016 40F20001 		movw	r1, #:lower16:.LC0
 731              		.loc 1 85 0
 732 001a 40F20004 		movw	r4, #:lower16:test_step
 733              		.loc 1 78 0
 734 001e 82B0     		sub	sp, sp, #8
 735              		.cfi_def_cfa_offset 24
 736              		.loc 1 87 0
 737 0020 1868     		ldr	r0, [r3]
 738 0022 C0F20001 		movt	r1, #:upper16:.LC0
 739              		.loc 1 85 0
 740 0026 C0F20004 		movt	r4, #:upper16:test_step
 741 002a 0125     		movs	r5, #1
 742              		.loc 1 87 0
 743 002c 40F20003 		movw	r3, #:lower16:thread1
 744 0030 0091     		str	r1, [sp]
 745 0032 013A     		subs	r2, r2, #1
 746 0034 C0F20003 		movt	r3, #:upper16:thread1
 747 0038 4FF4A471 		mov	r1, #328
 748              		.loc 1 85 0
ARM GAS  /tmp/ccBWYvbe.s 			page 50


 749 003c 2560     		str	r5, [r4]
 750              		.loc 1 87 0
 751 003e FFF7FEFF 		bl	chThdCreateStatic
 752              	.LVL6:
 753 0042 40F20003 		movw	r3, #:lower16:threads
 754 0046 C0F20003 		movt	r3, #:upper16:threads
 755 004a 1860     		str	r0, [r3]
 756              	.LVL7:
 757              	.LBB145:
 758              	.LBB146:
 759              	.LBB147:
 760              	.LBB148:
 761              		.loc 2 264 0
 762 004c 2023     		movs	r3, #32
 763              	@ 264 "../../../os/common/ext/CMSIS/include/cmsis_gcc.h" 1
 764 004e 83F31188 		MSR basepri, r3
 765              	@ 0 "" 2
 766              		.thumb
 767              	.LBE148:
 768              	.LBE147:
 769              	.LBE146:
 770              	.LBE145:
 771              		.loc 1 89 0
 772 0052 40F20000 		movw	r0, #:lower16:.LANCHOR0
 773 0056 4FF6FF71 		movw	r1, #65535
 774 005a C0F20000 		movt	r0, #:upper16:.LANCHOR0
 775 005e FFF7FEFF 		bl	chThdSuspendTimeoutS
 776              	.LVL8:
 777              	.LBB149:
 778              	.LBB150:
 779              	.LBB151:
 780              	.LBB152:
 781              	.LBB153:
 782              		.loc 2 264 0
 783 0062 0023     		movs	r3, #0
 784              	.LBE153:
 785              	.LBE152:
 786              	.LBE151:
 787              	.LBE150:
 788              	.LBE149:
 789              		.loc 1 89 0
 790 0064 0646     		mov	r6, r0
 791              	.LVL9:
 792              	.LBB158:
 793              	.LBB157:
 794              	.LBB156:
 795              	.LBB155:
 796              	.LBB154:
 797              		.loc 2 264 0
 798              	@ 264 "../../../os/common/ext/CMSIS/include/cmsis_gcc.h" 1
 799 0066 83F31188 		MSR basepri, r3
 800              	@ 0 "" 2
 801              		.thumb
 802              	.LBE154:
 803              	.LBE155:
 804              	.LBE156:
 805              	.LBE157:
ARM GAS  /tmp/ccBWYvbe.s 			page 51


 806              	.LBE158:
 807              		.loc 1 91 0
 808 006a 40F20005 		movw	r5, #:lower16:.LANCHOR0
 809 006e C0F20005 		movt	r5, #:upper16:.LANCHOR0
 810 0072 2868     		ldr	r0, [r5]
 811              	.LVL10:
 812 0074 40F20001 		movw	r1, #:lower16:.LC1
 813 0078 D0F10100 		rsbs	r0, r0, #1
 814 007c 38BF     		it	cc
 815 007e 0020     		movcc	r0, #0
 816 0080 C0F20001 		movt	r1, #:upper16:.LC1
 817 0084 FFF7FEFF 		bl	_test_assert
 818              	.LVL11:
 819 0088 08B1     		cbz	r0, .L8
 820              	.LVL12:
 821              	.L3:
 822              		.loc 1 111 0
 823 008a 02B0     		add	sp, sp, #8
 824              		@ sp needed
 825 008c 70BD     		pop	{r4, r5, r6, pc}
 826              	.LVL13:
 827              	.L8:
 828              		.loc 1 92 0
 829 008e D6F10100 		rsbs	r0, r6, #1
 830 0092 40F20001 		movw	r1, #:lower16:.LC2
 831 0096 38BF     		it	cc
 832 0098 0020     		movcc	r0, #0
 833 009a C0F20001 		movt	r1, #:upper16:.LC2
 834 009e FFF7FEFF 		bl	_test_assert
 835              	.LVL14:
 836 00a2 0028     		cmp	r0, #0
 837 00a4 F1D1     		bne	.L3
 838              	.LBB159:
 839              	.LBB160:
 840              		.loc 1 93 0
 841 00a6 FFF7FEFF 		bl	test_wait_threads
 842              	.LVL15:
 843              		.loc 1 99 0
 844 00aa 0223     		movs	r3, #2
 845 00ac 2360     		str	r3, [r4]
 846              	.LVL16:
 847              	.LBB161:
 848              	.LBB162:
 849              	.LBB163:
 850              	.LBB164:
 851              		.loc 2 264 0
 852 00ae 2023     		movs	r3, #32
 853              	@ 264 "../../../os/common/ext/CMSIS/include/cmsis_gcc.h" 1
 854 00b0 83F31188 		MSR basepri, r3
 855              	@ 0 "" 2
 856              		.thumb
 857              	.LBE164:
 858              	.LBE163:
 859              	.LBE162:
 860              	.LBE161:
 861              		.loc 1 103 0
 862 00b4 40F20000 		movw	r0, #:lower16:.LANCHOR0
ARM GAS  /tmp/ccBWYvbe.s 			page 52


 863              	.LBB165:
 864              	.LBB166:
 865              	.LBB167:
 866              	.LBB168:
 867              		.file 4 "../../../os/hal/ports/STM32/LLD/TIMv1/hal_st_lld.h"
 868              		.loc 4 141 0
 869 00b8 4FF08043 		mov	r3, #1073741824
 870              	.LBE168:
 871              	.LBE167:
 872              	.LBE166:
 873              	.LBE165:
 874              		.loc 1 103 0
 875 00bc 4FF47A71 		mov	r1, #1000
 876 00c0 C0F20000 		movt	r0, #:upper16:.LANCHOR0
 877              	.LBB175:
 878              	.LBB173:
 879              	.LBB171:
 880              	.LBB169:
 881              		.loc 4 141 0
 882 00c4 5C6A     		ldr	r4, [r3, #36]
 883              	.LBE169:
 884              	.LBE171:
 885              	.LBE173:
 886              	.LBE175:
 887              		.loc 1 103 0
 888 00c6 FFF7FEFF 		bl	chThdSuspendTimeoutS
 889              	.LVL17:
 890              	.LBB176:
 891              	.LBB174:
 892              	.LBB172:
 893              	.LBB170:
 894              		.loc 4 141 0
 895 00ca A4B2     		uxth	r4, r4
 896              	.LBE170:
 897              	.LBE172:
 898              	.LBE174:
 899              	.LBE176:
 900              		.loc 1 103 0
 901 00cc 0646     		mov	r6, r0
 902              	.LVL18:
 903              	.LBB177:
 904              	.LBB178:
 905              	.LBB179:
 906              	.LBB180:
 907              	.LBB181:
 908              		.loc 2 264 0
 909 00ce 0023     		movs	r3, #0
 910              	@ 264 "../../../os/common/ext/CMSIS/include/cmsis_gcc.h" 1
 911 00d0 83F31188 		MSR basepri, r3
 912              	@ 0 "" 2
 913              		.thumb
 914              	.LBE181:
 915              	.LBE180:
 916              	.LBE179:
 917              	.LBE178:
 918              	.LBE177:
 919              		.loc 1 105 0
ARM GAS  /tmp/ccBWYvbe.s 			page 53


 920 00d4 40F20002 		movw	r2, #:lower16:.LC3
 921 00d8 04F57A70 		add	r0, r4, #1000
 922              	.LVL19:
 923 00dc 04F2EB31 		addw	r1, r4, #1003
 924 00e0 80B2     		uxth	r0, r0
 925 00e2 89B2     		uxth	r1, r1
 926 00e4 C0F20002 		movt	r2, #:upper16:.LC3
 927 00e8 FFF7FEFF 		bl	_test_assert_time_window
 928              	.LVL20:
 929 00ec 0028     		cmp	r0, #0
 930 00ee CCD1     		bne	.L3
 931              		.loc 1 108 0
 932 00f0 2868     		ldr	r0, [r5]
 933 00f2 40F20001 		movw	r1, #:lower16:.LC1
 934 00f6 D0F10100 		rsbs	r0, r0, #1
 935 00fa 38BF     		it	cc
 936 00fc 0020     		movcc	r0, #0
 937 00fe C0F20001 		movt	r1, #:upper16:.LC1
 938 0102 FFF7FEFF 		bl	_test_assert
 939              	.LVL21:
 940 0106 0028     		cmp	r0, #0
 941 0108 BFD1     		bne	.L3
 942              		.loc 1 109 0
 943 010a B6F1FF33 		subs	r3, r6, #-1
 944 010e 5842     		rsbs	r0, r3, #0
 945 0110 40F20001 		movw	r1, #:lower16:.LC2
 946 0114 5841     		adcs	r0, r0, r3
 947 0116 C0F20001 		movt	r1, #:upper16:.LC2
 948              	.LBE160:
 949              	.LBE159:
 950              		.loc 1 111 0
 951 011a 02B0     		add	sp, sp, #8
 952              		@ sp needed
 953 011c BDE87040 		pop	{r4, r5, r6, lr}
 954              	.LVL22:
 955              	.LBB183:
 956              	.LBB182:
 957              		.loc 1 109 0
 958 0120 FFF7FEBF 		b	_test_assert
 959              	.LVL23:
 960              	.LBE182:
 961              	.LBE183:
 962              		.cfi_endproc
 963              	.LFE221:
 964              		.size	test_004_001_execute, .-test_004_001_execute
 965              		.global	test_sequence_004
 966 0124 AFF30080 		.section	.rodata.test_sequence_004,"a",%progbits
 966      AFF30080 
 966      AFF30080 
 967              		.align	2
 968              		.type	test_sequence_004, %object
 969              		.size	test_sequence_004, 8
 970              	test_sequence_004:
 971 0000 00000000 		.word	test_004_001
 972 0004 00000000 		.word	0
 973              		.section	.bss.tr1,"aw",%nobits
 974              		.align	2
ARM GAS  /tmp/ccBWYvbe.s 			page 54


 975              		.set	.LANCHOR0,. + 0
 976              		.type	tr1, %object
 977              		.size	tr1, 4
 978              	tr1:
 979 0000 00000000 		.space	4
 980              		.section	.rodata.str1.4,"aMS",%progbits,1
 981              		.align	2
 982              	.LC0:
 983 0000 4100     		.ascii	"A\000"
 984 0002 0000     		.space	2
 985              	.LC1:
 986 0004 6E6F7420 		.ascii	"not NULL\000"
 986      4E554C4C 
 986      00
 987 000d 000000   		.space	3
 988              	.LC2:
 989 0010 77726F6E 		.ascii	"wrong returned message\000"
 989      67207265 
 989      7475726E 
 989      6564206D 
 989      65737361 
 990 0027 00       		.space	1
 991              	.LC3:
 992 0028 6F757420 		.ascii	"out of time window\000"
 992      6F662074 
 992      696D6520 
 992      77696E64 
 992      6F7700
 993 003b 00       		.space	1
 994              	.LC4:
 995 003c 53757370 		.ascii	"Suspend and Resume functionality\000"
 995      656E6420 
 995      616E6420 
 995      52657375 
 995      6D652066 
 996 005d 000000   		.section	.rodata.test_004_001,"a",%progbits
 997              		.align	2
 998              		.type	test_004_001, %object
 999              		.size	test_004_001, 16
 1000              	test_004_001:
 1001 0000 3C000000 		.word	.LC4
 1002 0004 00000000 		.word	test_004_001_setup
 1003 0008 00000000 		.word	0
 1004 000c 00000000 		.word	test_004_001_execute
 1005              		.text
 1006              	.Letext0:
 1007              		.file 5 "/home/otto/MentorGraphics/Sourcery_CodeBench_Lite_for_ARM_EABI/lib/gcc/arm-none-eabi/4.8.
 1008              		.file 6 "/home/otto/MentorGraphics/Sourcery_CodeBench_Lite_for_ARM_EABI/arm-none-eabi/include/stdi
 1009              		.file 7 "../../../os/common/ports/ARMCMx/compilers/GCC/chtypes.h"
 1010              		.file 8 "../../../os/rt/include/chsystypes.h"
 1011              		.file 9 "../../../os/rt/include/chschd.h"
 1012              		.file 10 "../../../os/common/ports/ARMCMx/chcore.h"
 1013              		.file 11 "../../../os/common/ports/ARMCMx/chcore_v7m.h"
 1014              		.file 12 "../../../os/hal/ports/STM32/LLD/TIMv1/stm32_tim.h"
 1015              		.file 13 "../../../os/rt/include/chsem.h"
 1016              		.file 14 "../../../os/rt/include/chmtx.h"
 1017              		.file 15 "../../../test/lib/ch_test.h"
ARM GAS  /tmp/ccBWYvbe.s 			page 55


 1018              		.file 16 "../../../os/common/ports/ARMCMx/chcore_timer.h"
 1019              		.file 17 "../../../os/rt/include/chsys.h"
 1020              		.file 18 "../../../os/rt/include/chvt.h"
 1021              		.file 19 "../../../os/common/ext/CMSIS/include/core_cm3.h"
 1022              		.file 20 "../../../test/rt/source/test/test_root.h"