ARM GAS  /tmp/cc110c1w.s 			page 1


   1              		.syntax unified
   2              		.cpu cortex-m3
   3              		.fpu softvfp
   4              		.eabi_attribute 20, 1
   5              		.eabi_attribute 21, 1
   6              		.eabi_attribute 23, 3
   7              		.eabi_attribute 24, 1
   8              		.eabi_attribute 25, 1
   9              		.eabi_attribute 26, 1
  10              		.eabi_attribute 30, 2
  11              		.eabi_attribute 34, 1
  12              		.eabi_attribute 18, 4
  13              		.thumb
  14              		.file	"test_root.c"
  15              		.text
  16              	.Ltext0:
  17              		.section	.gnu.lto_.jmpfuncs.f879e16e2ecea937,"",%progbits
  18 0000 789C6362 		.ascii	"x\234cb`b\300\006>\001q+\020\2630002U3\374j\230\321"
  18      6062C006 
  18      3E01712B 
  18      10B33030 
  18      30325533 
  19 0018 2090C9C8 		.ascii	" \220\311\310 \307\3008\267a\206C&##X\025\222\024\223"
  19      20C7C038 
  19      B7618643 
  19      26232358 
  19      15921493 
  20 002c 1C833844 		.ascii	"\034\2038D\212\031]\212E\216A\033\"\305\212E\227\031"
  20      8A195D8A 
  20      458E411B 
  20      22C58A45 
  20      9719
  21 003e 0E5D6C72 		.ascii	"\016]lr\014^\020)v,\272\202q\333\225\216\333\256\"\024"
  21      0C5E1029 
  21      762CBA82 
  21      71DB958E 
  21      DBAE2214 
  22 0052 5D40C8C0 		.ascii	"]@\310\300\014\"X\200\312\"\0303\0319@\276\022uL)K\314"
  22      0C225880 
  22      CA221833 
  22      193940BE 
  22      12754C29 
  23 0068 4B4E4D51 		.ascii	"KNMQ\310N-\312K\315Q\310\315OIe\020\326\322\322R\010"
  23      C84E2DCA 
  23      4BCD51C8 
  23      CD4F4965 
  23      10D6D2D2 
  24 007e C82F2A51 		.ascii	"\310/*Q\360\314K\313\267R\000\002\006.g ?\265B\327\327"
  24      F0CC4BCB 
  24      B7520002 
  24      062E6720 
  24      3FB542D7 
  25 0093 18220DE4 		.ascii	"\030\"\015\344\246*\204%\026e&\346\225X)0p8\006\371"
  25      A62A8425 
  25      166526E6 
  25      95582930 
  25      703806F9 
ARM GAS  /tmp/cc110c1w.s 			page 2


  26 00a7 9699EBFA 		.ascii	"\226\231\353\372B$\035\213\22232KR\223KJ\213R\201\222"
  26      42241D8B 
  26      9233324B 
  26      52934B4A 
  26      8B528192 
  27 00bb 5CEECECE 		.ascii	"\\\356\316\316\012&z\026z\2060\275\271\005\2319\251"
  27      0A267A16 
  27      7A8630BD 
  27      B9059939 
  27      A9
  28 00cc 45609315 		.ascii	"E`\223\025\030\000\355\375Xi"
  28      1800EDFD 
  28      5869
  29              		.text
  30              		.section	.gnu.lto_.inline.f879e16e2ecea937,"",%progbits
  31 0000 789C6362 		.ascii	"x\234cb`b\300\006\246Ai\026\006\006\341[\014\214`Ul"
  31      6062C006 
  31      A6416916 
  31      0606E15B 
  31      0C8C6055 
  32 0015 0BE4C18A 		.ascii	"\013\344\301\212\231\270\031@\"D\223\214\014\334'@\034"
  32      99B81940 
  32      2244938C 
  32      0CDC2740 
  32      1C
  33 0026 9E179F99 		.ascii	"\236\027\237\231\221\014\001JL\360cf\3409\003\222\343"
  33      910C014A 
  33      4CF06366 
  33      E0390392 
  33      E3
  34 0037 5BB38A05 		.ascii	"[\263\212\005]\216\205\201C\000(\305\366A\017\315j\006"
  34      5D8E8581 
  34      430028C5 
  34      F6410FCD 
  34      6A06
  35 0049 0080DD0D 		.ascii	"\000\200\335\015M"
  35      4D
  36              		.text
  37              		.section	.gnu.lto_.pureconst.f879e16e2ecea937,"",%progbits
  38 0000 789C6362 		.ascii	"x\234cb`b\340d\200\000\026\006\011F\011f\011\026+\000"
  38      6062E064 
  38      80001606 
  38      09460966 
  38      09162B00 
  39 0014 02DE009C 		.ascii	"\002\336\000\234"
  40              		.text
  41              		.section	.gnu.lto_test_print_port_info.f879e16e2ecea937,"",%progbits
  42 0000 789C6362 		.ascii	"x\234cb`b@\007\222@\\\000\024\336\000\244\031\231\031"
  42      60624007 
  42      92405C00 
  42      14DE00A4 
  42      199919
  43 0013 1899269C 		.ascii	"\030\231&\234c`h\344`bd\0041\030\030\031\352\231\030"
  43      636068E4 
  43      60626404 
  43      31181819 
  43      EA9918
ARM GAS  /tmp/cc110c1w.s 			page 3


  44 0026 EB2319C1 		.ascii	"\353#\031\301j\3273\035x\360\377\377\272\177\307\226"
  44      6AD7331D 
  44      78F0FFFF 
  44      BA7FC796 
  45 0036 FC619CCB 		.ascii	"\374a\234\313\304\005\024aehih\230\240\300\300\220\014"
  45      C4051461 
  45      65686968 
  45      98A0C0C0 
  45      900C
  46 0048 56110224 		.ascii	"V\021\002$A\332B\031\231@4\363y\206\226\007\247\026"
  46      41DA4219 
  46      994034F3 
  46      79869607 
  46      A716
  47 005a B327322E 		.ascii	"\263'2.dd\005JW3\374j\350h\020\310d\004*\207\230\010"
  47      6464054A 
  47      5733FC6A 
  47      E86810C8 
  47      64042A87 
  48 0070 1299D1D0 		.ascii	"\022\231\321\320`\233\311\310(\307\2403\267a\206C&P"
  48      609BC9C8 
  48      28C7A033 
  48      B7618643 
  48      2650
  49 0082 2B547D26 		.ascii	"+T}&\320=\014 #N?\306j\004\023\262\021\201\231\214,"
  49      D03D0C20 
  49      234E3FC6 
  49      6A0413B2 
  49      1181998C 
  50 0097 720C0E10 		.ascii	"r\014\016\020#X1\2148K\264+\274q\271\342\034q\256`\223"
  50      2358318C 
  50      384BB42B 
  50      BC71B9E2 
  50      1C71AE60 
  51 00ac 63888718 		.ascii	"c\210\207\030\301\216a\304\015\242]\221\201\313\025"
  51      C18E61C4 
  51      0DA25D91 
  51      81CB15
  52 00bb 37890E8B 		.ascii	"7\211\016\213\032\\aq\207hW\2643\342r\306]\342\234\301"
  52      1A5C6171 
  52      876857B4 
  52      33E272C6 
  52      5DE29CC1 
  53 00cf 21C7301B 		.ascii	"!\3070\033j\006'\212\031\027\031\032\037\334W\206\031"
  53      6A06278A 
  53      1917191A 
  53      1FDC5786 
  53      19
  54 00e0 01012140 		.ascii	"\001\001!@'\000S\015\310\014M==}\010*I-.\321/*\321/"
  54      2700530D 
  54      C80C4D3D 
  54      3D7D082A 
  54      492D2ED1 
  55 00f8 CE2F2D4A 		.ascii	"\316/-JN\205pAD|Q~~\211^2\203\260\226\226\226\202s~"
  55      4E857041 
  55      447C517E 
  55      7E895E32 
ARM GAS  /tmp/cc110c1w.s 			page 4


  55      83B09696 
  56 0110 6E41664E 		.ascii	"nAfNj\221\225\002\0100p\271;;+\230\350Y\350\031B\244"
  56      6A919502 
  56      083070B9 
  56      3B3B2B98 
  56      E859E819 
  57 0126 1D8B9233 		.ascii	"\035\213\22232KR\223KJ\213R\255\024\0308\034\203|\313"
  57      324B5293 
  57      4B4A8B52 
  57      AD141838 
  57      1C837CCB 
  58 013a CC757D61 		.ascii	"\314u}az\213R\025\302\022\2132\023\363J\200\222\\@~"
  58      7A8B5215 
  58      C2128B32 
  58      13F34A80 
  58      925C407E 
  59 014e 496A85AE 		.ascii	"Ij\205\256\2571D:\000\310U\360\314K\313\007\233\315"
  59      AF31443A 
  59      00C855F0 
  59      CC4BCB07 
  59      9BCD
  60 0160 20EA9852 		.ascii	" \352\230R\226\230\227\234\232\242\220\235Z\224\227"
  60      9698979C 
  60      9AA2909D 
  60      5A9497
  61 016f 9AA3909B 		.ascii	"\232\243\220\233\237\222\312\000\00026\327)"
  61      9F92CA00 
  61      003236D7 
  61      29
  62              		.text
  63              		.section	.gnu.lto_test_terminate_threads.f879e16e2ecea937,"",%progbits
  64 0000 789C5D92 		.ascii	"x\234]\222\277k\024A\024\307\277\337\231\235\33551 "
  64      BF6B1441 
  64      14C7BFDF 
  64      999DDD35 
  64      3120
  65 0012 36B62190 		.ascii	"6\266!\220B\310\335a\343\377`\237\023\255BX\302\261"
  65      42C8DD61 
  65      E3FF609F 
  65      13AD4258 
  65      C2B1
  66 0024 851C5CCE 		.ascii	"\205\034\\\316*Efs'\244\021\202Xh4\220 \011\026\202"
  66      2A456673 
  66      27A41182 
  66      58683490 
  66      20091682 
  67 0038 7F804DAE 		.ascii	"\177\200M\256\220\344\212\030R\012\026\253\205\215\376"
  67      90E48A18 
  67      520A16AB 
  67      858DFE
  68 0047 01211C5C 		.ascii	"\001!\034\\\336\354\354\336E\207\335y\363f\336\373\274"
  68      DEECECDE 
  68      4587DD79 
  68      F366DEFB 
  68      BC
  69 0058 1F330A0A 		.ascii	"\0373\012\012\377\217\307\362\217\010\324D2\006\325"
  69      FF8FC7F2 
ARM GAS  /tmp/cc110c1w.s 			page 5


  69      8F08D444 
  69      3206D5
  70 0067 CE37208B 		.ascii	"\3167 \213\025C\277\320*8y\010;c\206\367`o\0074~\333"
  70      1543BFD0 
  70      2A387908 
  70      3B6386F7 
  70      606F0734 
  71 007d F8F3411C 		.ascii	"\370\363A\034*\375r\0001\210zsb\020\221n\037\304\246"
  71      2AFD7200 
  71      31887A73 
  71      6210916E 
  71      1FC4A6
  72 0090 D2810923 		.ascii	"\322\201\011#n>\245\213\303\005\034X\373*\177q\364\223"
  72      6E3EA58B 
  72      C3051C58 
  72      FB2A7F71 
  72      F493
  73 00a2 6FED717F 		.ascii	"o\355q\177\337\216\306c2\245\344\264D$\304\023Q8_\010"
  73      DF8EC663 
  73      32A5E4B4 
  73      4424C413 
  73      51385F08 
  74 00b6 15FC9BE4 		.ascii	"\025\374\233\344gu\234\217\307\243\213O\277\366x7&V"
  74      67759C8F 
  74      C7A38B4F 
  74      BFF67837 
  74      2656
  75 00c8 79203C83 		.ascii	"y <\203\224:*\025\031\006}kw\346+=)\342.\313,\2315\251"
  75      943A2A15 
  75      19067D6B 
  75      77E62B3D 
  75      29E22ECB 
  76 00e0 44E821B6 		.ascii	"D\350!\266\362\335\257\341*?\320\224\216.\336$P\223"
  76      F2DDAFE1 
  76      2A3FD094 
  76      8E2EDE24 
  76      5093
  77 00f2 1A528E3E 		.ascii	"\032R\216>\303\326\217\313\243\201\362\206-\232\032"
  77      C3D68FCB 
  77      A381F286 
  77      2D9A1A
  78 0101 9624D83B 		.ascii	"\226$\330;\354f\326\336I\031l\340\312n\273\225yVx;\212"
  78      EC66D6DE 
  78      49196CE0 
  78      CA6EBB95 
  78      7956783B 
  79 0116 29102D4E 		.ascii	")\020-Nq\247\350\377\315\036L \316H\337\254\253\311"
  79      71A7E8FF 
  79      CD1E4C20 
  79      CE48DFAC 
  79      ABC9
  80 0128 005F6AFA 		.ascii	"\000_j\372\034\375\374\375\341\254\267\003&\3540)Y\342"
  80      1CFDFCFD 
  80      E1ACB703 
  80      26EC3029 
  80      59E2
  81 013a 9B32AA7C 		.ascii	"\2332\252|L\231bo\273\367\347\365\243\212\036I\340\242"
ARM GAS  /tmp/cc110c1w.s 			page 6


  81      4C99626F 
  81      BBF7E7F5 
  81      A38A1E49 
  81      E0A2
  82 014c 16E73284 		.ascii	"\026\3472\204\272Yck\352\034B\356\307\365!\306\344\220"
  82      BA59636B 
  82      EA1C42EE 
  82      C7F521C6 
  82      E490
  83 015e 45A6BFB3 		.ascii	"E\246\277\263\250by\320\364\022\276\203e\233\324G-0"
  83      A86279D0 
  83      F412BE83 
  83      659BD447 
  83      2D30
  84 0170 F3E69663 		.ascii	"\363\346\226cE\256\245\027\310\362\275\305*w?\226\005"
  84      45AEA517 
  84      C8F2BDC5 
  84      2A773F96 
  84      05
  85 0181 D99B738F 		.ascii	"\331\233s\217\355~\275\336\360_wm\275\333\350t\033\353"
  85      ED7EBDDE 
  85      F05F776D 
  85      BDDBE874 
  85      1BEB
  86 0193 EDE79D64 		.ascii	"\355\347\235d\315\253nZ\351\264\333\335z\002\246\327"
  86      CDAB6E5A 
  86      E9B4DBDD 
  86      7A02A6D7 
  87 01a3 62768594 		.ascii	"bv\205\224"
  88              		.text
  89              		.section	.gnu.lto_test_wait_threads.f879e16e2ecea937,"",%progbits
  90 0000 789C9552 		.ascii	"x\234\225R\277k\024A\024\376\276\231\235\335M0 6\266"
  90      BF6B1441 
  90      14FEBE99 
  90      9DDD4D30 
  90      2036B6
  91 0013 41B01072 		.ascii	"A\260\020rw\330\330\371\007\010\226\271`\252\020\226"
  91      77D8D8F9 
  91      070896B9 
  91      60AA1096 
  92 0023 10B69083 		.ascii	"\020\266\220\203\313\245J\221\331\334\011i\204 \010"
  92      CBA54A91 
  92      D9DC0969 
  92      842008
  93 0032 519B8434 		.ascii	"Q\233\2044b\022S*\261\311\025\242W\250\244\020\024,"
  93      6212532A 
  93      B1C915A2 
  93      57A8A410 
  93      142C
  94 0044 364552F9 		.ascii	"6ER\371\007\210\010\347\233\235\335Kb\347cwf\336\257"
  94      078808E7 
  94      9B9DDD4B 
  94      62E76377 
  94      66DEAF
  95 0057 EF7DEFCD 		.ascii	"\357}\357\315((\374+3\362\337\027sMv\306\240\332\370"
  95      2828FC2B 
  95      33F2DF17 
ARM GAS  /tmp/cc110c1w.s 			page 7


  95      734D76C6 
  95      A0DAF8
  96 006a 0C64B162 		.ascii	"\014d\261b\350\017Z\005\037\356\300\216\233\301u\330"
  96      E80F5A05 
  96      1FEEC08E 
  96      9BC175D8 
  97 007a 2B018D37 		.ascii	"+\001\2157\033\357\357\307\241\322\217\373\220\200\250"
  97      1BEFEFC7 
  97      A1D28FFB 
  97      9080A8
  98 0089 3B210111 		.ascii	";!\001\021\351\354 V\225\016L\030qu\226\256\016o`\333"
  98      E9EC2056 
  98      950E4C18 
  98      717596AE 
  98      0E6F60DB 
  99 009d DA27F9E9 		.ascii	"\332'\371\351\253\023>\263G\275-\373g8$S\012\247)\""
  99      AB133EB3 
  99      47BD2DFB 
  99      67382453 
  99      0AA72922 
 100 00b1 211E88C2 		.ascii	"!\036\210\302\311bS\301e\222\007\352(\037\016\367\276"
 100      C96253C1 
 100      659207EA 
 100      281F0EF7 
 100      BE
 101 00c2 FE3A39E4 		.ascii	"\376:9\344\2651b\236\333\202g\220R\307\245\"b\320\263"
 101      B531629E 
 101      DB826790 
 101      52C7A522 
 101      62D0B3
 102 00d5 7663B2D2 		.ascii	"vc\262\322\223\242\356\264\254\302\254I%\233\036`-\337"
 102      93A2EEB4 
 102      ACC2AC49 
 102      259B1E60 
 102      2DDF
 103 00e7 7F1FCE73 		.ascii	"\177\037\316s\207\246Lt\365F\205\232\324\220v\364'\254"
 103      87A64C74 
 103      F546859A 
 103      D49076F4 
 103      27AC
 104 00f9 FDF8B6DB 		.ascii	"\375\370\266\333W>p\221\246\206))\366\002\3173k\257"
 104      573E7091 
 104      A6862929 
 104      F602CF33 
 104      6BAF
 105 010b A60C56F0 		.ascii	"\246\014V\360\333\256\273\223yXd;\024S@,\362\034\356"
 105      DBAEBB93 
 105      7958643B 
 105      1453402C 
 105      F21CEE
 106 011e 237A3FB3 		.ascii	"#z?\263\333#\020\027\244/\366\325d\200w5\375\005\275"
 106      DB231017 
 106      A42FF6D5 
 106      64807735 
 106      FD05BD
 107 0131 FCE0D1B8 		.ascii	"\374\340\321\270\217\003F\330aRbIn\312\010\020Zo7_\037"
 107      8F0346D8 
ARM GAS  /tmp/cc110c1w.s 			page 8


 107      61526249 
 107      6ECA0810 
 107      5A6F375F 
 108 0146 97B46AD8 		.ascii	"\227\264j\330\263\"w\377\233\330%\036Mq\373\226\273"
 108      B32277FF 
 108      9BD8251E 
 108      4D71FB96 
 108      BB
 109 0157 EBDD374F 		.ascii	"\353\3357O\357Ulc\211/f\343\262\006P\027g&\336*9\204"
 109      EF556C63 
 109      892F66E3 
 109      B2065017 
 109      6726DE2A 
 110 016d DCB79BAB 		.ascii	"\334\267\233\253X*'\213\316\317\262\250\302\362@\347"
 110      582A278B 
 110      CECFB2A8 
 110      C2F240E7 
 111 017d 97FA1D2C 		.ascii	"\227\372\035,\307\256^j\0013\233c\016+rWt\214,?\274"
 111      C7AE5E6A 
 111      01339B63 
 111      0E2B7257 
 111      748C2C3F 
 112 0192 59CDC2CB 		.ascii	"Y\315\302\313\264@v'\334\343\275U\2577\374\327YX\352"
 112      B4407627 
 112      DCE3BD55 
 112      AF37FCD7 
 112      5958EA
 113 01a5 34DA9DC6 		.ascii	"4\332\235\306Rk\271\235,x\325-s\355V\253SO\300\364/"
 113      526BB99D 
 113      2C78D52D 
 113      73ED56AB 
 113      534FC0F4 
 114 01ba 44D69701 		.ascii	"D\326\227\001"
 115              		.text
 116              		.section	.gnu.lto_test_wait_tick.f879e16e2ecea937,"",%progbits
 117 0000 789C8D53 		.ascii	"x\234\215SOH\024a\024\177of\326]5\303c\377X\027!(\252"
 117      4F481461 
 117      147F6F66 
 117      D65D35C3 
 117      63FF5817 
 118 0017 9DD443D7 		.ascii	"\235\324C\327\302.\202{q\015\254\3132\216\303\356\300"
 118      C22E827B 
 118      710DACCB 
 118      328EC3EE 
 118      C0
 119 0028 8E2333E3 		.ascii	"\216#3\343\242tpV\367\020\005!\013Q$R\226\011k\241T"
 119      A2747056 
 119      F7100521 
 119      0B512452 
 119      96096BA1 
 120 003d 0405125B 		.ascii	"\004\005\022['=\270b7\365\262\027\021\205\302\350\322"
 120      273DB862 
 120      37F5B217 
 120      1185C2E8 
 120      D2
 121 004e 1F707BDF 		.ascii	"\037p{\337\214\215\353f\3410\3377\3377\357}\277\367"
 121      8C8DEB66 
ARM GAS  /tmp/cc110c1w.s 			page 9


 121      E130DF37 
 121      DF37EF7D 
 121      BFF7
 122 0060 FBBDDF0C 		.ascii	"\373\275\337\014\007\034T^\307iH<@\027\002 \017\310"
 122      071C545E 
 122      C769483C 
 122      40170220 
 122      0FC8
 123 0072 8D1600D2 		.ascii	"\215\026\000\322\001\016\221-\000a\210\303\241\353\350"
 123      010E912D 
 123      006188C3 
 123      A1EBE8
 124 0081 E4CE72F9 		.ascii	"\344\316r\371b\2514\263s{r\016_p\001\001T\004\037M,"
 124      62A934B3 
 124      737B720E 
 124      5F700101 
 124      54041F4D 
 125 0096 EA838C6D 		.ascii	"\352\203\214m\217\206\000d'\267\223f\006p\0159\366\344"
 125      8F860064 
 125      27B79366 
 125      06700D39 
 125      F6E4
 126 00a8 9720535C 		.ascii	"\227 S\\x\346\227p\002}\024\276\011?\355[v\275\212\234"
 126      78E69770 
 126      027D14BE 
 126      093FED5B 
 126      76BD8A9C 
 127 00bc 8C2E7617 		.ascii	"\214.v\027\022\016\022\030qY\200\341\000@#L\330v\266"
 127      120E1218 
 127      715980E1 
 127      0040234C 
 127      D876B6
 128 00cf F82EB7F8 		.ascii	"\370.\267\370\001\263#\366\274\235\311\227J\330\240"
 128      01B323F6 
 128      BC9DC997 
 128      4AD8A0
 129 00de A2C0C10D 		.ascii	"\242\300\301\015du\330\031_\310yT\011\373e\261w\002"
 129      6475D819 
 129      5FC87954 
 129      09FB65B1 
 129      7702
 130 00f0 B181020C 		.ascii	"\261\201\002\014\177\235\037\231:\341\361s\027\371o"
 130      7F9D1F99 
 130      3AE1F173 
 130      17F96F
 131 00ff 9FC6F833 		.ascii	"\237\306\3703\022>\305F\217|\376\371\275\357\265\247"
 131      123EC546 
 131      8F7CFEF9 
 131      BDEFB5A7 
 132 010f BC5DEEFE 		.ascii	"\274]\356\376\373:O\227K&\377c\365\3561\373qz\324\336"
 132      FB3A4F97 
 132      4B26FF63 
 132      F5EE31FB 
 132      717AD4DE 
 133 0123 212A4498 		.ascii	"!*D\230\203e\334\243R\357R\371\253\311\273\200w\326"
 133      8365DCA3 
 133      52EF52F9 
ARM GAS  /tmp/cc110c1w.s 			page 10


 133      ABC9BB80 
 133      77D6
 134 0135 9BA9D74E 		.ascii	"\233\251\327N\007dt\222dR+\243@\2035\205\232\215\260"
 134      07647492 
 134      64522BA3 
 134      40833585 
 134      9A8DB0
 135 0148 42AF28C6 		.ascii	"B\257(\306\273V\005a\013\307\355\007\227U\364\357S\265"
 135      BB560561 
 135      0BC7ED07 
 135      9755F4EF 
 135      53B5
 136 015a 17FFBC1B 		.ascii	"\027\377\274\033\017\270\245\026\341\343\352\334\257"
 136      0FB8A516 
 136      E1E3EADC 
 136      AF
 137 0167 CD5C162B 		.ascii	"\315\\\026+\005oL\255\361|\231\270qO\234]zs\222\021"
 137      056F4CAD 
 137      F17C99B8 
 137      714F9C5D 
 137      7A739211 
 138 017b CB39C4AA 		.ascii	"\3139\304\252h\370i8\200q\024\316\301\264\235I\027\327"
 138      68F86938 
 138      807114CE 
 138      C1B49D49 
 138      17D7
 139 018d 960A5914 		.ascii	"\226\012Y\024T\254\036\203\207\244\237\254\253aljm\272"
 139      54AC1E83 
 139      87A49FAC 
 139      AB616C6A 
 139      6DBA
 140 019f 048758AD 		.ascii	"\004\207X\255C\240\233\331)\341kW\321\"\014\177\031"
 140      43A09BD9 
 140      29E16B57 
 140      D1220C7F 
 140      19
 141 01b0 392AE12B 		.ascii	"9*\341+\332\306\321Gp\216\273\333[\353\263k\350V\224"
 141      DAC6D147 
 141      708EBBDB 
 141      5BEBB36B 
 141      E85694
 142 01c3 70DAF1A0 		.ascii	"p\332\361\240\322\366\315B\245\355\022NR\333\016\341"
 142      D2F6CD42 
 142      A5ED124E 
 142      52DB0EE1 
 143 01d3 3BFCCFF7 		.ascii	";\374\317\367\255q\346\373\333\375\276?\252\013\226"
 143      AD71E6FB 
 143      DBFDBE3F 
 143      AA0B96
 144 01e2 7DC25E8F 		.ascii	"}\302^\217\346\353\366\372R\355\032Vs\200Y\022\316\320"
 144      E6EBF6FA 
 144      52ED1A56 
 144      73805912 
 144      CED0
 145 01f4 C22BFDC7 		.ascii	"\302+\375\307\034\011_b\320\245\265\014\351\355'+G\\"
 145      1C095F62 
 145      D0A5B50C 
ARM GAS  /tmp/cc110c1w.s 			page 11


 145      E9ED272B 
 145      475C
 146 0206 F3E32E00 		.ascii	"\363\343.\000\373I\220\375\034,\371l8,\272\267\245\230"
 146      FB4990FD 
 146      1C2CF96C 
 146      382CBAB7 
 146      A598
 147 0218 966858A2 		.ascii	"\226hX\242\251\367\033\262\342n\331\0243t\335\012\313"
 147      A9F71BB2 
 147      E26ED914 
 147      3374DD0A 
 147      CB
 148 0229 70C1CBD4 		.ascii	"p\301\313\324MQ\3265M\357\025\373t\3032\305+\035\221"
 148      4D51D635 
 148      4DEF15FB 
 148      74C332C5 
 148      2B1D91
 149 023c D6C88028 		.ascii	"\326\310\200('d\335Pb\251KZ8\001\276\224\224\354W\232"
 149      2764DD50 
 149      62A94B5A 
 149      3801BE94 
 149      94EC579A 
 150 0250 0E38A30C 		.ascii	"\0168\243\014Xbk$\332\026\025\325^9\331\337\243\210"
 150      58626B24 
 150      DA1615D5 
 150      5E39D9DF 
 150      A388
 151 0262 B266AA66 		.ascii	"\262f\252f,.\313t\256\241\374\004\261\361r\022\346\240"
 151      2C2ECB74 
 151      AEA1FC04 
 151      B1F17212 
 151      E6A0
 152 0274 49F1E03F 		.ascii	"I\361\340?\343)\213\302~\312\262TM\251\217D;B\335\222"
 152      E3298BC2 
 152      7ECAB254 
 152      4DA98F44 
 152      3B42DD92 
 153 0288 A9F419EA 		.ascii	"\251\364\031\352\371\320\351\213\300\031\340\327\024"
 153      F9D0E98B 
 153      C019E0D7 
 153      14
 154 0295 4D3706A1 		.ascii	"M7\006\241\245\034\"!%wUD;#-\315b{\373U\261\263-\222"
 154      A51C2221 
 154      25775544 
 154      3B232DCD 
 154      627BFB55 
 155 02ad 6A629118 		.ascii	"jb\221\030\251O&{\010W<\244xV\333\240\374\337\347\001"
 155      A94F267B 
 155      08573CA4 
 155      7856DBA0 
 155      FCDFE701 
 156 02c1 4241     		.ascii	"BA"
 157              		.text
 158              		.section	.gnu.lto_.symbol_nodes.f879e16e2ecea937,"",%progbits
 159 0000 789C4DCD 		.ascii	"x\234M\315IR\002A\020@\321\374U]\315$\342F\206sy\240"
 159      49520241 
 159      1040D1FC 
ARM GAS  /tmp/cc110c1w.s 			page 12


 159      555DCD24 
 159      E2468673 
 160 0016 24828D4B 		.ascii	"$\202\215KO\340\306\215\367`\317\005\034\240i\006Q\300"
 160      4FE0C68D 
 160      F760CF05 
 160      1CA06906 
 160      51C0
 161 0028 31581A76 		.ascii	"1X\032v\322\0256\265y\361#3\262\2348\271B\312\347\036"
 161      D21536B5 
 161      79F12333 
 161      B29C38B9 
 161      42CAE71E 
 162 003c 51919B89 		.ascii	"Q\221\233\211\210\352\3555n\206RexF\202\212\313Pw\262"
 162      88EAED35 
 162      6E865265 
 162      7846828A 
 162      CB5077B2 
 163 0050 3447FDC9 		.ascii	"4G\375\311\322\024\212\245\360\2043\036\360FN\"\005"
 163      D2148AA5 
 163      F084331E 
 163      F0464E22 
 163      05
 164 0061 0B82B124 		.ascii	"\013\202\261$5V\324\2145u\343\205\206\261\241i\274\322"
 164      3556D48C 
 164      3575E385 
 164      86B1A169 
 164      BCD2
 165 0073 32DE3833 		.ascii	"2\33683\266\264\215\035\347\306\236\216\361\316E\001"
 165      B6B48D1D 
 165      E7C69E8E 
 165      F1CE4501 
 166 0083 9F68527E 		.ascii	"\237hR~?\034\302\007\032\252\372B\323\252\276\321ZU"
 166      3F1CC207 
 166      1AAAFA42 
 166      D3AABED1 
 166      5A55
 167 0095 3F68FDBF 		.ascii	"?h\375\277\274te4\373-\274\224\273\243]\031\307\316"
 167      BC746534 
 167      FB2DBC94 
 167      BBA35D19 
 167      C7CE
 168 00a7 638FB238 		.ascii	"c\217\2628\317\342<vn\322\223\374\376\220z\337/M\006"
 168      CFE23C76 
 168      6ED293FC 
 168      FE907ADF 
 168      2F4D06
 169 00ba C77BF207 		.ascii	"\307{\362\007\246E_\201"
 169      A6455F81 
 170              		.text
 171              		.section	.gnu.lto_.refs.f879e16e2ecea937,"",%progbits
 172 0000 789C35C1 		.ascii	"x\2345\301\307\021\2000\014\0000[\\\350\201P6a\377\335"
 172      C7118030 
 172      0C00305B 
 172      5CE88150 
 172      3661FFDD 
 173 0014 78704842 		.ascii	"xpHB<\361\311\014\272\220J\321\377\353`4\231-V\325f"
 173      3CF1C90C 
ARM GAS  /tmp/cc110c1w.s 			page 13


 173      BA904AD1 
 173      FFEB6034 
 173      992D56D5 
 174 0029 D71C4E97 		.ascii	"\327\034N\227;^\"\266\001\\"
 174      3B5E22B6 
 174      015C
 175              		.text
 176              		.section	.gnu.lto_.decls.f879e16e2ecea937,"",%progbits
 177 0000 789CAD9B 		.ascii	"x\234\255\233\013p\324F\232\200\325\322\330\343\301"
 177      0B70D446 
 177      9A80D5D2 
 177      D8E3C1
 178 000f E69DE448 		.ascii	"\346\235\344Hm\022\314^r\273I\035\330\006BH\325\335"
 178      6D12CC5E 
 178      72BB491D 
 178      D8064248 
 178      D5DD
 179 0021 023114A1 		.ascii	"\0021\024\241*\354Q6\331K\325\326\355\254\030\013<\207"
 179      2AEC5136 
 179      D94BD5D6 
 179      EDAC180B 
 179      3C87
 180 0033 3DE39B91 		.ascii	"=\343\233\2211\324^U\204\241 \313c16$\004\2101\257\360"
 180      31D45E55 
 180      84A120CB 
 180      63313624 
 180      048831AF 
 181 0048 0C18CC33 		.ascii	"\014\030\3143\200\231\3600^C\300\274\011^`\022\2073"
 181      8099F030 
 181      5E43C0BC 
 181      095E6012 
 181      8733
 182 005a 24B92C81 		.ascii	"$\271,\201\220\004L\230\373\273%\215\036\323\232\221"
 182      90044C98 
 182      FBBB258D 
 182      1ED39A91 
 183 006a E0547423 		.ascii	"\340Tt#\311\335\337\377\367\337\177w\377jiX\206e\236"
 183      C9DDDFFF 
 183      F7DF7F77 
 183      FF6A6958 
 183      86659E
 184 007d 61192606 		.ascii	"a\031&\006\307\336a\014\363z\027\206Ic\030\3467\220"
 184      C7DE610C 
 184      F37A1786 
 184      496318E6 
 184      3790
 185 008f 3C905642 		.ascii	"<\220VBZ\005i\035\244\365\2206B\332\004\351#H[ \325"
 185      5A05691D 
 185      A4F59036 
 185      42DA04E9 
 185      23485B20 
 186 00a4 33F281CB 		.ascii	"3\362\201\313\356\206\264\017R#\244O \035\205t\034\322"
 186      EE86B40F 
 186      5223A44F 
 186      201D8574 
 186      1CD2
 187 00b6 A7902A10 		.ascii	"\247\220*\020\303\374\011RO8\177\033\376\237\001i>\244"
ARM GAS  /tmp/cc110c1w.s 			page 14


 187      C3FC0952 
 187      4F387F1B 
 187      FE9F0169 
 187      3EA4
 188 00c8 A5907642 		.ascii	"\245\220vB\332\003i\037\244FH\237@:\002\351\030\244"
 188      DA03691F 
 188      A446489F 
 188      403A02E9 
 188      18A4
 189 00da 16489F42 		.ascii	"\026H\237Bj\205t\026\322\005H\237!\306p`\271\2406\323"
 189      6A857416 
 189      D205489F 
 189      21C67060 
 189      B9A036D3 
 190 00ee 86343D9B 		.ascii	"\2064=\233(\272\252m\301\007\247\324;\256\350i>p;2\030"
 190      28BAAA6D 
 190      C107A7D4 
 190      3BAEE869 
 190      3E703B32 
 191 0103 D916DD20 		.ascii	"\331\026\335 eAj\205$\201\214\277A\272\002\351\244R"
 191      65416A85 
 191      24818CBF 
 191      41BA02E9 
 191      A452
 192 0115 9655CAE3 		.ascii	"\226U\312\343v\"\245}\372\2431\005\353*\244\251Hc5*"
 192      7622A57D 
 192      FAA33105 
 192      EB2AA4A9 
 192      4863352A 
 193 0129 F6A2B13E 		.ascii	"\366\242\261>Q\352\273\025\333_\203\277\3777\244\016"
 193      51EABB15 
 193      DB5F83BF 
 193      FF37A40E 
 194 0139 1D3B0AD7 		.ascii	"\035;\012\327_@\372\022\322uH\377\300\312\254\007\220"
 194      5F40FA12 
 194      D27548FF 
 194      C0CAAC07 
 194      90
 195 014a 652A0CDC 		.ascii	"e*\014\334\027}\340\376/ =\007\251\037\244\227 \365"
 195      177DE0FE 
 195      2F203D07 
 195      A91FA497 
 195      20F5
 196 015c 87940B69 		.ascii	"\207\224\013i\020\244!l\242]2\2319\222T)\325\315\222"
 196      10A4216C 
 196      A25D3299 
 196      39925429 
 196      D5CD92
 197 016f 5E6FEED6 		.ascii	"^o\356\326\223\251\222\340\310^\322\315\303\274\203"
 197      93A992E0 
 197      C85ED2CD 
 197      C3BC83
 198 017e 6F47D74A 		.ascii	"oG\327J}\3720\314[\210Gp+\203\234dy\210\360\027\230"
 198      7DFA30CC 
 198      5B884770 
 198      2B839C64 
 198      7988F017 
ARM GAS  /tmp/cc110c1w.s 			page 15


 199 0193 355014CA 		.ascii	"5P\024\312\263<Z\215<\320P\026%\342\361!\377\035\037"
 199      B33C5A8D 
 199      3CD05016 
 199      25E2F121 
 199      FF1D1F
 200 01a6 B8BA7CAE 		.ascii	"\270\272|\256\236\305P\234\276\036\251\370'\225j\253"
 200      9EC5509C 
 200      BE1EA9F8 
 200      27956AAB 
 201 01b6 504F7246 		.ascii	"POrF\224\221\024\035I\011\245J\266Z\303\245\324\370"
 201      9491141D 
 201      4909A54A 
 201      B65AC3A5 
 201      D4F8
 202 01c8 502728CB 		.ascii	"P'(\313\243\235<\241\250bUo%\312La\020Y]\245\376\222"
 202      A39D3CA1 
 202      A862556F 
 202      25CA4C61 
 202      10595DA5 
 203 01de B8AABD15 		.ascii	"\270\252\275\025\300z\307\252n\260P\265W\012U\3279S"
 203      C07AC7AA 
 203      6EB050B5 
 203      570A55D7 
 203      3953
 204 01f0 759C5ABF 		.ascii	"u\234Z\277\213R\177\223cM7[h\352I\241\351\306\344\232"
 204      8B527F93 
 204      634D375B 
 204      68EA49A1 
 204      E9C6E49A 
 205 0204 D60D37A9 		.ascii	"\326\0157\251:\\\005d(\200-\216U\335j\241\252;\205\252"
 205      3A5C0564 
 205      28802D8E 
 205      55DD6AA1 
 205      AA3B85AA 
 206 0218 1F69AA2A 		.ascii	"\037i\252*\236/\315\222~\275\276[\274F\017\265\006\036"
 206      9E2FCD92 
 206      7EBDBE5B 
 206      BC460FB5 
 206      061E
 207 022a 42C4F5AB 		.ascii	"B\304\365\253\242[\227=)\271xTO\234\377\237\021\363"
 207      A25B973D 
 207      29B97854 
 207      4F9CFF9F 
 207      11F3
 208 023c 12B3411E 		.ascii	"\022\263A\036\021\207~\2210\006\234p;\367\036\346$)"
 208      11877E91 
 208      30069C70 
 208      3BF71EE6 
 208      2429
 209 024e 83473B08 		.ascii	"\203G;\010y9B\240a\003zI\001\361\210\363\350\301\344"
 209      793942A0 
 209      61037A49 
 209      01F188F3 
 209      E8C1E4
 210 0261 5A2D8069 		.ascii	"Z-\200i\234G;\211\3058\306Y\341\276L\255T\027\215.;"
 210      9C473B89 
 210      C538C659 
ARM GAS  /tmp/cc110c1w.s 			page 16


 210      E1BE4CAD 
 210      54178D2E 
 211 0276 7E8D7F5F 		.ascii	"~\215\177_\212\314\224b\261\267\231\247\230\305J\007"
 211      8ACC9462 
 211      B1B799A7 
 211      98C54A07 
 212 0286 4848E4D1 		.ascii	"HH\344\321o\236\2644\344\036\364\224r\366\246\"\230"
 212      6F9EB434 
 212      E41EF494 
 212      72F6A622 
 212      98
 213 0297 654E991A 		.ascii	"eN\231\032\3000\377\304\254\305<i\275\304\021\032.\277"
 213      C030FFC4 
 213      ACC53C69 
 213      BDC4111A 
 213      2EBF
 214 02a9 1BF5352A 		.ascii	"\033\3655*\272\027\031\246+Y\257HmKV\325\364h,\326W"
 214      BA1719A6 
 214      2B59AF48 
 214      6D4B56D5 
 214      F4682CD6 
 215 02be 96C5C2A4 		.ascii	"\226\305\302\244h\207\276\317L\337O\245\2373\323;m\321"
 215      6887BECF 
 215      4CDF4FA5 
 215      9F33D33B 
 215      6DD1
 216 02d0 1BCDF483 		.ascii	"\033\315\364\203Tz\254e\376\323R]e$\026\033f6i=\262"
 216      547AAC65 
 216      FED3525D 
 216      6524161B 
 216      6636693D 
 217 02e5 76EA4314 		.ascii	"v\352C\024\233\316g\251zUJ\365\353\2454\031\207+|\002"
 217      9BCE67A9 
 217      7A554AF5 
 217      EBA53419 
 217      872B7C02 
 218 02f9 8AD13C4D 		.ascii	"\212\321<M\341\035NT3Z\025\275w\346\333J\264pF]\263"
 218      E11D4E54 
 218      335A15BD 
 218      77E6DB4A 
 218      B470465D 
 219 030e 742B16EB 		.ascii	"t+\026\353\356\240\363\233\024E9Y\206a\320\307\027\224"
 219      EEA0F39B 
 219      14453959 
 219      8661D0C7 
 219      1794
 220 0320 489F259A 		.ascii	"H\237%\232\373\033V\024\036\255A/\330]-\022\2047kCX"
 220      FB1B5614 
 220      1EAD412F 
 220      D85D2D12 
 220      84376B43 
 221 0335 3314B1D5 		.ascii	"3\024\261\325\336\004[\311\205Zh\255\217\3549>OB\252"
 221      DE045BC9 
 221      855A68AD 
 221      8FEC393E 
 221      4F42AA
 222 0348 13341127 		.ascii	"\0234\021'h\262\000\234\240\232\357\314\273G\\\357K"
ARM GAS  /tmp/cc110c1w.s 			page 17


 222      68B2009C 
 222      A09AEFCC 
 222      BB475CEF 
 222      4B
 223 0359 879C8E9C 		.ascii	"\207\234\216\234\223I\214\327\213YH\346\366f\315ru."
 223      93498CD7 
 223      8B5948E6 
 223      F666CD72 
 223      752E
 224 036b 15309289 		.ascii	"\0250\222\211\317\034\177_\361,\236\221N\243^\000\271"
 224      CF1C7F5F 
 224      F12C9E91 
 224      4EA35E00 
 224      B9
 225 037c 6BD23A25 		.ascii	"k\322:%\204e\036\222*\347\240\272\\Q^\343\243\333\226"
 225      84651E92 
 225      2AE7A0BA 
 225      5C515EE3 
 225      A3DB96
 226 038f 5EA944D3 		.ascii	"^\251D\323\241\005\362\337\030\2121\224\243\037S\007"
 226      A105F2DF 
 226      188A3194 
 226      A31F5307 
 227 039f 15223FB6 		.ascii	"\025\"?\266,GR\335!D\021i\230\344\025\265\027|\325\354"
 227      2C4752DD 
 227      21441169 
 227      98E415B5 
 227      177CD5EC 
 228 03b3 2213DE25 		.ascii	"\"\023\336%\242\370\006\216\252x\335p+\014t1\251\322"
 228      A2F8068E 
 228      AA78DD70 
 228      2B0C7431 
 228      A9D2
 229 03c5 96A0F8E5 		.ascii	"\226\240\370\345S\252\342m6\024\257\214\234\236\363"
 229      53AAE26D 
 229      3614AF8C 
 229      9C9EF3
 230 03d4 C1D35871 		.ascii	"\301\323Xq\036\265\202;\261LK\234K\353\266\370*\243"
 230      1EB5823B 
 230      B14C4B9C 
 230      4BEBB6F8 
 230      2AA3
 231 03e6 7A6B378F 		.ascii	"zk7\217\211w\006\346\023^\205\235r\014\313\246\251\252"
 231      897706E6 
 231      135E859D 
 231      720CCBA6 
 231      A9AA
 232 03f8 7A9FD65A 		.ascii	"z\237\326Z\036]!\003\347*\352\007y\024\362\370\3012"
 232      1E5D2103 
 232      E72AEA07 
 232      7914F2F8 
 232      C132
 233 040a E738B54F 		.ascii	"\3478\265Oi\246K\335\204{-\313\211I\224\001,;$}\030"
 233      69A64BDD 
 233      847B2DCB 
 233      89499401 
 233      2C3B247D 
ARM GAS  /tmp/cc110c1w.s 			page 18


 234 041f 2ADD79B7 		.ascii	"*\335y\267\366\310i4\203X\375K\262\202\325\270\214\035"
 234      F6C86934 
 234      8358FD4B 
 234      B282D5B8 
 234      8C1D
 235 0431 6A1FD5B9 		.ascii	"j\037\325\271r~\016\361\214\016\002Z\3462/\205n\323"
 235      727E0EF1 
 235      8C0E025A 
 235      E6322F85 
 235      6ED3
 236 0443 52E836AE 		.ascii	"R\3506\256nn\217v\202\237\210\2723N\213\263\314\032"
 236      6E6E8F76 
 236      829F88BA 
 236      334E8BB3 
 236      CC1A
 237 0455 97C980B4 		.ascii	"\227\311\200\264n\313\2602 v\302\253\325\250f\206\324"
 237      6ECBB032 
 237      2076C2AB 
 237      D5A86686 
 237      D4
 238 0466 9CAB3A72 		.ascii	"\234\253:r\272U\253\301\367\211\260o\314\216|\245\275"
 238      BA55ABC1 
 238      F789B06F 
 238      CC8E7CA5 
 238      BD
 239 0477 F9C52592 		.ascii	"\371\305%\222\324C\376Sj?\336\331\362\036\351\264\224"
 239      D443FE53 
 239      6A3FDED9 
 239      F21EE9B4 
 239      94
 240 0488 B308AB8A 		.ascii	"\263\010\253\212\177\236\210\217\022\361\337\231\305"
 240      7F9E888F 
 240      12F1DF99 
 240      C5
 241 0495 EFED68FE 		.ascii	"\357\355h\376\275,\376;[\342\367^\\\224(\336r\366S\372"
 241      BD2CFE3B 
 241      5BE2F75E 
 241      5C9428DE 
 241      72F653FA 
 242 04a9 FA4AFB8D 		.ascii	"\372J\373\215gV\020!w\311pY\232f\356\354a\231zY\344"
 242      67561021 
 242      77C97059 
 242      9A66EEEC 
 242      61997A59 
 243 04be 5A578065 		.ascii	"ZW\200eV\247\251\332?\322h\205f\336\370\217\015\333"
 243      56A7A9DA 
 243      3FD26885 
 243      66DEF88F 
 243      0DDB
 244 04d0 25E9CFE9 		.ascii	"%\351\317\351\252\016\037:&f\033\014\261\377\"\031\377"
 244      AA0E1F3A 
 244      26661B0C 
 244      B1FF2219 
 244      FF
 245 04e1 326C831D 		.ascii	"2l\203\035\230\245#UF\032\365\260\315\216aF\315Z\365"
 245      98A52355 
 245      461AF5B0 
ARM GAS  /tmp/cc110c1w.s 			page 19


 245      CD8E6146 
 245      CD5AF5
 246 04f4 B0AD7660 		.ascii	"\260\255v`=\2545;\243\207mw\0143jvN\017\333i\007\326"
 246      3DAC353B 
 246      A3876D77 
 246      0C336A76 
 246      4E0FDB69 
 247 050a C75AB30B 		.ascii	"\307Z\263\013z\330^\3070\243f\227\364\260\003v`\331"
 247      7AD85EC7 
 247      30A36697 
 247      F4B00376 
 247      60D9
 248 051c 14CDE287 		.ascii	"\024\315\342\207U$pK\213dX&\222\246N\010\016}\232\321"
 248      5524704B 
 248      8B645826 
 248      92A64E08 
 248      0E7D9AD1 
 249 0530 1887D39C 		.ascii	"\030\207\323\234\316`\206v\303\014vm\225<\203\251K\331"
 249      CE608676 
 249      C30C766D 
 249      953C83A9 
 249      4BD9
 250 0542 313BC424 		.ascii	"1;\304$\016Su\\\267.~\352\030f\354\226Z\031\326L`g\355"
 250      0E53755C 
 250      B72E7EEA 
 250      1866EC96 
 250      5A19D64C 
 251 0559 C092384C 		.ascii	"\300\2228L+\206\321\"\327\310,\351\0354}\3333I#\031"
 251      2B86D122 
 251      D7C82CE9 
 251      1D347DDB 
 251      33492319 
 252 056d 98C39EDD 		.ascii	"\230\303\236\335H\346\260\032\026/X\227\322\250+\237"
 252      48E6B01A 
 252      162F5897 
 252      D2A82B9F 
 253 057d 2D56E7E7 		.ascii	"-V\347\347\013\376\205\254}\357\022T{\302t\3501\255"
 253      0BFE85AC 
 253      7DEF1254 
 253      7BC274E8 
 253      31AD
 254 058f 7D1EE362 		.ascii	"}\036\343b\346\361h'1\3650n\321\330\256c\345\252\325"
 254      E6F16827 
 254      31F5306E 
 254      D1D8AE63 
 254      E5AAD5
 255 05a2 ACCE55BF 		.ascii	"\254\316U\277qlz\263\233\375P\215\356TJKru\273OV\017"
 255      716C7AB3 
 255      9BFD508D 
 255      EE544A4B 
 255      7275BB4F 
 256 05b8 0B6AAC71 		.ascii	"\013j\254q\265\361_\211\221\226\021#\335\241\333\333"
 256      B5F15F89 
 256      91961123 
 256      DDA1DBDB 
 257 05c8 06A8F3E6 		.ascii	"\006\250\363\346}\226\200j\011\350A\202\265\221\311"
 257      7D96806A 
ARM GAS  /tmp/cc110c1w.s 			page 20


 257      09E84182 
 257      B591C9
 258 05d7 DAC868B9 		.ascii	"\332\310h\271\370s\212\362\230\342\244,\313\314L7\231"
 258      F8738AF2 
 258      98E2A42C 
 258      CBCC4C37 
 258      99
 259 05e8 CEA06292 		.ascii	"\316\240b\222\311$n\272\007\316MW\253\230n5i\361\234"
 259      C9246EBA 
 259      07CE4D57 
 259      AB986E35 
 259      69F19C
 260 05fb 74738BB1 		.ascii	"ts\213\261%\2345\243\332q32\214\315X\032{\204f\034\224"
 260      259C35A3 
 260      DA713332 
 260      8CCD581A 
 260      7B84661C 
 261 0610 9BB19E34 		.ascii	"\233\261\2364c\311\377C3\352\0347\243\207\256\031\344"
 261      63C9FF43 
 261      33EA1C37 
 261      A387AE19 
 261      E4
 262 0621 B163913C 		.ascii	"\261c\221<_\366f\252\223G|d\363\211\355m\010\267\"\347"
 262      5FF666AA 
 262      93477C64 
 262      F389ED6D 
 262      08B722E7 
 263 0635 4FA26CF9 		.ascii	"O\242l\371v\352G\255;'u\341\271d+<\277\032\017\317\353"
 263      76EA47AD 
 263      3B2775E1 
 263      B9642B3C 
 263      BF1A0FCF 
 264 064a 89C9D6A6 		.ascii	"\211\311\326\246S\006\215-T\347\317\363\372\023\333"
 264      53068D2D 
 264      54E7CFF3 
 264      FA13DB
 265 0659 3710D0A6 		.ascii	"7\020\320\246\004\333\247\233L\237n4=\\bI?\221Y\346"
 265      04DBA79B 
 265      4C9F6E34 
 265      3D5C6249 
 265      3F9159E6 
 266 066d 6DE50EBE 		.ascii	"m\345\016\276p3\217\\\217e\032\210\032\330|\217\022"
 266      70338F5C 
 266      8F651A88 
 266      1AD87C8F 
 266      12
 267 067e 06E2C7DD 		.ascii	"\006\342\307\335/k\324\345N\266\320\307\217E\254\214"
 267      2F6BD4E5 
 267      4EB6D0C7 
 267      8F45AC8C 
 268 068e AC58A03E 		.ascii	"\254X\240>V\016\303k\324\341\307\304\355?e^\243L\201"
 268      560EC36B 
 268      D4E1C7C4 
 268      ED3F655E 
 268      A34C81
 269 06a1 F6698B39 		.ascii	"\366i\2139X}\336n\217\312s\335\001\226<\344&t[+2E\332"
 269      587DDE6E 
ARM GAS  /tmp/cc110c1w.s 			page 21


 269      8FCA73DD 
 269      01963CE4 
 269      26745B2B 
 270 06b8 F886AE88 		.ascii	"\370\206\256\210\225'\357\327/\007W\036\267\033.\337"
 270      9527EFD7 
 270      2F07571E 
 270      B71B2EDF 
 271 06c8 357543FB 		.ascii	"5uC\373c\332\355\236\322\015\251\236\212\376\250\262"
 271      63DAED9E 
 271      D20DA99E 
 271      8AFEA8B2 
 272 06d8 B24843BE 		.ascii	"\262HC\276&b\217\262\246\207\242\357~\214\316B\225d"
 272      26628FB2 
 272      A687A2EF 
 272      7E8CCE42 
 272      9564
 273 06ea 1CE1BFA5 		.ascii	"\034\341\277\245\036\252m\327=Ru\226\274\313\301\243"
 273      1EAA6DD7 
 273      3D527596 
 273      BCCBC1A3 
 274 06fa 2F10AB50 		.ascii	"/\020\253Pi1@J\363D\256\012\315\271N\006}\223:\350["
 274      6931404A 
 274      F344AE0A 
 274      CDB94E06 
 274      7D933AE8 
 275 070f E479D26D 		.ascii	"\344y\322m\356\364\006\363<\351h\320\325\272\221\261"
 275      EEF406F3 
 275      3CE968D0 
 275      D5BA91B1 
 276 071f 39761F6E 		.ascii	"9v\037n\342\207\225S\035\321;\325*\367c\271\0008U\323"
 276      E2879553 
 276      1DD13BD5 
 276      2AF763B9 
 276      003855D3 
 277 0733 1AD9A952 		.ascii	"\032\331\251R9\201\024\177\307\323\203H\336@$\2376{"
 277      3981147F 
 277      C7D38348 
 277      DE40249F 
 277      367B
 278 0745 C1F9CEE6 		.ascii	"\301\371\316\346\331\312\026\323i[^p\227\342\005\247"
 278      D9CA16D3 
 278      695B5E70 
 278      97E205A7 
 279 0755 1FD10BC0 		.ascii	"\037\321\013\300\245o\376\025\021\234\034J\237\211+"
 279      A56FFE15 
 279      119C1C4A 
 279      9F892B
 280 0764 E9B01714 		.ascii	"\351\260\027\024\334\003\301\251ad\377\212|v\035/Y\237"
 280      DC03C1A9 
 280      6164FF8A 
 280      7C761D2F 
 280      599F
 281 0776 B178FFEE 		.ascii	"\261x\377\356R\202k\311\226\321\271\226fF\036\235e\361"
 281      52826BC9 
 281      96D1B996 
 281      66461E9D 
 281      65F1
ARM GAS  /tmp/cc110c1w.s 			page 22


 282 0788 DED53916 		.ascii	"\336\3259\026\357]\235'\371EV\267\203e\345\026\227X"
 282      EF5D9D27 
 282      F94556B7 
 282      8365E516 
 282      9758
 283 079a DD7EEF35 		.ascii	"\335~\3575\263\031\355>\341\244\024\323\252\367\276"
 283      B319ED3E 
 283      E1A414D3 
 283      AAF7BE
 284 07a9 E8637A5F 		.ascii	"\350cz_\375\345\223.\374R\205s\260\231v\365\250:p\257"
 284      FDE5932E 
 284      FC528573 
 284      B09976F5 
 284      A83A70AF 
 285 07bd 9281DB91 		.ascii	"\222\201\333\221`\335\016shjgW\353\316\2436%~\260"
 285      60DD0E73 
 285      686A6757 
 285      EBCEA336 
 285      257EB0
 286 07d0 CC7DB78D 		.ascii	"\314}\267\215\200?\233b\365\370B{a\221\315\2351\365"
 286      803F9B62 
 286      F5F8427B 
 286      6191CD9D 
 286      31F5
 287 07e2 95DBFF44 		.ascii	"\225\333\377D\344\235\342/\211\247=0\331\302\306\006"
 287      E49DE22F 
 287      89A73D30 
 287      D9C2C606 
 288 07f2 DBDC0C5C 		.ascii	"\333\334\014\\\245\303<\214\267-=\241\356\024w\330\030"
 288      A5C33C8C 
 288      B72D3DA1 
 288      EE1477D8 
 288      18
 289 0803 C6959106 		.ascii	"\306\225\221\006\303N\261\352\201\035\311=0\251=\015"
 289      C34EB1EA 
 289      811DC93D 
 289      30A93D0D 
 290 0813 5DD8A11B 		.ascii	"]\330\241\033 7\311\000\371J?(XfY\206\015\333\377\332"
 290      2037C900 
 290      F94A3F28 
 290      58665986 
 290      0DDBFFDA 
 291 0827 CA15611A 		.ascii	"\312\025a\032:#o\321\253\233\356\253\315<\332Dd\340"
 291      3A236FD1 
 291      AB9BEEAB 
 291      CD3CDA44 
 291      64E0
 292 0839 E9FB129E 		.ascii	"\351\373\022\236\350\317\222\207p\331G7\333Q.\327\032"
 292      E8CF9287 
 292      70D94737 
 292      DB512ED7 
 292      1A
 293 084a B6A2266E 		.ascii	"\266\242&n\\\022\241\354\264\303\033j\325\330\312\310"
 293      5C12A1EC 
 293      B4C31B6A 
 293      D5D8CAC8 
 294 085a EEB3CB15 		.ascii	"\356\263\313\025\236\274!}\3001\317\250\337\371\032"
ARM GAS  /tmp/cc110c1w.s 			page 23


 294      9EBC217D 
 294      C031CFA8 
 294      DFF91A
 295 0869 433CD764 		.ascii	"C<\327d\0077\334v\337k\357_xt\201l\354_$\033\373\355"
 295      0737DC76 
 295      DF6BEF5F 
 295      7874816C 
 295      EC5F241B 
 296 087f 24FF9AE4 		.ascii	"$\377\232\344s\311D9\237\344\013H\276\220\344KI\276"
 296      73C94439 
 296      9FE40B48 
 296      BE90E44B 
 296      49BE
 297 0891 8AE4EB48 		.ascii	"\212\344\353H\276\231\344\355$\377\206\344\337\222\374"
 297      BE99E4ED 
 297      24FF86E4 
 297      DF92FC
 298 08a0 16C96F93 		.ascii	"\026\311o\223\374{;\023\256)\0064\275d;\221A\177G\366"
 298      FC7B3B13 
 298      AE290634 
 298      BD643B91 
 298      417F47F6 
 299 08b4 034B7B47 		.ascii	"\003K{Gv\366\302\303\032\353W\2148\332\263\322\342'"
 299      76F6C2C3 
 299      1AEB578C 
 299      38DAB3D2 
 299      E227
 300 08c6 D6F09A4C 		.ascii	"\326\360\232LU\313\240K\233\205.\367i\272D\032\252\347"
 300      55CBA04B 
 300      9B852EF7 
 300      69BA441A 
 300      AAE7
 301 08d8 3D2DADA4 		.ascii	"=-\255\244\276\225M\362\272\356\201Y\217z\362Xi\320"
 301      BE954DF2 
 301      BAEE8159 
 301      8F7AF258 
 301      69D0
 302 08ea E3BA851E 		.ascii	"\343\272\205\036\017\215z\374\222Y)E[\243\313\216?\330"
 302      0F8D7AFC 
 302      92592945 
 302      5BA3CB8E 
 302      3FD8
 303 08fc 8660FE6A 		.ascii	"\206`\376j\206\321\011\021V_\365\203\016\034\320\343"
 303      86D10911 
 303      565FF583 
 303      0E1CD0E3 
 304 090c 462A9AD4 		.ascii	"F*\232\324\305\227\337'\024\234\3049\375Lb:G\377L\302"
 304      C597DF27 
 304      149CC439 
 304      FD4C623A 
 304      47FF4CC2 
 305 0920 1557FD56 		.ascii	"\025W\375V\\uK\261\225\034\253oA}$\362\363\261E0\247"
 305      5C754BB1 
 305      951CAB6F 
 305      417D24F2 
 305      F3B14530 
 306 0935 4048FC10 		.ascii	"@H\374\020\364\327\324\217\007\024\221do\001\0227\364"
ARM GAS  /tmp/cc110c1w.s 			page 24


 306      F4D7D48F 
 306      07149164 
 306      6F011237 
 306      F4
 307 0946 2D24EBED 		.ascii	"-$\353\3552,\211Yf)f\321\232k\276d\231\237R7s\266\322"
 307      322C8959 
 307      662966D1 
 307      9A6BBE64 
 307      999F5237 
 308 095d CCC14C83 		.ascii	"\314\301L\203\364Nd\034\217f\0027>\214\377\304\334\227"
 308      F44E641C 
 308      8F660237 
 308      3E8CFFC4 
 308      DC97
 309 096f C0EAE596 		.ascii	"\300\352\345\226\237\342\324j\276\034\231\250\262od"
 309      9FE2D46A 
 309      BE1C99A8 
 309      B26F64
 310 097e 29F0B98E 		.ascii	")\360\271\216\273n\236E\327ud1\006\253%T\234\303\305"
 310      BB6E9E45 
 310      D7756431 
 310      06AB2554 
 310      9CC3C5
 311 0991 0319D9E1 		.ascii	"\003\031\331\341\"\237\315\336\212\252\352\346\301\352"
 311      229FCDDE 
 311      8AAAEAE6 
 311      C1EA
 312 099f 47DE7563 		.ascii	"G\336uc]X\246\323l\021\203\326\304\333Yf\266\007\251"
 312      5D58A6D3 
 312      6C1183D6 
 312      C4DB5966 
 312      B607A9
 313 09b2 8E8FFF96 		.ascii	"\216\217\377\226\026\337\307!\222\376\302\351\335[\301"
 313      16DFC721 
 313      92FEC2E9 
 313      DD5BC1
 314 09c1 20662473 		.ascii	" f$s\030L\025\211\315\376\025\3517\325r\262f0\227q\277"
 314      184C1589 
 314      CDFE15E9 
 314      37D572B2 
 314      66309771 
 315 09d6 D4B5AB99 		.ascii	"\324\265\253\231\325\325e\325\272\013\347\330\251[\225"
 315      D5D565D5 
 315      BA0BE7D8 
 315      A95B95
 316 09e5 A6ABCBA9 		.ascii	"\246\253\313\251ukl\325\275\344\326\325u\251u\027\333"
 316      756B6CD5 
 316      BDE4D6D5 
 316      75A97517 
 316      DB
 317 09f6 AA5BD745 		.ascii	"\252[\327E3o]$r\367\177!\320\227\310\004G\031\013\206"
 317      336F5D24 
 317      72F77F21 
 317      D097C804 
 317      47190B86 
 318 0a0a A7F68816 		.ascii	"\247\366\210\026i\303\372\202R\004\333\321{\325G\363"
 318      69C3FA82 
ARM GAS  /tmp/cc110c1w.s 			page 25


 318      5204DBD1 
 318      7BD547F3 
 319 0a1a 200A4A19 		.ascii	" \012J\031\233\363h\005\367\002\355\275\277\261\030"
 319      9BF36805 
 319      F702EDBD 
 319      BFB118
 320 0a29 F9008E33 		.ascii	"\371\000\2163\006D\221N![\276\233:\024\372\371\347f"
 320      0644914E 
 320      215BBE9B 
 320      3A14FAF9 
 320      E766
 321 0a3b F919A499 		.ascii	"\371\031\244\231L\305U,\253\000\037)H\216\304n\022\234"
 321      4CC5552C 
 321      AB001F29 
 321      488EC46E 
 321      129C
 322 0a4d 694B037F 		.ascii	"iK\003\177\216c\345\332k9\323\213\300\005\036\344P\205"
 322      8E63E5DA 
 322      6B39D38B 
 322      C0051EE4 
 322      5085
 323 0a5f 6C830A55 		.ascii	"l\203\012UM$\230\301\\\226Yl\007\226\344\231\252Z\017"
 323      4D2498C1 
 323      5C96596C 
 323      0796E499 
 323      AA5A0F
 324 0a72 AB750CCB 		.ascii	"\253u\014\3136\031]\215\014Vq\344[\031\016\257\337k"
 324      36195D8D 
 324      0C5671E4 
 324      5B190EAF 
 324      DF6B
 325 0a84 48BE8EE4 		.ascii	"H\276\216\344\0338C\234\370\241\307\374\270 w\252\216"
 325      1B38439C 
 325      F8A1C7FC 
 325      B82077AA 
 325      8E
 326 0a95 A7F53D93 		.ascii	"\247\365=\223\232H\357\003Sg\325Z\264\217|M\310\031"
 326      9A48EF03 
 326      5367D55A 
 326      B48F7C4D 
 326      C819
 327 0aa7 F6962C91 		.ascii	"\366\226,\221<Z\256\225T\347\"\316\030\234\361h\231"
 327      3C5AAE95 
 327      54E722CE 
 327      189CF168 
 327      99
 328 0ab8 E309F423 		.ascii	"\343\011\364#\213\011\264k\334d\333<\346)0A\354\026"
 328      8B09B46B 
 328      DC64DB3C 
 328      E6293041 
 328      EC16
 329 0aca 98E29E63 		.ascii	"\230\342\236c\366{>\220\344\276\222\027\207('+dX\035"
 329      F67B3E90 
 329      E4BE9217 
 329      8728272B 
 329      64581D
 330 0add 9648B0B2 		.ascii	"\226H\260\262\037\340\250\013\004V\365\003\235=\364"
ARM GAS  /tmp/cc110c1w.s 			page 26


 330      1FE0A80B 
 330      0456F503 
 330      9D3DF4
 331 0aec F7F576E2 		.ascii	"\367\365v\342\321\016\245\235\211\207U;\267\033\347"
 331      D10EA59D 
 331      8987553B 
 331      B71BE7
 332 0afb FB5B55D1 		.ascii	"\373[U\321}[\376Z\203\026Iuj\200\001m$S~\314c\016Sx"
 332      7D5BFE5A 
 332      83164975 
 332      6A80016D 
 332      24537ECC 
 333 0b13 B48B3E87 		.ascii	"\264\213>\207\253\015\232\333\310\311\022\024\364\331"
 333      AB0D9ADB 
 333      C8C91214 
 333      F4D9
 334 0b21 ED74F4E1 		.ascii	"\355t\364\341.\211\350\27544\253\331\312\204n\333EG"
 334      2E89E8BD 
 334      3434ABD9 
 334      CA846EDB 
 334      4547
 335 0b33 CFCE4C44 		.ascii	"\317\316LD\357\247\2419M\353\203F\364\235\217\351\350"
 335      EFA7A139 
 335      4DEB8346 
 335      F49D8FE9 
 335      E8
 336 0b44 E314F441 		.ascii	"\343\024\364A\032\332\245\241\217\344\031\320\235\215"
 336      1ADAA5A1 
 336      8FE419D0 
 336      9D8D
 337 0b52 74F482AC 		.ascii	"t\364\202\254D\364!\032:M3\310Q#\272\246\235\216>KA"
 337      44F4211A 
 337      3A4D33C8 
 337      5123BAA6 
 337      9D8E3E4B 
 338 0b67 1FA5A1D3 		.ascii	"\037\245\241\3235\255\217\031\321\313:\350\350\367\272"
 338      35AD8F19 
 338      D1CB3AE8 
 338      E8F7BA
 339 0b76 26A29B69 		.ascii	"&\242\233ih\267\246\365\011#\272\341k:\272\215\202>"
 339      68B7A6F5 
 339      0923BAE1 
 339      6B3ABA8D 
 339      823E
 340 0b88 4E436768 		.ascii	"NCghZ\2374\242\367\375\235\216^\321-\021}\222\206\366"
 340      5A9F34A2 
 340      F7FD9D8E 
 340      5ED12D11 
 340      7D9286F6 
 341 0b9c 685A9F32 		.ascii	"hZ\2372\242\317\336\241\243\333)\350\3234t\027M\353"
 341      A2CFDEA1 
 341      A3DB29E8 
 341      D3347417 
 341      4DEB
 342 0bae F34674DB 		.ascii	"\363Ft\333\217t\364\272\356\211\350s4t\246\246\365\005"
 342      8F74F4BA 
 342      EE89E873 
ARM GAS  /tmp/cc110c1w.s 			page 27


 342      3474A6A6 
 342      F505
 343 0bc0 23FA4E27 		.ascii	"#\372N'\035\3755\005}\221\206\316\322\320\027M~\035"
 343      1DFD3505 
 343      7D9186CE 
 343      D2D0174D 
 343      7E1D
 344 0bd2 A3A3B7F6 		.ascii	"\243\243\267\366HD_\246\241\273\222\023uj7\255\033M"
 344      48445FA6 
 344      A1BB9213 
 344      756A37AD 
 344      1B4D
 345 0be4 4916F936 		.ascii	"I\026\3716\216\3765\271\374\374cU\353o\226\265N&\221"
 345      8EFE35B9 
 345      FCFC6355 
 345      EB6F96B5 
 345      4E2691
 346 0bf7 75C5B216 		.ascii	"u\305\262\026~\374\264\252u\325\262\326\203$\265\256"
 346      7EFCB4AA 
 346      75D5B2D6 
 346      8324B5AE 
 347 0c07 69B5AC3E 		.ascii	"i\265\254>\2147}\272\313\243\250\343U\357s\213U\017"
 347      8C377DBA 
 347      CBA3A8E3 
 347      55EF738B 
 347      550F
 348 0c19 19459B7F 		.ascii	"\031E\233\177=0T-\347V8_8\226\334n!9]\221LH3\222n\205"
 348      3D30542D 
 348      E756385F 
 348      3896DC6E 
 348      21395D91 
 349 0c33 F2E806D9 		.ascii	"\362\350\006\331\006I\275\257I\213u\323U\324\037\231"
 349      0649BDAF 
 349      498B75D3 
 349      55D41F99 
 350 0c43 78045DF3 		.ascii	"x\004]\363\341\355\200\274\251z\235\303\273_\337\233"
 350      E1ED80BC 
 350      A97A9DC3 
 350      BB5FDF9B 
 351 0c53 DC372587 		.ascii	"\3347%\207(e\216\231k\332\262\360\347\2677RG\3153gD"
 351      28658E99 
 351      6BDAB2F0 
 351      E7B73752 
 351      47CD3367 
 352 0c68 16B7C5F7 		.ascii	"\026\267\305\367\2448\334\263RO\2440\037!l\006\336\273"
 352      A438DCB3 
 352      524FA430 
 352      1F216C06 
 352      DEBB
 353 0c7a 6D24CC94 		.ascii	"m$\314\224a3\035\303\262\015\260%z\330;v`V\0010\300"
 353      61331DC3 
 353      B20DB025 
 353      7AD83B76 
 353      60560130 
 354 0c8f 96EA61F3 		.ascii	"\226\352a\363\035\303\214\232-\327\303\252\355\300\254"
 354      1DC38C9A 
 354      2DD7C3AA 
ARM GAS  /tmp/cc110c1w.s 			page 28


 354      EDC0AC
 355 0c9e 3E430258 		.ascii	">C\002X\255\036\266\3301\314\250Y\275\036\366\276\035"
 355      AD1EB6D8 
 355      31CCA859 
 355      BD1EF6BE 
 355      1D
 356 0caf 98D56748 		.ascii	"\230\325gH\000\333\256\207\255p\0143j\266C\017[k\007"
 356      00DBAE87 
 356      AD700C33 
 356      6AB6430F 
 356      5B6B07
 357 0cc2 966DADD9 		.ascii	"\226m\255\331.=l\243c\230Q\263=z\330\026;0\253-m\200"
 357      2E3D6CA3 
 357      639851B3 
 357      3D7AD816 
 357      3B30AB2D 
 358 0cd8 7DAC876D 		.ascii	"}\254\207mw\0143j\266_\017\333e\007\226k\245\331\364"
 358      770C336A 
 358      B65F0FDB 
 358      6507966B 
 358      A5D9F4
 359 0ceb 48E3EFAB 		.ascii	"H\343\357\253x}l\217\251\352\264bz\024\327\027\353@"
 359      787D6C8F 
 359      A9EAB462 
 359      7A14D717 
 359      EB40
 360 0cfd 96C57834 		.ascii	"\226\305x4\313\345t&\236\355\242\317\304\372_\010i\245"
 360      CBE57426 
 360      9EEDA2CF 
 360      C4FA5F08 
 360      69A5
 361 0d0f F0670FE6 		.ascii	"\360g\017\346f\033\265\240\265\333h\304V\275\021\033"
 361      661BB5A0 
 361      B5DB68C4 
 361      56BD111B 
 362 0d1f ED1871B8 		.ascii	"\355\030q\2705\354\214\036v\330\016\354uk_9\247\207"
 362      35EC8C1E 
 362      76D80EEC 
 362      756B5F39 
 362      A787
 363 0d31 1D730C33 		.ascii	"\035s\0143jvA\017;a\0076\316Z\263Kz\330)\3070\275f\323"
 363      6A76410F 
 363      3B610736 
 363      CE5AB34B 
 363      7AD829C7 
 364 0d49 239735C7 		.ascii	"#\2275\307\303?\2370x\336p\343lk(\326\221\344Wy\213"
 364      C33F9F30 
 364      78DE70E3 
 364      6C6B28D6 
 364      91E45779 
 365 0d5e 5DEABEEA 		.ascii	"]\352\276\352\347\306}\325\317\265}\325\363f\275\015"
 365      E7C67DD5 
 365      CFB57DD5 
 365      F366BD0D 
 366 0d6e 14E5F42D 		.ascii	"\024\345\364-\212\021h\207~\245\345\321M\262\357\361"
 366      8A116887 
 366      7EA5E5D1 
ARM GAS  /tmp/cc110c1w.s 			page 29


 366      4DB2EFF1 
 367 0d7e 15D999F8 		.ascii	"\025\331\231\370\206\344\337\222\374\026\311o\223\374"
 367      86E4DF92 
 367      FC16C96F 
 367      93FC
 368 0d8c 7B92FF40 		.ascii	"{\222\377@\362\237H~\237\344\017H\376\220\344\222\013"
 368      F29F487E 
 368      9FE40F48 
 368      FE90E492 
 368      0B
 369 0d9d E795249F 		.ascii	"\347\225$\237I\362?\223|.\311\347\223|\001\311\027\222"
 369      49F23F93 
 369      7C2EC9E7 
 369      937C01C9 
 369      1792
 370 0daf BCC6A5DB 		.ascii	"\274\306\245\333\0051\305w\327\223\354w\274\347\212"
 370      0531C577 
 370      D793EC77 
 370      BCE78A
 371 0dbe C777F885 		.ascii	"\307w\370\205C\344V\364\373-\227'\253?\255\353'\377"
 371      43E456F4 
 371      FB2D9727 
 371      AB3FADEB 
 371      27FF
 372 0dd0 BC8B65EE 		.ascii	"\274\213e\356\3654\007\320\324\037t-q%\375A\327\373"
 372      F53407D0 
 372      D41F742D 
 372      7125FD41 
 372      D7FB
 373 0de2 AE84371C 		.ascii	"\256\2047\034 p\367\366\333\177\330\214\277k\227\036"
 373      2070F7F6 
 373      DB7FD88C 
 373      BF6B971E 
 374 0df2 C6DE9E3E 		.ascii	"\306\336\236>\023\251?n\333\324\213*S2\376\270m\231"
 374      13A93F6E 
 374      DBD48B2A 
 374      5332FEB8 
 374      6D99
 375 0e04 CBF4E3B6 		.ascii	"\313\364\343\266\345T!{:Z\227\242\2053$\371\225N]\206"
 375      E554217B 
 375      3A5A97A2 
 375      853324F9 
 375      954E5D86 
 376 0e18 2A64A72D 		.ascii	"*d\247-!\265f!+\250Bb\015\267_\277\247\265\244\237\375"
 376      21B56621 
 376      2BA84262 
 376      0DB75FBF 
 376      A7B5A49F 
 377 0e2d F735AB5C 		.ascii	"\3675\253\\\246\3675\035\211\357k\2763\250\252\354u"
 377      A6F7351D 
 377      89EF6BBE 
 377      33A8AAEC 
 377      75
 378 0e3e C77A2931 		.ascii	"\307z)1\362\363\314jI\252\226N7eU!\365\007)\363{\223"
 378      F2F3CC6A 
 378      49AA964E 
 378      37655521 
ARM GAS  /tmp/cc110c1w.s 			page 30


 378      F50729F3 
 379 0e54 ED3CAD53 		.ascii	"\355<\255SLq\253\362j^i\361\235\351\343\372\304[\274"
 379      4C71ABF2 
 379      6A5E69F1 
 379      9DE9E3FA 
 379      C45BBC
 380 0e67 D2DCE235 		.ascii	"\322\334\3425\324\026\337\335r\310\277\327\320w\262"
 380      D416DFDD 
 380      72C8BFD7 
 380      D077B2
 381 0e76 BFD4F4B6 		.ascii	"\277\324\364\266\345/\033\223\373\313&\252\314\345\373"
 381      E52F1B93 
 381      FBCB26AA 
 381      CCE5FB
 382 0e85 5A9E4D70 		.ascii	"Z\236Mp\320\013\366\004~\224\\\340\026\252\300\035\007"
 382      D00BF604 
 382      7E945CE0 
 382      16AAC01D 
 382      07
 383 0e96 2FBF9820 		.ascii	"/\277\230 \260\366\011[\002\353\223\013\334f1\"\316"
 383      B0F6095B 
 383      02EB930B 
 383      DC663122 
 383      CE
 384 0ea7 14D346C4 		.ascii	"\024\323F\3046\272L\223\2636\230\273n\207\325\210\370"
 384      36BA4C93 
 384      B33698BB 
 384      6E87D588 
 384      F8
 385 0eb8 8036220E 		.ascii	"\2006\"\016\330\022\262\313,d\267Q\010\343\362\025\363"
 385      D812B2CB 
 385      2C64B751 
 385      08E3F215 
 385      F3
 386 0ec9 A1E7070C 		.ascii	"\241\347\007\014\310\221\377\005\3039!1\307\037\360"
 386      C891FF05 
 386      C3392131 
 386      C71FF0
 387 0ed8 95941709 		.ascii	"\225\224\027\0119\276\342\360\264\2608\255L\010\017"
 387      39BEE2F0 
 387      B4B038AD 
 387      4C080F
 388 0ee7 28663CF8 		.ascii	"(f<\370\334_*x\305\364\321\277}3;\237\371CNq\260T\310"
 388      DC5F2A78 
 388      C5F4D1BF 
 388      7D333B9F 
 388      F9434E71 
 389 0efe 098A6230 		.ascii	"\011\212b0g\254\020\020\203\241\321!\276\254\330\357"
 389      67AC1010 
 389      83A1D121 
 389      BEACD8EF 
 390 0f0e 0BE71406 		.ascii	"\013\347\024\006\313C>!4\315\233\037,\022^\023\002\276"
 390      CB433E21 
 390      34CD9B1F 
 390      2C125E13 
 390      02BE
 391 0f20 62EF1B7E 		.ascii	"b\357\033~Q\360N\014\206\274#\012\306zG\215xmL\016\037"
ARM GAS  /tmp/cc110c1w.s 			page 31


 391      51F04E0C 
 391      86BC230A 
 391      C67A478D 
 391      786D4C0E 
 392 0f35 2AED1F08 		.ascii	"*\355\037\010\006\204\376\002?\301\037\227\031\026\213"
 392      0684FE02 
 392      3FC11F97 
 392      19168B
 393 0f44 FC0111E4 		.ascii	"\374\001\021\344e\224\303\377yC\274\342\213q\355D!,"
 393      6594C3FF 
 393      7943BCE2 
 393      8B71ED44 
 393      212C
 394 0f56 62FDC204 		.ascii	"b\375\302\004/_\342\314\033\012\006\305\001>\346\011"
 394      2F5FE2CC 
 394      1B0A06C5 
 394      013EE609 
 395 0f66 72511682 		.ascii	"rQ\026\202\212\336\262`H\364\372\003\023\203O\221\233"
 395      8ADEB260 
 395      48F4FA03 
 395      13834F91 
 395      9B
 396 0f77 A2102AF5 		.ascii	"\242\020*\365\007x\320A,\016\011|Q\270'\271]\301\373"
 396      0778D041 
 396      2C0E097C 
 396      51B827B9 
 396      5DC1FB
 397 0f8a 45F54E37 		.ascii	"E\365N7\335\035\277o\3623F\261%\376\011`\017/>\007\345"
 397      DD1DBF6F 
 397      F23346B1 
 397      25FE0960 
 397      0F2F3E07 
 398 0f9f B2       		.ascii	"\262"
 399 0fa0 34492581 		.ascii	"4I%\201.\332\305?ZZR\021\202\033&\237zE\017\346\221"
 399      2EDAC53F 
 399      5A5A5211 
 399      821B269F 
 399      7A450FE6 
 400 0fb5 F36CEB0E 		.ascii	"\363l\353\016\360\025\027A\235\356Ju\357\177\225\013"
 400      F0151741 
 400      9DEE4A75 
 400      EF7F950B 
 401 0fc5 E5D0861E 		.ascii	"\345\320\206\036\361\252\312-W@\230*\272\312B\302\224"
 401      F1AACA2D 
 401      5740982A 
 401      BACA42C2 
 401      94
 402 0fd6 34723D54 		.ascii	"4r=TO\364\005KK\203\201\034l\222p\016\330?\177\354T"
 402      4FF4054B 
 402      4B83811C 
 402      6C92700E 
 402      D83F7FEC 
 403 0feb 7CAFCC5F 		.ascii	"|\257\314_\"\204\3029\243\363\363\261~J7\273EhH\320"
 403      2284C239 
 403      A3F3F3B1 
 403      7E4A37BB 
 403      456848D0 
ARM GAS  /tmp/cc110c1w.s 			page 32


 404 0fff 2B       		.ascii	"+"
 405 1000 12F30F1A 		.ascii	"\022\363\017\032\350\305P\1770\213\230\323\027\014\210"
 405      E8C5507F 
 405      308B98D3 
 405      170C88
 406 100f 20E6C594 		.ascii	" \346\305\224\354b_0$\000,S\351\005\321'N\355o\257\226"
 406      EC625F30 
 406      24002C53 
 406      E905D127 
 406      4EED6FAF 
 407 1024 77CA2BA5 		.ascii	"w\312+\245\330H!a\0228\210WdC\203\331\320\313lh\010"
 407      D8482161 
 407      12388857 
 407      644383D9 
 407      D0CB6C68 
 408 1039 1B7A850D 		.ascii	"\033z\205\015\015eC\257r\241\274\\HylI\210\015\227q"
 408      0D6543AF 
 408      72A1BC5C 
 408      48796C49 
 408      880D9771 
 409 104d 804E0B08 		.ascii	"\200N\013\010\025B(-XR$\204\\\001\276T\350\022\026'"
 409      1542282D 
 409      58522484 
 409      5C01BE54 
 409      E8121627 
 410 1061 F325FE49 		.ascii	"\363%\376I\001\245\035C\006\203\327V\360\023\370\260"
 410      01A51D43 
 410      0683D756 
 410      F013F8B0 
 411 1071 90218645 		.ascii	"\220!\206E\342\006n\374\207\241^1\215\\\273\305RpU\270"
 411      E2066EFC 
 411      87A15E31 
 411      8D5CBBC5 
 411      527055B8 
 412 1085 9A58C24F 		.ascii	"\232X\302O\012\273\305\22001\014m\307\377\245\225\206"
 412      0ABBC590 
 412      30310C6D 
 412      C7FFA595 
 412      86
 413 1096 274171C5 		.ascii	"'Aq\305\034\351\241\242ip#C\230\352\027}P%\275B\014"
 413      1CE9A1A2 
 413      69702343 
 413      98EA177D 
 413      5025BD42 
 414 10ab 4EF8CFB2 		.ascii	"N\370\317\262^J\247B\005!\004\016\217Q\025\242\030*"
 414      5E4AA742 
 414      0521040E 
 414      8F5115A2 
 414      182A
 415 10bd 73876168 		.ascii	"s\207ah@\205,\350\261\260P\012\003\004\032\331\327\272"
 415      40852CE8 
 415      B1B0500A 
 415      03041AD9 
 415      D7BA
 416 10cf BF05DCFA 		.ascii	"\277\005\334\3724\037x\260\310A\016x\270U\226\001\265"
 416      341F78B0 
 416      C8410E78 
ARM GAS  /tmp/cc110c1w.s 			page 33


 416      B8559601 
 416      B5
 417 10e0 4BCBC1F8 		.ascii	"K\313\301\370\3265K\305\251\270f\260\" \204\334\244"
 417      D6354BC5 
 417      A9B866B0 
 417      222084DC 
 417      A4
 418 10f1 2C6EB308 		.ascii	",n\263\010\267\3132\205)X\011><\031n\011\025\370\004"
 418      B7CB3285 
 418      2958093E 
 418      3C196E09 
 418      15F804
 419 1104 957753FD 		.ascii	"\225wS\375\247\304\217\307Gw\235G\341;n<\020\374\201"
 419      A7C48FC7 
 419      47779D47 
 419      E13B6E3C 
 419      10FC81
 420 1117 4919A03B 		.ascii	"I\031\240;\361\250\014\241L\010\300\330\234\344\006"
 420      F1A80CA1 
 420      4C08C0D8 
 420      9CE406
 421 1126 242E015D 		.ascii	"$.\001]\304\227`\347H+-\013\006K\272\371\212\307\027"
 421      C49760E7 
 421      482B2D0B 
 421      064BBAF9 
 421      8AC717
 422 1139 178D57C7 		.ascii	"\027\215W\307\231\207\\\376;@\272\220\263\302\022A("
 422      99875CFE 
 422      3B40BA90 
 422      B3C21241 
 422      28
 423 114a 732B12D8 		.ascii	"s+\022\330\012>\223\014\232\011\345\023\301^n\322WB"
 423      0A3E930C 
 423      9A09E513 
 423      C15E6ED2 
 423      5742
 424 115c 515A5810 		.ascii	"QZX\020\313\3132D\201\017\025A;\334\302T\301\007\015"
 424      CBCB3244 
 424      810F1541 
 424      3BDCC254 
 424      C1070D
 425 116f 21E3CB07 		.ascii	"!\343\313\007}\347\025\345\241\026.\207\311\244\307"
 425      7DE715E5 
 425      A1162E87 
 425      C9A4C7
 426 117e 80225EE4 		.ascii	"\200\"^\344\007h7\362R\317\023a\001\232\202;'77\017"
 426      076837F2 
 426      52CF1361 
 426      019A823B 
 426      2737370F 
 427 1192 8CD533E1 		.ascii	"\214\3253\341\2463\306@\032c\2403\306 \032c\2203\306"
 427      A633C640 
 427      1A63A033 
 427      C6201A63 
 427      9033C6
 428 11a5 601A63B0 		.ascii	"`\032c\2603\306\3134\306\313\316\030Ch\214!\316\030"
 428      33C6CB34 
ARM GAS  /tmp/cc110c1w.s 			page 34


 428      C6CBCE18 
 428      43688C21 
 428      CE18
 429 11b7 AFD018AF 		.ascii	"\257\320\030\2578c\014\2451\206:c\274Jc\274\352\210"
 429      38630CA5 
 429      31863A63 
 429      BC4A63BC 
 429      EA88
 430 11c9 91974B61 		.ascii	"\221\227Ka\344\345:c\320\3744\317\231\237\346\321\374"
 430      E4E53A63 
 430      D0FC34CF 
 430      999FE6D1 
 430      FC
 431 11da 34CF999F 		.ascii	"4\317\231\237\346\321\3744o\320@\375tT\314\227(3z\341"
 431      E6D1FC34 
 431      6FD040FD 
 431      7454CC97 
 431      28337AE1 
 432 11ee F8B18306 		.ascii	"\370\261\203\006\346\274\361\306\310\234\361c\306N\311"
 432      E6BCF1C6 
 432      C89CF163 
 432      C64EC9
 433 11fd 8345BD14 		.ascii	"\203E\275\024\317\235~<\267e\306/`\206\313/\310\203"
 433      CF9D7E3C 
 433      B765C62F 
 433      6086CB2F 
 433      C883
 434 120f 34D05538 		.ascii	"4\320U86\277\3005r\314\250\002\266\260\200\0335\272"
 434      36BFC035 
 434      72CCA802 
 434      B6B0801B 
 434      35BA
 435 1221 202D3F7F 		.ascii	" -?\177lA\036\311\007\272\362\363G\025p\371\277\035"
 435      6C411EC9 
 435      07BAF2F3 
 435      471570F9 
 435      BF1D
 436 1233 CF8D2BCC 		.ascii	"\317\215+\314\347F\024\024p\005\371p\015\025^\0339\276"
 436      E7461414 
 436      7005F970 
 436      0D155E1B 
 436      39BE
 437 1245 801B896B 		.ascii	"\200\033\211k\216\035Q\300\376\233\\k\020\224\177\253"
 437      8E1D51C0 
 437      FE9B5C6B 
 437      10947FAB 
 438 1255 E039CB79 		.ascii	"\3409\313yr\012^\277{\372\212\1777~\264 \026BL#\224"
 438      720A5EBF 
 438      7BFA8A7F 
 438      377EB420 
 438      16424C23 
 439 126a 8E87B026 		.ascii	"\216\207\260&\311\224<\215\204?\276b(\374F\3207\331"
 439      C9943C8D 
 439      843FBE62 
 439      28FC46D0 
 439      37D9
 440 127c 4316B512 		.ascii	"C\026\265\0228\313\323\327Q\2264X\037s\362\307\026\216"
ARM GAS  /tmp/cc110c1w.s 			page 35


 440      38CBD3D7 
 440      51963458 
 440      1F73F2C7 
 440      168E
 441 128e 29D408A5 		.ascii	")\324\010\245a\177\330;\311\347\003JW/\230O\364\276"
 441      617FD83B 
 441      C9E7034A 
 441      572F984F 
 441      F4BE
 442 12a0 36A270D4 		.ascii	"6\242p\324\270\2021]\371\222\012~Z\030\026\310\022\177"
 442      B882315D 
 442      F9920A7E 
 442      5A1816C8 
 442      127F
 443 12b2 40489BC2 		.ascii	"@H\233\302\227\224\013\275\0224{+\307\346\312\211\243"
 443      97940BBD 
 443      12347B2B 
 443      C7E6CA89 
 443      A3
 444 12c3 B31008E9 		.ascii	"\263\020\010\351M\024$W\336I\202|6\310^G\301_\274\320"
 444      4D142457 
 444      DE49827C 
 444      36C85E47 
 444      C15FBCD0 
 445 12d7 C5252538 		.ascii	"\305%%8\350\350%\237\021\206/X\016k\177(\223X\341\315"
 445      E8E8259F 
 445      11862F58 
 445      0E6B7F28 
 445      9358E1CD 
 446 12eb 006EBDBC 		.ascii	"\000n\275\274\270\227\223\363\377\003\231\314\337\275"
 446      B89793F3 
 446      FF0399CC 
 446      DFBD
 447              		.text
 448              		.section	.gnu.lto_.symtab.f879e16e2ecea937,"",%progbits
 449 0000 74657374 		.ascii	"test_print_port_info\000\000\000\000\000\000\000\000"
 449      5F707269 
 449      6E745F70 
 449      6F72745F 
 449      696E666F 
 450 001c 00000000 		.ascii	"\000\000\000\000\267\000\000\000test_terminate_thre"
 450      B7000000 
 450      74657374 
 450      5F746572 
 450      6D696E61 
 451 0037 61647300 		.ascii	"ads\000\000\000\000\000\000\000\000\000\000\000\000"
 451      00000000 
 451      00000000 
 451      000000
 452 0046 BB000000 		.ascii	"\273\000\000\000threads\000\000\000\000\000\000\000"
 452      74687265 
 452      61647300 
 452      00000000 
 452      0000
 453 0058 00000000 		.ascii	"\000\000\000\000\000\177\001\000\000test_wait_threa"
 453      007F0100 
 453      00746573 
ARM GAS  /tmp/cc110c1w.s 			page 36


 453      745F7761 
 453      69745F74 
 454 0070 64730000 		.ascii	"ds\000\000\000\000\000\000\000\000\000\000\000\000\276"
 454      00000000 
 454      00000000 
 454      0000BE
 455 007f 00000074 		.ascii	"\000\000\000test_wait_tick\000\000\000\000\000\000\000"
 455      6573745F 
 455      77616974 
 455      5F746963 
 455      6B000000 
 456 0097 00000000 		.ascii	"\000\000\000\000\000\301\000\000\000wa\000\000\000\000"
 456      00C10000 
 456      00776100 
 456      000000
 457 00a6 00000000 		.ascii	"\000\000\000\000\000\000\000\000\203\001\000\000tes"
 457      00000000 
 457      83010000 
 457      746573
 458 00b5 745F6275 		.ascii	"t_buffer\000\000\000\000\000\000\000\000\000\000\000"
 458      66666572 
 458      00000000 
 458      00000000 
 458      000000
 459 00c8 008D0100 		.ascii	"\000\215\001\000\000test_suite\000\000\000\000\000\000"
 459      00746573 
 459      745F7375 
 459      69746500 
 459      00000000 
 460 00dd 00000000 		.ascii	"\000\000\000\000\000\000\232\001\000\000test_sequen"
 460      00009A01 
 460      00007465 
 460      73745F73 
 460      65717565 
 461 00f2 63655F30 		.ascii	"ce_001\000\000\002\000\000\000\000\000\000\000\000\000"
 461      30310000 
 461      02000000 
 461      00000000 
 461      0000
 462 0104 B5010000 		.ascii	"\265\001\000\000test_sequence_002\000\000\002\000\000"
 462      74657374 
 462      5F736571 
 462      75656E63 
 462      655F3030 
 463 011e 00000000 		.ascii	"\000\000\000\000\000\000\000\270\001\000\000test_se"
 463      000000B8 
 463      01000074 
 463      6573745F 
 463      7365
 464 0130 7175656E 		.ascii	"quence_003\000\000\002\000\000\000\000\000\000\000\000"
 464      63655F30 
 464      30330000 
 464      02000000 
 464      00000000 
 465 0145 00BB0100 		.ascii	"\000\273\001\000\000test_sequence_004\000\000\002\000"
 465      00746573 
 465      745F7365 
ARM GAS  /tmp/cc110c1w.s 			page 37


 465      7175656E 
 465      63655F30 
 466 015f 00000000 		.ascii	"\000\000\000\000\000\000\000\000\276\001\000\000tes"
 466      00000000 
 466      BE010000 
 466      746573
 467 016e 745F7365 		.ascii	"t_sequence_005\000\000\002\000\000\000\000\000\000\000"
 467      7175656E 
 467      63655F30 
 467      30350000 
 467      02000000 
 468 0186 0000C101 		.ascii	"\000\000\301\001\000\000test_sequence_006\000\000\002"
 468      00007465 
 468      73745F73 
 468      65717565 
 468      6E63655F 
 469 01a0 00000000 		.ascii	"\000\000\000\000\000\000\000\000\000\304\001\000\000"
 469      00000000 
 469      00C40100 
 469      00
 470 01ad 74657374 		.ascii	"test_sequence_007\000\000\002\000\000\000\000\000\000"
 470      5F736571 
 470      75656E63 
 470      655F3030 
 470      37000002 
 471 01c7 000000C7 		.ascii	"\000\000\000\307\001\000\000test_sequence_008\000\000"
 471      01000074 
 471      6573745F 
 471      73657175 
 471      656E6365 
 472 01e1 02000000 		.ascii	"\002\000\000\000\000\000\000\000\000\000\312\001\000"
 472      00000000 
 472      0000CA01 
 472      00
 473 01ee 00746573 		.ascii	"\000test_sequence_009\000\000\002\000\000\000\000\000"
 473      745F7365 
 473      7175656E 
 473      63655F30 
 473      30390000 
 474 0208 00000000 		.ascii	"\000\000\000\000\315\001\000\000test_sequence_010\000"
 474      CD010000 
 474      74657374 
 474      5F736571 
 474      75656E63 
 475 0222 00020000 		.ascii	"\000\002\000\000\000\000\000\000\000\000\000\320\001"
 475      00000000 
 475      000000D0 
 475      01
 476 022f 00007465 		.ascii	"\000\000test_sequence_011\000\000\002\000\000\000\000"
 476      73745F73 
 476      65717565 
 476      6E63655F 
 476      30313100 
 477 0249 00000000 		.ascii	"\000\000\000\000\000\323\001\000\000test_sequence_0"
 477      00D30100 
 477      00746573 
 477      745F7365 
ARM GAS  /tmp/cc110c1w.s 			page 38


 477      7175656E 
 478 0261 31320000 		.ascii	"12\000\000\002\000\000\000\000\000\000\000\000\000\326"
 478      02000000 
 478      00000000 
 478      0000D6
 479 0270 01000074 		.ascii	"\001\000\000test_sequence_013\000\000\002\000\000\000"
 479      6573745F 
 479      73657175 
 479      656E6365 
 479      5F303133 
 480 028a 00000000 		.ascii	"\000\000\000\000\000\000\331\001\000\000test_printl"
 480      0000D901 
 480      00007465 
 480      73745F70 
 480      72696E74 
 481 029f 6E000002 		.ascii	"n\000\000\002\000\000\000\000\000\000\000\000\000\305"
 481      00000000 
 481      00000000 
 481      00C5
 482 02ad 00000074 		.ascii	"\000\000\000test_print\000\000\002\000\000\000\000\000"
 482      6573745F 
 482      7072696E 
 482      74000002 
 482      00000000 
 483 02c2 00000000 		.ascii	"\000\000\000\000\313\000\000\000chThdTerminate\000\000"
 483      CB000000 
 483      63685468 
 483      64546572 
 483      6D696E61 
 484 02da 02000000 		.ascii	"\002\000\000\000\000\000\000\000\000\000\315\000\000"
 484      00000000 
 484      0000CD00 
 484      00
 485 02e7 00636854 		.ascii	"\000chThdWait\000\000\002\000\000\000\000\000\000\000"
 485      68645761 
 485      69740000 
 485      02000000 
 485      00000000 
 486 02fb 00007701 		.ascii	"\000\000w\001\000\000chThdSleep\000\000\002\000\000"
 486      00006368 
 486      54686453 
 486      6C656570 
 486      00000200 
 487 0310 00000000 		.ascii	"\000\000\000\000\000\000\000{\001\000\000"
 487      0000007B 
 487      010000
 488              		.text
 489              		.section	.gnu.lto_.opts,"",%progbits
 490 0000 272D6D63 		.ascii	"'-mcpu=cortex-m3' '-mno-thumb-interwork' '-mthumb' "
 490      70753D63 
 490      6F727465 
 490      782D6D33 
 490      2720272D 
 491 0033 272D6767 		.ascii	"'-ggdb' '-O2' '-fomit-frame-pointer' '-falign-funct"
 491      64622720 
 491      272D4F32 
 491      2720272D 
ARM GAS  /tmp/cc110c1w.s 			page 39


 491      666F6D69 
 492 0066 696F6E73 		.ascii	"ions=16' '-ffunction-sections' '-fdata-sections' '-"
 492      3D313627 
 492      20272D66 
 492      66756E63 
 492      74696F6E 
 493 0099 666E6F2D 		.ascii	"fno-common' '-flto'\000"
 493      636F6D6D 
 493      6F6E2720 
 493      272D666C 
 493      746F2700 
 494              		.text
 495              		.cfi_sections	.debug_frame
 496              		.section	.text.test_print_port_info,"ax",%progbits
 497              		.align	2
 498              		.p2align 4,,15
 499              		.global	test_print_port_info
 500              		.thumb
 501              		.thumb_func
 502              		.type	test_print_port_info, %function
 503              	test_print_port_info:
 504              	.LFB219:
 505              		.file 1 "../../../test/rt/source/test/test_root.c"
 506              		.loc 1 95 0
 507              		.cfi_startproc
 508              		@ args = 0, pretend = 0, frame = 0
 509              		@ frame_needed = 0, uses_anonymous_args = 0
 510              		.loc 1 98 0
 511 0000 40F20000 		movw	r0, #:lower16:.LC0
 512              		.loc 1 95 0
 513 0004 08B5     		push	{r3, lr}
 514              		.cfi_def_cfa_offset 8
 515              		.cfi_offset 3, -8
 516              		.cfi_offset 14, -4
 517              		.loc 1 98 0
 518 0006 C0F20000 		movt	r0, #:upper16:.LC0
 519 000a FFF7FEFF 		bl	test_print
 520              	.LVL0:
 521              		.loc 1 99 0
 522 000e 40F20000 		movw	r0, #:lower16:.LC1
 523 0012 C0F20000 		movt	r0, #:upper16:.LC1
 524 0016 FFF7FEFF 		bl	test_println
 525              	.LVL1:
 526              		.loc 1 101 0
 527 001a 40F20000 		movw	r0, #:lower16:.LC2
 528 001e C0F20000 		movt	r0, #:upper16:.LC2
 529 0022 FFF7FEFF 		bl	test_print
 530              	.LVL2:
 531              		.loc 1 102 0
 532 0026 40F20000 		movw	r0, #:lower16:.LC3
 533 002a C0F20000 		movt	r0, #:upper16:.LC3
 534 002e FFF7FEFF 		bl	test_println
 535              	.LVL3:
 536              		.loc 1 104 0
 537 0032 40F20000 		movw	r0, #:lower16:.LC4
 538 0036 C0F20000 		movt	r0, #:upper16:.LC4
 539 003a FFF7FEFF 		bl	test_print
ARM GAS  /tmp/cc110c1w.s 			page 40


 540              	.LVL4:
 541              		.loc 1 105 0
 542 003e 40F20000 		movw	r0, #:lower16:.LC5
 543 0042 C0F20000 		movt	r0, #:upper16:.LC5
 544 0046 FFF7FEFF 		bl	test_println
 545              	.LVL5:
 546              		.loc 1 108 0
 547 004a 40F20000 		movw	r0, #:lower16:.LC6
 548 004e C0F20000 		movt	r0, #:upper16:.LC6
 549 0052 FFF7FEFF 		bl	test_print
 550              	.LVL6:
 551              		.loc 1 111 0
 552 0056 BDE80840 		pop	{r3, lr}
 553              		.loc 1 109 0
 554 005a 40F20000 		movw	r0, #:lower16:.LC7
 555 005e C0F20000 		movt	r0, #:upper16:.LC7
 556 0062 FFF7FEBF 		b	test_println
 557              	.LVL7:
 558              		.cfi_endproc
 559              	.LFE219:
 560              		.size	test_print_port_info, .-test_print_port_info
 561 0066 00BFAFF3 		.section	.text.test_terminate_threads,"ax",%progbits
 561      0080AFF3 
 561      0080
 562              		.align	2
 563              		.p2align 4,,15
 564              		.global	test_terminate_threads
 565              		.thumb
 566              		.thumb_func
 567              		.type	test_terminate_threads, %function
 568              	test_terminate_threads:
 569              	.LFB220:
 570              		.loc 1 135 0
 571              		.cfi_startproc
 572              		@ args = 0, pretend = 0, frame = 0
 573              		@ frame_needed = 0, uses_anonymous_args = 0
 574              	.LVL8:
 575 0000 38B5     		push	{r3, r4, r5, lr}
 576              		.cfi_def_cfa_offset 16
 577              		.cfi_offset 3, -16
 578              		.cfi_offset 4, -12
 579              		.cfi_offset 5, -8
 580              		.cfi_offset 14, -4
 581 0002 064C     		ldr	r4, .L10
 582 0004 04F11405 		add	r5, r4, #20
 583              	.LVL9:
 584              	.L5:
 585              		.loc 1 139 0
 586 0008 54F8043F 		ldr	r3, [r4, #4]!
 587              		.loc 1 140 0
 588 000c 1846     		mov	r0, r3
 589              		.loc 1 139 0
 590 000e 0BB1     		cbz	r3, .L3
 591              		.loc 1 140 0
 592 0010 FFF7FEFF 		bl	chThdTerminate
 593              	.LVL10:
 594              	.L3:
ARM GAS  /tmp/cc110c1w.s 			page 41


 595              		.loc 1 138 0
 596 0014 AC42     		cmp	r4, r5
 597 0016 F7D1     		bne	.L5
 598              		.loc 1 141 0
 599 0018 38BD     		pop	{r3, r4, r5, pc}
 600              	.L11:
 601 001a 00BF     		.align	2
 602              	.L10:
 603 001c FCFFFFFF 		.word	.LANCHOR0-4
 604              		.cfi_endproc
 605              	.LFE220:
 606              		.size	test_terminate_threads, .-test_terminate_threads
 607              		.section	.text.test_wait_threads,"ax",%progbits
 608              		.align	2
 609              		.p2align 4,,15
 610              		.global	test_wait_threads
 611              		.thumb
 612              		.thumb_func
 613              		.type	test_wait_threads, %function
 614              	test_wait_threads:
 615              	.LFB221:
 616              		.loc 1 146 0
 617              		.cfi_startproc
 618              		@ args = 0, pretend = 0, frame = 0
 619              		@ frame_needed = 0, uses_anonymous_args = 0
 620              	.LVL11:
 621 0000 70B5     		push	{r4, r5, r6, lr}
 622              		.cfi_def_cfa_offset 16
 623              		.cfi_offset 4, -16
 624              		.cfi_offset 5, -12
 625              		.cfi_offset 6, -8
 626              		.cfi_offset 14, -4
 627 0002 40F20004 		movw	r4, #:lower16:.LANCHOR0
 628 0006 C0F20004 		movt	r4, #:upper16:.LANCHOR0
 629 000a 04F11405 		add	r5, r4, #20
 630              		.loc 1 152 0
 631 000e 0026     		movs	r6, #0
 632              	.LVL12:
 633              	.L15:
 634              		.loc 1 150 0
 635 0010 54F8043B 		ldr	r3, [r4], #4
 636              		.loc 1 151 0
 637 0014 1846     		mov	r0, r3
 638              		.loc 1 150 0
 639 0016 1BB1     		cbz	r3, .L13
 640              		.loc 1 151 0
 641 0018 FFF7FEFF 		bl	chThdWait
 642              	.LVL13:
 643              		.loc 1 152 0
 644 001c 44F8046C 		str	r6, [r4, #-4]
 645              	.L13:
 646              		.loc 1 149 0
 647 0020 AC42     		cmp	r4, r5
 648 0022 F5D1     		bne	.L15
 649              		.loc 1 154 0
 650 0024 70BD     		pop	{r4, r5, r6, pc}
 651              		.cfi_endproc
ARM GAS  /tmp/cc110c1w.s 			page 42


 652              	.LFE221:
 653              		.size	test_wait_threads, .-test_wait_threads
 654 0026 00BFAFF3 		.section	.text.test_wait_tick,"ax",%progbits
 654      0080AFF3 
 654      0080
 655              		.align	2
 656              		.p2align 4,,15
 657              		.global	test_wait_tick
 658              		.thumb
 659              		.thumb_func
 660              		.type	test_wait_tick, %function
 661              	test_wait_tick:
 662              	.LFB222:
 663              		.loc 1 159 0
 664              		.cfi_startproc
 665              		@ args = 0, pretend = 0, frame = 0
 666              		@ frame_needed = 0, uses_anonymous_args = 0
 667 0000 08B5     		push	{r3, lr}
 668              		.cfi_def_cfa_offset 8
 669              		.cfi_offset 3, -8
 670              		.cfi_offset 14, -4
 671              		.loc 1 161 0
 672 0002 0120     		movs	r0, #1
 673 0004 FFF7FEFF 		bl	chThdSleep
 674              	.LVL14:
 675              	.LBB50:
 676              	.LBB51:
 677              	.LBB52:
 678              	.LBB53:
 679              	.LBB54:
 680              	.LBB55:
 681              		.file 2 "../../../os/common/ext/CMSIS/include/cmsis_gcc.h"
 682              		.loc 2 264 0
 683 0008 2023     		movs	r3, #32
 684              	@ 264 "../../../os/common/ext/CMSIS/include/cmsis_gcc.h" 1
 685 000a 83F31188 		MSR basepri, r3
 686              	@ 0 "" 2
 687              		.thumb
 688              	.LBE55:
 689              	.LBE54:
 690              	.LBE53:
 691              	.LBE52:
 692              	.LBB56:
 693              	.LBB57:
 694              	.LBB58:
 695              	.LBB59:
 696              		.file 3 "../../../os/hal/ports/STM32/LLD/TIMv1/hal_st_lld.h"
 697              		.loc 3 141 0
 698 000e 4FF08043 		mov	r3, #1073741824
 699 0012 586A     		ldr	r0, [r3, #36]
 700              	.LVL15:
 701              	.LBE59:
 702              	.LBE58:
 703              	.LBE57:
 704              	.LBE56:
 705              	.LBB60:
 706              	.LBB61:
ARM GAS  /tmp/cc110c1w.s 			page 43


 707              	.LBB62:
 708              	.LBB63:
 709              	.LBB64:
 710              		.loc 2 264 0
 711 0014 0023     		movs	r3, #0
 712              	@ 264 "../../../os/common/ext/CMSIS/include/cmsis_gcc.h" 1
 713 0016 83F31188 		MSR basepri, r3
 714              	@ 0 "" 2
 715              		.thumb
 716              	.LBE64:
 717              	.LBE63:
 718              	.LBE62:
 719              	.LBE61:
 720              	.LBE60:
 721              	.LBE51:
 722              	.LBE50:
 723              		.loc 1 163 0
 724 001a 80B2     		uxth	r0, r0
 725 001c 08BD     		pop	{r3, pc}
 726              		.cfi_endproc
 727              	.LFE222:
 728              		.size	test_wait_tick, .-test_wait_tick
 729              		.global	wa
 730              		.global	threads
 731              		.global	test_buffer
 732              		.global	test_suite
 733 001e 00BF     		.section	.bss.test_buffer,"aw",%nobits
 734              		.align	3
 735              		.type	test_buffer, %object
 736              		.size	test_buffer, 1640
 737              	test_buffer:
 738 0000 00000000 		.space	1640
 738      00000000 
 738      00000000 
 738      00000000 
 738      00000000 
 739              		.section	.data.test_suite,"aw",%progbits
 740              		.align	2
 741              		.type	test_suite, %object
 742              		.size	test_suite, 56
 743              	test_suite:
 744 0000 00000000 		.word	test_sequence_001
 745 0004 00000000 		.word	test_sequence_002
 746 0008 00000000 		.word	test_sequence_003
 747 000c 00000000 		.word	test_sequence_004
 748 0010 00000000 		.word	test_sequence_005
 749 0014 00000000 		.word	test_sequence_006
 750 0018 00000000 		.word	test_sequence_007
 751 001c 00000000 		.word	test_sequence_008
 752 0020 00000000 		.word	test_sequence_009
 753 0024 00000000 		.word	test_sequence_010
 754 0028 00000000 		.word	test_sequence_011
 755 002c 00000000 		.word	test_sequence_012
 756 0030 00000000 		.word	test_sequence_013
 757 0034 00000000 		.word	0
 758              		.section	.rodata.wa,"a",%progbits
 759              		.align	2
ARM GAS  /tmp/cc110c1w.s 			page 44


 760              		.type	wa, %object
 761              		.size	wa, 20
 762              	wa:
 763 0000 00000000 		.word	test_buffer
 764 0004 48010000 		.word	test_buffer+328
 765 0008 90020000 		.word	test_buffer+656
 766 000c D8030000 		.word	test_buffer+984
 767 0010 20050000 		.word	test_buffer+1312
 768              		.section	.rodata.str1.4,"aMS",%progbits,1
 769              		.align	2
 770              	.LC0:
 771 0000 2A2A2A20 		.ascii	"*** Compiler:     \000"
 771      436F6D70 
 771      696C6572 
 771      3A202020 
 771      202000
 772 0013 00       		.space	1
 773              	.LC1:
 774 0014 47434320 		.ascii	"GCC 4.8.1\000"
 774      342E382E 
 774      3100
 775 001e 0000     		.space	2
 776              	.LC2:
 777 0020 2A2A2A20 		.ascii	"*** Architecture: \000"
 777      41726368 
 777      69746563 
 777      74757265 
 777      3A2000
 778 0033 00       		.space	1
 779              	.LC3:
 780 0034 41524D76 		.ascii	"ARMv7-M\000"
 780      372D4D00 
 781              	.LC4:
 782 003c 2A2A2A20 		.ascii	"*** Core Variant: \000"
 782      436F7265 
 782      20566172 
 782      69616E74 
 782      3A2000
 783 004f 00       		.space	1
 784              	.LC5:
 785 0050 436F7274 		.ascii	"Cortex-M3\000"
 785      65782D4D 
 785      3300
 786 005a 0000     		.space	2
 787              	.LC6:
 788 005c 2A2A2A20 		.ascii	"*** Port Info:    \000"
 788      506F7274 
 788      20496E66 
 788      6F3A2020 
 788      202000
 789 006f 00       		.space	1
 790              	.LC7:
 791 0070 41647661 		.ascii	"Advanced kernel mode\000"
 791      6E636564 
 791      206B6572 
 791      6E656C20 
 791      6D6F6465 
ARM GAS  /tmp/cc110c1w.s 			page 45


 792 0085 000000   		.section	.bss.threads,"aw",%nobits
 793              		.align	2
 794              		.set	.LANCHOR0,. + 0
 795              		.type	threads, %object
 796              		.size	threads, 20
 797              	threads:
 798 0000 00000000 		.space	20
 798      00000000 
 798      00000000 
 798      00000000 
 798      00000000 
 799              		.text
 800              	.Letext0:
 801              		.file 4 "/home/otto/MentorGraphics/Sourcery_CodeBench_Lite_for_ARM_EABI/lib/gcc/arm-none-eabi/4.8.
 802              		.file 5 "/home/otto/MentorGraphics/Sourcery_CodeBench_Lite_for_ARM_EABI/arm-none-eabi/include/stdi
 803              		.file 6 "../../../os/common/ports/ARMCMx/compilers/GCC/chtypes.h"
 804              		.file 7 "../../../os/rt/include/chsystypes.h"
 805              		.file 8 "../../../os/rt/include/chschd.h"
 806              		.file 9 "../../../os/common/ports/ARMCMx/chcore.h"
 807              		.file 10 "../../../os/common/ports/ARMCMx/chcore_v7m.h"
 808              		.file 11 "../../../os/hal/ports/STM32/LLD/TIMv1/stm32_tim.h"
 809              		.file 12 "../../../os/rt/include/chsem.h"
 810              		.file 13 "../../../os/rt/include/chmtx.h"
 811              		.file 14 "../../../test/lib/ch_test.h"
 812              		.file 15 "../../../os/common/ports/ARMCMx/chcore_timer.h"
 813              		.file 16 "../../../os/rt/include/chsys.h"
 814              		.file 17 "../../../os/rt/include/chvt.h"
 815              		.file 18 "../../../os/common/ext/CMSIS/include/core_cm3.h"
 816              		.file 19 "../../../test/rt/source/test/test_sequence_001.h"
 817              		.file 20 "../../../test/rt/source/test/test_sequence_002.h"
 818              		.file 21 "../../../test/rt/source/test/test_sequence_003.h"
 819              		.file 22 "../../../test/rt/source/test/test_sequence_004.h"
 820              		.file 23 "../../../test/rt/source/test/test_sequence_005.h"
 821              		.file 24 "../../../test/rt/source/test/test_sequence_006.h"
 822              		.file 25 "../../../test/rt/source/test/test_sequence_007.h"
 823              		.file 26 "../../../test/rt/source/test/test_sequence_008.h"
 824              		.file 27 "../../../test/rt/source/test/test_sequence_009.h"
 825              		.file 28 "../../../test/rt/source/test/test_sequence_010.h"
 826              		.file 29 "../../../test/rt/source/test/test_sequence_011.h"
 827              		.file 30 "../../../test/rt/source/test/test_sequence_012.h"
 828              		.file 31 "../../../test/rt/source/test/test_sequence_013.h"
 829              		.file 32 "../../../os/rt/include/chthreads.h"
 830              		.section	.debug_info,"",%progbits
 831              	.Ldebug_info0:
 832 0000 FB0B0000 		.4byte	0xbfb
 833 0004 0400     		.2byte	0x4
 834 0006 00000000 		.4byte	.Ldebug_abbrev0
 835 000a 04       		.byte	0x4
 836 000b 01       		.uleb128 0x1
 837 000c 3F050000 		.4byte	.LASF132
 838 0010 01       		.byte	0x1
 839 0011 21060000 		.4byte	.LASF133
 840 0015 A9010000 		.4byte	.LASF134
 841 0019 00000000 		.4byte	.Ldebug_ranges0+0
 842 001d 00000000 		.4byte	0
 843 0021 00000000 		.4byte	.Ldebug_line0
 844 0025 02       		.uleb128 0x2
ARM GAS  /tmp/cc110c1w.s 			page 46


 845 0026 04       		.byte	0x4
 846 0027 05       		.byte	0x5
 847 0028 696E7400 		.ascii	"int\000"
 848 002c 03       		.uleb128 0x3
 849 002d 12000000 		.4byte	.LASF2
 850 0031 04       		.byte	0x4
 851 0032 D4       		.byte	0xd4
 852 0033 37000000 		.4byte	0x37
 853 0037 04       		.uleb128 0x4
 854 0038 04       		.byte	0x4
 855 0039 07       		.byte	0x7
 856 003a 2E020000 		.4byte	.LASF0
 857 003e 04       		.uleb128 0x4
 858 003f 01       		.byte	0x1
 859 0040 06       		.byte	0x6
 860 0041 1B010000 		.4byte	.LASF1
 861 0045 03       		.uleb128 0x3
 862 0046 13060000 		.4byte	.LASF3
 863 004a 05       		.byte	0x5
 864 004b 2A       		.byte	0x2a
 865 004c 50000000 		.4byte	0x50
 866 0050 04       		.uleb128 0x4
 867 0051 01       		.byte	0x1
 868 0052 08       		.byte	0x8
 869 0053 CA030000 		.4byte	.LASF4
 870 0057 04       		.uleb128 0x4
 871 0058 02       		.byte	0x2
 872 0059 05       		.byte	0x5
 873 005a E0030000 		.4byte	.LASF5
 874 005e 03       		.uleb128 0x3
 875 005f 80010000 		.4byte	.LASF6
 876 0063 05       		.byte	0x5
 877 0064 36       		.byte	0x36
 878 0065 69000000 		.4byte	0x69
 879 0069 04       		.uleb128 0x4
 880 006a 02       		.byte	0x2
 881 006b 07       		.byte	0x7
 882 006c E5040000 		.4byte	.LASF7
 883 0070 03       		.uleb128 0x3
 884 0071 C2030000 		.4byte	.LASF8
 885 0075 05       		.byte	0x5
 886 0076 4F       		.byte	0x4f
 887 0077 7B000000 		.4byte	0x7b
 888 007b 04       		.uleb128 0x4
 889 007c 04       		.byte	0x4
 890 007d 05       		.byte	0x5
 891 007e 56010000 		.4byte	.LASF9
 892 0082 03       		.uleb128 0x3
 893 0083 57040000 		.4byte	.LASF10
 894 0087 05       		.byte	0x5
 895 0088 50       		.byte	0x50
 896 0089 8D000000 		.4byte	0x8d
 897 008d 04       		.uleb128 0x4
 898 008e 04       		.byte	0x4
 899 008f 07       		.byte	0x7
 900 0090 7D040000 		.4byte	.LASF11
 901 0094 04       		.uleb128 0x4
ARM GAS  /tmp/cc110c1w.s 			page 47


 902 0095 08       		.byte	0x8
 903 0096 05       		.byte	0x5
 904 0097 72010000 		.4byte	.LASF12
 905 009b 03       		.uleb128 0x3
 906 009c 23030000 		.4byte	.LASF13
 907 00a0 05       		.byte	0x5
 908 00a1 78       		.byte	0x78
 909 00a2 A6000000 		.4byte	0xa6
 910 00a6 04       		.uleb128 0x4
 911 00a7 08       		.byte	0x8
 912 00a8 07       		.byte	0x7
 913 00a9 9D000000 		.4byte	.LASF14
 914 00ad 03       		.uleb128 0x3
 915 00ae F0060000 		.4byte	.LASF15
 916 00b2 06       		.byte	0x6
 917 00b3 3C       		.byte	0x3c
 918 00b4 45000000 		.4byte	0x45
 919 00b8 03       		.uleb128 0x3
 920 00b9 5F010000 		.4byte	.LASF16
 921 00bd 06       		.byte	0x6
 922 00be 3D       		.byte	0x3d
 923 00bf 45000000 		.4byte	0x45
 924 00c3 03       		.uleb128 0x3
 925 00c4 70030000 		.4byte	.LASF17
 926 00c8 06       		.byte	0x6
 927 00c9 3E       		.byte	0x3e
 928 00ca 45000000 		.4byte	0x45
 929 00ce 03       		.uleb128 0x3
 930 00cf A4030000 		.4byte	.LASF18
 931 00d3 06       		.byte	0x6
 932 00d4 40       		.byte	0x40
 933 00d5 82000000 		.4byte	0x82
 934 00d9 03       		.uleb128 0x3
 935 00da 71020000 		.4byte	.LASF19
 936 00de 06       		.byte	0x6
 937 00df 41       		.byte	0x41
 938 00e0 70000000 		.4byte	0x70
 939 00e4 03       		.uleb128 0x3
 940 00e5 AE020000 		.4byte	.LASF20
 941 00e9 06       		.byte	0x6
 942 00ea 43       		.byte	0x43
 943 00eb 82000000 		.4byte	0x82
 944 00ef 03       		.uleb128 0x3
 945 00f0 15020000 		.4byte	.LASF21
 946 00f4 06       		.byte	0x6
 947 00f5 45       		.byte	0x45
 948 00f6 70000000 		.4byte	0x70
 949 00fa 03       		.uleb128 0x3
 950 00fb BA040000 		.4byte	.LASF22
 951 00ff 07       		.byte	0x7
 952 0100 35       		.byte	0x35
 953 0101 5E000000 		.4byte	0x5e
 954 0105 03       		.uleb128 0x3
 955 0106 A6040000 		.4byte	.LASF23
 956 010a 07       		.byte	0x7
 957 010b 3F       		.byte	0x3f
 958 010c 10010000 		.4byte	0x110
ARM GAS  /tmp/cc110c1w.s 			page 48


 959 0110 05       		.uleb128 0x5
 960 0111 67020000 		.4byte	.LASF41
 961 0115 44       		.byte	0x44
 962 0116 08       		.byte	0x8
 963 0117 9A       		.byte	0x9a
 964 0118 EE010000 		.4byte	0x1ee
 965 011c 06       		.uleb128 0x6
 966 011d 56020000 		.4byte	.LASF24
 967 0121 08       		.byte	0x8
 968 0122 9B       		.byte	0x9b
 969 0123 23020000 		.4byte	0x223
 970 0127 00       		.byte	0
 971 0128 06       		.uleb128 0x6
 972 0129 63030000 		.4byte	.LASF25
 973 012d 08       		.byte	0x8
 974 012e 9C       		.byte	0x9c
 975 012f CE000000 		.4byte	0xce
 976 0133 08       		.byte	0x8
 977 0134 07       		.uleb128 0x7
 978 0135 63747800 		.ascii	"ctx\000"
 979 0139 08       		.byte	0x8
 980 013a 9D       		.byte	0x9d
 981 013b 34040000 		.4byte	0x434
 982 013f 0C       		.byte	0xc
 983 0140 06       		.uleb128 0x6
 984 0141 1A050000 		.4byte	.LASF26
 985 0145 08       		.byte	0x8
 986 0146 9F       		.byte	0x9f
 987 0147 F9010000 		.4byte	0x1f9
 988 014b 10       		.byte	0x10
 989 014c 06       		.uleb128 0x6
 990 014d 9B040000 		.4byte	.LASF27
 991 0151 08       		.byte	0x8
 992 0152 A0       		.byte	0xa0
 993 0153 F9010000 		.4byte	0x1f9
 994 0157 14       		.byte	0x14
 995 0158 06       		.uleb128 0x6
 996 0159 51020000 		.4byte	.LASF28
 997 015d 08       		.byte	0x8
 998 015e A7       		.byte	0xa7
 999 015f BB060000 		.4byte	0x6bb
 1000 0163 18       		.byte	0x18
 1001 0164 06       		.uleb128 0x6
 1002 0165 8F040000 		.4byte	.LASF29
 1003 0169 08       		.byte	0x8
 1004 016a B0       		.byte	0xb0
 1005 016b CD060000 		.4byte	0x6cd
 1006 016f 1C       		.byte	0x1c
 1007 0170 06       		.uleb128 0x6
 1008 0171 50010000 		.4byte	.LASF30
 1009 0175 08       		.byte	0x8
 1010 0176 B5       		.byte	0xb5
 1011 0177 B8000000 		.4byte	0xb8
 1012 017b 20       		.byte	0x20
 1013 017c 06       		.uleb128 0x6
 1014 017d 1B060000 		.4byte	.LASF31
 1015 0181 08       		.byte	0x8
ARM GAS  /tmp/cc110c1w.s 			page 49


 1016 0182 B9       		.byte	0xb9
 1017 0183 AD000000 		.4byte	0xad
 1018 0187 21       		.byte	0x21
 1019 0188 06       		.uleb128 0x6
 1020 0189 8F030000 		.4byte	.LASF32
 1021 018d 08       		.byte	0x8
 1022 018e BE       		.byte	0xbe
 1023 018f C3000000 		.4byte	0xc3
 1024 0193 22       		.byte	0x22
 1025 0194 08       		.uleb128 0x8
 1026 0195 7500     		.ascii	"u\000"
 1027 0197 08       		.byte	0x8
 1028 0198 0F01     		.2byte	0x10f
 1029 019a F0050000 		.4byte	0x5f0
 1030 019e 24       		.byte	0x24
 1031 019f 09       		.uleb128 0x9
 1032 01a0 A1010000 		.4byte	.LASF33
 1033 01a4 08       		.byte	0x8
 1034 01a5 1401     		.2byte	0x114
 1035 01a7 FF010000 		.4byte	0x1ff
 1036 01ab 28       		.byte	0x28
 1037 01ac 09       		.uleb128 0x9
 1038 01ad 47010000 		.4byte	.LASF34
 1039 01b1 08       		.byte	0x8
 1040 01b2 1A01     		.2byte	0x11a
 1041 01b4 23020000 		.4byte	0x223
 1042 01b8 2C       		.byte	0x2c
 1043 01b9 09       		.uleb128 0x9
 1044 01ba 77020000 		.4byte	.LASF35
 1045 01be 08       		.byte	0x8
 1046 01bf 2001     		.2byte	0x120
 1047 01c1 E4000000 		.4byte	0xe4
 1048 01c5 34       		.byte	0x34
 1049 01c6 09       		.uleb128 0x9
 1050 01c7 04070000 		.4byte	.LASF36
 1051 01cb 08       		.byte	0x8
 1052 01cc 2701     		.2byte	0x127
 1053 01ce B5060000 		.4byte	0x6b5
 1054 01d2 38       		.byte	0x38
 1055 01d3 09       		.uleb128 0x9
 1056 01d4 DB020000 		.4byte	.LASF37
 1057 01d8 08       		.byte	0x8
 1058 01d9 2B01     		.2byte	0x12b
 1059 01db CE000000 		.4byte	0xce
 1060 01df 3C       		.byte	0x3c
 1061 01e0 09       		.uleb128 0x9
 1062 01e1 5C020000 		.4byte	.LASF38
 1063 01e5 08       		.byte	0x8
 1064 01e6 3201     		.2byte	0x132
 1065 01e8 D6020000 		.4byte	0x2d6
 1066 01ec 40       		.byte	0x40
 1067 01ed 00       		.byte	0
 1068 01ee 03       		.uleb128 0x3
 1069 01ef ED020000 		.4byte	.LASF39
 1070 01f3 07       		.byte	0x7
 1071 01f4 44       		.byte	0x44
 1072 01f5 F9010000 		.4byte	0x1f9
ARM GAS  /tmp/cc110c1w.s 			page 50


 1073 01f9 0A       		.uleb128 0xa
 1074 01fa 04       		.byte	0x4
 1075 01fb 05010000 		.4byte	0x105
 1076 01ff 03       		.uleb128 0x3
 1077 0200 E1060000 		.4byte	.LASF40
 1078 0204 07       		.byte	0x7
 1079 0205 49       		.byte	0x49
 1080 0206 0A020000 		.4byte	0x20a
 1081 020a 05       		.uleb128 0x5
 1082 020b 67040000 		.4byte	.LASF42
 1083 020f 04       		.byte	0x4
 1084 0210 08       		.byte	0x8
 1085 0211 88       		.byte	0x88
 1086 0212 23020000 		.4byte	0x223
 1087 0216 06       		.uleb128 0x6
 1088 0217 19000000 		.4byte	.LASF43
 1089 021b 08       		.byte	0x8
 1090 021c 89       		.byte	0x89
 1091 021d F9010000 		.4byte	0x1f9
 1092 0221 00       		.byte	0
 1093 0222 00       		.byte	0
 1094 0223 03       		.uleb128 0x3
 1095 0224 E2050000 		.4byte	.LASF44
 1096 0228 07       		.byte	0x7
 1097 0229 50       		.byte	0x50
 1098 022a 2E020000 		.4byte	0x22e
 1099 022e 05       		.uleb128 0x5
 1100 022f F8000000 		.4byte	.LASF45
 1101 0233 08       		.byte	0x8
 1102 0234 08       		.byte	0x8
 1103 0235 8F       		.byte	0x8f
 1104 0236 53020000 		.4byte	0x253
 1105 023a 06       		.uleb128 0x6
 1106 023b 19000000 		.4byte	.LASF43
 1107 023f 08       		.byte	0x8
 1108 0240 90       		.byte	0x90
 1109 0241 F9010000 		.4byte	0x1f9
 1110 0245 00       		.byte	0
 1111 0246 06       		.uleb128 0x6
 1112 0247 73000000 		.4byte	.LASF46
 1113 024b 08       		.byte	0x8
 1114 024c 91       		.byte	0x91
 1115 024d F9010000 		.4byte	0x1f9
 1116 0251 04       		.byte	0x4
 1117 0252 00       		.byte	0
 1118 0253 03       		.uleb128 0x3
 1119 0254 00000000 		.4byte	.LASF47
 1120 0258 07       		.byte	0x7
 1121 0259 57       		.byte	0x57
 1122 025a 5E020000 		.4byte	0x25e
 1123 025e 0B       		.uleb128 0xb
 1124 025f A0020000 		.4byte	.LASF48
 1125 0263 1C       		.byte	0x1c
 1126 0264 08       		.byte	0x8
 1127 0265 6A01     		.2byte	0x16a
 1128 0267 BA020000 		.4byte	0x2ba
 1129 026b 09       		.uleb128 0x9
ARM GAS  /tmp/cc110c1w.s 			page 51


 1130 026c 56020000 		.4byte	.LASF24
 1131 0270 08       		.byte	0x8
 1132 0271 6B01     		.2byte	0x16b
 1133 0273 23020000 		.4byte	0x223
 1134 0277 00       		.byte	0
 1135 0278 09       		.uleb128 0x9
 1136 0279 63030000 		.4byte	.LASF25
 1137 027d 08       		.byte	0x8
 1138 027e 6C01     		.2byte	0x16c
 1139 0280 CE000000 		.4byte	0xce
 1140 0284 08       		.byte	0x8
 1141 0285 08       		.uleb128 0x8
 1142 0286 63747800 		.ascii	"ctx\000"
 1143 028a 08       		.byte	0x8
 1144 028b 6E01     		.2byte	0x16e
 1145 028d 34040000 		.4byte	0x434
 1146 0291 0C       		.byte	0xc
 1147 0292 09       		.uleb128 0x9
 1148 0293 1A050000 		.4byte	.LASF26
 1149 0297 08       		.byte	0x8
 1150 0298 7101     		.2byte	0x171
 1151 029a F9010000 		.4byte	0x1f9
 1152 029e 10       		.byte	0x10
 1153 029f 09       		.uleb128 0x9
 1154 02a0 9B040000 		.4byte	.LASF27
 1155 02a4 08       		.byte	0x8
 1156 02a5 7201     		.2byte	0x172
 1157 02a7 F9010000 		.4byte	0x1f9
 1158 02ab 14       		.byte	0x14
 1159 02ac 09       		.uleb128 0x9
 1160 02ad 68030000 		.4byte	.LASF49
 1161 02b1 08       		.byte	0x8
 1162 02b2 7501     		.2byte	0x175
 1163 02b4 F9010000 		.4byte	0x1f9
 1164 02b8 18       		.byte	0x18
 1165 02b9 00       		.byte	0
 1166 02ba 03       		.uleb128 0x3
 1167 02bb C4040000 		.4byte	.LASF50
 1168 02bf 07       		.byte	0x7
 1169 02c0 5C       		.byte	0x5c
 1170 02c1 C5020000 		.4byte	0x2c5
 1171 02c5 0A       		.uleb128 0xa
 1172 02c6 04       		.byte	0x4
 1173 02c7 CB020000 		.4byte	0x2cb
 1174 02cb 0C       		.uleb128 0xc
 1175 02cc D6020000 		.4byte	0x2d6
 1176 02d0 0D       		.uleb128 0xd
 1177 02d1 D6020000 		.4byte	0x2d6
 1178 02d5 00       		.byte	0
 1179 02d6 0E       		.uleb128 0xe
 1180 02d7 04       		.byte	0x4
 1181 02d8 03       		.uleb128 0x3
 1182 02d9 94030000 		.4byte	.LASF51
 1183 02dd 07       		.byte	0x7
 1184 02de 61       		.byte	0x61
 1185 02df E3020000 		.4byte	0x2e3
 1186 02e3 0B       		.uleb128 0xb
ARM GAS  /tmp/cc110c1w.s 			page 52


 1187 02e4 16040000 		.4byte	.LASF52
 1188 02e8 14       		.byte	0x14
 1189 02e9 08       		.byte	0x8
 1190 02ea 4501     		.2byte	0x145
 1191 02ec 32030000 		.4byte	0x332
 1192 02f0 09       		.uleb128 0x9
 1193 02f1 19000000 		.4byte	.LASF43
 1194 02f5 08       		.byte	0x8
 1195 02f6 4601     		.2byte	0x146
 1196 02f8 D3060000 		.4byte	0x6d3
 1197 02fc 00       		.byte	0
 1198 02fd 09       		.uleb128 0x9
 1199 02fe 73000000 		.4byte	.LASF46
 1200 0302 08       		.byte	0x8
 1201 0303 4701     		.2byte	0x147
 1202 0305 D3060000 		.4byte	0x6d3
 1203 0309 04       		.byte	0x4
 1204 030a 09       		.uleb128 0x9
 1205 030b 1E000000 		.4byte	.LASF53
 1206 030f 08       		.byte	0x8
 1207 0310 4801     		.2byte	0x148
 1208 0312 FA000000 		.4byte	0xfa
 1209 0316 08       		.byte	0x8
 1210 0317 09       		.uleb128 0x9
 1211 0318 68010000 		.4byte	.LASF54
 1212 031c 08       		.byte	0x8
 1213 031d 4901     		.2byte	0x149
 1214 031f BA020000 		.4byte	0x2ba
 1215 0323 0C       		.byte	0xc
 1216 0324 08       		.uleb128 0x8
 1217 0325 70617200 		.ascii	"par\000"
 1218 0329 08       		.byte	0x8
 1219 032a 4B01     		.2byte	0x14b
 1220 032c D6020000 		.4byte	0x2d6
 1221 0330 10       		.byte	0x10
 1222 0331 00       		.byte	0
 1223 0332 03       		.uleb128 0x3
 1224 0333 D0000000 		.4byte	.LASF55
 1225 0337 07       		.byte	0x7
 1226 0338 66       		.byte	0x66
 1227 0339 3D030000 		.4byte	0x33d
 1228 033d 0B       		.uleb128 0xb
 1229 033e 00030000 		.4byte	.LASF56
 1230 0342 0C       		.byte	0xc
 1231 0343 08       		.byte	0x8
 1232 0344 5501     		.2byte	0x155
 1233 0346 7F030000 		.4byte	0x37f
 1234 034a 09       		.uleb128 0x9
 1235 034b 19000000 		.4byte	.LASF43
 1236 034f 08       		.byte	0x8
 1237 0350 5601     		.2byte	0x156
 1238 0352 D3060000 		.4byte	0x6d3
 1239 0356 00       		.byte	0
 1240 0357 09       		.uleb128 0x9
 1241 0358 73000000 		.4byte	.LASF46
 1242 035c 08       		.byte	0x8
 1243 035d 5801     		.2byte	0x158
ARM GAS  /tmp/cc110c1w.s 			page 53


 1244 035f D3060000 		.4byte	0x6d3
 1245 0363 04       		.byte	0x4
 1246 0364 09       		.uleb128 0x9
 1247 0365 1E000000 		.4byte	.LASF53
 1248 0369 08       		.byte	0x8
 1249 036a 5A01     		.2byte	0x15a
 1250 036c FA000000 		.4byte	0xfa
 1251 0370 08       		.byte	0x8
 1252 0371 09       		.uleb128 0x9
 1253 0372 EA030000 		.4byte	.LASF57
 1254 0376 08       		.byte	0x8
 1255 0377 6201     		.2byte	0x162
 1256 0379 FA000000 		.4byte	0xfa
 1257 037d 0A       		.byte	0xa
 1258 037e 00       		.byte	0
 1259 037f 03       		.uleb128 0x3
 1260 0380 84000000 		.4byte	.LASF58
 1261 0384 07       		.byte	0x7
 1262 0385 6B       		.byte	0x6b
 1263 0386 8A030000 		.4byte	0x38a
 1264 038a 0B       		.uleb128 0xb
 1265 038b AC030000 		.4byte	.LASF59
 1266 038f 04       		.byte	0x4
 1267 0390 08       		.byte	0x8
 1268 0391 7C01     		.2byte	0x17c
 1269 0393 A5030000 		.4byte	0x3a5
 1270 0397 09       		.uleb128 0x9
 1271 0398 DB040000 		.4byte	.LASF60
 1272 039c 08       		.byte	0x8
 1273 039d 8401     		.2byte	0x184
 1274 039f D9060000 		.4byte	0x6d9
 1275 03a3 00       		.byte	0
 1276 03a4 00       		.byte	0
 1277 03a5 03       		.uleb128 0x3
 1278 03a6 80020000 		.4byte	.LASF61
 1279 03aa 07       		.byte	0x7
 1280 03ab 70       		.byte	0x70
 1281 03ac B0030000 		.4byte	0x3b0
 1282 03b0 0B       		.uleb128 0xb
 1283 03b1 02040000 		.4byte	.LASF62
 1284 03b5 70       		.byte	0x70
 1285 03b6 08       		.byte	0x8
 1286 03b7 9C01     		.2byte	0x19c
 1287 03b9 F2030000 		.4byte	0x3f2
 1288 03bd 09       		.uleb128 0x9
 1289 03be 0D060000 		.4byte	.LASF63
 1290 03c2 08       		.byte	0x8
 1291 03c3 A001     		.2byte	0x1a0
 1292 03c5 53020000 		.4byte	0x253
 1293 03c9 00       		.byte	0
 1294 03ca 09       		.uleb128 0x9
 1295 03cb 34010000 		.4byte	.LASF64
 1296 03cf 08       		.byte	0x8
 1297 03d0 A401     		.2byte	0x1a4
 1298 03d2 32030000 		.4byte	0x332
 1299 03d6 1C       		.byte	0x1c
 1300 03d7 08       		.uleb128 0x8
ARM GAS  /tmp/cc110c1w.s 			page 54


 1301 03d8 64626700 		.ascii	"dbg\000"
 1302 03dc 08       		.byte	0x8
 1303 03dd A801     		.2byte	0x1a8
 1304 03df 7F030000 		.4byte	0x37f
 1305 03e3 28       		.byte	0x28
 1306 03e4 09       		.uleb128 0x9
 1307 03e5 BD000000 		.4byte	.LASF65
 1308 03e9 08       		.byte	0x8
 1309 03ea AC01     		.2byte	0x1ac
 1310 03ec 05010000 		.4byte	0x105
 1311 03f0 2C       		.byte	0x2c
 1312 03f1 00       		.byte	0
 1313 03f2 04       		.uleb128 0x4
 1314 03f3 04       		.byte	0x4
 1315 03f4 07       		.byte	0x7
 1316 03f5 E4020000 		.4byte	.LASF66
 1317 03f9 0F       		.uleb128 0xf
 1318 03fa 82000000 		.4byte	0x82
 1319 03fe 10       		.uleb128 0x10
 1320 03ff 82000000 		.4byte	0x82
 1321 0403 0E040000 		.4byte	0x40e
 1322 0407 11       		.uleb128 0x11
 1323 0408 F2030000 		.4byte	0x3f2
 1324 040c 01       		.byte	0x1
 1325 040d 00       		.byte	0
 1326 040e 10       		.uleb128 0x10
 1327 040f 82000000 		.4byte	0x82
 1328 0413 1E040000 		.4byte	0x41e
 1329 0417 11       		.uleb128 0x11
 1330 0418 F2030000 		.4byte	0x3f2
 1331 041c 03       		.byte	0x3
 1332 041d 00       		.byte	0
 1333 041e 03       		.uleb128 0x3
 1334 041f 98010000 		.4byte	.LASF67
 1335 0423 09       		.byte	0x9
 1336 0424 65       		.byte	0x65
 1337 0425 D6020000 		.4byte	0x2d6
 1338 0429 03       		.uleb128 0x3
 1339 042a BA020000 		.4byte	.LASF68
 1340 042e 09       		.byte	0x9
 1341 042f 6D       		.byte	0x6d
 1342 0430 9B000000 		.4byte	0x9b
 1343 0434 05       		.uleb128 0x5
 1344 0435 3E030000 		.4byte	.LASF69
 1345 0439 04       		.byte	0x4
 1346 043a 09       		.byte	0x9
 1347 043b 89       		.byte	0x89
 1348 043c 4C040000 		.4byte	0x44c
 1349 0440 07       		.uleb128 0x7
 1350 0441 737000   		.ascii	"sp\000"
 1351 0444 09       		.byte	0x9
 1352 0445 8A       		.byte	0x8a
 1353 0446 C8040000 		.4byte	0x4c8
 1354 044a 00       		.byte	0
 1355 044b 00       		.byte	0
 1356 044c 0B       		.uleb128 0xb
 1357 044d 78000000 		.4byte	.LASF70
ARM GAS  /tmp/cc110c1w.s 			page 55


 1358 0451 24       		.byte	0x24
 1359 0452 0A       		.byte	0xa
 1360 0453 5901     		.2byte	0x159
 1361 0455 C8040000 		.4byte	0x4c8
 1362 0459 08       		.uleb128 0x8
 1363 045a 723400   		.ascii	"r4\000"
 1364 045d 0A       		.byte	0xa
 1365 045e 6C01     		.2byte	0x16c
 1366 0460 1E040000 		.4byte	0x41e
 1367 0464 00       		.byte	0
 1368 0465 08       		.uleb128 0x8
 1369 0466 723500   		.ascii	"r5\000"
 1370 0469 0A       		.byte	0xa
 1371 046a 6D01     		.2byte	0x16d
 1372 046c 1E040000 		.4byte	0x41e
 1373 0470 04       		.byte	0x4
 1374 0471 08       		.uleb128 0x8
 1375 0472 723600   		.ascii	"r6\000"
 1376 0475 0A       		.byte	0xa
 1377 0476 6E01     		.2byte	0x16e
 1378 0478 1E040000 		.4byte	0x41e
 1379 047c 08       		.byte	0x8
 1380 047d 08       		.uleb128 0x8
 1381 047e 723700   		.ascii	"r7\000"
 1382 0481 0A       		.byte	0xa
 1383 0482 6F01     		.2byte	0x16f
 1384 0484 1E040000 		.4byte	0x41e
 1385 0488 0C       		.byte	0xc
 1386 0489 08       		.uleb128 0x8
 1387 048a 723800   		.ascii	"r8\000"
 1388 048d 0A       		.byte	0xa
 1389 048e 7001     		.2byte	0x170
 1390 0490 1E040000 		.4byte	0x41e
 1391 0494 10       		.byte	0x10
 1392 0495 08       		.uleb128 0x8
 1393 0496 723900   		.ascii	"r9\000"
 1394 0499 0A       		.byte	0xa
 1395 049a 7101     		.2byte	0x171
 1396 049c 1E040000 		.4byte	0x41e
 1397 04a0 14       		.byte	0x14
 1398 04a1 08       		.uleb128 0x8
 1399 04a2 72313000 		.ascii	"r10\000"
 1400 04a6 0A       		.byte	0xa
 1401 04a7 7201     		.2byte	0x172
 1402 04a9 1E040000 		.4byte	0x41e
 1403 04ad 18       		.byte	0x18
 1404 04ae 08       		.uleb128 0x8
 1405 04af 72313100 		.ascii	"r11\000"
 1406 04b3 0A       		.byte	0xa
 1407 04b4 7301     		.2byte	0x173
 1408 04b6 1E040000 		.4byte	0x41e
 1409 04ba 1C       		.byte	0x1c
 1410 04bb 08       		.uleb128 0x8
 1411 04bc 6C7200   		.ascii	"lr\000"
 1412 04bf 0A       		.byte	0xa
 1413 04c0 7401     		.2byte	0x174
 1414 04c2 1E040000 		.4byte	0x41e
ARM GAS  /tmp/cc110c1w.s 			page 56


 1415 04c6 20       		.byte	0x20
 1416 04c7 00       		.byte	0
 1417 04c8 0A       		.uleb128 0xa
 1418 04c9 04       		.byte	0x4
 1419 04ca 4C040000 		.4byte	0x44c
 1420 04ce 12       		.uleb128 0x12
 1421 04cf 60       		.byte	0x60
 1422 04d0 0B       		.byte	0xb
 1423 04d1 A101     		.2byte	0x1a1
 1424 04d3 DA050000 		.4byte	0x5da
 1425 04d7 08       		.uleb128 0x8
 1426 04d8 43523100 		.ascii	"CR1\000"
 1427 04dc 0B       		.byte	0xb
 1428 04dd A201     		.2byte	0x1a2
 1429 04df F9030000 		.4byte	0x3f9
 1430 04e3 00       		.byte	0
 1431 04e4 08       		.uleb128 0x8
 1432 04e5 43523200 		.ascii	"CR2\000"
 1433 04e9 0B       		.byte	0xb
 1434 04ea A301     		.2byte	0x1a3
 1435 04ec F9030000 		.4byte	0x3f9
 1436 04f0 04       		.byte	0x4
 1437 04f1 09       		.uleb128 0x9
 1438 04f2 62020000 		.4byte	.LASF71
 1439 04f6 0B       		.byte	0xb
 1440 04f7 A401     		.2byte	0x1a4
 1441 04f9 F9030000 		.4byte	0x3f9
 1442 04fd 08       		.byte	0x8
 1443 04fe 09       		.uleb128 0x9
 1444 04ff 0D000000 		.4byte	.LASF72
 1445 0503 0B       		.byte	0xb
 1446 0504 A501     		.2byte	0x1a5
 1447 0506 F9030000 		.4byte	0x3f9
 1448 050a 0C       		.byte	0xc
 1449 050b 08       		.uleb128 0x8
 1450 050c 535200   		.ascii	"SR\000"
 1451 050f 0B       		.byte	0xb
 1452 0510 A601     		.2byte	0x1a6
 1453 0512 F9030000 		.4byte	0x3f9
 1454 0516 10       		.byte	0x10
 1455 0517 08       		.uleb128 0x8
 1456 0518 45475200 		.ascii	"EGR\000"
 1457 051c 0B       		.byte	0xb
 1458 051d A701     		.2byte	0x1a7
 1459 051f F9030000 		.4byte	0x3f9
 1460 0523 14       		.byte	0x14
 1461 0524 09       		.uleb128 0x9
 1462 0525 09010000 		.4byte	.LASF73
 1463 0529 0B       		.byte	0xb
 1464 052a A801     		.2byte	0x1a8
 1465 052c F9030000 		.4byte	0x3f9
 1466 0530 18       		.byte	0x18
 1467 0531 09       		.uleb128 0x9
 1468 0532 0F010000 		.4byte	.LASF74
 1469 0536 0B       		.byte	0xb
 1470 0537 A901     		.2byte	0x1a9
 1471 0539 F9030000 		.4byte	0x3f9
ARM GAS  /tmp/cc110c1w.s 			page 57


 1472 053d 1C       		.byte	0x1c
 1473 053e 09       		.uleb128 0x9
 1474 053f 6D010000 		.4byte	.LASF75
 1475 0543 0B       		.byte	0xb
 1476 0544 AA01     		.2byte	0x1aa
 1477 0546 F9030000 		.4byte	0x3f9
 1478 054a 20       		.byte	0x20
 1479 054b 08       		.uleb128 0x8
 1480 054c 434E5400 		.ascii	"CNT\000"
 1481 0550 0B       		.byte	0xb
 1482 0551 AB01     		.2byte	0x1ab
 1483 0553 F9030000 		.4byte	0x3f9
 1484 0557 24       		.byte	0x24
 1485 0558 08       		.uleb128 0x8
 1486 0559 50534300 		.ascii	"PSC\000"
 1487 055d 0B       		.byte	0xb
 1488 055e AC01     		.2byte	0x1ac
 1489 0560 F9030000 		.4byte	0x3f9
 1490 0564 28       		.byte	0x28
 1491 0565 08       		.uleb128 0x8
 1492 0566 41525200 		.ascii	"ARR\000"
 1493 056a 0B       		.byte	0xb
 1494 056b AD01     		.2byte	0x1ad
 1495 056d F9030000 		.4byte	0x3f9
 1496 0571 2C       		.byte	0x2c
 1497 0572 08       		.uleb128 0x8
 1498 0573 52435200 		.ascii	"RCR\000"
 1499 0577 0B       		.byte	0xb
 1500 0578 AE01     		.2byte	0x1ae
 1501 057a F9030000 		.4byte	0x3f9
 1502 057e 30       		.byte	0x30
 1503 057f 08       		.uleb128 0x8
 1504 0580 43435200 		.ascii	"CCR\000"
 1505 0584 0B       		.byte	0xb
 1506 0585 AF01     		.2byte	0x1af
 1507 0587 DA050000 		.4byte	0x5da
 1508 058b 34       		.byte	0x34
 1509 058c 09       		.uleb128 0x9
 1510 058d F3000000 		.4byte	.LASF76
 1511 0591 0B       		.byte	0xb
 1512 0592 B001     		.2byte	0x1b0
 1513 0594 F9030000 		.4byte	0x3f9
 1514 0598 44       		.byte	0x44
 1515 0599 08       		.uleb128 0x8
 1516 059a 44435200 		.ascii	"DCR\000"
 1517 059e 0B       		.byte	0xb
 1518 059f B101     		.2byte	0x1b1
 1519 05a1 F9030000 		.4byte	0x3f9
 1520 05a5 48       		.byte	0x48
 1521 05a6 09       		.uleb128 0x9
 1522 05a7 A1040000 		.4byte	.LASF77
 1523 05ab 0B       		.byte	0xb
 1524 05ac B201     		.2byte	0x1b2
 1525 05ae F9030000 		.4byte	0x3f9
 1526 05b2 4C       		.byte	0x4c
 1527 05b3 08       		.uleb128 0x8
 1528 05b4 4F5200   		.ascii	"OR\000"
ARM GAS  /tmp/cc110c1w.s 			page 58


 1529 05b7 0B       		.byte	0xb
 1530 05b8 B301     		.2byte	0x1b3
 1531 05ba F9030000 		.4byte	0x3f9
 1532 05be 50       		.byte	0x50
 1533 05bf 09       		.uleb128 0x9
 1534 05c0 15010000 		.4byte	.LASF78
 1535 05c4 0B       		.byte	0xb
 1536 05c5 B401     		.2byte	0x1b4
 1537 05c7 F9030000 		.4byte	0x3f9
 1538 05cb 54       		.byte	0x54
 1539 05cc 09       		.uleb128 0x9
 1540 05cd 34040000 		.4byte	.LASF79
 1541 05d1 0B       		.byte	0xb
 1542 05d2 B501     		.2byte	0x1b5
 1543 05d4 DF050000 		.4byte	0x5df
 1544 05d8 58       		.byte	0x58
 1545 05d9 00       		.byte	0
 1546 05da 0F       		.uleb128 0xf
 1547 05db 0E040000 		.4byte	0x40e
 1548 05df 0F       		.uleb128 0xf
 1549 05e0 FE030000 		.4byte	0x3fe
 1550 05e4 13       		.uleb128 0x13
 1551 05e5 8C020000 		.4byte	.LASF80
 1552 05e9 0B       		.byte	0xb
 1553 05ea B601     		.2byte	0x1b6
 1554 05ec CE040000 		.4byte	0x4ce
 1555 05f0 14       		.uleb128 0x14
 1556 05f1 04       		.byte	0x4
 1557 05f2 08       		.byte	0x8
 1558 05f3 D2       		.byte	0xd2
 1559 05f4 53060000 		.4byte	0x653
 1560 05f8 15       		.uleb128 0x15
 1561 05f9 24000000 		.4byte	.LASF81
 1562 05fd 08       		.byte	0x8
 1563 05fe D9       		.byte	0xd9
 1564 05ff D9000000 		.4byte	0xd9
 1565 0603 15       		.uleb128 0x15
 1566 0604 B4000000 		.4byte	.LASF82
 1567 0608 08       		.byte	0x8
 1568 0609 E0       		.byte	0xe0
 1569 060a D9000000 		.4byte	0xd9
 1570 060e 15       		.uleb128 0x15
 1571 060f DA060000 		.4byte	.LASF83
 1572 0613 08       		.byte	0x8
 1573 0614 E7       		.byte	0xe7
 1574 0615 D6020000 		.4byte	0x2d6
 1575 0619 15       		.uleb128 0x15
 1576 061a 42020000 		.4byte	.LASF84
 1577 061e 08       		.byte	0x8
 1578 061f EE       		.byte	0xee
 1579 0620 53060000 		.4byte	0x653
 1580 0624 15       		.uleb128 0x15
 1581 0625 C8000000 		.4byte	.LASF85
 1582 0629 08       		.byte	0x8
 1583 062a F3       		.byte	0xf3
 1584 062b D9000000 		.4byte	0xd9
 1585 062f 15       		.uleb128 0x15
ARM GAS  /tmp/cc110c1w.s 			page 59


 1586 0630 3B020000 		.4byte	.LASF86
 1587 0634 08       		.byte	0x8
 1588 0635 FC       		.byte	0xfc
 1589 0636 7E060000 		.4byte	0x67e
 1590 063a 16       		.uleb128 0x16
 1591 063b 60040000 		.4byte	.LASF87
 1592 063f 08       		.byte	0x8
 1593 0640 0501     		.2byte	0x105
 1594 0642 B5060000 		.4byte	0x6b5
 1595 0646 16       		.uleb128 0x16
 1596 0647 FB030000 		.4byte	.LASF88
 1597 064b 08       		.byte	0x8
 1598 064c 0D01     		.2byte	0x10d
 1599 064e E4000000 		.4byte	0xe4
 1600 0652 00       		.byte	0
 1601 0653 0A       		.uleb128 0xa
 1602 0654 04       		.byte	0x4
 1603 0655 EE010000 		.4byte	0x1ee
 1604 0659 05       		.uleb128 0x5
 1605 065a 27040000 		.4byte	.LASF89
 1606 065e 0C       		.byte	0xc
 1607 065f 0C       		.byte	0xc
 1608 0660 34       		.byte	0x34
 1609 0661 7E060000 		.4byte	0x67e
 1610 0665 06       		.uleb128 0x6
 1611 0666 56020000 		.4byte	.LASF24
 1612 066a 0C       		.byte	0xc
 1613 066b 35       		.byte	0x35
 1614 066c 23020000 		.4byte	0x223
 1615 0670 00       		.byte	0
 1616 0671 07       		.uleb128 0x7
 1617 0672 636E7400 		.ascii	"cnt\000"
 1618 0676 0C       		.byte	0xc
 1619 0677 37       		.byte	0x37
 1620 0678 EF000000 		.4byte	0xef
 1621 067c 08       		.byte	0x8
 1622 067d 00       		.byte	0
 1623 067e 0A       		.uleb128 0xa
 1624 067f 04       		.byte	0x4
 1625 0680 59060000 		.4byte	0x659
 1626 0684 05       		.uleb128 0x5
 1627 0685 F2050000 		.4byte	.LASF90
 1628 0689 10       		.byte	0x10
 1629 068a 0D       		.byte	0xd
 1630 068b 39       		.byte	0x39
 1631 068c B5060000 		.4byte	0x6b5
 1632 0690 06       		.uleb128 0x6
 1633 0691 56020000 		.4byte	.LASF24
 1634 0695 0D       		.byte	0xd
 1635 0696 3A       		.byte	0x3a
 1636 0697 23020000 		.4byte	0x223
 1637 069b 00       		.byte	0
 1638 069c 06       		.uleb128 0x6
 1639 069d 77040000 		.4byte	.LASF91
 1640 06a1 0D       		.byte	0xd
 1641 06a2 3C       		.byte	0x3c
 1642 06a3 F9010000 		.4byte	0x1f9
ARM GAS  /tmp/cc110c1w.s 			page 60


 1643 06a7 08       		.byte	0x8
 1644 06a8 06       		.uleb128 0x6
 1645 06a9 19000000 		.4byte	.LASF43
 1646 06ad 0D       		.byte	0xd
 1647 06ae 3E       		.byte	0x3e
 1648 06af E9060000 		.4byte	0x6e9
 1649 06b3 0C       		.byte	0xc
 1650 06b4 00       		.byte	0
 1651 06b5 0A       		.uleb128 0xa
 1652 06b6 04       		.byte	0x4
 1653 06b7 84060000 		.4byte	0x684
 1654 06bb 0A       		.uleb128 0xa
 1655 06bc 04       		.byte	0x4
 1656 06bd C1060000 		.4byte	0x6c1
 1657 06c1 17       		.uleb128 0x17
 1658 06c2 C6060000 		.4byte	0x6c6
 1659 06c6 04       		.uleb128 0x4
 1660 06c7 01       		.byte	0x1
 1661 06c8 08       		.byte	0x8
 1662 06c9 96040000 		.4byte	.LASF92
 1663 06cd 0A       		.uleb128 0xa
 1664 06ce 04       		.byte	0x4
 1665 06cf 29040000 		.4byte	0x429
 1666 06d3 0A       		.uleb128 0xa
 1667 06d4 04       		.byte	0x4
 1668 06d5 D8020000 		.4byte	0x2d8
 1669 06d9 0F       		.uleb128 0xf
 1670 06da BB060000 		.4byte	0x6bb
 1671 06de 03       		.uleb128 0x3
 1672 06df 07020000 		.4byte	.LASF93
 1673 06e3 0D       		.byte	0xd
 1674 06e4 34       		.byte	0x34
 1675 06e5 84060000 		.4byte	0x684
 1676 06e9 0A       		.uleb128 0xa
 1677 06ea 04       		.byte	0x4
 1678 06eb DE060000 		.4byte	0x6de
 1679 06ef 04       		.uleb128 0x4
 1680 06f0 01       		.byte	0x1
 1681 06f1 02       		.byte	0x2
 1682 06f2 BC030000 		.4byte	.LASF94
 1683 06f6 0A       		.uleb128 0xa
 1684 06f7 04       		.byte	0x4
 1685 06f8 FC060000 		.4byte	0x6fc
 1686 06fc 18       		.uleb128 0x18
 1687 06fd 19       		.uleb128 0x19
 1688 06fe 10       		.byte	0x10
 1689 06ff 0E       		.byte	0xe
 1690 0700 3D       		.byte	0x3d
 1691 0701 36070000 		.4byte	0x736
 1692 0705 06       		.uleb128 0x6
 1693 0706 51020000 		.4byte	.LASF28
 1694 070a 0E       		.byte	0xe
 1695 070b 3E       		.byte	0x3e
 1696 070c BB060000 		.4byte	0x6bb
 1697 0710 00       		.byte	0
 1698 0711 06       		.uleb128 0x6
 1699 0712 4B030000 		.4byte	.LASF95
ARM GAS  /tmp/cc110c1w.s 			page 61


 1700 0716 0E       		.byte	0xe
 1701 0717 3F       		.byte	0x3f
 1702 0718 F6060000 		.4byte	0x6f6
 1703 071c 04       		.byte	0x4
 1704 071d 06       		.uleb128 0x6
 1705 071e 48020000 		.4byte	.LASF96
 1706 0722 0E       		.byte	0xe
 1707 0723 40       		.byte	0x40
 1708 0724 F6060000 		.4byte	0x6f6
 1709 0728 08       		.byte	0x8
 1710 0729 06       		.uleb128 0x6
 1711 072a D8030000 		.4byte	.LASF97
 1712 072e 0E       		.byte	0xe
 1713 072f 41       		.byte	0x41
 1714 0730 F6060000 		.4byte	0x6f6
 1715 0734 0C       		.byte	0xc
 1716 0735 00       		.byte	0
 1717 0736 03       		.uleb128 0x3
 1718 0737 C5020000 		.4byte	.LASF98
 1719 073b 0E       		.byte	0xe
 1720 073c 42       		.byte	0x42
 1721 073d FD060000 		.4byte	0x6fd
 1722 0741 1A       		.uleb128 0x1a
 1723 0742 CD040000 		.4byte	.LASF105
 1724 0746 02       		.byte	0x2
 1725 0747 0601     		.2byte	0x106
 1726 0749 03       		.byte	0x3
 1727 074a 5B070000 		.4byte	0x75b
 1728 074e 1B       		.uleb128 0x1b
 1729 074f 0F020000 		.4byte	.LASF135
 1730 0753 02       		.byte	0x2
 1731 0754 0601     		.2byte	0x106
 1732 0756 82000000 		.4byte	0x82
 1733 075a 00       		.byte	0
 1734 075b 1C       		.uleb128 0x1c
 1735 075c 44040000 		.4byte	.LASF101
 1736 0760 03       		.byte	0x3
 1737 0761 8B       		.byte	0x8b
 1738 0762 FA000000 		.4byte	0xfa
 1739 0766 03       		.byte	0x3
 1740 0767 1D       		.uleb128 0x1d
 1741 0768 93000000 		.4byte	.LASF99
 1742 076c 0A       		.byte	0xa
 1743 076d 5202     		.2byte	0x252
 1744 076f 03       		.byte	0x3
 1745 0770 1D       		.uleb128 0x1d
 1746 0771 3B010000 		.4byte	.LASF100
 1747 0775 0A       		.byte	0xa
 1748 0776 6A02     		.2byte	0x26a
 1749 0778 03       		.byte	0x3
 1750 0779 1C       		.uleb128 0x1c
 1751 077a F8040000 		.4byte	.LASF102
 1752 077e 0F       		.byte	0xf
 1753 077f 69       		.byte	0x69
 1754 0780 FA000000 		.4byte	0xfa
 1755 0784 03       		.byte	0x3
 1756 0785 1D       		.uleb128 0x1d
ARM GAS  /tmp/cc110c1w.s 			page 62


 1757 0786 0C040000 		.4byte	.LASF103
 1758 078a 10       		.byte	0x10
 1759 078b 7601     		.2byte	0x176
 1760 078d 03       		.byte	0x3
 1761 078e 1E       		.uleb128 0x1e
 1762 078f 1B020000 		.4byte	.LASF104
 1763 0793 11       		.byte	0x11
 1764 0794 8801     		.2byte	0x188
 1765 0796 FA000000 		.4byte	0xfa
 1766 079a 03       		.byte	0x3
 1767 079b 1A       		.uleb128 0x1a
 1768 079c F8060000 		.4byte	.LASF106
 1769 07a0 10       		.byte	0x10
 1770 07a1 8201     		.2byte	0x182
 1771 07a3 03       		.byte	0x3
 1772 07a4 B6070000 		.4byte	0x7b6
 1773 07a8 1F       		.uleb128 0x1f
 1774 07a9 0C050000 		.4byte	.LASF107
 1775 07ad C6070000 		.4byte	0x7c6
 1776 07b1 F8060000 		.4byte	.LASF106
 1777 07b5 00       		.byte	0
 1778 07b6 10       		.uleb128 0x10
 1779 07b7 C6060000 		.4byte	0x6c6
 1780 07bb C6070000 		.4byte	0x7c6
 1781 07bf 11       		.uleb128 0x11
 1782 07c0 F2030000 		.4byte	0x3f2
 1783 07c4 0B       		.byte	0xb
 1784 07c5 00       		.byte	0
 1785 07c6 17       		.uleb128 0x17
 1786 07c7 B6070000 		.4byte	0x7b6
 1787 07cb 20       		.uleb128 0x20
 1788 07cc 51030000 		.4byte	.LASF136
 1789 07d0 11       		.byte	0x11
 1790 07d1 9B01     		.2byte	0x19b
 1791 07d3 FA000000 		.4byte	0xfa
 1792 07d7 03       		.byte	0x3
 1793 07d8 E9070000 		.4byte	0x7e9
 1794 07dc 21       		.uleb128 0x21
 1795 07dd 98020000 		.4byte	.LASF108
 1796 07e1 11       		.byte	0x11
 1797 07e2 9C01     		.2byte	0x19c
 1798 07e4 FA000000 		.4byte	0xfa
 1799 07e8 00       		.byte	0
 1800 07e9 22       		.uleb128 0x22
 1801 07ea 20050000 		.4byte	.LASF109
 1802 07ee 01       		.byte	0x1
 1803 07ef 5F       		.byte	0x5f
 1804 07f0 00000000 		.4byte	.LFB219
 1805 07f4 66000000 		.4byte	.LFE219-.LFB219
 1806 07f8 01       		.uleb128 0x1
 1807 07f9 9C       		.byte	0x9c
 1808 07fa B3080000 		.4byte	0x8b3
 1809 07fe 23       		.uleb128 0x23
 1810 07ff 0E000000 		.4byte	.LVL0
 1811 0803 A70B0000 		.4byte	0xba7
 1812 0807 15080000 		.4byte	0x815
 1813 080b 24       		.uleb128 0x24
ARM GAS  /tmp/cc110c1w.s 			page 63


 1814 080c 01       		.uleb128 0x1
 1815 080d 50       		.byte	0x50
 1816 080e 05       		.uleb128 0x5
 1817 080f 03       		.byte	0x3
 1818 0810 00000000 		.4byte	.LC0
 1819 0814 00       		.byte	0
 1820 0815 23       		.uleb128 0x23
 1821 0816 1A000000 		.4byte	.LVL1
 1822 081a B80B0000 		.4byte	0xbb8
 1823 081e 2C080000 		.4byte	0x82c
 1824 0822 24       		.uleb128 0x24
 1825 0823 01       		.uleb128 0x1
 1826 0824 50       		.byte	0x50
 1827 0825 05       		.uleb128 0x5
 1828 0826 03       		.byte	0x3
 1829 0827 14000000 		.4byte	.LC1
 1830 082b 00       		.byte	0
 1831 082c 23       		.uleb128 0x23
 1832 082d 26000000 		.4byte	.LVL2
 1833 0831 A70B0000 		.4byte	0xba7
 1834 0835 43080000 		.4byte	0x843
 1835 0839 24       		.uleb128 0x24
 1836 083a 01       		.uleb128 0x1
 1837 083b 50       		.byte	0x50
 1838 083c 05       		.uleb128 0x5
 1839 083d 03       		.byte	0x3
 1840 083e 20000000 		.4byte	.LC2
 1841 0842 00       		.byte	0
 1842 0843 23       		.uleb128 0x23
 1843 0844 32000000 		.4byte	.LVL3
 1844 0848 B80B0000 		.4byte	0xbb8
 1845 084c 5A080000 		.4byte	0x85a
 1846 0850 24       		.uleb128 0x24
 1847 0851 01       		.uleb128 0x1
 1848 0852 50       		.byte	0x50
 1849 0853 05       		.uleb128 0x5
 1850 0854 03       		.byte	0x3
 1851 0855 34000000 		.4byte	.LC3
 1852 0859 00       		.byte	0
 1853 085a 23       		.uleb128 0x23
 1854 085b 3E000000 		.4byte	.LVL4
 1855 085f A70B0000 		.4byte	0xba7
 1856 0863 71080000 		.4byte	0x871
 1857 0867 24       		.uleb128 0x24
 1858 0868 01       		.uleb128 0x1
 1859 0869 50       		.byte	0x50
 1860 086a 05       		.uleb128 0x5
 1861 086b 03       		.byte	0x3
 1862 086c 3C000000 		.4byte	.LC4
 1863 0870 00       		.byte	0
 1864 0871 23       		.uleb128 0x23
 1865 0872 4A000000 		.4byte	.LVL5
 1866 0876 B80B0000 		.4byte	0xbb8
 1867 087a 88080000 		.4byte	0x888
 1868 087e 24       		.uleb128 0x24
 1869 087f 01       		.uleb128 0x1
 1870 0880 50       		.byte	0x50
ARM GAS  /tmp/cc110c1w.s 			page 64


 1871 0881 05       		.uleb128 0x5
 1872 0882 03       		.byte	0x3
 1873 0883 50000000 		.4byte	.LC5
 1874 0887 00       		.byte	0
 1875 0888 23       		.uleb128 0x23
 1876 0889 56000000 		.4byte	.LVL6
 1877 088d A70B0000 		.4byte	0xba7
 1878 0891 9F080000 		.4byte	0x89f
 1879 0895 24       		.uleb128 0x24
 1880 0896 01       		.uleb128 0x1
 1881 0897 50       		.byte	0x50
 1882 0898 05       		.uleb128 0x5
 1883 0899 03       		.byte	0x3
 1884 089a 5C000000 		.4byte	.LC6
 1885 089e 00       		.byte	0
 1886 089f 25       		.uleb128 0x25
 1887 08a0 66000000 		.4byte	.LVL7
 1888 08a4 B80B0000 		.4byte	0xbb8
 1889 08a8 24       		.uleb128 0x24
 1890 08a9 01       		.uleb128 0x1
 1891 08aa 50       		.byte	0x50
 1892 08ab 05       		.uleb128 0x5
 1893 08ac 03       		.byte	0x3
 1894 08ad 70000000 		.4byte	.LC7
 1895 08b1 00       		.byte	0
 1896 08b2 00       		.byte	0
 1897 08b3 22       		.uleb128 0x22
 1898 08b4 78030000 		.4byte	.LASF110
 1899 08b8 01       		.byte	0x1
 1900 08b9 87       		.byte	0x87
 1901 08ba 00000000 		.4byte	.LFB220
 1902 08be 20000000 		.4byte	.LFE220-.LFB220
 1903 08c2 01       		.uleb128 0x1
 1904 08c3 9C       		.byte	0x9c
 1905 08c4 DF080000 		.4byte	0x8df
 1906 08c8 26       		.uleb128 0x26
 1907 08c9 6900     		.ascii	"i\000"
 1908 08cb 01       		.byte	0x1
 1909 08cc 88       		.byte	0x88
 1910 08cd 37000000 		.4byte	0x37
 1911 08d1 00000000 		.4byte	.LLST0
 1912 08d5 27       		.uleb128 0x27
 1913 08d6 14000000 		.4byte	.LVL10
 1914 08da C90B0000 		.4byte	0xbc9
 1915 08de 00       		.byte	0
 1916 08df 22       		.uleb128 0x22
 1917 08e0 2C030000 		.4byte	.LASF111
 1918 08e4 01       		.byte	0x1
 1919 08e5 92       		.byte	0x92
 1920 08e6 00000000 		.4byte	.LFB221
 1921 08ea 26000000 		.4byte	.LFE221-.LFB221
 1922 08ee 01       		.uleb128 0x1
 1923 08ef 9C       		.byte	0x9c
 1924 08f0 0B090000 		.4byte	0x90b
 1925 08f4 26       		.uleb128 0x26
 1926 08f5 6900     		.ascii	"i\000"
 1927 08f7 01       		.byte	0x1
ARM GAS  /tmp/cc110c1w.s 			page 65


 1928 08f8 93       		.byte	0x93
 1929 08f9 37000000 		.4byte	0x37
 1930 08fd 14000000 		.4byte	.LLST1
 1931 0901 27       		.uleb128 0x27
 1932 0902 1C000000 		.4byte	.LVL13
 1933 0906 DB0B0000 		.4byte	0xbdb
 1934 090a 00       		.byte	0
 1935 090b 28       		.uleb128 0x28
 1936 090c 0C070000 		.4byte	.LASF137
 1937 0910 01       		.byte	0x1
 1938 0911 9F       		.byte	0x9f
 1939 0912 FA000000 		.4byte	0xfa
 1940 0916 00000000 		.4byte	.LFB222
 1941 091a 1E000000 		.4byte	.LFE222-.LFB222
 1942 091e 01       		.uleb128 0x1
 1943 091f 9C       		.byte	0x9c
 1944 0920 110A0000 		.4byte	0xa11
 1945 0924 29       		.uleb128 0x29
 1946 0925 CB070000 		.4byte	0x7cb
 1947 0929 08000000 		.4byte	.LBB50
 1948 092d 12000000 		.4byte	.LBE50-.LBB50
 1949 0931 01       		.byte	0x1
 1950 0932 A2       		.byte	0xa2
 1951 0933 010A0000 		.4byte	0xa01
 1952 0937 2A       		.uleb128 0x2a
 1953 0938 08000000 		.4byte	.LBB51
 1954 093c 12000000 		.4byte	.LBE51-.LBB51
 1955 0940 2B       		.uleb128 0x2b
 1956 0941 DC070000 		.4byte	0x7dc
 1957 0945 2C       		.uleb128 0x2c
 1958 0946 85070000 		.4byte	0x785
 1959 094a 08000000 		.4byte	.LBB52
 1960 094e 06000000 		.4byte	.LBE52-.LBB52
 1961 0952 11       		.byte	0x11
 1962 0953 9E01     		.2byte	0x19e
 1963 0955 82090000 		.4byte	0x982
 1964 0959 2D       		.uleb128 0x2d
 1965 095a 67070000 		.4byte	0x767
 1966 095e 08000000 		.4byte	.LBB53
 1967 0962 06000000 		.4byte	.LBE53-.LBB53
 1968 0966 10       		.byte	0x10
 1969 0967 7801     		.2byte	0x178
 1970 0969 2D       		.uleb128 0x2d
 1971 096a 41070000 		.4byte	0x741
 1972 096e 08000000 		.4byte	.LBB54
 1973 0972 06000000 		.4byte	.LBE54-.LBB54
 1974 0976 0A       		.byte	0xa
 1975 0977 5A02     		.2byte	0x25a
 1976 0979 2E       		.uleb128 0x2e
 1977 097a 4E070000 		.4byte	0x74e
 1978 097e 20       		.byte	0x20
 1979 097f 00       		.byte	0
 1980 0980 00       		.byte	0
 1981 0981 00       		.byte	0
 1982 0982 2C       		.uleb128 0x2c
 1983 0983 8E070000 		.4byte	0x78e
 1984 0987 0E000000 		.4byte	.LBB56
ARM GAS  /tmp/cc110c1w.s 			page 66


 1985 098b 06000000 		.4byte	.LBE56-.LBB56
 1986 098f 11       		.byte	0x11
 1987 0990 9F01     		.2byte	0x19f
 1988 0992 B7090000 		.4byte	0x9b7
 1989 0996 2D       		.uleb128 0x2d
 1990 0997 79070000 		.4byte	0x779
 1991 099b 0E000000 		.4byte	.LBB57
 1992 099f 06000000 		.4byte	.LBE57-.LBB57
 1993 09a3 11       		.byte	0x11
 1994 09a4 8D01     		.2byte	0x18d
 1995 09a6 2F       		.uleb128 0x2f
 1996 09a7 5B070000 		.4byte	0x75b
 1997 09ab 0E000000 		.4byte	.LBB58
 1998 09af 06000000 		.4byte	.LBE58-.LBB58
 1999 09b3 0F       		.byte	0xf
 2000 09b4 6B       		.byte	0x6b
 2001 09b5 00       		.byte	0
 2002 09b6 00       		.byte	0
 2003 09b7 2D       		.uleb128 0x2d
 2004 09b8 9B070000 		.4byte	0x79b
 2005 09bc 14000000 		.4byte	.LBB60
 2006 09c0 06000000 		.4byte	.LBE60-.LBB60
 2007 09c4 11       		.byte	0x11
 2008 09c5 A001     		.2byte	0x1a0
 2009 09c7 2A       		.uleb128 0x2a
 2010 09c8 14000000 		.4byte	.LBB61
 2011 09cc 06000000 		.4byte	.LBE61-.LBB61
 2012 09d0 2B       		.uleb128 0x2b
 2013 09d1 A8070000 		.4byte	0x7a8
 2014 09d5 2D       		.uleb128 0x2d
 2015 09d6 70070000 		.4byte	0x770
 2016 09da 14000000 		.4byte	.LBB62
 2017 09de 06000000 		.4byte	.LBE62-.LBB62
 2018 09e2 10       		.byte	0x10
 2019 09e3 8F01     		.2byte	0x18f
 2020 09e5 2D       		.uleb128 0x2d
 2021 09e6 41070000 		.4byte	0x741
 2022 09ea 14000000 		.4byte	.LBB63
 2023 09ee 06000000 		.4byte	.LBE63-.LBB63
 2024 09f2 0A       		.byte	0xa
 2025 09f3 6D02     		.2byte	0x26d
 2026 09f5 2E       		.uleb128 0x2e
 2027 09f6 4E070000 		.4byte	0x74e
 2028 09fa 00       		.byte	0
 2029 09fb 00       		.byte	0
 2030 09fc 00       		.byte	0
 2031 09fd 00       		.byte	0
 2032 09fe 00       		.byte	0
 2033 09ff 00       		.byte	0
 2034 0a00 00       		.byte	0
 2035 0a01 30       		.uleb128 0x30
 2036 0a02 08000000 		.4byte	.LVL14
 2037 0a06 F00B0000 		.4byte	0xbf0
 2038 0a0a 24       		.uleb128 0x24
 2039 0a0b 01       		.uleb128 0x1
 2040 0a0c 50       		.byte	0x50
 2041 0a0d 01       		.uleb128 0x1
ARM GAS  /tmp/cc110c1w.s 			page 67


 2042 0a0e 31       		.byte	0x31
 2043 0a0f 00       		.byte	0
 2044 0a10 00       		.byte	0
 2045 0a11 31       		.uleb128 0x31
 2046 0a12 E6000000 		.4byte	.LASF112
 2047 0a16 12       		.byte	0x12
 2048 0a17 9606     		.2byte	0x696
 2049 0a19 1D0A0000 		.4byte	0xa1d
 2050 0a1d 0F       		.uleb128 0xf
 2051 0a1e 70000000 		.4byte	0x70
 2052 0a22 32       		.uleb128 0x32
 2053 0a23 636800   		.ascii	"ch\000"
 2054 0a26 08       		.byte	0x8
 2055 0a27 D201     		.2byte	0x1d2
 2056 0a29 A5030000 		.4byte	0x3a5
 2057 0a2d 10       		.uleb128 0x10
 2058 0a2e 380A0000 		.4byte	0xa38
 2059 0a32 380A0000 		.4byte	0xa38
 2060 0a36 33       		.uleb128 0x33
 2061 0a37 00       		.byte	0
 2062 0a38 0A       		.uleb128 0xa
 2063 0a39 04       		.byte	0x4
 2064 0a3a 3E0A0000 		.4byte	0xa3e
 2065 0a3e 17       		.uleb128 0x17
 2066 0a3f 36070000 		.4byte	0x736
 2067 0a43 34       		.uleb128 0x34
 2068 0a44 FB050000 		.4byte	.LASF113
 2069 0a48 13       		.byte	0x13
 2070 0a49 19       		.byte	0x19
 2071 0a4a 4E0A0000 		.4byte	0xa4e
 2072 0a4e 17       		.uleb128 0x17
 2073 0a4f 2D0A0000 		.4byte	0xa2d
 2074 0a53 34       		.uleb128 0x34
 2075 0a54 4A060000 		.4byte	.LASF114
 2076 0a58 14       		.byte	0x14
 2077 0a59 19       		.byte	0x19
 2078 0a5a 5E0A0000 		.4byte	0xa5e
 2079 0a5e 17       		.uleb128 0x17
 2080 0a5f 2D0A0000 		.4byte	0xa2d
 2081 0a63 34       		.uleb128 0x34
 2082 0a64 5C060000 		.4byte	.LASF115
 2083 0a68 15       		.byte	0x15
 2084 0a69 19       		.byte	0x19
 2085 0a6a 6E0A0000 		.4byte	0xa6e
 2086 0a6e 17       		.uleb128 0x17
 2087 0a6f 2D0A0000 		.4byte	0xa2d
 2088 0a73 34       		.uleb128 0x34
 2089 0a74 6E060000 		.4byte	.LASF116
 2090 0a78 16       		.byte	0x16
 2091 0a79 19       		.byte	0x19
 2092 0a7a 7E0A0000 		.4byte	0xa7e
 2093 0a7e 17       		.uleb128 0x17
 2094 0a7f 2D0A0000 		.4byte	0xa2d
 2095 0a83 34       		.uleb128 0x34
 2096 0a84 80060000 		.4byte	.LASF117
 2097 0a88 17       		.byte	0x17
 2098 0a89 19       		.byte	0x19
ARM GAS  /tmp/cc110c1w.s 			page 68


 2099 0a8a 8E0A0000 		.4byte	0xa8e
 2100 0a8e 17       		.uleb128 0x17
 2101 0a8f 2D0A0000 		.4byte	0xa2d
 2102 0a93 34       		.uleb128 0x34
 2103 0a94 92060000 		.4byte	.LASF118
 2104 0a98 18       		.byte	0x18
 2105 0a99 19       		.byte	0x19
 2106 0a9a 9E0A0000 		.4byte	0xa9e
 2107 0a9e 17       		.uleb128 0x17
 2108 0a9f 2D0A0000 		.4byte	0xa2d
 2109 0aa3 34       		.uleb128 0x34
 2110 0aa4 A4060000 		.4byte	.LASF119
 2111 0aa8 19       		.byte	0x19
 2112 0aa9 19       		.byte	0x19
 2113 0aaa AE0A0000 		.4byte	0xaae
 2114 0aae 17       		.uleb128 0x17
 2115 0aaf 2D0A0000 		.4byte	0xa2d
 2116 0ab3 34       		.uleb128 0x34
 2117 0ab4 B6060000 		.4byte	.LASF120
 2118 0ab8 1A       		.byte	0x1a
 2119 0ab9 19       		.byte	0x19
 2120 0aba BE0A0000 		.4byte	0xabe
 2121 0abe 17       		.uleb128 0x17
 2122 0abf 2D0A0000 		.4byte	0xa2d
 2123 0ac3 34       		.uleb128 0x34
 2124 0ac4 C8060000 		.4byte	.LASF121
 2125 0ac8 1B       		.byte	0x1b
 2126 0ac9 19       		.byte	0x19
 2127 0aca CE0A0000 		.4byte	0xace
 2128 0ace 17       		.uleb128 0x17
 2129 0acf 2D0A0000 		.4byte	0xa2d
 2130 0ad3 34       		.uleb128 0x34
 2131 0ad4 2B000000 		.4byte	.LASF122
 2132 0ad8 1C       		.byte	0x1c
 2133 0ad9 19       		.byte	0x19
 2134 0ada DE0A0000 		.4byte	0xade
 2135 0ade 17       		.uleb128 0x17
 2136 0adf 2D0A0000 		.4byte	0xa2d
 2137 0ae3 34       		.uleb128 0x34
 2138 0ae4 3D000000 		.4byte	.LASF123
 2139 0ae8 1D       		.byte	0x1d
 2140 0ae9 19       		.byte	0x19
 2141 0aea EE0A0000 		.4byte	0xaee
 2142 0aee 17       		.uleb128 0x17
 2143 0aef 2D0A0000 		.4byte	0xa2d
 2144 0af3 34       		.uleb128 0x34
 2145 0af4 4F000000 		.4byte	.LASF124
 2146 0af8 1E       		.byte	0x1e
 2147 0af9 19       		.byte	0x19
 2148 0afa FE0A0000 		.4byte	0xafe
 2149 0afe 17       		.uleb128 0x17
 2150 0aff 2D0A0000 		.4byte	0xa2d
 2151 0b03 34       		.uleb128 0x34
 2152 0b04 61000000 		.4byte	.LASF125
 2153 0b08 1F       		.byte	0x1f
 2154 0b09 19       		.byte	0x19
 2155 0b0a 0E0B0000 		.4byte	0xb0e
ARM GAS  /tmp/cc110c1w.s 			page 69


 2156 0b0e 17       		.uleb128 0x17
 2157 0b0f 2D0A0000 		.4byte	0xa2d
 2158 0b13 10       		.uleb128 0x10
 2159 0b14 230B0000 		.4byte	0xb23
 2160 0b18 230B0000 		.4byte	0xb23
 2161 0b1c 11       		.uleb128 0x11
 2162 0b1d F2030000 		.4byte	0x3f2
 2163 0b21 0D       		.byte	0xd
 2164 0b22 00       		.byte	0
 2165 0b23 0A       		.uleb128 0xa
 2166 0b24 04       		.byte	0x4
 2167 0b25 290B0000 		.4byte	0xb29
 2168 0b29 17       		.uleb128 0x17
 2169 0b2a 380A0000 		.4byte	0xa38
 2170 0b2e 35       		.uleb128 0x35
 2171 0b2f AF040000 		.4byte	.LASF126
 2172 0b33 01       		.byte	0x1
 2173 0b34 3A       		.byte	0x3a
 2174 0b35 130B0000 		.4byte	0xb13
 2175 0b39 05       		.uleb128 0x5
 2176 0b3a 03       		.byte	0x3
 2177 0b3b 00000000 		.4byte	test_suite
 2178 0b3f 10       		.uleb128 0x10
 2179 0b40 45000000 		.4byte	0x45
 2180 0b44 500B0000 		.4byte	0xb50
 2181 0b48 36       		.uleb128 0x36
 2182 0b49 F2030000 		.4byte	0x3f2
 2183 0b4d 6706     		.2byte	0x667
 2184 0b4f 00       		.byte	0
 2185 0b50 35       		.uleb128 0x35
 2186 0b51 17030000 		.4byte	.LASF127
 2187 0b55 01       		.byte	0x1
 2188 0b56 74       		.byte	0x74
 2189 0b57 3F0B0000 		.4byte	0xb3f
 2190 0b5b 05       		.uleb128 0x5
 2191 0b5c 03       		.byte	0x3
 2192 0b5d 00000000 		.4byte	test_buffer
 2193 0b61 10       		.uleb128 0x10
 2194 0b62 F9010000 		.4byte	0x1f9
 2195 0b66 710B0000 		.4byte	0xb71
 2196 0b6a 11       		.uleb128 0x11
 2197 0b6b F2030000 		.4byte	0x3f2
 2198 0b6f 04       		.byte	0x4
 2199 0b70 00       		.byte	0
 2200 0b71 35       		.uleb128 0x35
 2201 0b72 F3030000 		.4byte	.LASF128
 2202 0b76 01       		.byte	0x1
 2203 0b77 79       		.byte	0x79
 2204 0b78 610B0000 		.4byte	0xb61
 2205 0b7c 05       		.uleb128 0x5
 2206 0b7d 03       		.byte	0x3
 2207 0b7e 00000000 		.4byte	threads
 2208 0b82 10       		.uleb128 0x10
 2209 0b83 D6020000 		.4byte	0x2d6
 2210 0b87 920B0000 		.4byte	0xb92
 2211 0b8b 11       		.uleb128 0x11
 2212 0b8c F2030000 		.4byte	0x3f2
ARM GAS  /tmp/cc110c1w.s 			page 70


 2213 0b90 04       		.byte	0x4
 2214 0b91 00       		.byte	0
 2215 0b92 37       		.uleb128 0x37
 2216 0b93 776100   		.ascii	"wa\000"
 2217 0b96 01       		.byte	0x1
 2218 0b97 7E       		.byte	0x7e
 2219 0b98 A20B0000 		.4byte	0xba2
 2220 0b9c 05       		.uleb128 0x5
 2221 0b9d 03       		.byte	0x3
 2222 0b9e 00000000 		.4byte	wa
 2223 0ba2 17       		.uleb128 0x17
 2224 0ba3 820B0000 		.4byte	0xb82
 2225 0ba7 38       		.uleb128 0x38
 2226 0ba8 D0020000 		.4byte	.LASF129
 2227 0bac 0E       		.byte	0xe
 2228 0bad AC       		.byte	0xac
 2229 0bae B80B0000 		.4byte	0xbb8
 2230 0bb2 0D       		.uleb128 0xd
 2231 0bb3 BB060000 		.4byte	0x6bb
 2232 0bb7 00       		.byte	0
 2233 0bb8 38       		.uleb128 0x38
 2234 0bb9 27010000 		.4byte	.LASF130
 2235 0bbd 0E       		.byte	0xe
 2236 0bbe AD       		.byte	0xad
 2237 0bbf C90B0000 		.4byte	0xbc9
 2238 0bc3 0D       		.uleb128 0xd
 2239 0bc4 BB060000 		.4byte	0x6bb
 2240 0bc8 00       		.byte	0
 2241 0bc9 39       		.uleb128 0x39
 2242 0bca 89010000 		.4byte	.LASF131
 2243 0bce 20       		.byte	0x20
 2244 0bcf 0001     		.2byte	0x100
 2245 0bd1 DB0B0000 		.4byte	0xbdb
 2246 0bd5 0D       		.uleb128 0xd
 2247 0bd6 F9010000 		.4byte	0x1f9
 2248 0bda 00       		.byte	0
 2249 0bdb 3A       		.uleb128 0x3a
 2250 0bdc 35050000 		.4byte	.LASF138
 2251 0be0 20       		.byte	0x20
 2252 0be1 FD       		.byte	0xfd
 2253 0be2 D9000000 		.4byte	0xd9
 2254 0be6 F00B0000 		.4byte	0xbf0
 2255 0bea 0D       		.uleb128 0xd
 2256 0beb F9010000 		.4byte	0x1f9
 2257 0bef 00       		.byte	0
 2258 0bf0 3B       		.uleb128 0x3b
 2259 0bf1 39040000 		.4byte	.LASF139
 2260 0bf5 20       		.byte	0x20
 2261 0bf6 0901     		.2byte	0x109
 2262 0bf8 0D       		.uleb128 0xd
 2263 0bf9 FA000000 		.4byte	0xfa
 2264 0bfd 00       		.byte	0
 2265 0bfe 00       		.byte	0
 2266              		.section	.debug_abbrev,"",%progbits
 2267              	.Ldebug_abbrev0:
 2268 0000 01       		.uleb128 0x1
 2269 0001 11       		.uleb128 0x11
ARM GAS  /tmp/cc110c1w.s 			page 71


 2270 0002 01       		.byte	0x1
 2271 0003 25       		.uleb128 0x25
 2272 0004 0E       		.uleb128 0xe
 2273 0005 13       		.uleb128 0x13
 2274 0006 0B       		.uleb128 0xb
 2275 0007 03       		.uleb128 0x3
 2276 0008 0E       		.uleb128 0xe
 2277 0009 1B       		.uleb128 0x1b
 2278 000a 0E       		.uleb128 0xe
 2279 000b 55       		.uleb128 0x55
 2280 000c 17       		.uleb128 0x17
 2281 000d 11       		.uleb128 0x11
 2282 000e 01       		.uleb128 0x1
 2283 000f 10       		.uleb128 0x10
 2284 0010 17       		.uleb128 0x17
 2285 0011 00       		.byte	0
 2286 0012 00       		.byte	0
 2287 0013 02       		.uleb128 0x2
 2288 0014 24       		.uleb128 0x24
 2289 0015 00       		.byte	0
 2290 0016 0B       		.uleb128 0xb
 2291 0017 0B       		.uleb128 0xb
 2292 0018 3E       		.uleb128 0x3e
 2293 0019 0B       		.uleb128 0xb
 2294 001a 03       		.uleb128 0x3
 2295 001b 08       		.uleb128 0x8
 2296 001c 00       		.byte	0
 2297 001d 00       		.byte	0
 2298 001e 03       		.uleb128 0x3
 2299 001f 16       		.uleb128 0x16
 2300 0020 00       		.byte	0
 2301 0021 03       		.uleb128 0x3
 2302 0022 0E       		.uleb128 0xe
 2303 0023 3A       		.uleb128 0x3a
 2304 0024 0B       		.uleb128 0xb
 2305 0025 3B       		.uleb128 0x3b
 2306 0026 0B       		.uleb128 0xb
 2307 0027 49       		.uleb128 0x49
 2308 0028 13       		.uleb128 0x13
 2309 0029 00       		.byte	0
 2310 002a 00       		.byte	0
 2311 002b 04       		.uleb128 0x4
 2312 002c 24       		.uleb128 0x24
 2313 002d 00       		.byte	0
 2314 002e 0B       		.uleb128 0xb
 2315 002f 0B       		.uleb128 0xb
 2316 0030 3E       		.uleb128 0x3e
 2317 0031 0B       		.uleb128 0xb
 2318 0032 03       		.uleb128 0x3
 2319 0033 0E       		.uleb128 0xe
 2320 0034 00       		.byte	0
 2321 0035 00       		.byte	0
 2322 0036 05       		.uleb128 0x5
 2323 0037 13       		.uleb128 0x13
 2324 0038 01       		.byte	0x1
 2325 0039 03       		.uleb128 0x3
 2326 003a 0E       		.uleb128 0xe
ARM GAS  /tmp/cc110c1w.s 			page 72


 2327 003b 0B       		.uleb128 0xb
 2328 003c 0B       		.uleb128 0xb
 2329 003d 3A       		.uleb128 0x3a
 2330 003e 0B       		.uleb128 0xb
 2331 003f 3B       		.uleb128 0x3b
 2332 0040 0B       		.uleb128 0xb
 2333 0041 01       		.uleb128 0x1
 2334 0042 13       		.uleb128 0x13
 2335 0043 00       		.byte	0
 2336 0044 00       		.byte	0
 2337 0045 06       		.uleb128 0x6
 2338 0046 0D       		.uleb128 0xd
 2339 0047 00       		.byte	0
 2340 0048 03       		.uleb128 0x3
 2341 0049 0E       		.uleb128 0xe
 2342 004a 3A       		.uleb128 0x3a
 2343 004b 0B       		.uleb128 0xb
 2344 004c 3B       		.uleb128 0x3b
 2345 004d 0B       		.uleb128 0xb
 2346 004e 49       		.uleb128 0x49
 2347 004f 13       		.uleb128 0x13
 2348 0050 38       		.uleb128 0x38
 2349 0051 0B       		.uleb128 0xb
 2350 0052 00       		.byte	0
 2351 0053 00       		.byte	0
 2352 0054 07       		.uleb128 0x7
 2353 0055 0D       		.uleb128 0xd
 2354 0056 00       		.byte	0
 2355 0057 03       		.uleb128 0x3
 2356 0058 08       		.uleb128 0x8
 2357 0059 3A       		.uleb128 0x3a
 2358 005a 0B       		.uleb128 0xb
 2359 005b 3B       		.uleb128 0x3b
 2360 005c 0B       		.uleb128 0xb
 2361 005d 49       		.uleb128 0x49
 2362 005e 13       		.uleb128 0x13
 2363 005f 38       		.uleb128 0x38
 2364 0060 0B       		.uleb128 0xb
 2365 0061 00       		.byte	0
 2366 0062 00       		.byte	0
 2367 0063 08       		.uleb128 0x8
 2368 0064 0D       		.uleb128 0xd
 2369 0065 00       		.byte	0
 2370 0066 03       		.uleb128 0x3
 2371 0067 08       		.uleb128 0x8
 2372 0068 3A       		.uleb128 0x3a
 2373 0069 0B       		.uleb128 0xb
 2374 006a 3B       		.uleb128 0x3b
 2375 006b 05       		.uleb128 0x5
 2376 006c 49       		.uleb128 0x49
 2377 006d 13       		.uleb128 0x13
 2378 006e 38       		.uleb128 0x38
 2379 006f 0B       		.uleb128 0xb
 2380 0070 00       		.byte	0
 2381 0071 00       		.byte	0
 2382 0072 09       		.uleb128 0x9
 2383 0073 0D       		.uleb128 0xd
ARM GAS  /tmp/cc110c1w.s 			page 73


 2384 0074 00       		.byte	0
 2385 0075 03       		.uleb128 0x3
 2386 0076 0E       		.uleb128 0xe
 2387 0077 3A       		.uleb128 0x3a
 2388 0078 0B       		.uleb128 0xb
 2389 0079 3B       		.uleb128 0x3b
 2390 007a 05       		.uleb128 0x5
 2391 007b 49       		.uleb128 0x49
 2392 007c 13       		.uleb128 0x13
 2393 007d 38       		.uleb128 0x38
 2394 007e 0B       		.uleb128 0xb
 2395 007f 00       		.byte	0
 2396 0080 00       		.byte	0
 2397 0081 0A       		.uleb128 0xa
 2398 0082 0F       		.uleb128 0xf
 2399 0083 00       		.byte	0
 2400 0084 0B       		.uleb128 0xb
 2401 0085 0B       		.uleb128 0xb
 2402 0086 49       		.uleb128 0x49
 2403 0087 13       		.uleb128 0x13
 2404 0088 00       		.byte	0
 2405 0089 00       		.byte	0
 2406 008a 0B       		.uleb128 0xb
 2407 008b 13       		.uleb128 0x13
 2408 008c 01       		.byte	0x1
 2409 008d 03       		.uleb128 0x3
 2410 008e 0E       		.uleb128 0xe
 2411 008f 0B       		.uleb128 0xb
 2412 0090 0B       		.uleb128 0xb
 2413 0091 3A       		.uleb128 0x3a
 2414 0092 0B       		.uleb128 0xb
 2415 0093 3B       		.uleb128 0x3b
 2416 0094 05       		.uleb128 0x5
 2417 0095 01       		.uleb128 0x1
 2418 0096 13       		.uleb128 0x13
 2419 0097 00       		.byte	0
 2420 0098 00       		.byte	0
 2421 0099 0C       		.uleb128 0xc
 2422 009a 15       		.uleb128 0x15
 2423 009b 01       		.byte	0x1
 2424 009c 27       		.uleb128 0x27
 2425 009d 19       		.uleb128 0x19
 2426 009e 01       		.uleb128 0x1
 2427 009f 13       		.uleb128 0x13
 2428 00a0 00       		.byte	0
 2429 00a1 00       		.byte	0
 2430 00a2 0D       		.uleb128 0xd
 2431 00a3 05       		.uleb128 0x5
 2432 00a4 00       		.byte	0
 2433 00a5 49       		.uleb128 0x49
 2434 00a6 13       		.uleb128 0x13
 2435 00a7 00       		.byte	0
 2436 00a8 00       		.byte	0
 2437 00a9 0E       		.uleb128 0xe
 2438 00aa 0F       		.uleb128 0xf
 2439 00ab 00       		.byte	0
 2440 00ac 0B       		.uleb128 0xb
ARM GAS  /tmp/cc110c1w.s 			page 74


 2441 00ad 0B       		.uleb128 0xb
 2442 00ae 00       		.byte	0
 2443 00af 00       		.byte	0
 2444 00b0 0F       		.uleb128 0xf
 2445 00b1 35       		.uleb128 0x35
 2446 00b2 00       		.byte	0
 2447 00b3 49       		.uleb128 0x49
 2448 00b4 13       		.uleb128 0x13
 2449 00b5 00       		.byte	0
 2450 00b6 00       		.byte	0
 2451 00b7 10       		.uleb128 0x10
 2452 00b8 01       		.uleb128 0x1
 2453 00b9 01       		.byte	0x1
 2454 00ba 49       		.uleb128 0x49
 2455 00bb 13       		.uleb128 0x13
 2456 00bc 01       		.uleb128 0x1
 2457 00bd 13       		.uleb128 0x13
 2458 00be 00       		.byte	0
 2459 00bf 00       		.byte	0
 2460 00c0 11       		.uleb128 0x11
 2461 00c1 21       		.uleb128 0x21
 2462 00c2 00       		.byte	0
 2463 00c3 49       		.uleb128 0x49
 2464 00c4 13       		.uleb128 0x13
 2465 00c5 2F       		.uleb128 0x2f
 2466 00c6 0B       		.uleb128 0xb
 2467 00c7 00       		.byte	0
 2468 00c8 00       		.byte	0
 2469 00c9 12       		.uleb128 0x12
 2470 00ca 13       		.uleb128 0x13
 2471 00cb 01       		.byte	0x1
 2472 00cc 0B       		.uleb128 0xb
 2473 00cd 0B       		.uleb128 0xb
 2474 00ce 3A       		.uleb128 0x3a
 2475 00cf 0B       		.uleb128 0xb
 2476 00d0 3B       		.uleb128 0x3b
 2477 00d1 05       		.uleb128 0x5
 2478 00d2 01       		.uleb128 0x1
 2479 00d3 13       		.uleb128 0x13
 2480 00d4 00       		.byte	0
 2481 00d5 00       		.byte	0
 2482 00d6 13       		.uleb128 0x13
 2483 00d7 16       		.uleb128 0x16
 2484 00d8 00       		.byte	0
 2485 00d9 03       		.uleb128 0x3
 2486 00da 0E       		.uleb128 0xe
 2487 00db 3A       		.uleb128 0x3a
 2488 00dc 0B       		.uleb128 0xb
 2489 00dd 3B       		.uleb128 0x3b
 2490 00de 05       		.uleb128 0x5
 2491 00df 49       		.uleb128 0x49
 2492 00e0 13       		.uleb128 0x13
 2493 00e1 00       		.byte	0
 2494 00e2 00       		.byte	0
 2495 00e3 14       		.uleb128 0x14
 2496 00e4 17       		.uleb128 0x17
 2497 00e5 01       		.byte	0x1
ARM GAS  /tmp/cc110c1w.s 			page 75


 2498 00e6 0B       		.uleb128 0xb
 2499 00e7 0B       		.uleb128 0xb
 2500 00e8 3A       		.uleb128 0x3a
 2501 00e9 0B       		.uleb128 0xb
 2502 00ea 3B       		.uleb128 0x3b
 2503 00eb 0B       		.uleb128 0xb
 2504 00ec 01       		.uleb128 0x1
 2505 00ed 13       		.uleb128 0x13
 2506 00ee 00       		.byte	0
 2507 00ef 00       		.byte	0
 2508 00f0 15       		.uleb128 0x15
 2509 00f1 0D       		.uleb128 0xd
 2510 00f2 00       		.byte	0
 2511 00f3 03       		.uleb128 0x3
 2512 00f4 0E       		.uleb128 0xe
 2513 00f5 3A       		.uleb128 0x3a
 2514 00f6 0B       		.uleb128 0xb
 2515 00f7 3B       		.uleb128 0x3b
 2516 00f8 0B       		.uleb128 0xb
 2517 00f9 49       		.uleb128 0x49
 2518 00fa 13       		.uleb128 0x13
 2519 00fb 00       		.byte	0
 2520 00fc 00       		.byte	0
 2521 00fd 16       		.uleb128 0x16
 2522 00fe 0D       		.uleb128 0xd
 2523 00ff 00       		.byte	0
 2524 0100 03       		.uleb128 0x3
 2525 0101 0E       		.uleb128 0xe
 2526 0102 3A       		.uleb128 0x3a
 2527 0103 0B       		.uleb128 0xb
 2528 0104 3B       		.uleb128 0x3b
 2529 0105 05       		.uleb128 0x5
 2530 0106 49       		.uleb128 0x49
 2531 0107 13       		.uleb128 0x13
 2532 0108 00       		.byte	0
 2533 0109 00       		.byte	0
 2534 010a 17       		.uleb128 0x17
 2535 010b 26       		.uleb128 0x26
 2536 010c 00       		.byte	0
 2537 010d 49       		.uleb128 0x49
 2538 010e 13       		.uleb128 0x13
 2539 010f 00       		.byte	0
 2540 0110 00       		.byte	0
 2541 0111 18       		.uleb128 0x18
 2542 0112 15       		.uleb128 0x15
 2543 0113 00       		.byte	0
 2544 0114 27       		.uleb128 0x27
 2545 0115 19       		.uleb128 0x19
 2546 0116 00       		.byte	0
 2547 0117 00       		.byte	0
 2548 0118 19       		.uleb128 0x19
 2549 0119 13       		.uleb128 0x13
 2550 011a 01       		.byte	0x1
 2551 011b 0B       		.uleb128 0xb
 2552 011c 0B       		.uleb128 0xb
 2553 011d 3A       		.uleb128 0x3a
 2554 011e 0B       		.uleb128 0xb
ARM GAS  /tmp/cc110c1w.s 			page 76


 2555 011f 3B       		.uleb128 0x3b
 2556 0120 0B       		.uleb128 0xb
 2557 0121 01       		.uleb128 0x1
 2558 0122 13       		.uleb128 0x13
 2559 0123 00       		.byte	0
 2560 0124 00       		.byte	0
 2561 0125 1A       		.uleb128 0x1a
 2562 0126 2E       		.uleb128 0x2e
 2563 0127 01       		.byte	0x1
 2564 0128 03       		.uleb128 0x3
 2565 0129 0E       		.uleb128 0xe
 2566 012a 3A       		.uleb128 0x3a
 2567 012b 0B       		.uleb128 0xb
 2568 012c 3B       		.uleb128 0x3b
 2569 012d 05       		.uleb128 0x5
 2570 012e 27       		.uleb128 0x27
 2571 012f 19       		.uleb128 0x19
 2572 0130 20       		.uleb128 0x20
 2573 0131 0B       		.uleb128 0xb
 2574 0132 01       		.uleb128 0x1
 2575 0133 13       		.uleb128 0x13
 2576 0134 00       		.byte	0
 2577 0135 00       		.byte	0
 2578 0136 1B       		.uleb128 0x1b
 2579 0137 05       		.uleb128 0x5
 2580 0138 00       		.byte	0
 2581 0139 03       		.uleb128 0x3
 2582 013a 0E       		.uleb128 0xe
 2583 013b 3A       		.uleb128 0x3a
 2584 013c 0B       		.uleb128 0xb
 2585 013d 3B       		.uleb128 0x3b
 2586 013e 05       		.uleb128 0x5
 2587 013f 49       		.uleb128 0x49
 2588 0140 13       		.uleb128 0x13
 2589 0141 00       		.byte	0
 2590 0142 00       		.byte	0
 2591 0143 1C       		.uleb128 0x1c
 2592 0144 2E       		.uleb128 0x2e
 2593 0145 00       		.byte	0
 2594 0146 03       		.uleb128 0x3
 2595 0147 0E       		.uleb128 0xe
 2596 0148 3A       		.uleb128 0x3a
 2597 0149 0B       		.uleb128 0xb
 2598 014a 3B       		.uleb128 0x3b
 2599 014b 0B       		.uleb128 0xb
 2600 014c 27       		.uleb128 0x27
 2601 014d 19       		.uleb128 0x19
 2602 014e 49       		.uleb128 0x49
 2603 014f 13       		.uleb128 0x13
 2604 0150 20       		.uleb128 0x20
 2605 0151 0B       		.uleb128 0xb
 2606 0152 00       		.byte	0
 2607 0153 00       		.byte	0
 2608 0154 1D       		.uleb128 0x1d
 2609 0155 2E       		.uleb128 0x2e
 2610 0156 00       		.byte	0
 2611 0157 03       		.uleb128 0x3
ARM GAS  /tmp/cc110c1w.s 			page 77


 2612 0158 0E       		.uleb128 0xe
 2613 0159 3A       		.uleb128 0x3a
 2614 015a 0B       		.uleb128 0xb
 2615 015b 3B       		.uleb128 0x3b
 2616 015c 05       		.uleb128 0x5
 2617 015d 27       		.uleb128 0x27
 2618 015e 19       		.uleb128 0x19
 2619 015f 20       		.uleb128 0x20
 2620 0160 0B       		.uleb128 0xb
 2621 0161 00       		.byte	0
 2622 0162 00       		.byte	0
 2623 0163 1E       		.uleb128 0x1e
 2624 0164 2E       		.uleb128 0x2e
 2625 0165 00       		.byte	0
 2626 0166 03       		.uleb128 0x3
 2627 0167 0E       		.uleb128 0xe
 2628 0168 3A       		.uleb128 0x3a
 2629 0169 0B       		.uleb128 0xb
 2630 016a 3B       		.uleb128 0x3b
 2631 016b 05       		.uleb128 0x5
 2632 016c 27       		.uleb128 0x27
 2633 016d 19       		.uleb128 0x19
 2634 016e 49       		.uleb128 0x49
 2635 016f 13       		.uleb128 0x13
 2636 0170 20       		.uleb128 0x20
 2637 0171 0B       		.uleb128 0xb
 2638 0172 00       		.byte	0
 2639 0173 00       		.byte	0
 2640 0174 1F       		.uleb128 0x1f
 2641 0175 34       		.uleb128 0x34
 2642 0176 00       		.byte	0
 2643 0177 03       		.uleb128 0x3
 2644 0178 0E       		.uleb128 0xe
 2645 0179 49       		.uleb128 0x49
 2646 017a 13       		.uleb128 0x13
 2647 017b 34       		.uleb128 0x34
 2648 017c 19       		.uleb128 0x19
 2649 017d 1C       		.uleb128 0x1c
 2650 017e 0E       		.uleb128 0xe
 2651 017f 00       		.byte	0
 2652 0180 00       		.byte	0
 2653 0181 20       		.uleb128 0x20
 2654 0182 2E       		.uleb128 0x2e
 2655 0183 01       		.byte	0x1
 2656 0184 03       		.uleb128 0x3
 2657 0185 0E       		.uleb128 0xe
 2658 0186 3A       		.uleb128 0x3a
 2659 0187 0B       		.uleb128 0xb
 2660 0188 3B       		.uleb128 0x3b
 2661 0189 05       		.uleb128 0x5
 2662 018a 27       		.uleb128 0x27
 2663 018b 19       		.uleb128 0x19
 2664 018c 49       		.uleb128 0x49
 2665 018d 13       		.uleb128 0x13
 2666 018e 20       		.uleb128 0x20
 2667 018f 0B       		.uleb128 0xb
 2668 0190 01       		.uleb128 0x1
ARM GAS  /tmp/cc110c1w.s 			page 78


 2669 0191 13       		.uleb128 0x13
 2670 0192 00       		.byte	0
 2671 0193 00       		.byte	0
 2672 0194 21       		.uleb128 0x21
 2673 0195 34       		.uleb128 0x34
 2674 0196 00       		.byte	0
 2675 0197 03       		.uleb128 0x3
 2676 0198 0E       		.uleb128 0xe
 2677 0199 3A       		.uleb128 0x3a
 2678 019a 0B       		.uleb128 0xb
 2679 019b 3B       		.uleb128 0x3b
 2680 019c 05       		.uleb128 0x5
 2681 019d 49       		.uleb128 0x49
 2682 019e 13       		.uleb128 0x13
 2683 019f 00       		.byte	0
 2684 01a0 00       		.byte	0
 2685 01a1 22       		.uleb128 0x22
 2686 01a2 2E       		.uleb128 0x2e
 2687 01a3 01       		.byte	0x1
 2688 01a4 3F       		.uleb128 0x3f
 2689 01a5 19       		.uleb128 0x19
 2690 01a6 03       		.uleb128 0x3
 2691 01a7 0E       		.uleb128 0xe
 2692 01a8 3A       		.uleb128 0x3a
 2693 01a9 0B       		.uleb128 0xb
 2694 01aa 3B       		.uleb128 0x3b
 2695 01ab 0B       		.uleb128 0xb
 2696 01ac 27       		.uleb128 0x27
 2697 01ad 19       		.uleb128 0x19
 2698 01ae 11       		.uleb128 0x11
 2699 01af 01       		.uleb128 0x1
 2700 01b0 12       		.uleb128 0x12
 2701 01b1 06       		.uleb128 0x6
 2702 01b2 40       		.uleb128 0x40
 2703 01b3 18       		.uleb128 0x18
 2704 01b4 9742     		.uleb128 0x2117
 2705 01b6 19       		.uleb128 0x19
 2706 01b7 01       		.uleb128 0x1
 2707 01b8 13       		.uleb128 0x13
 2708 01b9 00       		.byte	0
 2709 01ba 00       		.byte	0
 2710 01bb 23       		.uleb128 0x23
 2711 01bc 898201   		.uleb128 0x4109
 2712 01bf 01       		.byte	0x1
 2713 01c0 11       		.uleb128 0x11
 2714 01c1 01       		.uleb128 0x1
 2715 01c2 31       		.uleb128 0x31
 2716 01c3 13       		.uleb128 0x13
 2717 01c4 01       		.uleb128 0x1
 2718 01c5 13       		.uleb128 0x13
 2719 01c6 00       		.byte	0
 2720 01c7 00       		.byte	0
 2721 01c8 24       		.uleb128 0x24
 2722 01c9 8A8201   		.uleb128 0x410a
 2723 01cc 00       		.byte	0
 2724 01cd 02       		.uleb128 0x2
 2725 01ce 18       		.uleb128 0x18
ARM GAS  /tmp/cc110c1w.s 			page 79


 2726 01cf 9142     		.uleb128 0x2111
 2727 01d1 18       		.uleb128 0x18
 2728 01d2 00       		.byte	0
 2729 01d3 00       		.byte	0
 2730 01d4 25       		.uleb128 0x25
 2731 01d5 898201   		.uleb128 0x4109
 2732 01d8 01       		.byte	0x1
 2733 01d9 11       		.uleb128 0x11
 2734 01da 01       		.uleb128 0x1
 2735 01db 9542     		.uleb128 0x2115
 2736 01dd 19       		.uleb128 0x19
 2737 01de 31       		.uleb128 0x31
 2738 01df 13       		.uleb128 0x13
 2739 01e0 00       		.byte	0
 2740 01e1 00       		.byte	0
 2741 01e2 26       		.uleb128 0x26
 2742 01e3 34       		.uleb128 0x34
 2743 01e4 00       		.byte	0
 2744 01e5 03       		.uleb128 0x3
 2745 01e6 08       		.uleb128 0x8
 2746 01e7 3A       		.uleb128 0x3a
 2747 01e8 0B       		.uleb128 0xb
 2748 01e9 3B       		.uleb128 0x3b
 2749 01ea 0B       		.uleb128 0xb
 2750 01eb 49       		.uleb128 0x49
 2751 01ec 13       		.uleb128 0x13
 2752 01ed 02       		.uleb128 0x2
 2753 01ee 17       		.uleb128 0x17
 2754 01ef 00       		.byte	0
 2755 01f0 00       		.byte	0
 2756 01f1 27       		.uleb128 0x27
 2757 01f2 898201   		.uleb128 0x4109
 2758 01f5 00       		.byte	0
 2759 01f6 11       		.uleb128 0x11
 2760 01f7 01       		.uleb128 0x1
 2761 01f8 31       		.uleb128 0x31
 2762 01f9 13       		.uleb128 0x13
 2763 01fa 00       		.byte	0
 2764 01fb 00       		.byte	0
 2765 01fc 28       		.uleb128 0x28
 2766 01fd 2E       		.uleb128 0x2e
 2767 01fe 01       		.byte	0x1
 2768 01ff 3F       		.uleb128 0x3f
 2769 0200 19       		.uleb128 0x19
 2770 0201 03       		.uleb128 0x3
 2771 0202 0E       		.uleb128 0xe
 2772 0203 3A       		.uleb128 0x3a
 2773 0204 0B       		.uleb128 0xb
 2774 0205 3B       		.uleb128 0x3b
 2775 0206 0B       		.uleb128 0xb
 2776 0207 27       		.uleb128 0x27
 2777 0208 19       		.uleb128 0x19
 2778 0209 49       		.uleb128 0x49
 2779 020a 13       		.uleb128 0x13
 2780 020b 11       		.uleb128 0x11
 2781 020c 01       		.uleb128 0x1
 2782 020d 12       		.uleb128 0x12
ARM GAS  /tmp/cc110c1w.s 			page 80


 2783 020e 06       		.uleb128 0x6
 2784 020f 40       		.uleb128 0x40
 2785 0210 18       		.uleb128 0x18
 2786 0211 9742     		.uleb128 0x2117
 2787 0213 19       		.uleb128 0x19
 2788 0214 01       		.uleb128 0x1
 2789 0215 13       		.uleb128 0x13
 2790 0216 00       		.byte	0
 2791 0217 00       		.byte	0
 2792 0218 29       		.uleb128 0x29
 2793 0219 1D       		.uleb128 0x1d
 2794 021a 01       		.byte	0x1
 2795 021b 31       		.uleb128 0x31
 2796 021c 13       		.uleb128 0x13
 2797 021d 11       		.uleb128 0x11
 2798 021e 01       		.uleb128 0x1
 2799 021f 12       		.uleb128 0x12
 2800 0220 06       		.uleb128 0x6
 2801 0221 58       		.uleb128 0x58
 2802 0222 0B       		.uleb128 0xb
 2803 0223 59       		.uleb128 0x59
 2804 0224 0B       		.uleb128 0xb
 2805 0225 01       		.uleb128 0x1
 2806 0226 13       		.uleb128 0x13
 2807 0227 00       		.byte	0
 2808 0228 00       		.byte	0
 2809 0229 2A       		.uleb128 0x2a
 2810 022a 0B       		.uleb128 0xb
 2811 022b 01       		.byte	0x1
 2812 022c 11       		.uleb128 0x11
 2813 022d 01       		.uleb128 0x1
 2814 022e 12       		.uleb128 0x12
 2815 022f 06       		.uleb128 0x6
 2816 0230 00       		.byte	0
 2817 0231 00       		.byte	0
 2818 0232 2B       		.uleb128 0x2b
 2819 0233 34       		.uleb128 0x34
 2820 0234 00       		.byte	0
 2821 0235 31       		.uleb128 0x31
 2822 0236 13       		.uleb128 0x13
 2823 0237 00       		.byte	0
 2824 0238 00       		.byte	0
 2825 0239 2C       		.uleb128 0x2c
 2826 023a 1D       		.uleb128 0x1d
 2827 023b 01       		.byte	0x1
 2828 023c 31       		.uleb128 0x31
 2829 023d 13       		.uleb128 0x13
 2830 023e 11       		.uleb128 0x11
 2831 023f 01       		.uleb128 0x1
 2832 0240 12       		.uleb128 0x12
 2833 0241 06       		.uleb128 0x6
 2834 0242 58       		.uleb128 0x58
 2835 0243 0B       		.uleb128 0xb
 2836 0244 59       		.uleb128 0x59
 2837 0245 05       		.uleb128 0x5
 2838 0246 01       		.uleb128 0x1
 2839 0247 13       		.uleb128 0x13
ARM GAS  /tmp/cc110c1w.s 			page 81


 2840 0248 00       		.byte	0
 2841 0249 00       		.byte	0
 2842 024a 2D       		.uleb128 0x2d
 2843 024b 1D       		.uleb128 0x1d
 2844 024c 01       		.byte	0x1
 2845 024d 31       		.uleb128 0x31
 2846 024e 13       		.uleb128 0x13
 2847 024f 11       		.uleb128 0x11
 2848 0250 01       		.uleb128 0x1
 2849 0251 12       		.uleb128 0x12
 2850 0252 06       		.uleb128 0x6
 2851 0253 58       		.uleb128 0x58
 2852 0254 0B       		.uleb128 0xb
 2853 0255 59       		.uleb128 0x59
 2854 0256 05       		.uleb128 0x5
 2855 0257 00       		.byte	0
 2856 0258 00       		.byte	0
 2857 0259 2E       		.uleb128 0x2e
 2858 025a 05       		.uleb128 0x5
 2859 025b 00       		.byte	0
 2860 025c 31       		.uleb128 0x31
 2861 025d 13       		.uleb128 0x13
 2862 025e 1C       		.uleb128 0x1c
 2863 025f 0B       		.uleb128 0xb
 2864 0260 00       		.byte	0
 2865 0261 00       		.byte	0
 2866 0262 2F       		.uleb128 0x2f
 2867 0263 1D       		.uleb128 0x1d
 2868 0264 00       		.byte	0
 2869 0265 31       		.uleb128 0x31
 2870 0266 13       		.uleb128 0x13
 2871 0267 11       		.uleb128 0x11
 2872 0268 01       		.uleb128 0x1
 2873 0269 12       		.uleb128 0x12
 2874 026a 06       		.uleb128 0x6
 2875 026b 58       		.uleb128 0x58
 2876 026c 0B       		.uleb128 0xb
 2877 026d 59       		.uleb128 0x59
 2878 026e 0B       		.uleb128 0xb
 2879 026f 00       		.byte	0
 2880 0270 00       		.byte	0
 2881 0271 30       		.uleb128 0x30
 2882 0272 898201   		.uleb128 0x4109
 2883 0275 01       		.byte	0x1
 2884 0276 11       		.uleb128 0x11
 2885 0277 01       		.uleb128 0x1
 2886 0278 31       		.uleb128 0x31
 2887 0279 13       		.uleb128 0x13
 2888 027a 00       		.byte	0
 2889 027b 00       		.byte	0
 2890 027c 31       		.uleb128 0x31
 2891 027d 34       		.uleb128 0x34
 2892 027e 00       		.byte	0
 2893 027f 03       		.uleb128 0x3
 2894 0280 0E       		.uleb128 0xe
 2895 0281 3A       		.uleb128 0x3a
 2896 0282 0B       		.uleb128 0xb
ARM GAS  /tmp/cc110c1w.s 			page 82


 2897 0283 3B       		.uleb128 0x3b
 2898 0284 05       		.uleb128 0x5
 2899 0285 49       		.uleb128 0x49
 2900 0286 13       		.uleb128 0x13
 2901 0287 3F       		.uleb128 0x3f
 2902 0288 19       		.uleb128 0x19
 2903 0289 3C       		.uleb128 0x3c
 2904 028a 19       		.uleb128 0x19
 2905 028b 00       		.byte	0
 2906 028c 00       		.byte	0
 2907 028d 32       		.uleb128 0x32
 2908 028e 34       		.uleb128 0x34
 2909 028f 00       		.byte	0
 2910 0290 03       		.uleb128 0x3
 2911 0291 08       		.uleb128 0x8
 2912 0292 3A       		.uleb128 0x3a
 2913 0293 0B       		.uleb128 0xb
 2914 0294 3B       		.uleb128 0x3b
 2915 0295 05       		.uleb128 0x5
 2916 0296 49       		.uleb128 0x49
 2917 0297 13       		.uleb128 0x13
 2918 0298 3F       		.uleb128 0x3f
 2919 0299 19       		.uleb128 0x19
 2920 029a 3C       		.uleb128 0x3c
 2921 029b 19       		.uleb128 0x19
 2922 029c 00       		.byte	0
 2923 029d 00       		.byte	0
 2924 029e 33       		.uleb128 0x33
 2925 029f 21       		.uleb128 0x21
 2926 02a0 00       		.byte	0
 2927 02a1 00       		.byte	0
 2928 02a2 00       		.byte	0
 2929 02a3 34       		.uleb128 0x34
 2930 02a4 34       		.uleb128 0x34
 2931 02a5 00       		.byte	0
 2932 02a6 03       		.uleb128 0x3
 2933 02a7 0E       		.uleb128 0xe
 2934 02a8 3A       		.uleb128 0x3a
 2935 02a9 0B       		.uleb128 0xb
 2936 02aa 3B       		.uleb128 0x3b
 2937 02ab 0B       		.uleb128 0xb
 2938 02ac 49       		.uleb128 0x49
 2939 02ad 13       		.uleb128 0x13
 2940 02ae 3F       		.uleb128 0x3f
 2941 02af 19       		.uleb128 0x19
 2942 02b0 3C       		.uleb128 0x3c
 2943 02b1 19       		.uleb128 0x19
 2944 02b2 00       		.byte	0
 2945 02b3 00       		.byte	0
 2946 02b4 35       		.uleb128 0x35
 2947 02b5 34       		.uleb128 0x34
 2948 02b6 00       		.byte	0
 2949 02b7 03       		.uleb128 0x3
 2950 02b8 0E       		.uleb128 0xe
 2951 02b9 3A       		.uleb128 0x3a
 2952 02ba 0B       		.uleb128 0xb
 2953 02bb 3B       		.uleb128 0x3b
ARM GAS  /tmp/cc110c1w.s 			page 83


 2954 02bc 0B       		.uleb128 0xb
 2955 02bd 49       		.uleb128 0x49
 2956 02be 13       		.uleb128 0x13
 2957 02bf 3F       		.uleb128 0x3f
 2958 02c0 19       		.uleb128 0x19
 2959 02c1 02       		.uleb128 0x2
 2960 02c2 18       		.uleb128 0x18
 2961 02c3 00       		.byte	0
 2962 02c4 00       		.byte	0
 2963 02c5 36       		.uleb128 0x36
 2964 02c6 21       		.uleb128 0x21
 2965 02c7 00       		.byte	0
 2966 02c8 49       		.uleb128 0x49
 2967 02c9 13       		.uleb128 0x13
 2968 02ca 2F       		.uleb128 0x2f
 2969 02cb 05       		.uleb128 0x5
 2970 02cc 00       		.byte	0
 2971 02cd 00       		.byte	0
 2972 02ce 37       		.uleb128 0x37
 2973 02cf 34       		.uleb128 0x34
 2974 02d0 00       		.byte	0
 2975 02d1 03       		.uleb128 0x3
 2976 02d2 08       		.uleb128 0x8
 2977 02d3 3A       		.uleb128 0x3a
 2978 02d4 0B       		.uleb128 0xb
 2979 02d5 3B       		.uleb128 0x3b
 2980 02d6 0B       		.uleb128 0xb
 2981 02d7 49       		.uleb128 0x49
 2982 02d8 13       		.uleb128 0x13
 2983 02d9 3F       		.uleb128 0x3f
 2984 02da 19       		.uleb128 0x19
 2985 02db 02       		.uleb128 0x2
 2986 02dc 18       		.uleb128 0x18
 2987 02dd 00       		.byte	0
 2988 02de 00       		.byte	0
 2989 02df 38       		.uleb128 0x38
 2990 02e0 2E       		.uleb128 0x2e
 2991 02e1 01       		.byte	0x1
 2992 02e2 3F       		.uleb128 0x3f
 2993 02e3 19       		.uleb128 0x19
 2994 02e4 03       		.uleb128 0x3
 2995 02e5 0E       		.uleb128 0xe
 2996 02e6 3A       		.uleb128 0x3a
 2997 02e7 0B       		.uleb128 0xb
 2998 02e8 3B       		.uleb128 0x3b
 2999 02e9 0B       		.uleb128 0xb
 3000 02ea 27       		.uleb128 0x27
 3001 02eb 19       		.uleb128 0x19
 3002 02ec 3C       		.uleb128 0x3c
 3003 02ed 19       		.uleb128 0x19
 3004 02ee 01       		.uleb128 0x1
 3005 02ef 13       		.uleb128 0x13
 3006 02f0 00       		.byte	0
 3007 02f1 00       		.byte	0
 3008 02f2 39       		.uleb128 0x39
 3009 02f3 2E       		.uleb128 0x2e
 3010 02f4 01       		.byte	0x1
ARM GAS  /tmp/cc110c1w.s 			page 84


 3011 02f5 3F       		.uleb128 0x3f
 3012 02f6 19       		.uleb128 0x19
 3013 02f7 03       		.uleb128 0x3
 3014 02f8 0E       		.uleb128 0xe
 3015 02f9 3A       		.uleb128 0x3a
 3016 02fa 0B       		.uleb128 0xb
 3017 02fb 3B       		.uleb128 0x3b
 3018 02fc 05       		.uleb128 0x5
 3019 02fd 27       		.uleb128 0x27
 3020 02fe 19       		.uleb128 0x19
 3021 02ff 3C       		.uleb128 0x3c
 3022 0300 19       		.uleb128 0x19
 3023 0301 01       		.uleb128 0x1
 3024 0302 13       		.uleb128 0x13
 3025 0303 00       		.byte	0
 3026 0304 00       		.byte	0
 3027 0305 3A       		.uleb128 0x3a
 3028 0306 2E       		.uleb128 0x2e
 3029 0307 01       		.byte	0x1
 3030 0308 3F       		.uleb128 0x3f
 3031 0309 19       		.uleb128 0x19
 3032 030a 03       		.uleb128 0x3
 3033 030b 0E       		.uleb128 0xe
 3034 030c 3A       		.uleb128 0x3a
 3035 030d 0B       		.uleb128 0xb
 3036 030e 3B       		.uleb128 0x3b
 3037 030f 0B       		.uleb128 0xb
 3038 0310 27       		.uleb128 0x27
 3039 0311 19       		.uleb128 0x19
 3040 0312 49       		.uleb128 0x49
 3041 0313 13       		.uleb128 0x13
 3042 0314 3C       		.uleb128 0x3c
 3043 0315 19       		.uleb128 0x19
 3044 0316 01       		.uleb128 0x1
 3045 0317 13       		.uleb128 0x13
 3046 0318 00       		.byte	0
 3047 0319 00       		.byte	0
 3048 031a 3B       		.uleb128 0x3b
 3049 031b 2E       		.uleb128 0x2e
 3050 031c 01       		.byte	0x1
 3051 031d 3F       		.uleb128 0x3f
 3052 031e 19       		.uleb128 0x19
 3053 031f 03       		.uleb128 0x3
 3054 0320 0E       		.uleb128 0xe
 3055 0321 3A       		.uleb128 0x3a
 3056 0322 0B       		.uleb128 0xb
 3057 0323 3B       		.uleb128 0x3b
 3058 0324 05       		.uleb128 0x5
 3059 0325 27       		.uleb128 0x27
 3060 0326 19       		.uleb128 0x19
 3061 0327 3C       		.uleb128 0x3c
 3062 0328 19       		.uleb128 0x19
 3063 0329 00       		.byte	0
 3064 032a 00       		.byte	0
 3065 032b 00       		.byte	0
 3066              		.section	.debug_loc,"",%progbits
 3067              	.Ldebug_loc0:
ARM GAS  /tmp/cc110c1w.s 			page 85


 3068              	.LLST0:
 3069 0000 00000000 		.4byte	.LVL8
 3070 0004 08000000 		.4byte	.LVL9
 3071 0008 0200     		.2byte	0x2
 3072 000a 30       		.byte	0x30
 3073 000b 9F       		.byte	0x9f
 3074 000c 00000000 		.4byte	0
 3075 0010 00000000 		.4byte	0
 3076              	.LLST1:
 3077 0014 00000000 		.4byte	.LVL11
 3078 0018 10000000 		.4byte	.LVL12
 3079 001c 0200     		.2byte	0x2
 3080 001e 30       		.byte	0x30
 3081 001f 9F       		.byte	0x9f
 3082 0020 00000000 		.4byte	0
 3083 0024 00000000 		.4byte	0
 3084              		.section	.debug_aranges,"",%progbits
 3085 0000 34000000 		.4byte	0x34
 3086 0004 0200     		.2byte	0x2
 3087 0006 00000000 		.4byte	.Ldebug_info0
 3088 000a 04       		.byte	0x4
 3089 000b 00       		.byte	0
 3090 000c 0000     		.2byte	0
 3091 000e 0000     		.2byte	0
 3092 0010 00000000 		.4byte	.LFB219
 3093 0014 66000000 		.4byte	.LFE219-.LFB219
 3094 0018 00000000 		.4byte	.LFB220
 3095 001c 20000000 		.4byte	.LFE220-.LFB220
 3096 0020 00000000 		.4byte	.LFB221
 3097 0024 26000000 		.4byte	.LFE221-.LFB221
 3098 0028 00000000 		.4byte	.LFB222
 3099 002c 1E000000 		.4byte	.LFE222-.LFB222
 3100 0030 00000000 		.4byte	0
 3101 0034 00000000 		.4byte	0
 3102              		.section	.debug_ranges,"",%progbits
 3103              	.Ldebug_ranges0:
 3104 0000 00000000 		.4byte	.LFB219
 3105 0004 66000000 		.4byte	.LFE219
 3106 0008 00000000 		.4byte	.LFB220
 3107 000c 20000000 		.4byte	.LFE220
 3108 0010 00000000 		.4byte	.LFB221
 3109 0014 26000000 		.4byte	.LFE221
 3110 0018 00000000 		.4byte	.LFB222
 3111 001c 1E000000 		.4byte	.LFE222
 3112 0020 00000000 		.4byte	0
 3113 0024 00000000 		.4byte	0
 3114              		.section	.debug_line,"",%progbits
 3115              	.Ldebug_line0:
 3116 0000 4E040000 		.section	.debug_str,"MS",%progbits,1
 3116      0200D603 
 3116      00000201 
 3116      FB0E0D00 
 3116      01010101 
 3117              	.LASF47:
 3118 0000 72656164 		.ascii	"ready_list_t\000"
 3118      795F6C69 
 3118      73745F74 
ARM GAS  /tmp/cc110c1w.s 			page 86


 3118      00
 3119              	.LASF72:
 3120 000d 44494552 		.ascii	"DIER\000"
 3120      00
 3121              	.LASF2:
 3122 0012 73697A65 		.ascii	"size_t\000"
 3122      5F7400
 3123              	.LASF43:
 3124 0019 6E657874 		.ascii	"next\000"
 3124      00
 3125              	.LASF53:
 3126 001e 64656C74 		.ascii	"delta\000"
 3126      6100
 3127              	.LASF81:
 3128 0024 7264796D 		.ascii	"rdymsg\000"
 3128      736700
 3129              	.LASF122:
 3130 002b 74657374 		.ascii	"test_sequence_010\000"
 3130      5F736571 
 3130      75656E63 
 3130      655F3031 
 3130      3000
 3131              	.LASF123:
 3132 003d 74657374 		.ascii	"test_sequence_011\000"
 3132      5F736571 
 3132      75656E63 
 3132      655F3031 
 3132      3100
 3133              	.LASF124:
 3134 004f 74657374 		.ascii	"test_sequence_012\000"
 3134      5F736571 
 3134      75656E63 
 3134      655F3031 
 3134      3200
 3135              	.LASF125:
 3136 0061 74657374 		.ascii	"test_sequence_013\000"
 3136      5F736571 
 3136      75656E63 
 3136      655F3031 
 3136      3300
 3137              	.LASF46:
 3138 0073 70726576 		.ascii	"prev\000"
 3138      00
 3139              	.LASF70:
 3140 0078 706F7274 		.ascii	"port_intctx\000"
 3140      5F696E74 
 3140      63747800 
 3141              	.LASF58:
 3142 0084 73797374 		.ascii	"system_debug_t\000"
 3142      656D5F64 
 3142      65627567 
 3142      5F7400
 3143              	.LASF99:
 3144 0093 706F7274 		.ascii	"port_lock\000"
 3144      5F6C6F63 
 3144      6B00
 3145              	.LASF14:
ARM GAS  /tmp/cc110c1w.s 			page 87


 3146 009d 6C6F6E67 		.ascii	"long long unsigned int\000"
 3146      206C6F6E 
 3146      6720756E 
 3146      7369676E 
 3146      65642069 
 3147              	.LASF82:
 3148 00b4 65786974 		.ascii	"exitcode\000"
 3148      636F6465 
 3148      00
 3149              	.LASF65:
 3150 00bd 6D61696E 		.ascii	"mainthread\000"
 3150      74687265 
 3150      616400
 3151              	.LASF85:
 3152 00c8 73656E74 		.ascii	"sentmsg\000"
 3152      6D736700 
 3153              	.LASF55:
 3154 00d0 76697274 		.ascii	"virtual_timers_list_t\000"
 3154      75616C5F 
 3154      74696D65 
 3154      72735F6C 
 3154      6973745F 
 3155              	.LASF112:
 3156 00e6 49544D5F 		.ascii	"ITM_RxBuffer\000"
 3156      52784275 
 3156      66666572 
 3156      00
 3157              	.LASF76:
 3158 00f3 42445452 		.ascii	"BDTR\000"
 3158      00
 3159              	.LASF45:
 3160 00f8 63685F74 		.ascii	"ch_threads_queue\000"
 3160      68726561 
 3160      64735F71 
 3160      75657565 
 3160      00
 3161              	.LASF73:
 3162 0109 43434D52 		.ascii	"CCMR1\000"
 3162      3100
 3163              	.LASF74:
 3164 010f 43434D52 		.ascii	"CCMR2\000"
 3164      3200
 3165              	.LASF78:
 3166 0115 43434D52 		.ascii	"CCMR3\000"
 3166      3300
 3167              	.LASF1:
 3168 011b 7369676E 		.ascii	"signed char\000"
 3168      65642063 
 3168      68617200 
 3169              	.LASF130:
 3170 0127 74657374 		.ascii	"test_println\000"
 3170      5F707269 
 3170      6E746C6E 
 3170      00
 3171              	.LASF64:
 3172 0134 76746C69 		.ascii	"vtlist\000"
 3172      737400
ARM GAS  /tmp/cc110c1w.s 			page 88


 3173              	.LASF100:
 3174 013b 706F7274 		.ascii	"port_unlock\000"
 3174      5F756E6C 
 3174      6F636B00 
 3175              	.LASF34:
 3176 0147 6D736771 		.ascii	"msgqueue\000"
 3176      75657565 
 3176      00
 3177              	.LASF30:
 3178 0150 73746174 		.ascii	"state\000"
 3178      6500
 3179              	.LASF9:
 3180 0156 6C6F6E67 		.ascii	"long int\000"
 3180      20696E74 
 3180      00
 3181              	.LASF16:
 3182 015f 74737461 		.ascii	"tstate_t\000"
 3182      74655F74 
 3182      00
 3183              	.LASF54:
 3184 0168 66756E63 		.ascii	"func\000"
 3184      00
 3185              	.LASF75:
 3186 016d 43434552 		.ascii	"CCER\000"
 3186      00
 3187              	.LASF12:
 3188 0172 6C6F6E67 		.ascii	"long long int\000"
 3188      206C6F6E 
 3188      6720696E 
 3188      7400
 3189              	.LASF6:
 3190 0180 75696E74 		.ascii	"uint16_t\000"
 3190      31365F74 
 3190      00
 3191              	.LASF131:
 3192 0189 63685468 		.ascii	"chThdTerminate\000"
 3192      64546572 
 3192      6D696E61 
 3192      746500
 3193              	.LASF67:
 3194 0198 72656761 		.ascii	"regarm_t\000"
 3194      726D5F74 
 3194      00
 3195              	.LASF33:
 3196 01a1 77616974 		.ascii	"waiting\000"
 3196      696E6700 
 3197              	.LASF134:
 3198 01a9 2F686F6D 		.ascii	"/home/otto/Escritorio/Semestre12/Embebidos/ChibiOS_"
 3198      652F6F74 
 3198      746F2F45 
 3198      73637269 
 3198      746F7269 
 3199 01dc 31372E36 		.ascii	"17.6.2/demos/STM32/NIL-STM32F100-DISCOVERY\000"
 3199      2E322F64 
 3199      656D6F73 
 3199      2F53544D 
 3199      33322F4E 
ARM GAS  /tmp/cc110c1w.s 			page 89


 3200              	.LASF93:
 3201 0207 6D757465 		.ascii	"mutex_t\000"
 3201      785F7400 
 3202              	.LASF135:
 3203 020f 76616C75 		.ascii	"value\000"
 3203      6500
 3204              	.LASF21:
 3205 0215 636E745F 		.ascii	"cnt_t\000"
 3205      7400
 3206              	.LASF104:
 3207 021b 63685654 		.ascii	"chVTGetSystemTimeX\000"
 3207      47657453 
 3207      79737465 
 3207      6D54696D 
 3207      655800
 3208              	.LASF0:
 3209 022e 756E7369 		.ascii	"unsigned int\000"
 3209      676E6564 
 3209      20696E74 
 3209      00
 3210              	.LASF86:
 3211 023b 77747365 		.ascii	"wtsemp\000"
 3211      6D7000
 3212              	.LASF84:
 3213 0242 77747472 		.ascii	"wttrp\000"
 3213      7000
 3214              	.LASF96:
 3215 0248 74656172 		.ascii	"teardown\000"
 3215      646F776E 
 3215      00
 3216              	.LASF28:
 3217 0251 6E616D65 		.ascii	"name\000"
 3217      00
 3218              	.LASF24:
 3219 0256 71756575 		.ascii	"queue\000"
 3219      6500
 3220              	.LASF38:
 3221 025c 6D706F6F 		.ascii	"mpool\000"
 3221      6C00
 3222              	.LASF71:
 3223 0262 534D4352 		.ascii	"SMCR\000"
 3223      00
 3224              	.LASF41:
 3225 0267 63685F74 		.ascii	"ch_thread\000"
 3225      68726561 
 3225      6400
 3226              	.LASF19:
 3227 0271 6D73675F 		.ascii	"msg_t\000"
 3227      7400
 3228              	.LASF35:
 3229 0277 6570656E 		.ascii	"epending\000"
 3229      64696E67 
 3229      00
 3230              	.LASF61:
 3231 0280 63685F73 		.ascii	"ch_system_t\000"
 3231      79737465 
 3231      6D5F7400 
ARM GAS  /tmp/cc110c1w.s 			page 90


 3232              	.LASF80:
 3233 028c 73746D33 		.ascii	"stm32_tim_t\000"
 3233      325F7469 
 3233      6D5F7400 
 3234              	.LASF108:
 3235 0298 73797374 		.ascii	"systime\000"
 3235      696D6500 
 3236              	.LASF48:
 3237 02a0 63685F72 		.ascii	"ch_ready_list\000"
 3237      65616479 
 3237      5F6C6973 
 3237      7400
 3238              	.LASF20:
 3239 02ae 6576656E 		.ascii	"eventmask_t\000"
 3239      746D6173 
 3239      6B5F7400 
 3240              	.LASF68:
 3241 02ba 73746B61 		.ascii	"stkalign_t\000"
 3241      6C69676E 
 3241      5F7400
 3242              	.LASF98:
 3243 02c5 74657374 		.ascii	"testcase_t\000"
 3243      63617365 
 3243      5F7400
 3244              	.LASF129:
 3245 02d0 74657374 		.ascii	"test_print\000"
 3245      5F707269 
 3245      6E7400
 3246              	.LASF37:
 3247 02db 7265616C 		.ascii	"realprio\000"
 3247      7072696F 
 3247      00
 3248              	.LASF66:
 3249 02e4 73697A65 		.ascii	"sizetype\000"
 3249      74797065 
 3249      00
 3250              	.LASF39:
 3251 02ed 74687265 		.ascii	"thread_reference_t\000"
 3251      61645F72 
 3251      65666572 
 3251      656E6365 
 3251      5F7400
 3252              	.LASF56:
 3253 0300 63685F76 		.ascii	"ch_virtual_timers_list\000"
 3253      69727475 
 3253      616C5F74 
 3253      696D6572 
 3253      735F6C69 
 3254              	.LASF127:
 3255 0317 74657374 		.ascii	"test_buffer\000"
 3255      5F627566 
 3255      66657200 
 3256              	.LASF13:
 3257 0323 75696E74 		.ascii	"uint64_t\000"
 3257      36345F74 
 3257      00
 3258              	.LASF111:
ARM GAS  /tmp/cc110c1w.s 			page 91


 3259 032c 74657374 		.ascii	"test_wait_threads\000"
 3259      5F776169 
 3259      745F7468 
 3259      72656164 
 3259      7300
 3260              	.LASF69:
 3261 033e 706F7274 		.ascii	"port_context\000"
 3261      5F636F6E 
 3261      74657874 
 3261      00
 3262              	.LASF95:
 3263 034b 73657475 		.ascii	"setup\000"
 3263      7000
 3264              	.LASF136:
 3265 0351 63685654 		.ascii	"chVTGetSystemTime\000"
 3265      47657453 
 3265      79737465 
 3265      6D54696D 
 3265      6500
 3266              	.LASF25:
 3267 0363 7072696F 		.ascii	"prio\000"
 3267      00
 3268              	.LASF49:
 3269 0368 63757272 		.ascii	"current\000"
 3269      656E7400 
 3270              	.LASF17:
 3271 0370 74726566 		.ascii	"trefs_t\000"
 3271      735F7400 
 3272              	.LASF110:
 3273 0378 74657374 		.ascii	"test_terminate_threads\000"
 3273      5F746572 
 3273      6D696E61 
 3273      74655F74 
 3273      68726561 
 3274              	.LASF32:
 3275 038f 72656673 		.ascii	"refs\000"
 3275      00
 3276              	.LASF51:
 3277 0394 76697274 		.ascii	"virtual_timer_t\000"
 3277      75616C5F 
 3277      74696D65 
 3277      725F7400 
 3278              	.LASF18:
 3279 03a4 74707269 		.ascii	"tprio_t\000"
 3279      6F5F7400 
 3280              	.LASF59:
 3281 03ac 63685F73 		.ascii	"ch_system_debug\000"
 3281      79737465 
 3281      6D5F6465 
 3281      62756700 
 3282              	.LASF94:
 3283 03bc 5F426F6F 		.ascii	"_Bool\000"
 3283      6C00
 3284              	.LASF8:
 3285 03c2 696E7433 		.ascii	"int32_t\000"
 3285      325F7400 
 3286              	.LASF4:
ARM GAS  /tmp/cc110c1w.s 			page 92


 3287 03ca 756E7369 		.ascii	"unsigned char\000"
 3287      676E6564 
 3287      20636861 
 3287      7200
 3288              	.LASF97:
 3289 03d8 65786563 		.ascii	"execute\000"
 3289      75746500 
 3290              	.LASF5:
 3291 03e0 73686F72 		.ascii	"short int\000"
 3291      7420696E 
 3291      7400
 3292              	.LASF57:
 3293 03ea 6C617374 		.ascii	"lasttime\000"
 3293      74696D65 
 3293      00
 3294              	.LASF128:
 3295 03f3 74687265 		.ascii	"threads\000"
 3295      61647300 
 3296              	.LASF88:
 3297 03fb 65776D61 		.ascii	"ewmask\000"
 3297      736B00
 3298              	.LASF62:
 3299 0402 63685F73 		.ascii	"ch_system\000"
 3299      79737465 
 3299      6D00
 3300              	.LASF103:
 3301 040c 63685379 		.ascii	"chSysLock\000"
 3301      734C6F63 
 3301      6B00
 3302              	.LASF52:
 3303 0416 63685F76 		.ascii	"ch_virtual_timer\000"
 3303      69727475 
 3303      616C5F74 
 3303      696D6572 
 3303      00
 3304              	.LASF89:
 3305 0427 63685F73 		.ascii	"ch_semaphore\000"
 3305      656D6170 
 3305      686F7265 
 3305      00
 3306              	.LASF79:
 3307 0434 43435852 		.ascii	"CCXR\000"
 3307      00
 3308              	.LASF139:
 3309 0439 63685468 		.ascii	"chThdSleep\000"
 3309      64536C65 
 3309      657000
 3310              	.LASF101:
 3311 0444 73745F6C 		.ascii	"st_lld_get_counter\000"
 3311      6C645F67 
 3311      65745F63 
 3311      6F756E74 
 3311      657200
 3312              	.LASF10:
 3313 0457 75696E74 		.ascii	"uint32_t\000"
 3313      33325F74 
 3313      00
ARM GAS  /tmp/cc110c1w.s 			page 93


 3314              	.LASF87:
 3315 0460 77746D74 		.ascii	"wtmtxp\000"
 3315      787000
 3316              	.LASF42:
 3317 0467 63685F74 		.ascii	"ch_threads_list\000"
 3317      68726561 
 3317      64735F6C 
 3317      69737400 
 3318              	.LASF91:
 3319 0477 6F776E65 		.ascii	"owner\000"
 3319      7200
 3320              	.LASF11:
 3321 047d 6C6F6E67 		.ascii	"long unsigned int\000"
 3321      20756E73 
 3321      69676E65 
 3321      6420696E 
 3321      7400
 3322              	.LASF29:
 3323 048f 77616261 		.ascii	"wabase\000"
 3323      736500
 3324              	.LASF92:
 3325 0496 63686172 		.ascii	"char\000"
 3325      00
 3326              	.LASF27:
 3327 049b 6F6C6465 		.ascii	"older\000"
 3327      7200
 3328              	.LASF77:
 3329 04a1 444D4152 		.ascii	"DMAR\000"
 3329      00
 3330              	.LASF23:
 3331 04a6 74687265 		.ascii	"thread_t\000"
 3331      61645F74 
 3331      00
 3332              	.LASF126:
 3333 04af 74657374 		.ascii	"test_suite\000"
 3333      5F737569 
 3333      746500
 3334              	.LASF22:
 3335 04ba 73797374 		.ascii	"systime_t\000"
 3335      696D655F 
 3335      7400
 3336              	.LASF50:
 3337 04c4 76746675 		.ascii	"vtfunc_t\000"
 3337      6E635F74 
 3337      00
 3338              	.LASF105:
 3339 04cd 5F5F7365 		.ascii	"__set_BASEPRI\000"
 3339      745F4241 
 3339      53455052 
 3339      4900
 3340              	.LASF60:
 3341 04db 70616E69 		.ascii	"panic_msg\000"
 3341      635F6D73 
 3341      6700
 3342              	.LASF7:
 3343 04e5 73686F72 		.ascii	"short unsigned int\000"
 3343      7420756E 
ARM GAS  /tmp/cc110c1w.s 			page 94


 3343      7369676E 
 3343      65642069 
 3343      6E7400
 3344              	.LASF102:
 3345 04f8 706F7274 		.ascii	"port_timer_get_time\000"
 3345      5F74696D 
 3345      65725F67 
 3345      65745F74 
 3345      696D6500 
 3346              	.LASF107:
 3347 050c 5F5F6675 		.ascii	"__func__.5178\000"
 3347      6E635F5F 
 3347      2E353137 
 3347      3800
 3348              	.LASF26:
 3349 051a 6E657765 		.ascii	"newer\000"
 3349      7200
 3350              	.LASF109:
 3351 0520 74657374 		.ascii	"test_print_port_info\000"
 3351      5F707269 
 3351      6E745F70 
 3351      6F72745F 
 3351      696E666F 
 3352              	.LASF138:
 3353 0535 63685468 		.ascii	"chThdWait\000"
 3353      64576169 
 3353      7400
 3354              	.LASF132:
 3355 053f 474E5520 		.ascii	"GNU C 4.8.1 -mcpu=cortex-m3 -mno-thumb-interwork -m"
 3355      4320342E 
 3355      382E3120 
 3355      2D6D6370 
 3355      753D636F 
 3356 0572 7468756D 		.ascii	"thumb -ggdb -O2 -fomit-frame-pointer -falign-functi"
 3356      62202D67 
 3356      67646220 
 3356      2D4F3220 
 3356      2D666F6D 
 3357 05a5 6F6E733D 		.ascii	"ons=16 -ffunction-sections -fdata-sections -fno-com"
 3357      3136202D 
 3357      6666756E 
 3357      6374696F 
 3357      6E2D7365 
 3358 05d8 6D6F6E20 		.ascii	"mon -flto\000"
 3358      2D666C74 
 3358      6F00
 3359              	.LASF44:
 3360 05e2 74687265 		.ascii	"threads_queue_t\000"
 3360      6164735F 
 3360      71756575 
 3360      655F7400 
 3361              	.LASF90:
 3362 05f2 63685F6D 		.ascii	"ch_mutex\000"
 3362      75746578 
 3362      00
 3363              	.LASF113:
 3364 05fb 74657374 		.ascii	"test_sequence_001\000"
ARM GAS  /tmp/cc110c1w.s 			page 95


 3364      5F736571 
 3364      75656E63 
 3364      655F3030 
 3364      3100
 3365              	.LASF63:
 3366 060d 726C6973 		.ascii	"rlist\000"
 3366      7400
 3367              	.LASF3:
 3368 0613 75696E74 		.ascii	"uint8_t\000"
 3368      385F7400 
 3369              	.LASF31:
 3370 061b 666C6167 		.ascii	"flags\000"
 3370      7300
 3371              	.LASF133:
 3372 0621 2E2E2F2E 		.ascii	"../../../test/rt/source/test/test_root.c\000"
 3372      2E2F2E2E 
 3372      2F746573 
 3372      742F7274 
 3372      2F736F75 
 3373              	.LASF114:
 3374 064a 74657374 		.ascii	"test_sequence_002\000"
 3374      5F736571 
 3374      75656E63 
 3374      655F3030 
 3374      3200
 3375              	.LASF115:
 3376 065c 74657374 		.ascii	"test_sequence_003\000"
 3376      5F736571 
 3376      75656E63 
 3376      655F3030 
 3376      3300
 3377              	.LASF116:
 3378 066e 74657374 		.ascii	"test_sequence_004\000"
 3378      5F736571 
 3378      75656E63 
 3378      655F3030 
 3378      3400
 3379              	.LASF117:
 3380 0680 74657374 		.ascii	"test_sequence_005\000"
 3380      5F736571 
 3380      75656E63 
 3380      655F3030 
 3380      3500
 3381              	.LASF118:
 3382 0692 74657374 		.ascii	"test_sequence_006\000"
 3382      5F736571 
 3382      75656E63 
 3382      655F3030 
 3382      3600
 3383              	.LASF119:
 3384 06a4 74657374 		.ascii	"test_sequence_007\000"
 3384      5F736571 
 3384      75656E63 
 3384      655F3030 
 3384      3700
 3385              	.LASF120:
 3386 06b6 74657374 		.ascii	"test_sequence_008\000"
ARM GAS  /tmp/cc110c1w.s 			page 96


 3386      5F736571 
 3386      75656E63 
 3386      655F3030 
 3386      3800
 3387              	.LASF121:
 3388 06c8 74657374 		.ascii	"test_sequence_009\000"
 3388      5F736571 
 3388      75656E63 
 3388      655F3030 
 3388      3900
 3389              	.LASF83:
 3390 06da 77746F62 		.ascii	"wtobjp\000"
 3390      6A7000
 3391              	.LASF40:
 3392 06e1 74687265 		.ascii	"threads_list_t\000"
 3392      6164735F 
 3392      6C697374 
 3392      5F7400
 3393              	.LASF15:
 3394 06f0 746D6F64 		.ascii	"tmode_t\000"
 3394      655F7400 
 3395              	.LASF106:
 3396 06f8 63685379 		.ascii	"chSysUnlock\000"
 3396      73556E6C 
 3396      6F636B00 
 3397              	.LASF36:
 3398 0704 6D74786C 		.ascii	"mtxlist\000"
 3398      69737400 
 3399              	.LASF137:
 3400 070c 74657374 		.ascii	"test_wait_tick\000"
 3400      5F776169 
 3400      745F7469 
 3400      636B00
 3401              		.comm	__gnu_lto_v1,1,1
 3402              		.ident	"GCC: (Sourcery CodeBench Lite 2013.11-24) 4.8.1"
ARM GAS  /tmp/cc110c1w.s 			page 97


DEFINED SYMBOLS
                            *ABS*:00000000 test_root.c
     /tmp/cc110c1w.s:497    .text.test_print_port_info:00000000 $t
     /tmp/cc110c1w.s:503    .text.test_print_port_info:00000000 test_print_port_info
     /tmp/cc110c1w.s:770    .rodata.str1.4:00000000 .LC0
     /tmp/cc110c1w.s:773    .rodata.str1.4:00000014 .LC1
     /tmp/cc110c1w.s:776    .rodata.str1.4:00000020 .LC2
     /tmp/cc110c1w.s:779    .rodata.str1.4:00000034 .LC3
     /tmp/cc110c1w.s:781    .rodata.str1.4:0000003c .LC4
     /tmp/cc110c1w.s:784    .rodata.str1.4:00000050 .LC5
     /tmp/cc110c1w.s:787    .rodata.str1.4:0000005c .LC6
     /tmp/cc110c1w.s:790    .rodata.str1.4:00000070 .LC7
     /tmp/cc110c1w.s:562    .text.test_terminate_threads:00000000 $t
     /tmp/cc110c1w.s:568    .text.test_terminate_threads:00000000 test_terminate_threads
     /tmp/cc110c1w.s:603    .text.test_terminate_threads:0000001c $d
     /tmp/cc110c1w.s:608    .text.test_wait_threads:00000000 $t
     /tmp/cc110c1w.s:614    .text.test_wait_threads:00000000 test_wait_threads
     /tmp/cc110c1w.s:794    .bss.threads:00000000 .LANCHOR0
     /tmp/cc110c1w.s:655    .text.test_wait_tick:00000000 $t
     /tmp/cc110c1w.s:661    .text.test_wait_tick:00000000 test_wait_tick
     /tmp/cc110c1w.s:762    .rodata.wa:00000000 wa
     /tmp/cc110c1w.s:797    .bss.threads:00000000 threads
     /tmp/cc110c1w.s:737    .bss.test_buffer:00000000 test_buffer
     /tmp/cc110c1w.s:743    .data.test_suite:00000000 test_suite
     /tmp/cc110c1w.s:734    .bss.test_buffer:00000000 $d
     /tmp/cc110c1w.s:740    .data.test_suite:00000000 $d
     /tmp/cc110c1w.s:759    .rodata.wa:00000000 $d
     /tmp/cc110c1w.s:769    .rodata.str1.4:00000000 $d
     /tmp/cc110c1w.s:793    .bss.threads:00000000 $d
                            *COM*:00000001 __gnu_lto_v1
                     .debug_frame:00000010 $d

UNDEFINED SYMBOLS
test_print
test_println
chThdTerminate
chThdWait
chThdSleep
test_sequence_001
test_sequence_002
test_sequence_003
test_sequence_004
test_sequence_005
test_sequence_006
test_sequence_007
test_sequence_008
test_sequence_009
test_sequence_010
test_sequence_011
test_sequence_012
test_sequence_013
