ARM GAS  /tmp/cc5xPaTF.s 			page 1


   1              		.syntax unified
   2              		.cpu cortex-m3
   3              		.fpu softvfp
   4              		.eabi_attribute 20, 1
   5              		.eabi_attribute 21, 1
   6              		.eabi_attribute 23, 3
   7              		.eabi_attribute 24, 1
   8              		.eabi_attribute 25, 1
   9              		.eabi_attribute 26, 1
  10              		.eabi_attribute 30, 2
  11              		.eabi_attribute 34, 1
  12              		.eabi_attribute 18, 4
  13              		.thumb
  14              		.file	"test_sequence_001.c"
  15              		.text
  16              	.Ltext0:
  17              		.section	.gnu.lto_.jmpfuncs.626f114181049fbe,"",%progbits
  18 0000 789CA593 		.ascii	"x\234\245\223\255o\024A\030\207g\267\337\250\376\005"
  18      AD6F1441 
  18      188767B7 
  18      DFA8FE05 
  19 0010 97152892 		.ascii	"\227\025(\222\026BP\213an\366\275\273I\367\253;\263"
  19      1642508B 
  19      616EF6BD 
  19      BB49F7AB 
  19      3BB3
  20 0022 A5C54CAE 		.ascii	"\245\305L\256\245\264K\31259\256\012sA\200@\020\202"
  20      A5B44BCA 
  20      3539AE0A 
  20      73418040 
  20      1082
  21 0034 A0092108 		.ascii	"\240\011!\010\004\010\004\002\201@ \020 \010A \020\010"
  21      04080402 
  21      81402010 
  21      20084120 
  21      1008
  22 0046 04094110 		.ascii	"\004\011A\020\202@TPv\357\366R\366\353\222aV\356\373"
  22      82405450 
  22      76EFF652 
  22      F6EB9261 
  22      56EEFB
  23 0059 CCF3FEE6 		.ascii	"\314\363\376\346\235\031\035\351\250\354;\234C\350\354"
  23      9D191DE9 
  23      A8EC3B9C 
  23      43E8EC
  24 0068 144AAA9A 		.ascii	"\024J\252\232~\015\035\364\367\373\363\221\206jH{\320"
  24      7E0D1DF4 
  24      F7FBF391 
  24      866A487B 
  24      D0
  25 0079 DF3F1769 		.ascii	"\337?\027i\332\200\322\364U-\322t\224\201&jhb\010M\246"
  25      DA80D2F4 
  25      552DD274 
  25      9481266A 
  25      6862084D 
  26 008e 90F4FAE3 		.ascii	"\220\364\372\343\212\353An}_\313\013.\311\011\016\013"
  26      8AEB416E 
ARM GAS  /tmp/cc5xPaTF.s 			page 2


  26      7D5FCB0B 
  26      2EC9090E 
  26      0B
  27 009f 829B9AE2 		.ascii	"\202\233\232\342\026\236\250\012\336\252\012\276\253"
  27      169EA80A 
  27      DEAA0ABE 
  27      AB
  28 00ac 0A6EE972 		.ascii	"\012n\351r\202\302\020\237\252\012\336\251\012~\250"
  28      82C2109F 
  28      AA0ADEA9 
  28      0A7EA8
  29 00bb 0A6E4B3E 		.ascii	"\012nK>\205\202\340\231\352[\372\240\232\340\227\252"
  29      8582E099 
  29      EA5BFAA0 
  29      9AE097AA 
  30 00cb E0EEA4A2 		.ascii	"\340\356\244\242\340\271\252\340\243\252\340\267\244"
  30      E0B9AAE0 
  30      A3AAE0B7 
  30      A4
  31 00d8 A0700AF7 		.ascii	"\240p\012\367\246\024\023\274\220\024\024\022|RMp\240"
  31      A61413BC 
  31      90141412 
  31      7C524D70 
  31      A0
  32 00e9 2AB83FAD 		.ascii	"*\270?\255(x))(\314\340\263j\202?\252\011\036\316(\012"
  32      28782929 
  32      28CCE0B3 
  32      6A823FAA 
  32      091ECE28 
  33 00fe 5EA90ABE 		.ascii	"^\251\012\276H\012\364\274\340\372\254\234\340\333L"
  33      480AF4BC 
  33      E0FAAC9C 
  33      E0DB4C
  34 010d DEF048D2 		.ascii	"\336\360H\3220\237\027\274\316\010\364\377\331\305W"
  34      309F17BC 
  34      CE08F4FF 
  34      D9C557
  35 011c C90C8539 		.ascii	"\311\014\2059\336\230\223\023L\346\005\217\253\004S"
  35      DE989313 
  35      4CE6058F 
  35      AB0453
  36 012b 35F426AD 		.ascii	"5\364&\255M\347k\361\272\367\222\215\013\227\370g\225"
  36      4DE76BF1 
  36      BAF7928D 
  36      0B97F867 
  36      95
  37 013c 60A686EE 		.ascii	"`\246\206\356\034\033\326f\321\260\210\214\205\205\005"
  37      1C1BD666 
  37      D1B0888C 
  37      858505
  38 014b 83B48455 		.ascii	"\203\264\204Uo\012\336\012\000[L\370\201\327\2406u\233"
  38      6F0ADE0A 
  38      005B4CF8 
  38      81D7A036 
  38      759B
  39 015d A6616480 		.ascii	"\246ad\200\370\257=\242\342\332\340\313\000\340\342"
  39      F8AF3DA2 
ARM GAS  /tmp/cc5xPaTF.s 			page 3


  39      E2DAE0CB 
  39      00E0E2
  40 016c BA0D8271 		.ascii	"\272\015\202qL\226\004i\001Y2\263\000\0170\001Q\017"
  40      4C960469 
  40      015932B3 
  40      000F3001 
  40      510F
  41 017e 1B0D0804 		.ascii	"\033\015\010\004\243\027 \337b\0108\230-\215\032\224"
  41      A31720DF 
  41      62083898 
  41      2D8D1A94 
  42 018e B7C08C41 		.ascii	"\267\300\214A\300\323\024e\300\240\373(e\006`k\214\203"
  42      C0D31465 
  42      C0A0FB28 
  42      6506606B 
  42      8C83
  43 01a0 9384E450 		.ascii	"\223\204\344P\0322\251P\306)a%\031H\243)B\006\302Zs"
  43      1A32A950 
  43      C6296125 
  43      1948A329 
  43      4206C25A 
  44 01b5 B1438959 		.ascii	"\261C\211Y\0118\340\370\236g\027\0075\002Z\200\375\243"
  44      0938E0F8 
  44      9E671707 
  44      35025A80 
  44      FDA3
  45 01c7 06E506E2 		.ascii	"\006\345\006\342\0050\246\005\246v\335[\205\3026\217"
  45      0530A605 
  45      A676DD5B 
  45      85C2368F 
  46 01d7 0C8CE126 		.ascii	"\014\214\341&$GJ\315q@eHX\001\2273\301\251\003^\310"
  46      24474ACD 
  46      71406548 
  46      58019733 
  46      C1A9035E 
  47 01ec CD2A60CC 		.ascii	"\315*`\314\240\210\347Z+8H\035%\206\021P\231\301\011"
  47      A088E75A 
  47      2B38481D 
  47      25861150 
  47      99C109
  48 01ff 39C49B14 		.ascii	"9\304\233\024\001\2200\301\252\200\352A1p\260\337\212"
  48      019030C1 
  48      AA80EA41 
  48      3170B0DF 
  48      8A
  49 0210 67994E62 		.ascii	"g\231Nb\014`\226\033\316c\032\367\240\2742d\000\315"
  49      0C60961B 
  49      CE631AF7 
  49      A0BC3264 
  49      00CD
  50 0222 F8CE046B 		.ascii	"\370\316\004k\225\000w\376=\354\034\340\371\361t\342"
  50      950077FE 
  50      3DEC1CE0 
  50      F9F174E2 
  51 0232 E720980F 		.ascii	"\347 \230\017`\225dp=A\255\370Z\017__\011\220^\226\321"
  51      60956470 
  51      3D41ADF8 
ARM GAS  /tmp/cc5xPaTF.s 			page 4


  51      5A0F5F5F 
  51      09905E96 
  52 0247 A32A02C9 		.ascii	"\243*\002\311\370\305r\210]\036:\245\000\343\003\306"
  52      F8C57288 
  52      5D1E3AA5 
  52      00E303C6 
  53 0257 029BE32A 		.ascii	"\002\233\343*\240\021\300r\010.)\337f\014\304\023\364"
  53      A011C072 
  53      082E29DF 
  53      660CC413 
  53      F4
  54 0268 EC9053CF 		.ascii	"\354\220S\317\315\334I\277\335\333\3306\334\275+\353"
  54      CDDC49BF 
  54      DDDBD836 
  54      DCBD2BEB 
  55 0278 9BDDEC18 		.ascii	"\233\335\354\030R\300\211:\273\335\261@\373r%0}f\361"
  55      52C0893A 
  55      BBDDB140 
  55      FB722530 
  55      7D66F1
  56 028b D4E2E921 		.ascii	"\324\342\351!\267\262\331\275\032\355v\014\326\353F"
  56      B7B2D9BD 
  56      1AED760C 
  56      D6EB46
  57 029a 9D2DB328 		.ascii	"\235-\263(b\275\366\372\316\246\321\330io\345<\006:"
  57      62BDF6FA 
  57      CEA6D1D8 
  57      696FE53C 
  57      063A
  58 02ac 31C8DADD 		.ascii	"1\310\332\335\275\270\267\321\313\027\223\217lG\353"
  58      BDB8B7D1 
  58      CB17938F 
  58      6C47EB
  59 02bb 91C74E06 		.ascii	"\221\307N\006\034\375\005R\306V\346"
  59      1CFD0552 
  59      C656E6
  60              		.text
  61              		.section	.gnu.lto_.inline.626f114181049fbe,"",%progbits
  62 0000 789C6362 		.ascii	"x\234cb`b\300\006^B\205\201\324\005\306\247\034\214"
  62      6062C006 
  62      5E428581 
  62      D405C6A7 
  62      1C8C
  63 0012 0C4C4C17 		.ascii	"\014LL\027\370\031\330\026\310\203\305\231\270\031\030"
  63      F819D816 
  63      C883C599 
  63      B81918
  64 0021 1847C951 		.ascii	"\030G\311Q\222\226$\203\322\012F\272\245;\006\000\337"
  64      92962483 
  64      D20A46BA 
  64      A53B0600 
  64      DF
  65 0032 090D39   		.ascii	"\011\0159"
  66              		.text
  67              		.section	.gnu.lto_.pureconst.626f114181049fbe,"",%progbits
  68 0000 789C6362 		.ascii	"x\234cb`b`e\200\000&\006\011&\011\000\001\000\000>"
  68      60626065 
ARM GAS  /tmp/cc5xPaTF.s 			page 5


  68      80002606 
  68      09260900 
  68      0100003E 
  69              		.text
  70              		.section	.gnu.lto_test_001_002_execute.626f114181049fbe,"",%progbits
  71 0000 789CA5D9 		.ascii	"x\234\245\331Ol\323V\034\007\360\367\234\226v\2348\262"
  71      4F6CD356 
  71      1C07F0F7 
  71      9C96769C 
  71      38B2
  72 0012 0BCA8D53 		.ascii	"\013\312\215S[\220v\352i\256\363\322XM\354\324~.\224"
  72      5B9076EA 
  72      69AEF3D2 
  72      584DECD4 
  72      7E2E94
  73 0025 8B354539 		.ascii	"\2135E9\344\260M\243E\232\264\003.\252D\201\002= -\375"
  73      E4B04DA3 
  73      459AB403 
  73      2EAA4481 
  73      023D202D 
  74 003a 074313DA 		.ascii	"\007C\023\332:\376i\207I\254\0036\3550ml\024m\207\211"
  74      3AFE6987 
  74      49AC0336 
  74      ED306D6C 
  74      146D8789 
  75 004e 51A095D0 		.ascii	"Q\240\225\320D\241@\017H\033\224Bx\266\023\022\022\377"
  75      44A1400F 
  75      481B9442 
  75      78B61312 
  75      12FF
  76 0060 94F7F4AC 		.ascii	"\224\367\364\254\306u\342\357{\277\217\177~\316%\012"
  76      C675E2EF 
  76      7BBF8F7F 
  76      7ECE250A 
  77 0070 5250FDF6 		.ascii	"RP\375\366.{\015lE\350\363\026\204p\014aeb\001\241\221"
  77      2E7B0D6C 
  77      45E8F316 
  77      84700C61 
  77      656201A1 
  78 0085 760563FF 		.ascii	"v\005c\377\000a\264_\301\373\007q\220\275\250\374\264"
  78      0061B45F 
  78      C1FB0771 
  78      90BDA8FC 
  78      B4
  79 0096 5C2A5D98 		.ascii	"\\*]\230:xn\006\317+\005\366I+\032\365\274\2118B\271"
  79      3A786E06 
  79      CF2B05F6 
  79      492B1AF5 
  79      BC893842 
  80 00ab 2041D9DE 		.ascii	" A\331\336\037\346`\305\377\037\273\216\016\\*\376\267"
  80      1FE660C5 
  80      FF1FBB8E 
  80      0E5C2AFE 
  80      B7
  81 00bc F5037C1A 		.ascii	"\365\003|\032\267\242i45\342y[\012\030}\206\326\275"
  81      B7A26934 
  81      35E2795B 
ARM GAS  /tmp/cc5xPaTF.s 			page 6


  81      0A187D86 
  81      D6BD
  82 00ce 31FF087F 		.ascii	"1\377\010\177\030\014\333\215\331!\252\034!\377\360"
  82      180CDB8D 
  82      D921AA1C 
  82      21FFF0
  83 00dd 061A5DBE 		.ascii	"\006\032]\276u\257-\034\211\252#\224\\9\351\177R\364"
  83      75AF2D1C 
  83      89AA2394 
  83      5C39E97F 
  83      52F4
  84 00ef BCFE028E 		.ascii	"\274\376\002\216mC\357\315z\305\367\013\270\005\225"
  84      6D43EFCD 
  84      7AC5F70B 
  84      B80595
  85 00fe F3057FC7 		.ascii	"\363\005\177\307\246\370b1\3260\303\246\034V\336\324"
  85      A6F86231 
  85      D630C3A6 
  85      1C56DED4 
  86 010e 6ADBC2B2 		.ascii	"j\333\302\262\355a\271\333_n\216*\027\253-\347\024\360"
  86      ED61B9DB 
  86      5F6E8E2A 
  86      17AB2DE7 
  86      14F0
  87 0120 3BDB9013 		.ascii	";\333\220\023\226\333\\_n\371\016\267x\027$\276\333"
  87      96DB5C5F 
  87      6EF90EB7 
  87      781724BE 
  87      DB
  88 0131 4CBCD256 		.ascii	"L\274\322V%/\311\223W\270\311\237B\344\007\315\310J"
  88      252FC993 
  88      57B8C99F 
  88      42E407CD 
  88      C84A
  89 0143 55FC505E 		.ascii	"U\374P^\274\312-\236\304\020\371Q32\252\222\037\313"
  89      BCCA2D9E 
  89      C410F951 
  89      3332AA92 
  89      1FCB
  90 0155 939F7093 		.ascii	"\223\237p\223\347A\362\232\000\371\231<\37197y\021$"
  90      E741F29A 
  90      00F9993C 
  90      F9393779 
  90      1124
  91 0167 AF0B905F 		.ascii	"\257\013\220_\310\2237\270\311\033 \371e32\256\222_"
  91      C89337B8 
  91      C91B20F9 
  91      653332AE 
  91      925F
  92 0179 C9934BDC 		.ascii	"\311\223K\334\344Y\005\"\217\265\362w\371\320\031i\362"
  92      E4590522 
  92      8FB5F277 
  92      F9D01969 
  92      F2
  93 018a E17F79C9 		.ascii	"\341\177y\311WA\362\221f\344\232.\217\313\223\217r\223"
  93      5741F291 
  93      66E49A2E 
ARM GAS  /tmp/cc5xPaTF.s 			page 7


  93      8FCB938F 
  93      7293
  94 019c 9740F231 		.ascii	"\227@\3621\001\362qyr\221\233\354\305 \362\244\000y"
  94      01F27179 
  94      72919BEC 
  94      C520F2A4 
  94      0079
  95 01ae 4A9E3CCD 		.ascii	"J\236<\315M>\015\222g\004\326\362\254<\371$7\371g\220"
  95      4D3E0D92 
  95      6704D6F2 
  95      AC3CF924 
  95      37F96790 
  96 01c2 7C4AA0CB 		.ascii	"|J\240\313_\313\223\347\270\311\367@\3627\002]>+O>\307"
  96      5FCB93E7 
  96      B8C9F740 
  96      F237025D 
  96      3E2B4F3E 
  97 01d7 4D1E6D81 		.ascii	"M\036m\201\310\347\005\272|A\236|\221\233|\006$_\022"
  97      C8E705BA 
  97      7C419E7C 
  97      919B7C06 
  97      245F12
  98 01ea 207F2F4F 		.ascii	" \177/O\236\347&\377\002\222\177\020 _\226'_\341&\337"
  98      9EE726FF 
  98      02927F10 
  98      205F9627 
  98      5FE126DF 
  99 01fe 07C95705 		.ascii	"\007\311W\005\310?\312\223\177\345&\217\265B\344\337"
  99      C83FCA93 
  99      7FE5268F 
  99      B542E4DF 
 100 020e 04C8D7E4 		.ascii	"\004\310\327\344\311\277s\223\347@\362\037\002\337\030"
 100      C9BF7393 
 100      E740F21F 
 100      02DF18
 101 021d D7E5C90B 		.ascii	"\327\345\311\013\334\344k \371\206@\227o\312\223\377"
 101      DCE46B20 
 101      F9864097 
 101      6FCA93FF 
 102 022d E126AF82 		.ascii	"\341&\257\202\344[\002\344Ey\362mn\362\370&\210|G\200"
 102      E45B02E4 
 102      4579F26D 
 102      6EF2F826 
 102      887C4780 
 103 0241 7C579EBC 		.ascii	"|W\236\274\304M>\017\222W\004\310\017\344\311\017\271"
 103      C44D3E0F 
 103      925704C8 
 103      0FE4C90F 
 103      B9
 104 0252 C90B2079 		.ascii	"\311\013 yU\200\374H\236\374\230\233\274\006\222\237"
 104      5580FC48 
 104      9EFC989B 
 104      BC06929F 
 105 0262 087C63AC 		.ascii	"\010|c\254\311\223\237q\223'\332 \362s\001\362\272<"
 105      C9939F71 
 105      9327DA20 
 105      F27301F2 
ARM GAS  /tmp/cc5xPaTF.s 			page 8


 105      BA3C
 106 0274 F90537F9 		.ascii	"\371\0057\371[\220\274!@~)O~\305M\376\013$\227\004\310"
 106      5B90BC21 
 106      407E294F 
 106      7EC54DFE 
 106      0B249704 
 107 0289 635F4993 		.ascii	"c_I\223\017\335\347%?\005\311\207\033\247x\233\\\252"
 107      0FDDE725 
 107      3F05C987 
 107      1BA7789B 
 107      5CAA
 108 029b 79FE8EC8 		.ascii	"y\376\216\310\233\307\271\315'\332!\363\321ff\257\306"
 108      9BC7B9CD 
 108      27DA21F3 
 108      D16666AF 
 108      C6
 109 02ac 7C4CDE7C 		.ascii	"|L\336|\234\333\374\035h.63\327,\215Iy\362\0247\371"
 109      9CDBFC1D 
 109      682E3633 
 109      D72C8D49 
 109      79F21437 
 110 02c1 6F903C2D 		.ascii	"o\220<-@\236\221'\317r\223\377\007\311'\005\310\247"
 110      409E9127 
 110      CF7293FF 
 110      07C92705 
 110      C8A7
 111 02d3 E4C87FA2 		.ascii	"\344\310\177\242\221\345\271\355\225\031\302\2152\355"
 111      91E5B9ED 
 111      9519C28D 
 111      32ED
 112 02e1 C442F04B 		.ascii	"\304B\360K\304\316\316\316\256\360o8?4\334\265w\270"
 112      C4CECECE 
 112      AEF06F38 
 112      3F34DCB5 
 112      77B8
 113 02f3 6BE8E37D 		.ascii	"k\350\343}{s\371\360\255\277s\207\362\237\354\313\177"
 113      7B73F9F0 
 113      ADBF7387 
 113      F29FECCB 
 113      7F
 114 0304 94CBBB3B 		.ascii	"\224\313\273;v\354\354\314\241xGGG\\K\271Z\262\327\265"
 114      76ECECCC 
 114      A1784747 
 114      475C4BB9 
 114      5AB2D7B5 
 115 0318 A96B11DB 		.ascii	"\251k\021\333L;T7\215\356x\260!\\\037IZ\244\337!\206"
 115      4C3B5437 
 115      8DEE78B0 
 115      215C1F49 
 115      5AA4DF21 
 116 032d 36584EC4 		.ascii	"6XN\304\353\003T\317\220\004IS52\340\237u\373\035\325"
 116      EB0354CF 
 116      90044953 
 116      3532E09F 
 116      75FB1DD5 
 117 0341 A04E2632 		.ascii	"\240N&2\220!\031\315\264\210k\353{Hd\3000]=\221&.MY"
 117      902119CD 
ARM GAS  /tmp/cc5xPaTF.s 			page 9


 117      B4886BEB 
 117      7B4864C0 
 117      305D3D91 
 118 0359 444D7437 		.ascii	"DMt7\006\314,+\302F\273v\226\220\250\200c\263\321o\252"
 118      06CC2C2B 
 118      C246BB76 
 118      9690A880 
 118      63B3D16F 
 119 036e 4794F003 		.ascii	"G\224\360\003\026\351\325mjE_\246\037\330\245\352\224"
 119      16E9D56D 
 119      6A455FA6 
 119      1FD8A5EA 
 119      94
 120 037f ECD62918 		.ascii	"\354\326)\030\260IF\315\246\330\265\330\200\241\032"
 120      B04946CD 
 120      A6D8B5D8 
 120      80A11A
 121 038e 70B396DE 		.ascii	"p\263\226\336\335\030\3108\254Bex\324\014\345\000\303"
 121      DD18C838 
 121      AC426578 
 121      D40CE500 
 121      C3
 122 039f 6A8E6547 		.ascii	"j\216eG\314\240\231Fb@\265l\020Y\011\0047\306\214\230"
 122      CCA09946 
 122      6240B56C 
 122      10590904 
 122      37C68C98 
 123 03b3 810C1083 		.ascii	"\201\014\020\203V\011P \034\357\320\250\253 \266\255"
 123      56095020 
 123      1CEFD0A8 
 123      AB20B6AD 
 124 03c3 F612D850 		.ascii	"\366\022\330P\011\204]\210\012\250z\272\307\254v\"b"
 124      09845D88 
 124      0AA87ABA 
 124      C7AC7622 
 124      62
 125 03d4 8660D1C0 		.ascii	"\206`\321\300\215J\0215[{\303\243f\310\232f\032F&\006"
 125      8D4A1135 
 125      5B7BC3A3 
 125      66C89A66 
 125      1A462606 
 126 03e8 0D35A36B 		.ascii	"\0155\243k\215%\022=\376\262W)[-\272\026\325\250 0h"
 126      8D25123D 
 126      FEB25729 
 126      5B2DBA16 
 126      D5A82030 
 127 03fd 53920972 		.ascii	"S\222\011r\254\347)\242\365u\277\035 \206\332\223.\237"
 127      ACE729A2 
 127      F575BF1D 
 127      2086DA93 
 127      2E9F
 128 040f 6AB8CC9A 		.ascii	"j\270\314\232\200j\333\304\242\365+\312\017PK\325\374"
 128      806ADBC4 
 128      A2F52BCA 
 128      0F504BD5 
 128      FC
 129 0420 56D97D80 		.ascii	"V\331}\200!\014\3648\311$\261*\217WT\011\206\324\372"
ARM GAS  /tmp/cc5xPaTF.s 			page 10


 129      210CF438 
 129      C924B12A 
 129      8F575409 
 129      86D4FA
 130 0433 2291493D 		.ascii	"\"\221I=\235.?w\215\215\012J\204\347\330\2154YV7z\375"
 130      9D2E3F77 
 130      8D8D0A4A 
 130      84E7D88D 
 130      34595637 
 131 0449 12AF01D6 		.ascii	"\022\257\001\326\256\032\216"
 131      AE1A8E
 132              		.text
 133              		.section	.gnu.lto_test_001_001_execute.626f114181049fbe,"",%progbits
 134 0000 789C6362 		.ascii	"x\234cb`b@\007\222@\254\311\302\300\300\303\310\300"
 134      60624007 
 134      9240ACC9 
 134      C2C0C0C3 
 134      C8C0
 135 0012 C0C8CCC0 		.ascii	"\300\310\314\300\3104\341\034\003C#\007\023##\210\301"
 135      C834E11C 
 135      03432307 
 135      13232388 
 135      C1
 136 0023 C0C850CF 		.ascii	"\300\310P\317\304X\037\311\010V\273\236\351\300\203"
 136      C4581FC9 
 136      0856BB9E 
 136      E9C083
 137 0032 FFFFD7FD 		.ascii	"\377\377\327\375x\370h%\243\240\020P\200\225\241\245"
 137      78F86825 
 137      A3A01050 
 137      8095A1A5 
 138 0042 A1618202 		.ascii	"\241a\202\002\003C2XA\010\220\004\351\012ed\002\321"
 138      03433258 
 138      41089004 
 138      E90A6564 
 138      02D1
 139 0054 CC67199A 		.ascii	"\314g\031\232v\374\270\317\230\310\270\220\221\225a"
 139      76FCB8CF 
 139      98C8B890 
 139      919561
 140 0063 36C3ACC6 		.ascii	"6\303\254\306\206\006\201LF\206j\206_\015\035 \026c"
 140      8606814C 
 140      46866A86 
 140      5F0D1D20 
 140      1663
 141 0075 2E585B04 		.ascii	".X[\004#\220\311\000c1\200\230\347\031Z\036t.\346\202"
 141      2390C900 
 141      63318098 
 141      E7195A1E 
 141      742EE682 
 142 0089 E86440E8 		.ascii	"\350d@\350`J\206\252\004\211\314hh\010\315dd\226c0\231"
 142      604A86AA 
 142      0489CC68 
 142      6808CD64 
 142      64966330 
 143 009e DB30C321 		.ascii	"\3330\303!\223\221\205\001\252>\023D\200\214\350z\314"
 143      93918501 
ARM GAS  /tmp/cc5xPaTF.s 			page 11


 143      AA3E1344 
 143      808CE87A 
 143      CC
 144 00af 8ECD0826 		.ascii	"\216\315\010&d#\0023\031\331\344\030\342!F\260\243\033"
 144      64230233 
 144      19D9E418 
 144      E22146B0 
 144      A31B
 145 00c1 B1A09B19 		.ascii	"\261\240\233\031\303\004\216d`@\301\234\313\311\010"
 145      C3048E64 
 145      6040C19C 
 145      CBC908
 146 00d0 54CB05B1 		.ascii	"T\313\005\261\256\2078\027s\313140B\354\343\301pr/\321"
 146      AE873817 
 146      73CB3134 
 146      3042ECE3 
 146      C170722F 
 147 00e5 4E6E62C4 		.ascii	"Nnb\304\341\346\007}\304\271\203W\216a1\324\014>\014"
 147      E1E6077D 
 147      C4B98357 
 147      8E6131D4 
 147      0C3E0C
 148 00f8 33FA8976 		.ascii	"3\372\211v\307*\\\356X0\203P\330\261 \302n&\025\302"
 148      C72A5CEE 
 148      58308350 
 148      D8B120C2 
 148      6E2615C2 
 149 010c 6E16D16E 		.ascii	"n\026\321n>\215\323\315\263\011\271\231\001\341\346"
 149      3E8DD3CD 
 149      B309B999 
 149      01E1E6
 150 011b 395470F3 		.ascii	"9Tp\363\\\242\335\374\006\247\233\347\021r3\023\302"
 150      5CA2DDFC 
 150      06A79BE7 
 150      11723313 
 150      C2
 151 012c CDF32974 		.ascii	"\315\363)t\363E\206\306\007+\225aF@@\010P;0\277\203"
 151      F34586C6 
 151      072B9561 
 151      46404008 
 151      503B30BF 
 152 0141 DC6CA8A7 		.ascii	"\334l\250\247\247\017A%\251\305%\372E%\372\305\371\245"
 152      A70F4125 
 152      A9C525FA 
 152      4525FAC5 
 152      F9A5
 153 0153 45C9A910 		.ascii	"E\311\251\020.\210\210/N-,M\315KN\215700\324Kf\320\322"
 153      2E88882F 
 153      4E2D2C4D 
 153      CD4B4E8D 
 153      373030D4 
 154 016b D5D55508 		.ascii	"\325\325U\010(\312O)M.\261R\300\004\316\031\231I\231"
 154      28CA4F29 
 154      4D2EB152 
 154      C004CE19 
 154      994999
 155 017e FEC1FA41 		.ascii	"\376\301\372A!\014\012 \245\301%\211I9\251\012n9\211"
ARM GAS  /tmp/cc5xPaTF.s 			page 12


 155      210C0A20 
 155      A5C12589 
 155      4939A90A 
 155      6E3989
 156 0191 E9E8CA81 		.ascii	"\351\350\312\201E\007XIXjQqf~\036PiQf\036\252*\0066"
 156      45075849 
 156      586A5171 
 156      667E1E50 
 156      6951661E 
 157 01a9 133D033D 		.ascii	"\023=\003=#\210:\337\304\254\374\"\005\277\322\334\244"
 157      23883ADF 
 157      C4ACFC22 
 157      05BFD2DC 
 157      A4
 158 01ba D42234B3 		.ascii	"\324\"4\263\240\0122\363\360+\010H,I\316\300\241\000"
 158      A00A32F3 
 158      F02B0848 
 158      2C49CEC0 
 158      A100
 159 01cc 00ED4748 		.ascii	"\000\355GHC"
 159      43
 160              		.text
 161              		.section	.gnu.lto_.symbol_nodes.626f114181049fbe,"",%progbits
 162 0000 789C4D93 		.ascii	"x\234M\223]\212\032Q\020F\353V\353\350.\262\212,hVr"
 162      5D8A1A51 
 162      1046EB56 
 162      EBE82EB2 
 162      8A2C6856 
 163 0015 070A46A2 		.ascii	"\007\012F\242\240AAA\203>\364F\006\372=\033\310\337"
 163      A0414141 
 163      833EF446 
 163      06FA3D1B 
 163      C8DF
 164 0027 38171474 		.ascii	"8\027\024tPp\236\023\322\351:\225\304\227\272}>9\337"
 164      50709E13 
 164      D2E93A95 
 164      C497BA7D 
 164      3E39DF
 165 003a D3A7A2F2 		.ascii	"\323\247\242\362\276'\376\323o)\213|\374,\222\363\247"
 165      BE27FED3 
 165      6F298B7C 
 165      FC2C92F3 
 165      A7
 166 004b 0FF7FDE7 		.ascii	"\017\367\375\347\324\276D\277\244\234\376\243?R\352"
 166      D4BE44BF 
 166      A49CFEA3 
 166      3F52EA
 167 005a 67E97F4D 		.ascii	"g\351\177M\332\313U\377{\252\332\223J\312\352\377yx"
 167      DACB55FF 
 167      7BAADA93 
 167      4ACAEAFF 
 167      7978
 168 006c 48E925E5 		.ascii	"H\351%\345\352\337\327>\345\336\337\257J\206R?\377j"
 168      EADFD73E 
 168      E5DEDFAF 
 168      4A86523F 
 168      FF6A
ARM GAS  /tmp/cc5xPaTF.s 			page 13


 169 007e EF409AEE 		.ascii	"\357@\232\356\336I\351\356Pl\357\274\336;o\366\316\013"
 169      DE49E9EE 
 169      506CEFBC 
 169      DE3B6FF6 
 169      CE0B
 170 0090 DC1E5FDF 		.ascii	"\334\036_\337\375\341uw\207\322tw \005n#\347\365\310"
 170      FDE17577 
 170      87D27477 
 170      20056E23 
 170      E7F5C8
 171 00a3 7933725E 		.ascii	"y3r^\3406v^\217\2357c\347\005n\023\374\023\374\023\374"
 171      E036765E 
 171      8F9D3763 
 171      E7056E13 
 171      FC13FC13 
 172 00b8 709BE29F 		.ascii	"p\233\342\237\342\237\342\207\333\014\377\014\377\014"
 172      E29FE287 
 172      DB0CFF0C 
 172      FF0C
 173 00c6 3FDCE6F8 		.ascii	"?\334\346\370\347\370\347\370\341\266\300\277\300\277"
 173      E7F8E7F8 
 173      E1B6C0BF 
 173      C0BF
 174 00d4 C00FB725 		.ascii	"\300\017\267%\376%\376%~\270\255\360\257\360\257\360"
 174      FE25FE25 
 174      7EB8ADF0 
 174      AFF0AFF0 
 175 00e4 C36D8D7F 		.ascii	"\303m\215\177\215\177\215\037n\033\374\033\374\033\374"
 175      8D7F8D1F 
 175      6E1BFC1B 
 175      FC1BFC
 176 00f3 70DBE2DF 		.ascii	"p\333\342\337\342\337\342\207\333\016\377\016\377\016"
 176      E2DFE287 
 176      DB0EFF0E 
 176      FF0E
 177 0101 3FDC5E9E 		.ascii	"?\334^\236~V]\201?\332\006\177\264\025\021Y!\252\013"
 177      7E565D81 
 177      3FDA067F 
 177      B4151159 
 177      21AA0B
 178 0114 5153884A 		.ascii	"QS\210JDv \252\017D\315\201\250Dd\307\350:F\3271\272"
 178      447620AA 
 178      0F44CD81 
 178      A84464C7 
 178      E83A46D7 
 179 012a 22B25374 		.ascii	"\"\262St\235\242\353\024]\021\3319\272\316\321u\216"
 179      9DA2EB14 
 179      5D11D939 
 179      BACED175 
 179      8E
 180 013b AE88EC12 		.ascii	"\256\210\354\022]\227\350\272DWDv\215\256kt]\243+\""
 180      5D97E8BA 
 180      44574476 
 180      8DAE6B74 
 180      5DA32B22 
 181 014f BB45D72D 		.ascii	"\273E\327-\272n\321\025\221\275E\327[tu\017\275\363"
 181      BA6ED115 
ARM GAS  /tmp/cc5xPaTF.s 			page 14


 181      91BD45D7 
 181      5B74750F 
 181      BDF3
 182 0161 59E9D067 		.ascii	"Y\351\320g\245\003\237U\313\273Y\265\274\233\2252+e"
 182      A5039F55 
 182      CBBB59B5 
 182      BC9B9532 
 182      2B65
 183 0173 56CAAC94 		.ascii	"V\312\254\224Y)\263Rf\245\314J\231\2252+\365Y\311o\241"
 183      5929B352 
 183      66A5CC4A 
 183      9995322B 
 183      F559C96F 
 184 0188 A35D19   		.ascii	"\243]\031"
 185              		.text
 186              		.section	.gnu.lto_.refs.626f114181049fbe,"",%progbits
 187 0000 789C25C2 		.ascii	"x\234%\302\201\011\000 \014\300\260\266\316\033\374"
 187      81090020 
 187      0CC0B0B6 
 187      CE1BFC
 188 000f FF530543 		.ascii	"\377S\005C\"\016\237\250\275\253i;\345\016.\005H\000"
 188      220E9FA8 
 188      BDAB693B 
 188      E50E2E05 
 188      4800
 189 0021 47       		.ascii	"G"
 190              		.text
 191              		.section	.gnu.lto_.decls.626f114181049fbe,"",%progbits
 192 0000 789C9D56 		.ascii	"x\234\235Vml\024E\030~g\257\245={\271R\242\244$\206"
 192      6D6C1445 
 192      187E67AF 
 192      A53D7BB9 
 192      52A2A424 
 193 0015 1E2698D8 		.ascii	"\036&\230\330\204\273\266\230\370\307\020>b\220(\376"
 193      84BBB698 
 193      F8C7103E 
 193      629028FE 
 194 0025 9090F8C3 		.ascii	"\220\220\370\303x.\327\251\275\244\335\253{{Q\343\237"
 194      782ED7A9 
 194      BDA4DDAB 
 194      7B7B51E3 
 194      9F
 195 0036 B126DA10 		.ascii	"\261&\332\020\243G\361\243?\304\264\005,\012\002\205"
 195      A347F1A3 
 195      3FC4B405 
 195      2C0A0285 
 196 0046 4A4AAC66 		.ascii	"JJ\254fi\240T\324Z\" FK.\250\370\021?\212\011\037Q\353"
 196      69A054D4 
 196      5A222046 
 196      4B2EA8F8 
 196      113F8A09 
 197 005d F9EECEEC 		.ascii	"\371\356\316\354\355\336\335\256w\347\244\357vvv\336"
 197      EDDEDDAE 
 197      77E7A4EF 
 197      767676DE 
 198 006d E77DDE67 		.ascii	"\347}\336gf\3369\011$\270\227\000d\261=\032\004\030"
 198      66DE3909 
ARM GAS  /tmp/cc5xPaTF.s 			page 15


 198      24B89700 
 198      64B13D1A 
 198      0418
 199 007f C1BE0F00 		.ascii	"\301\276\017\000\326\240\371\321\206\320\206\321F\320"
 199      D6A0F9D1 
 199      86D086D1 
 199      46D0
 200 008d F6A31D40 		.ascii	"\366\243\035@;\210v\010m\024\355\010\360V\2156\2066"
 200      3B887608 
 200      6D14ED08 
 200      F0568D36 
 200      8636
 201 009f 8EF601DA 		.ascii	"\216\366\001\332\011\264ShUh\247\321>F\273\214\366\013"
 201      09B45368 
 201      5568A7D1 
 201      3E46BB8C 
 201      F60B
 202 00b1 E437C3A7 		.ascii	"\3447\303\247N\370_C\273\356\2103\201vC\304\236tp\001"
 202      4EF85F43 
 202      BBEE8833 
 202      817643C4 
 202      9E747001 
 203 00c5 813B2662 		.ascii	"\201;&b\234\0201\211\210\345l\006\237\372\002|\213\367"
 203      9C103189 
 203      88E56C06 
 203      9FFA027C 
 203      8BF7
 204 00d7 8423965B 		.ascii	"\204#\226[\034+O+\236\225\233\025\323-^\035lg\254\227"
 204      1C2B4F2B 
 204      9E959B15 
 204      D32D5E1D 
 204      6C67AC97 
 205 00eb 0DBEC0EE 		.ascii	"\015\276\300\356\237\0166@\232a\313T\017\004\375\320"
 205      9F0E3640 
 205      9A61CB54 
 205      0F04FDD0 
 206 00fb 678C67F6 		.ascii	"g\214g\366\262\306F\200G\210Lp\250\326\354\004\374&"
 206      B2C64680 
 206      47884C70 
 206      A8D6EC04 
 206      FC26
 207 010d D24AD883 		.ascii	"\322J\330\203s\321A\222\311n\342\307u\221\010\2706\376"
 207      73D14192 
 207      C96EE2C7 
 207      759108B8 
 207      36FE
 208 011f DD68863B 		.ascii	"\335h\206;\357[\275,qG7\274\206I\203\3313\2710\301\321"
 208      EF5BBD2C 
 208      714737BC 
 208      864983D9 
 208      33B930C1 
 209 0134 9C213C42 		.ascii	"\234!<B\226G\225\360x\333\021'\340wv 7\356\3467D\352"
 209      964795F0 
 209      78DB1127 
 209      E0777620 
 209      37EEE637 
 210 014a AC292271 		.ascii	"\254)\"q\036\314\335\303\314<\235y\345\347\233\022c"
ARM GAS  /tmp/cc5xPaTF.s 			page 16


 210      1ECCDDC3 
 210      CC3C9D79 
 210      E5E79B12 
 210      63
 211 015b B5321931 		.ascii	"\2652\0311\263\357 \320\014\357pI.\337\343&\205Lj\374"
 211      B3EF20D0 
 211      0CEF7049 
 211      2EDFE326 
 211      854C6AFC 
 212 016f 45EF3279 		.ascii	"E\3572y\2274\013j5~\273cl\360z\367\365\011\015\004\271"
 212      97340B6A 
 212      357EBB63 
 212      6CF07AF7 
 212      F5090D04 
 213 0184 78821C93 		.ascii	"x\202\034\223,v!\201{\240b\345\336\363P\256\251\204"
 213      2C762181 
 213      7BA062E5 
 213      DEF350AE 
 213      A984
 214 0196 72FB6DE5 		.ascii	"r\373m\345\312\241\332b\371/\022\376\207*fz\330\203"
 214      CAA1DA62 
 214      F92F12FE 
 214      872A667A 
 214      D883
 215 01a8 697509A6 		.ascii	"iu\011\246\007+c:\233\023\265Y\000\034\251\230\352Q"
 215      072B633A 
 215      9B13B559 
 215      001CA998 
 215      EA51
 216 01ba 0FAA7795 		.ascii	"\017\252w\225\240:jSm\202\267\230>\237\231;}\345,\331"
 216      A03A6A53 
 216      6D82B798 
 216      3E9F993B 
 216      7DE52CD9 
 217 01ce F13C9B66 		.ascii	"\361<\233f\363\306\266X\012\257\011\012\214h2Ys\233"
 217      F3C6B658 
 217      0AAF090A 
 217      8C683259 
 217      739B
 218 01e0 27D4FB64 		.ascii	"'\324\373d\251\350m\365qD\011\366\021\222\333v\274\335"
 218      A9E86DF5 
 218      714409F6 
 218      1192DB76 
 218      BCDD
 219 01f2 097B0D3C 		.ascii	"\011{\015<\266\217\371L4c\376\030i\002G\223\3111\"9"
 219      B68FF94C 
 219      3463FE18 
 219      69024793 
 219      C9312239 
 220 0206 073833FD 		.ascii	"\00783\375&\345\234x(\011>,\013|\274\020\374x1x&\235"
 220      26E59C78 
 220      28093E2C 
 220      0B7CBC10 
 220      FC783178 
 221 021c 393FF35B 		.ascii	"9?\363[/\246=Xq\332\023\"m\037HE\013\236+mz\343@\320"
 221      2FA63D58 
 221      71DA1322 
ARM GAS  /tmp/cc5xPaTF.s 			page 17


 221      6D1F4845 
 221      0B9E2B6D 
 222 0234 BDFAC864 		.ascii	"\275\372\310d\017YYn\335*\012\376\221\275|\266\354\246"
 222      0F59596E 
 222      DD2A0AFE 
 222      91BD7CB6 
 222      ECA6
 223 0246 F2BF1789 		.ascii	"\362\277\027\211\303'\351n\331\353\307>y\211\221\364"
 223      C327E96E 
 223      D9EBC73E 
 223      798991F4 
 224 0256 73996CB6 		.ascii	"s\231l\266\251\374\314'\3633\347\325\251\200\306\337"
 224      A9FCCC27 
 224      F333E7D5 
 224      A980C6DF 
 225 0266 1E344EBA 		.ascii	"\0364N\272\322\030\267ipa%\350\223\334\001\246\362\001"
 225      D218B769 
 225      706125E8 
 225      93DC01A6 
 225      F201
 226 0278 EE802136 		.ascii	"\356\200!6\330\257/\234yu\031\033\352e\354\237l\026"
 226      D8AF2F9C 
 226      7975191B 
 226      EA65EC9F 
 226      6C16
 227 028a C9561BD5 		.ascii	"\311V\033\325rg\016\301+\221i\033\313\3009\254\343!"
 227      72670EC1 
 227      2B91691B 
 227      CBC039AC 
 227      E321
 228 029c F86E37D9 		.ascii	"\370n7\331\311\360\0200\035\221\232\254\223;\035\314"
 228      C9F01030 
 228      1D919AAC 
 228      933B1DCC 
 229 02ac ADAF8EEB 		.ascii	"\255\257\216\353\273\004v\230Z\241T\216\012\316\210"
 229      BB047698 
 229      5AA1548E 
 229      0ACE88
 230 02bb 156031E4 		.ascii	"\025`1\344J\370\371\227O\265b\011\027\036!\317\3512"
 230      4AF8F997 
 230      4FB56209 
 230      171E21CF 
 230      E932
 231 02cd F90CF743 		.ascii	"\371\014\367C\311i\306\304\317\311\022\221\030\277 "
 231      C969C6C4 
 231      CFC91291 
 231      18BF20
 232 02dc F5BF6888 		.ascii	"\365\277h\210\217\202\213d\242\255\000d\333\253/,L\023"
 232      8F828B64 
 232      A2AD0064 
 232      DBAB2F2C 
 232      4C13
 233 02ee D61FE03B 		.ascii	"\326\037\340;H\202]\246F\206\253\233FyW\233\230\220"
 233      48825DA6 
 233      4686AB9B 
 233      4679579B 
 233      9890
ARM GAS  /tmp/cc5xPaTF.s 			page 18


 234 0300 0F97FDC9 		.ascii	"\017\227\375\311\204\313\333\374\374\230zi~\016\343"
 234      84CBDBFC 
 234      FC987A69 
 234      7E0EE3
 235 030f 3A484A30 		.ascii	":HJ0\\1\205P\036\205\364T -s\\\254;\345\200\325z\347"
 235      5C318550 
 235      1E85F454 
 235      202D735C 
 235      AC3BE580 
 236 0326 D3EF041B 		.ascii	"\323\357\004\033\255\030,T :OT&\263\346Q?KV\340\363"
 236      AD182C54 
 236      203A4F54 
 236      26B3E651 
 236      3F4B56E0 
 237 033b 0BF379C1 		.ascii	"\013\363y\301|^\304g\256Ip\274`\317[\213\352\300\263"
 237      7C5EC467 
 237      AE4970BC 
 237      60CF5B8B 
 237      EAC0B3
 238 034e D71E4A23 		.ascii	"\327\036J#\272\257A\301b}\352\221\237\201\377\265]f"
 238      BAAF41C1 
 238      627DEA91 
 238      9F81FFB5 
 238      5D66
 239 0360 F2211FB7 		.ascii	"\362!\037\267f\006\314Q\373\230p\037\367Y2\371\246\342"
 239      6606CC51 
 239      FB98701F 
 239      F75932F9 
 239      A6E2
 240 0372 FB6DCEE3 		.ascii	"\373m\316\343~s\026\001{\026\016\237,<\365E$.\341\251"
 240      7E731601 
 240      7B160E9F 
 240      2C3CF545 
 240      242EE1A9 
 241 0386 5F0E17A4 		.ascii	"_\016\027\244]\214\257\335\335p\224\365\351-29\203\354"
 241      5D8CAFDD 
 241      DD7094F5 
 241      E92D3239 
 241      83EC
 242 0398 72BBE259 		.ascii	"r\273\342Y\370\223\015\260\314\334\213\337\257\3469"
 242      F8930DB0 
 242      CCDC8BDF 
 242      AFE639
 243 03a7 19156276 		.ascii	"\031\025bvV\377r\352M\302\006s\225\306PO\202\371\302"
 243      56FF72EA 
 243      4DC20673 
 243      95C6504F 
 243      82F9C2
 244 03ba A0C587F6 		.ascii	"\240\305\207\366[Qkx\264\265\334\223\257 \017\245\177"
 244      5B516B78 
 244      B4B5DC93 
 244      AF200FA5 
 244      7F
 245 03cb 3545CAF9 		.ascii	"5E\312\371\325P\224\317\017\025\213\372\243\207\250"
 245      D55094CF 
 245      0F158BFA 
 245      A387A8
ARM GAS  /tmp/cc5xPaTF.s 			page 19


 246 03da D6627BF9 		.ascii	"\326b{\371]\261\267\303rX@\001\007\326\332\341\371>"
 246      5DB1B7C3 
 246      72584001 
 246      07D6DAE1 
 246      F93E
 247 03ec 343CCE99 		.ascii	"4<\316\231\323\370\216t\276_\024\271\3661\375\322\""
 247      D3F88E74 
 247      BE5F14B9 
 247      F631FDD2 
 247      22
 248 03fd AB1238AF 		.ascii	"\253\0228\257i\021\227X\212\274^\237/\375\214\213\364"
 248      69119758 
 248      8ABC5E9F 
 248      2FFD8C8B 
 248      F4
 249 040e DB7D25A5 		.ascii	"\333}%\245\377\265\264\3643eI_\014}\265b\355\377\360"
 249      FFB5B4F4 
 249      3365495F 
 249      0C7DB562 
 249      EDFFF0
 250 0421 D0BEBE84 		.ascii	"\320\276\276\204\366\363N\355\337\360q\355\257\376/"
 250      F6F34EED 
 250      DFF071ED 
 250      AFFE2F
 251 0430 ED8396F6 		.ascii	"\355\203\226\366c\305\332\363\237\244\326\271/(\025"
 251      63C5DAF3 
 251      9FA4D6B9 
 251      2F2815
 252 043f D5DE695D 		.ascii	"\325\336i]\363\370\351\313\257s/\257\353\236^\223\377"
 252      F3F8E9CB 
 252      AF732FAF 
 252      EB9E5E93 
 252      FF
 253 0450 E175C351 		.ascii	"\341u\303Q\225\252b\235\262\372X\2443\321M#\011MKD6"
 253      95AA629D 
 253      B2FA58A4 
 253      33D14D23 
 253      094D4B44 
 254 0465 53454BA8 		.ascii	"SEK\250\033U\271\2473\036KF\266$Rj\214\252\317D7$\332"
 254      1B55B9A7 
 254      331E4B46 
 254      B624526A 
 254      8CAACF44 
 255 047c E97AAAC4 		.ascii	"\351z\252\304:\243\017\3065\032\355H\250\321u\017o\216"
 255      3AA30FC6 
 255      351AED48 
 255      A8D1750F 
 255      6F8E
 256 048e DEB76EFD 		.ascii	"\336\267n\375\246\210\254v\257R\022\012]E\345m\361H"
 256      A688AC76 
 256      AF52120A 
 256      5D45E56D 
 256      F148
 257 04a0 5C8975A5 		.ascii	"\\\211u\245\332i$\251\265\307\025-\334\011\265)\374"
 257      DA6924A9 
 257      B5C7152D 
 257      DC09B529 
ARM GAS  /tmp/cc5xPaTF.s 			page 20


 257      FC
 258 04b1 BFBA2DAA 		.ascii	"\277\272-\252-\332\370\320\326\320\006h\015\207#\374"
 258      2DDAF8D0 
 258      D6D00668 
 258      0D8723FC 
 259 04c1 4FA3492D 		.ascii	"O\243I-\242j\221\244\031\205\277\032\217h\222>\231\302"
 259      A26A91A4 
 259      1985BF1A 
 259      8F68923E 
 259      99C2
 260 04d3 6034DAD2 		.ascii	"`4\332\322\322\032\216\301\255\346 \366\321\332\242"
 260      D21A8EC1 
 260      ADE620F6 
 260      D1DAA2
 261 04e2 F4691A4B 		.ascii	"\364i\032Ki\3249\330j\015\336\236\217\335\025\337\026"
 261      69D439D8 
 261      6A0DDE9E 
 261      8FDD15DF 
 261      16
 262 04f3 41CA461F 		.ascii	"A\312F\037\211\004L\217\036\025\351t)u\366\213r\213"
 262      89044C8F 
 262      1E15E974 
 262      2975F68B 
 262      728B
 263 0505 DDF7F3F8 		.ascii	"\335\367\363\370\032\355\251R\344nZ\235\244Z\252\247"
 263      1AEDA952 
 263      E46E5A9D 
 263      A45AAAA7 
 264 0515 56A3B2DA 		.ascii	"V\243\262\332\236xJ\251\021aL\207\230\234\244Q\255\241"
 264      9E784AA9 
 264      11614C87 
 264      989CA451 
 264      ADA1
 265 0527 88F0B2B0 		.ascii	"\210\360\262\260\232h\22759\\\364%\340\244\034x\200"
 265      9A689735 
 265      395CF425 
 265      E0A41C78 
 265      80
 266 0538 AA0AED0A 		.ascii	"\252\012\355\012mR:\022\340\374\322\266X|\331B5-\256"
 266      6D523A12 
 266      E0FCD2B6 
 266      587CD942 
 266      352DAE
 267 054b 3C91847F 		.ascii	"<\221\204\177\001\273\010i\316"
 267      01BB0869 
 267      CE
 268              		.text
 269              		.section	.gnu.lto_.symtab.626f114181049fbe,"",%progbits
 270 0000 74657374 		.ascii	"test_sequence_001\000\000\000\000\000\000\000\000\000"
 270      5F736571 
 270      75656E63 
 270      655F3030 
 270      31000000 
 271 001a 000000C9 		.ascii	"\000\000\000\311\000\000\000test_step\000\000\002\000"
 271      00000074 
 271      6573745F 
 271      73746570 
ARM GAS  /tmp/cc5xPaTF.s 			page 21


 271      00000200 
 272 002e 00000000 		.ascii	"\000\000\000\000\000\000\000\000\307\000\000\000tes"
 272      00000000 
 272      C7000000 
 272      746573
 273 003d 745F7072 		.ascii	"t_println\000\000\002\000\000\000\000\000\000\000\000"
 273      696E746C 
 273      6E000002 
 273      00000000 
 273      00000000 
 274 0051 00BB0000 		.ascii	"\000\273\000\000\000test_printn\000\000\002\000\000"
 274      00746573 
 274      745F7072 
 274      696E746E 
 274      00000200 
 275 0066 00000000 		.ascii	"\000\000\000\000\000\000\000\301\000\000\000test_pr"
 275      000000C1 
 275      00000074 
 275      6573745F 
 275      7072
 276 0078 696E7400 		.ascii	"int\000\000\002\000\000\000\000\000\000\000\000\000"
 276      00020000 
 276      00000000 
 276      000000
 277 0087 C5000000 		.ascii	"\305\000\000\000"
 278              		.text
 279              		.section	.gnu.lto_.opts,"",%progbits
 280 0000 272D6D63 		.ascii	"'-mcpu=cortex-m3' '-mno-thumb-interwork' '-mthumb' "
 280      70753D63 
 280      6F727465 
 280      782D6D33 
 280      2720272D 
 281 0033 272D6767 		.ascii	"'-ggdb' '-O2' '-fomit-frame-pointer' '-falign-funct"
 281      64622720 
 281      272D4F32 
 281      2720272D 
 281      666F6D69 
 282 0066 696F6E73 		.ascii	"ions=16' '-ffunction-sections' '-fdata-sections' '-"
 282      3D313627 
 282      20272D66 
 282      66756E63 
 282      74696F6E 
 283 0099 666E6F2D 		.ascii	"fno-common' '-flto'\000"
 283      636F6D6D 
 283      6F6E2720 
 283      272D666C 
 283      746F2700 
 284              		.text
 285              		.cfi_sections	.debug_frame
 286              		.section	.text.test_001_002_execute,"ax",%progbits
 287              		.align	2
 288              		.p2align 4,,15
 289              		.thumb
 290              		.thumb_func
 291              		.type	test_001_002_execute, %function
 292              	test_001_002_execute:
 293              	.LFB220:
ARM GAS  /tmp/cc5xPaTF.s 			page 22


 294              		.file 1 "../../../test/rt/source/test/test_sequence_001.c"
 295              		.loc 1 101 0
 296              		.cfi_startproc
 297              		@ args = 0, pretend = 0, frame = 0
 298              		@ frame_needed = 0, uses_anonymous_args = 0
 299 0000 38B5     		push	{r3, r4, r5, lr}
 300              		.cfi_def_cfa_offset 16
 301              		.cfi_offset 3, -16
 302              		.cfi_offset 4, -12
 303              		.cfi_offset 5, -8
 304              		.cfi_offset 14, -4
 305              		.loc 1 106 0
 306 0002 40F20000 		movw	r0, #:lower16:.LC0
 307              		.loc 1 104 0
 308 0006 40F20003 		movw	r3, #:lower16:test_step
 309 000a C0F20003 		movt	r3, #:upper16:test_step
 310 000e 0125     		movs	r5, #1
 311              		.loc 1 106 0
 312 0010 C0F20000 		movt	r0, #:upper16:.LC0
 313              		.loc 1 108 0
 314 0014 40F20004 		movw	r4, #:lower16:.LC1
 315              		.loc 1 104 0
 316 0018 1D60     		str	r5, [r3]
 317              		.loc 1 108 0
 318 001a C0F20004 		movt	r4, #:upper16:.LC1
 319              		.loc 1 106 0
 320 001e FFF7FEFF 		bl	test_print
 321              	.LVL0:
 322              		.loc 1 107 0
 323 0022 1020     		movs	r0, #16
 324 0024 FFF7FEFF 		bl	test_printn
 325              	.LVL1:
 326              		.loc 1 108 0
 327 0028 2046     		mov	r0, r4
 328 002a FFF7FEFF 		bl	test_println
 329              	.LVL2:
 330              		.loc 1 109 0
 331 002e 40F20000 		movw	r0, #:lower16:.LC2
 332 0032 C0F20000 		movt	r0, #:upper16:.LC2
 333 0036 FFF7FEFF 		bl	test_print
 334              	.LVL3:
 335              		.loc 1 110 0
 336 003a 4FF47A70 		mov	r0, #1000
 337 003e FFF7FEFF 		bl	test_printn
 338              	.LVL4:
 339              		.loc 1 111 0
 340 0042 2046     		mov	r0, r4
 341 0044 FFF7FEFF 		bl	test_println
 342              	.LVL5:
 343              		.loc 1 112 0
 344 0048 40F20000 		movw	r0, #:lower16:.LC3
 345 004c C0F20000 		movt	r0, #:upper16:.LC3
 346 0050 FFF7FEFF 		bl	test_print
 347              	.LVL6:
 348              		.loc 1 113 0
 349 0054 0220     		movs	r0, #2
 350 0056 FFF7FEFF 		bl	test_printn
ARM GAS  /tmp/cc5xPaTF.s 			page 23


 351              	.LVL7:
 352              		.loc 1 114 0
 353 005a 2046     		mov	r0, r4
 354 005c FFF7FEFF 		bl	test_println
 355              	.LVL8:
 356              		.loc 1 115 0
 357 0060 40F20000 		movw	r0, #:lower16:.LC4
 358 0064 C0F20000 		movt	r0, #:upper16:.LC4
 359 0068 FFF7FEFF 		bl	test_print
 360              	.LVL9:
 361              		.loc 1 116 0
 362 006c 0020     		movs	r0, #0
 363 006e FFF7FEFF 		bl	test_printn
 364              	.LVL10:
 365              		.loc 1 117 0
 366 0072 2046     		mov	r0, r4
 367 0074 FFF7FEFF 		bl	test_println
 368              	.LVL11:
 369              		.loc 1 118 0
 370 0078 40F20000 		movw	r0, #:lower16:.LC5
 371 007c C0F20000 		movt	r0, #:upper16:.LC5
 372 0080 FFF7FEFF 		bl	test_print
 373              	.LVL12:
 374              		.loc 1 119 0
 375 0084 0020     		movs	r0, #0
 376 0086 FFF7FEFF 		bl	test_printn
 377              	.LVL13:
 378              		.loc 1 120 0
 379 008a 2046     		mov	r0, r4
 380 008c FFF7FEFF 		bl	test_println
 381              	.LVL14:
 382              		.loc 1 121 0
 383 0090 40F20000 		movw	r0, #:lower16:.LC6
 384 0094 C0F20000 		movt	r0, #:upper16:.LC6
 385 0098 FFF7FEFF 		bl	test_print
 386              	.LVL15:
 387              		.loc 1 122 0
 388 009c 0020     		movs	r0, #0
 389 009e FFF7FEFF 		bl	test_printn
 390              	.LVL16:
 391              		.loc 1 123 0
 392 00a2 2046     		mov	r0, r4
 393 00a4 FFF7FEFF 		bl	test_println
 394              	.LVL17:
 395              		.loc 1 124 0
 396 00a8 40F20000 		movw	r0, #:lower16:.LC7
 397 00ac C0F20000 		movt	r0, #:upper16:.LC7
 398 00b0 FFF7FEFF 		bl	test_print
 399              	.LVL18:
 400              		.loc 1 125 0
 401 00b4 2846     		mov	r0, r5
 402 00b6 FFF7FEFF 		bl	test_printn
 403              	.LVL19:
 404              		.loc 1 126 0
 405 00ba 2046     		mov	r0, r4
 406 00bc FFF7FEFF 		bl	test_println
 407              	.LVL20:
ARM GAS  /tmp/cc5xPaTF.s 			page 24


 408              		.loc 1 127 0
 409 00c0 40F20000 		movw	r0, #:lower16:.LC8
 410 00c4 C0F20000 		movt	r0, #:upper16:.LC8
 411 00c8 FFF7FEFF 		bl	test_print
 412              	.LVL21:
 413              		.loc 1 128 0
 414 00cc 0020     		movs	r0, #0
 415 00ce FFF7FEFF 		bl	test_printn
 416              	.LVL22:
 417              		.loc 1 129 0
 418 00d2 2046     		mov	r0, r4
 419 00d4 FFF7FEFF 		bl	test_println
 420              	.LVL23:
 421              		.loc 1 130 0
 422 00d8 40F20000 		movw	r0, #:lower16:.LC9
 423 00dc C0F20000 		movt	r0, #:upper16:.LC9
 424 00e0 FFF7FEFF 		bl	test_print
 425              	.LVL24:
 426              		.loc 1 131 0
 427 00e4 2846     		mov	r0, r5
 428 00e6 FFF7FEFF 		bl	test_printn
 429              	.LVL25:
 430              		.loc 1 132 0
 431 00ea 2046     		mov	r0, r4
 432 00ec FFF7FEFF 		bl	test_println
 433              	.LVL26:
 434              		.loc 1 133 0
 435 00f0 40F20000 		movw	r0, #:lower16:.LC10
 436 00f4 C0F20000 		movt	r0, #:upper16:.LC10
 437 00f8 FFF7FEFF 		bl	test_print
 438              	.LVL27:
 439              		.loc 1 134 0
 440 00fc 2846     		mov	r0, r5
 441 00fe FFF7FEFF 		bl	test_printn
 442              	.LVL28:
 443              		.loc 1 135 0
 444 0102 2046     		mov	r0, r4
 445 0104 FFF7FEFF 		bl	test_println
 446              	.LVL29:
 447              		.loc 1 136 0
 448 0108 40F20000 		movw	r0, #:lower16:.LC11
 449 010c C0F20000 		movt	r0, #:upper16:.LC11
 450 0110 FFF7FEFF 		bl	test_print
 451              	.LVL30:
 452              		.loc 1 137 0
 453 0114 2846     		mov	r0, r5
 454 0116 FFF7FEFF 		bl	test_printn
 455              	.LVL31:
 456              		.loc 1 138 0
 457 011a 2046     		mov	r0, r4
 458 011c FFF7FEFF 		bl	test_println
 459              	.LVL32:
 460              		.loc 1 139 0
 461 0120 40F20000 		movw	r0, #:lower16:.LC12
 462 0124 C0F20000 		movt	r0, #:upper16:.LC12
 463 0128 FFF7FEFF 		bl	test_print
 464              	.LVL33:
ARM GAS  /tmp/cc5xPaTF.s 			page 25


 465              		.loc 1 140 0
 466 012c 0020     		movs	r0, #0
 467 012e FFF7FEFF 		bl	test_printn
 468              	.LVL34:
 469              		.loc 1 141 0
 470 0132 2046     		mov	r0, r4
 471 0134 FFF7FEFF 		bl	test_println
 472              	.LVL35:
 473              		.loc 1 142 0
 474 0138 40F20000 		movw	r0, #:lower16:.LC13
 475 013c C0F20000 		movt	r0, #:upper16:.LC13
 476 0140 FFF7FEFF 		bl	test_print
 477              	.LVL36:
 478              		.loc 1 143 0
 479 0144 2846     		mov	r0, r5
 480 0146 FFF7FEFF 		bl	test_printn
 481              	.LVL37:
 482              		.loc 1 144 0
 483 014a 2046     		mov	r0, r4
 484 014c FFF7FEFF 		bl	test_println
 485              	.LVL38:
 486              		.loc 1 145 0
 487 0150 40F20000 		movw	r0, #:lower16:.LC14
 488 0154 C0F20000 		movt	r0, #:upper16:.LC14
 489 0158 FFF7FEFF 		bl	test_print
 490              	.LVL39:
 491              		.loc 1 146 0
 492 015c 0020     		movs	r0, #0
 493 015e FFF7FEFF 		bl	test_printn
 494              	.LVL40:
 495              		.loc 1 147 0
 496 0162 2046     		mov	r0, r4
 497 0164 FFF7FEFF 		bl	test_println
 498              	.LVL41:
 499              		.loc 1 148 0
 500 0168 40F20000 		movw	r0, #:lower16:.LC15
 501 016c C0F20000 		movt	r0, #:upper16:.LC15
 502 0170 FFF7FEFF 		bl	test_print
 503              	.LVL42:
 504              		.loc 1 149 0
 505 0174 2846     		mov	r0, r5
 506 0176 FFF7FEFF 		bl	test_printn
 507              	.LVL43:
 508              		.loc 1 150 0
 509 017a 2046     		mov	r0, r4
 510 017c FFF7FEFF 		bl	test_println
 511              	.LVL44:
 512              		.loc 1 151 0
 513 0180 40F20000 		movw	r0, #:lower16:.LC16
 514 0184 C0F20000 		movt	r0, #:upper16:.LC16
 515 0188 FFF7FEFF 		bl	test_print
 516              	.LVL45:
 517              		.loc 1 152 0
 518 018c 2846     		mov	r0, r5
 519 018e FFF7FEFF 		bl	test_printn
 520              	.LVL46:
 521              		.loc 1 153 0
ARM GAS  /tmp/cc5xPaTF.s 			page 26


 522 0192 2046     		mov	r0, r4
 523 0194 FFF7FEFF 		bl	test_println
 524              	.LVL47:
 525              		.loc 1 154 0
 526 0198 40F20000 		movw	r0, #:lower16:.LC17
 527 019c C0F20000 		movt	r0, #:upper16:.LC17
 528 01a0 FFF7FEFF 		bl	test_print
 529              	.LVL48:
 530              		.loc 1 155 0
 531 01a4 2846     		mov	r0, r5
 532 01a6 FFF7FEFF 		bl	test_printn
 533              	.LVL49:
 534              		.loc 1 156 0
 535 01aa 2046     		mov	r0, r4
 536 01ac FFF7FEFF 		bl	test_println
 537              	.LVL50:
 538              		.loc 1 157 0
 539 01b0 40F20000 		movw	r0, #:lower16:.LC18
 540 01b4 C0F20000 		movt	r0, #:upper16:.LC18
 541 01b8 FFF7FEFF 		bl	test_print
 542              	.LVL51:
 543              		.loc 1 158 0
 544 01bc 2846     		mov	r0, r5
 545 01be FFF7FEFF 		bl	test_printn
 546              	.LVL52:
 547              		.loc 1 159 0
 548 01c2 2046     		mov	r0, r4
 549 01c4 FFF7FEFF 		bl	test_println
 550              	.LVL53:
 551              		.loc 1 160 0
 552 01c8 40F20000 		movw	r0, #:lower16:.LC19
 553 01cc C0F20000 		movt	r0, #:upper16:.LC19
 554 01d0 FFF7FEFF 		bl	test_print
 555              	.LVL54:
 556              		.loc 1 161 0
 557 01d4 2846     		mov	r0, r5
 558 01d6 FFF7FEFF 		bl	test_printn
 559              	.LVL55:
 560              		.loc 1 162 0
 561 01da 2046     		mov	r0, r4
 562 01dc FFF7FEFF 		bl	test_println
 563              	.LVL56:
 564              		.loc 1 163 0
 565 01e0 40F20000 		movw	r0, #:lower16:.LC20
 566 01e4 C0F20000 		movt	r0, #:upper16:.LC20
 567 01e8 FFF7FEFF 		bl	test_print
 568              	.LVL57:
 569              		.loc 1 164 0
 570 01ec 0020     		movs	r0, #0
 571 01ee FFF7FEFF 		bl	test_printn
 572              	.LVL58:
 573              		.loc 1 165 0
 574 01f2 2046     		mov	r0, r4
 575 01f4 FFF7FEFF 		bl	test_println
 576              	.LVL59:
 577              		.loc 1 166 0
 578 01f8 40F20000 		movw	r0, #:lower16:.LC21
ARM GAS  /tmp/cc5xPaTF.s 			page 27


 579 01fc C0F20000 		movt	r0, #:upper16:.LC21
 580 0200 FFF7FEFF 		bl	test_print
 581              	.LVL60:
 582              		.loc 1 167 0
 583 0204 2846     		mov	r0, r5
 584 0206 FFF7FEFF 		bl	test_printn
 585              	.LVL61:
 586              		.loc 1 168 0
 587 020a 2046     		mov	r0, r4
 588 020c FFF7FEFF 		bl	test_println
 589              	.LVL62:
 590              		.loc 1 169 0
 591 0210 40F20000 		movw	r0, #:lower16:.LC22
 592 0214 C0F20000 		movt	r0, #:upper16:.LC22
 593 0218 FFF7FEFF 		bl	test_print
 594              	.LVL63:
 595              		.loc 1 170 0
 596 021c 2846     		mov	r0, r5
 597 021e FFF7FEFF 		bl	test_printn
 598              	.LVL64:
 599              		.loc 1 171 0
 600 0222 2046     		mov	r0, r4
 601 0224 FFF7FEFF 		bl	test_println
 602              	.LVL65:
 603              		.loc 1 172 0
 604 0228 40F20000 		movw	r0, #:lower16:.LC23
 605 022c C0F20000 		movt	r0, #:upper16:.LC23
 606 0230 FFF7FEFF 		bl	test_print
 607              	.LVL66:
 608              		.loc 1 173 0
 609 0234 2846     		mov	r0, r5
 610 0236 FFF7FEFF 		bl	test_printn
 611              	.LVL67:
 612              		.loc 1 174 0
 613 023a 2046     		mov	r0, r4
 614 023c FFF7FEFF 		bl	test_println
 615              	.LVL68:
 616              		.loc 1 175 0
 617 0240 40F20000 		movw	r0, #:lower16:.LC24
 618 0244 C0F20000 		movt	r0, #:upper16:.LC24
 619 0248 FFF7FEFF 		bl	test_print
 620              	.LVL69:
 621              		.loc 1 176 0
 622 024c 2846     		mov	r0, r5
 623 024e FFF7FEFF 		bl	test_printn
 624              	.LVL70:
 625              		.loc 1 177 0
 626 0252 2046     		mov	r0, r4
 627 0254 FFF7FEFF 		bl	test_println
 628              	.LVL71:
 629              		.loc 1 178 0
 630 0258 40F20000 		movw	r0, #:lower16:.LC25
 631 025c C0F20000 		movt	r0, #:upper16:.LC25
 632 0260 FFF7FEFF 		bl	test_print
 633              	.LVL72:
 634              		.loc 1 179 0
 635 0264 2846     		mov	r0, r5
ARM GAS  /tmp/cc5xPaTF.s 			page 28


 636 0266 FFF7FEFF 		bl	test_printn
 637              	.LVL73:
 638              		.loc 1 180 0
 639 026a 2046     		mov	r0, r4
 640 026c FFF7FEFF 		bl	test_println
 641              	.LVL74:
 642              		.loc 1 181 0
 643 0270 40F20000 		movw	r0, #:lower16:.LC26
 644 0274 C0F20000 		movt	r0, #:upper16:.LC26
 645 0278 FFF7FEFF 		bl	test_print
 646              	.LVL75:
 647              		.loc 1 182 0
 648 027c 0020     		movs	r0, #0
 649 027e FFF7FEFF 		bl	test_printn
 650              	.LVL76:
 651              		.loc 1 183 0
 652 0282 2046     		mov	r0, r4
 653 0284 FFF7FEFF 		bl	test_println
 654              	.LVL77:
 655              		.loc 1 184 0
 656 0288 40F20000 		movw	r0, #:lower16:.LC27
 657 028c C0F20000 		movt	r0, #:upper16:.LC27
 658 0290 FFF7FEFF 		bl	test_print
 659              	.LVL78:
 660              		.loc 1 185 0
 661 0294 0020     		movs	r0, #0
 662 0296 FFF7FEFF 		bl	test_printn
 663              	.LVL79:
 664              		.loc 1 186 0
 665 029a 2046     		mov	r0, r4
 666 029c FFF7FEFF 		bl	test_println
 667              	.LVL80:
 668              		.loc 1 187 0
 669 02a0 40F20000 		movw	r0, #:lower16:.LC28
 670 02a4 C0F20000 		movt	r0, #:upper16:.LC28
 671 02a8 FFF7FEFF 		bl	test_print
 672              	.LVL81:
 673              		.loc 1 188 0
 674 02ac 0020     		movs	r0, #0
 675 02ae FFF7FEFF 		bl	test_printn
 676              	.LVL82:
 677              		.loc 1 189 0
 678 02b2 2046     		mov	r0, r4
 679 02b4 FFF7FEFF 		bl	test_println
 680              	.LVL83:
 681              		.loc 1 190 0
 682 02b8 40F20000 		movw	r0, #:lower16:.LC29
 683 02bc C0F20000 		movt	r0, #:upper16:.LC29
 684 02c0 FFF7FEFF 		bl	test_print
 685              	.LVL84:
 686              		.loc 1 191 0
 687 02c4 0020     		movs	r0, #0
 688 02c6 FFF7FEFF 		bl	test_printn
 689              	.LVL85:
 690              		.loc 1 192 0
 691 02ca 2046     		mov	r0, r4
 692 02cc FFF7FEFF 		bl	test_println
ARM GAS  /tmp/cc5xPaTF.s 			page 29


 693              	.LVL86:
 694              		.loc 1 193 0
 695 02d0 40F20000 		movw	r0, #:lower16:.LC30
 696 02d4 C0F20000 		movt	r0, #:upper16:.LC30
 697 02d8 FFF7FEFF 		bl	test_print
 698              	.LVL87:
 699              		.loc 1 194 0
 700 02dc FF20     		movs	r0, #255
 701 02de FFF7FEFF 		bl	test_printn
 702              	.LVL88:
 703              		.loc 1 195 0
 704 02e2 2046     		mov	r0, r4
 705 02e4 FFF7FEFF 		bl	test_println
 706              	.LVL89:
 707              		.loc 1 196 0
 708 02e8 40F20000 		movw	r0, #:lower16:.LC31
 709 02ec C0F20000 		movt	r0, #:upper16:.LC31
 710 02f0 FFF7FEFF 		bl	test_print
 711              	.LVL90:
 712              		.loc 1 197 0
 713 02f4 8020     		movs	r0, #128
 714 02f6 FFF7FEFF 		bl	test_printn
 715              	.LVL91:
 716              		.loc 1 198 0
 717 02fa 2046     		mov	r0, r4
 718 02fc FFF7FEFF 		bl	test_println
 719              	.LVL92:
 720              		.loc 1 199 0
 721 0300 40F20000 		movw	r0, #:lower16:.LC32
 722 0304 C0F20000 		movt	r0, #:upper16:.LC32
 723 0308 FFF7FEFF 		bl	test_print
 724              	.LVL93:
 725              		.loc 1 200 0
 726 030c 0020     		movs	r0, #0
 727 030e FFF7FEFF 		bl	test_printn
 728              	.LVL94:
 729              		.loc 1 201 0
 730 0312 2046     		mov	r0, r4
 731 0314 FFF7FEFF 		bl	test_println
 732              	.LVL95:
 733              		.loc 1 202 0
 734 0318 40F20000 		movw	r0, #:lower16:.LC33
 735 031c C0F20000 		movt	r0, #:upper16:.LC33
 736 0320 FFF7FEFF 		bl	test_print
 737              	.LVL96:
 738              		.loc 1 203 0
 739 0324 0020     		movs	r0, #0
 740 0326 FFF7FEFF 		bl	test_printn
 741              	.LVL97:
 742              		.loc 1 204 0
 743 032a 2046     		mov	r0, r4
 744 032c FFF7FEFF 		bl	test_println
 745              	.LVL98:
 746              		.loc 1 205 0
 747 0330 40F20000 		movw	r0, #:lower16:.LC34
 748 0334 C0F20000 		movt	r0, #:upper16:.LC34
 749 0338 FFF7FEFF 		bl	test_print
ARM GAS  /tmp/cc5xPaTF.s 			page 30


 750              	.LVL99:
 751              		.loc 1 206 0
 752 033c 0020     		movs	r0, #0
 753 033e FFF7FEFF 		bl	test_printn
 754              	.LVL100:
 755              		.loc 1 207 0
 756 0342 2046     		mov	r0, r4
 757              		.loc 1 209 0
 758 0344 BDE83840 		pop	{r3, r4, r5, lr}
 759              		.loc 1 207 0
 760 0348 FFF7FEBF 		b	test_println
 761              	.LVL101:
 762              		.cfi_endproc
 763              	.LFE220:
 764              		.size	test_001_002_execute, .-test_001_002_execute
 765 034c AFF30080 		.section	.text.test_001_001_execute,"ax",%progbits
 766              		.align	2
 767              		.p2align 4,,15
 768              		.thumb
 769              		.thumb_func
 770              		.type	test_001_001_execute, %function
 771              	test_001_001_execute:
 772              	.LFB219:
 773              		.loc 1 60 0
 774              		.cfi_startproc
 775              		@ args = 0, pretend = 0, frame = 0
 776              		@ frame_needed = 0, uses_anonymous_args = 0
 777 0000 38B5     		push	{r3, r4, r5, lr}
 778              		.cfi_def_cfa_offset 16
 779              		.cfi_offset 3, -16
 780              		.cfi_offset 4, -12
 781              		.cfi_offset 5, -8
 782              		.cfi_offset 14, -4
 783              		.loc 1 65 0
 784 0002 40F20000 		movw	r0, #:lower16:.LC35
 785              		.loc 1 63 0
 786 0006 40F20003 		movw	r3, #:lower16:test_step
 787 000a C0F20003 		movt	r3, #:upper16:test_step
 788 000e 0125     		movs	r5, #1
 789              		.loc 1 65 0
 790 0010 C0F20000 		movt	r0, #:upper16:.LC35
 791              		.loc 1 63 0
 792 0014 1D60     		str	r5, [r3]
 793              		.loc 1 65 0
 794 0016 FFF7FEFF 		bl	test_println
 795              	.LVL102:
 796              		.loc 1 66 0
 797 001a 40F20000 		movw	r0, #:lower16:.LC36
 798 001e C0F20000 		movt	r0, #:upper16:.LC36
 799              		.loc 1 68 0
 800 0022 40F20004 		movw	r4, #:lower16:.LC1
 801 0026 C0F20004 		movt	r4, #:upper16:.LC1
 802              		.loc 1 66 0
 803 002a FFF7FEFF 		bl	test_print
 804              	.LVL103:
 805              		.loc 1 67 0
 806 002e 2846     		mov	r0, r5
ARM GAS  /tmp/cc5xPaTF.s 			page 31


 807 0030 FFF7FEFF 		bl	test_printn
 808              	.LVL104:
 809              		.loc 1 68 0
 810 0034 2046     		mov	r0, r4
 811 0036 FFF7FEFF 		bl	test_println
 812              	.LVL105:
 813              		.loc 1 69 0
 814 003a 40F20000 		movw	r0, #:lower16:.LC37
 815 003e C0F20000 		movt	r0, #:upper16:.LC37
 816 0042 FFF7FEFF 		bl	test_print
 817              	.LVL106:
 818              		.loc 1 70 0
 819 0046 40F20000 		movw	r0, #:lower16:.LC38
 820 004a C0F20000 		movt	r0, #:upper16:.LC38
 821 004e FFF7FEFF 		bl	test_println
 822              	.LVL107:
 823              		.loc 1 71 0
 824 0052 40F20000 		movw	r0, #:lower16:.LC39
 825 0056 C0F20000 		movt	r0, #:upper16:.LC39
 826 005a FFF7FEFF 		bl	test_print
 827              	.LVL108:
 828              		.loc 1 72 0
 829 005e 0420     		movs	r0, #4
 830 0060 FFF7FEFF 		bl	test_printn
 831              	.LVL109:
 832              		.loc 1 73 0
 833 0064 2046     		mov	r0, r4
 834 0066 FFF7FEFF 		bl	test_println
 835              	.LVL110:
 836              		.loc 1 74 0
 837 006a 40F20000 		movw	r0, #:lower16:.LC40
 838 006e C0F20000 		movt	r0, #:upper16:.LC40
 839 0072 FFF7FEFF 		bl	test_print
 840              	.LVL111:
 841              		.loc 1 75 0
 842 0076 0020     		movs	r0, #0
 843 0078 FFF7FEFF 		bl	test_printn
 844              	.LVL112:
 845              		.loc 1 76 0
 846 007c 2046     		mov	r0, r4
 847 007e FFF7FEFF 		bl	test_println
 848              	.LVL113:
 849              		.loc 1 77 0
 850 0082 40F20000 		movw	r0, #:lower16:.LC41
 851 0086 C0F20000 		movt	r0, #:upper16:.LC41
 852 008a FFF7FEFF 		bl	test_print
 853              	.LVL114:
 854              		.loc 1 78 0
 855 008e 0220     		movs	r0, #2
 856 0090 FFF7FEFF 		bl	test_printn
 857              	.LVL115:
 858              		.loc 1 79 0
 859 0094 2046     		mov	r0, r4
 860              		.loc 1 81 0
 861 0096 BDE83840 		pop	{r3, r4, r5, lr}
 862              		.loc 1 79 0
 863 009a FFF7FEBF 		b	test_println
ARM GAS  /tmp/cc5xPaTF.s 			page 32


 864              	.LVL116:
 865              		.cfi_endproc
 866              	.LFE219:
 867              		.size	test_001_001_execute, .-test_001_001_execute
 868              		.global	test_sequence_001
 869 009e 00BF     		.section	.rodata.test_sequence_001,"a",%progbits
 870              		.align	2
 871              		.type	test_sequence_001, %object
 872              		.size	test_sequence_001, 12
 873              	test_sequence_001:
 874 0000 00000000 		.word	test_001_001
 875 0004 00000000 		.word	test_001_002
 876 0008 00000000 		.word	0
 877              		.section	.rodata.test_001_001,"a",%progbits
 878              		.align	2
 879              		.type	test_001_001, %object
 880              		.size	test_001_001, 16
 881              	test_001_001:
 882 0000 28050000 		.word	.LC43
 883 0004 00000000 		.word	0
 884 0008 00000000 		.word	0
 885 000c 00000000 		.word	test_001_001_execute
 886              		.section	.rodata.test_001_002,"a",%progbits
 887              		.align	2
 888              		.type	test_001_002, %object
 889              		.size	test_001_002, 16
 890              	test_001_002:
 891 0000 18050000 		.word	.LC42
 892 0004 00000000 		.word	0
 893 0008 00000000 		.word	0
 894 000c 00000000 		.word	test_001_002_execute
 895              		.section	.rodata.str1.4,"aMS",%progbits,1
 896              		.align	2
 897              	.LC0:
 898 0000 2D2D2D20 		.ascii	"--- CH_CFG_ST_RESOLUTION:      \000"
 898      43485F43 
 898      46475F53 
 898      545F5245 
 898      534F4C55 
 899              	.LC1:
 900 0020 00       		.ascii	"\000"
 901 0021 000000   		.space	3
 902              	.LC2:
 903 0024 2D2D2D20 		.ascii	"--- CH_CFG_ST_FREQUENCY:       \000"
 903      43485F43 
 903      46475F53 
 903      545F4652 
 903      45515545 
 904              	.LC3:
 905 0044 2D2D2D20 		.ascii	"--- CH_CFG_ST_TIMEDELTA:       \000"
 905      43485F43 
 905      46475F53 
 905      545F5449 
 905      4D454445 
 906              	.LC4:
 907 0064 2D2D2D20 		.ascii	"--- CH_CFG_TIME_QUANTUM:       \000"
 907      43485F43 
ARM GAS  /tmp/cc5xPaTF.s 			page 33


 907      46475F54 
 907      494D455F 
 907      5155414E 
 908              	.LC5:
 909 0084 2D2D2D20 		.ascii	"--- CH_CFG_MEMCORE_SIZE:       \000"
 909      43485F43 
 909      46475F4D 
 909      454D434F 
 909      52455F53 
 910              	.LC6:
 911 00a4 2D2D2D20 		.ascii	"--- CH_CFG_NO_IDLE_THREAD:     \000"
 911      43485F43 
 911      46475F4E 
 911      4F5F4944 
 911      4C455F54 
 912              	.LC7:
 913 00c4 2D2D2D20 		.ascii	"--- CH_CFG_OPTIMIZE_SPEED:     \000"
 913      43485F43 
 913      46475F4F 
 913      5054494D 
 913      495A455F 
 914              	.LC8:
 915 00e4 2D2D2D20 		.ascii	"--- CH_CFG_USE_TM:             \000"
 915      43485F43 
 915      46475F55 
 915      53455F54 
 915      4D3A2020 
 916              	.LC9:
 917 0104 2D2D2D20 		.ascii	"--- CH_CFG_USE_REGISTRY:       \000"
 917      43485F43 
 917      46475F55 
 917      53455F52 
 917      45474953 
 918              	.LC10:
 919 0124 2D2D2D20 		.ascii	"--- CH_CFG_USE_WAITEXIT:       \000"
 919      43485F43 
 919      46475F55 
 919      53455F57 
 919      41495445 
 920              	.LC11:
 921 0144 2D2D2D20 		.ascii	"--- CH_CFG_USE_SEMAPHORES:     \000"
 921      43485F43 
 921      46475F55 
 921      53455F53 
 921      454D4150 
 922              	.LC12:
 923 0164 2D2D2D20 		.ascii	"--- CH_CFG_USE_SEMAPHORES_PRI: \000"
 923      43485F43 
 923      46475F55 
 923      53455F53 
 923      454D4150 
 924              	.LC13:
 925 0184 2D2D2D20 		.ascii	"--- CH_CFG_USE_MUTEXES:        \000"
 925      43485F43 
 925      46475F55 
 925      53455F4D 
 925      55544558 
ARM GAS  /tmp/cc5xPaTF.s 			page 34


 926              	.LC14:
 927 01a4 2D2D2D20 		.ascii	"--- CH_CFG_USE_MUTEXES_RECURS: \000"
 927      43485F43 
 927      46475F55 
 927      53455F4D 
 927      55544558 
 928              	.LC15:
 929 01c4 2D2D2D20 		.ascii	"--- CH_CFG_USE_CONDVARS:       \000"
 929      43485F43 
 929      46475F55 
 929      53455F43 
 929      4F4E4456 
 930              	.LC16:
 931 01e4 2D2D2D20 		.ascii	"--- CH_CFG_USE_CONDVARS_TIMEO: \000"
 931      43485F43 
 931      46475F55 
 931      53455F43 
 931      4F4E4456 
 932              	.LC17:
 933 0204 2D2D2D20 		.ascii	"--- CH_CFG_USE_EVENTS:         \000"
 933      43485F43 
 933      46475F55 
 933      53455F45 
 933      56454E54 
 934              	.LC18:
 935 0224 2D2D2D20 		.ascii	"--- CH_CFG_USE_EVENTS_TIMEOUT: \000"
 935      43485F43 
 935      46475F55 
 935      53455F45 
 935      56454E54 
 936              	.LC19:
 937 0244 2D2D2D20 		.ascii	"--- CH_CFG_USE_MESSAGES:       \000"
 937      43485F43 
 937      46475F55 
 937      53455F4D 
 937      45535341 
 938              	.LC20:
 939 0264 2D2D2D20 		.ascii	"--- CH_CFG_USE_MESSAGES_PRI:   \000"
 939      43485F43 
 939      46475F55 
 939      53455F4D 
 939      45535341 
 940              	.LC21:
 941 0284 2D2D2D20 		.ascii	"--- CH_CFG_USE_MAILBOXES:      \000"
 941      43485F43 
 941      46475F55 
 941      53455F4D 
 941      41494C42 
 942              	.LC22:
 943 02a4 2D2D2D20 		.ascii	"--- CH_CFG_USE_MEMCORE:        \000"
 943      43485F43 
 943      46475F55 
 943      53455F4D 
 943      454D434F 
 944              	.LC23:
 945 02c4 2D2D2D20 		.ascii	"--- CH_CFG_USE_HEAP:           \000"
 945      43485F43 
ARM GAS  /tmp/cc5xPaTF.s 			page 35


 945      46475F55 
 945      53455F48 
 945      4541503A 
 946              	.LC24:
 947 02e4 2D2D2D20 		.ascii	"--- CH_CFG_USE_MEMPOOLS:       \000"
 947      43485F43 
 947      46475F55 
 947      53455F4D 
 947      454D504F 
 948              	.LC25:
 949 0304 2D2D2D20 		.ascii	"--- CH_CFG_USE_DYNAMIC:        \000"
 949      43485F43 
 949      46475F55 
 949      53455F44 
 949      594E414D 
 950              	.LC26:
 951 0324 2D2D2D20 		.ascii	"--- CH_DBG_STATISTICS:         \000"
 951      43485F44 
 951      42475F53 
 951      54415449 
 951      53544943 
 952              	.LC27:
 953 0344 2D2D2D20 		.ascii	"--- CH_DBG_SYSTEM_STATE_CHECK: \000"
 953      43485F44 
 953      42475F53 
 953      59535445 
 953      4D5F5354 
 954              	.LC28:
 955 0364 2D2D2D20 		.ascii	"--- CH_DBG_ENABLE_CHECKS:      \000"
 955      43485F44 
 955      42475F45 
 955      4E41424C 
 955      455F4348 
 956              	.LC29:
 957 0384 2D2D2D20 		.ascii	"--- CH_DBG_ENABLE_ASSERTS:     \000"
 957      43485F44 
 957      42475F45 
 957      4E41424C 
 957      455F4153 
 958              	.LC30:
 959 03a4 2D2D2D20 		.ascii	"--- CH_DBG_TRACE_MASK:         \000"
 959      43485F44 
 959      42475F54 
 959      52414345 
 959      5F4D4153 
 960              	.LC31:
 961 03c4 2D2D2D20 		.ascii	"--- CH_DBG_TRACE_BUFFER_SIZE:  \000"
 961      43485F44 
 961      42475F54 
 961      52414345 
 961      5F425546 
 962              	.LC32:
 963 03e4 2D2D2D20 		.ascii	"--- CH_DBG_ENABLE_STACK_CHECK: \000"
 963      43485F44 
 963      42475F45 
 963      4E41424C 
 963      455F5354 
ARM GAS  /tmp/cc5xPaTF.s 			page 36


 964              	.LC33:
 965 0404 2D2D2D20 		.ascii	"--- CH_DBG_FILL_THREADS:       \000"
 965      43485F44 
 965      42475F46 
 965      494C4C5F 
 965      54485245 
 966              	.LC34:
 967 0424 2D2D2D20 		.ascii	"--- CH_DBG_THREADS_PROFILING:  \000"
 967      43485F44 
 967      42475F54 
 967      48524541 
 967      44535F50 
 968              	.LC35:
 969 0444 2D2D2D20 		.ascii	"--- Product:                   ChibiOS/RT\000"
 969      50726F64 
 969      7563743A 
 969      20202020 
 969      20202020 
 970 046e 0000     		.space	2
 971              	.LC36:
 972 0470 2D2D2D20 		.ascii	"--- Stable Flag:               \000"
 972      53746162 
 972      6C652046 
 972      6C61673A 
 972      20202020 
 973              	.LC37:
 974 0490 2D2D2D20 		.ascii	"--- Version String:            \000"
 974      56657273 
 974      696F6E20 
 974      53747269 
 974      6E673A20 
 975              	.LC38:
 976 04b0 342E302E 		.ascii	"4.0.2\000"
 976      3200
 977 04b6 0000     		.space	2
 978              	.LC39:
 979 04b8 2D2D2D20 		.ascii	"--- Major Number:              \000"
 979      4D616A6F 
 979      72204E75 
 979      6D626572 
 979      3A202020 
 980              	.LC40:
 981 04d8 2D2D2D20 		.ascii	"--- Minor Number:              \000"
 981      4D696E6F 
 981      72204E75 
 981      6D626572 
 981      3A202020 
 982              	.LC41:
 983 04f8 2D2D2D20 		.ascii	"--- Patch Number:              \000"
 983      50617463 
 983      68204E75 
 983      6D626572 
 983      3A202020 
 984              	.LC42:
 985 0518 4B65726E 		.ascii	"Kernel Settings\000"
 985      656C2053 
 985      65747469 
ARM GAS  /tmp/cc5xPaTF.s 			page 37


 985      6E677300 
 986              	.LC43:
 987 0528 4B65726E 		.ascii	"Kernel Info\000"
 987      656C2049 
 987      6E666F00 
 988              		.text
 989              	.Letext0:
 990              		.file 2 "/home/otto/MentorGraphics/Sourcery_CodeBench_Lite_for_ARM_EABI/lib/gcc/arm-none-eabi/4.8.
 991              		.file 3 "/home/otto/MentorGraphics/Sourcery_CodeBench_Lite_for_ARM_EABI/arm-none-eabi/include/stdi
 992              		.file 4 "../../../os/common/ports/ARMCMx/compilers/GCC/chtypes.h"
 993              		.file 5 "../../../os/rt/include/chsystypes.h"
 994              		.file 6 "../../../os/rt/include/chschd.h"
 995              		.file 7 "../../../os/common/ports/ARMCMx/chcore.h"
 996              		.file 8 "../../../os/common/ports/ARMCMx/chcore_v7m.h"
 997              		.file 9 "../../../os/rt/include/chsem.h"
 998              		.file 10 "../../../os/rt/include/chmtx.h"
 999              		.file 11 "../../../test/lib/ch_test.h"
 1000              		.file 12 "../../../os/common/ext/CMSIS/include/core_cm3.h"