ARM GAS  /tmp/cc5xPaTF.s 			page 1


   1              		.syntax unified
   2              		.cpu cortex-m3
   3              		.fpu softvfp
   4              		.eabi_attribute 20, 1
   5              		.eabi_attribute 21, 1
   6              		.eabi_attribute 23, 3
   7              		.eabi_attribute 24, 1
   8              		.eabi_attribute 25, 1
   9              		.eabi_attribute 26, 1
  10              		.eabi_attribute 30, 2
  11              		.eabi_attribute 34, 1
  12              		.eabi_attribute 18, 4
  13              		.thumb
  14              		.file	"test_sequence_001.c"
  15              		.text
  16              	.Ltext0:
  17              		.section	.gnu.lto_.jmpfuncs.626f114181049fbe,"",%progbits
  18 0000 789CA593 		.ascii	"x\234\245\223\255o\024A\030\207g\267\337\250\376\005"
  18      AD6F1441 
  18      188767B7 
  18      DFA8FE05 
  19 0010 97152892 		.ascii	"\227\025(\222\026BP\213an\366\275\273I\367\253;\263"
  19      1642508B 
  19      616EF6BD 
  19      BB49F7AB 
  19      3BB3
  20 0022 A5C54CAE 		.ascii	"\245\305L\256\245\264K\31259\256\012sA\200@\020\202"
  20      A5B44BCA 
  20      3539AE0A 
  20      73418040 
  20      1082
  21 0034 A0092108 		.ascii	"\240\011!\010\004\010\004\002\201@ \020 \010A \020\010"
  21      04080402 
  21      81402010 
  21      20084120 
  21      1008
  22 0046 04094110 		.ascii	"\004\011A\020\202@TPv\357\366R\366\353\222aV\356\373"
  22      82405450 
  22      76EFF652 
  22      F6EB9261 
  22      56EEFB
  23 0059 CCF3FEE6 		.ascii	"\314\363\376\346\235\031\035\351\250\354;\234C\350\354"
  23      9D191DE9 
  23      A8EC3B9C 
  23      43E8EC
  24 0068 144AAA9A 		.ascii	"\024J\252\232~\015\035\364\367\373\363\221\206jH{\320"
  24      7E0D1DF4 
  24      F7FBF391 
  24      866A487B 
  24      D0
  25 0079 DF3F1769 		.ascii	"\337?\027i\332\200\322\364U-\322t\224\201&jhb\010M\246"
  25      DA80D2F4 
  25      552DD274 
  25      9481266A 
  25      6862084D 
  26 008e 90F4FAE3 		.ascii	"\220\364\372\343\212\353An}_\313\013.\311\011\016\013"
  26      8AEB416E 
ARM GAS  /tmp/cc5xPaTF.s 			page 2


  26      7D5FCB0B 
  26      2EC9090E 
  26      0B
  27 009f 829B9AE2 		.ascii	"\202\233\232\342\026\236\250\012\336\252\012\276\253"
  27      169EA80A 
  27      DEAA0ABE 
  27      AB
  28 00ac 0A6EE972 		.ascii	"\012n\351r\202\302\020\237\252\012\336\251\012~\250"
  28      82C2109F 
  28      AA0ADEA9 
  28      0A7EA8
  29 00bb 0A6E4B3E 		.ascii	"\012nK>\205\202\340\231\352[\372\240\232\340\227\252"
  29      8582E099 
  29      EA5BFAA0 
  29      9AE097AA 
  30 00cb E0EEA4A2 		.ascii	"\340\356\244\242\340\271\252\340\243\252\340\267\244"
  30      E0B9AAE0 
  30      A3AAE0B7 
  30      A4
  31 00d8 A0700AF7 		.ascii	"\240p\012\367\246\024\023\274\220\024\024\022|RMp\240"
  31      A61413BC 
  31      90141412 
  31      7C524D70 
  31      A0
  32 00e9 2AB83FAD 		.ascii	"*\270?\255(x))(\314\340\263j\202?\252\011\036\316(\012"
  32      28782929 
  32      28CCE0B3 
  32      6A823FAA 
  32      091ECE28 
  33 00fe 5EA90ABE 		.ascii	"^\251\012\276H\012\364\274\340\372\254\234\340\333L"
  33      480AF4BC 
  33      E0FAAC9C 
  33      E0DB4C
  34 010d DEF048D2 		.ascii	"\336\360H\3220\237\027\274\316\010\364\377\331\305W"
  34      309F17BC 
  34      CE08F4FF 
  34      D9C557
  35 011c C90C8539 		.ascii	"\311\014\2059\336\230\223\023L\346\005\217\253\004S"
  35      DE989313 
  35      4CE6058F 
  35      AB0453
  36 012b 35F426AD 		.ascii	"5\364&\255M\347k\361\272\367\222\215\013\227\370g\225"
  36      4DE76BF1 
  36      BAF7928D 
  36      0B97F867 
  36      95
  37 013c 60A686EE 		.ascii	"`\246\206\356\034\033\326f\321\260\210\214\205\205\005"
  37      1C1BD666 
  37      D1B0888C 
  37      858505
  38 014b 83B48455 		.ascii	"\203\264\204Uo\012\336\012\000[L\370\201\327\2406u\233"
  38      6F0ADE0A 
  38      005B4CF8 
  38      81D7A036 
  38      759B
  39 015d A6616480 		.ascii	"\246ad\200\370\257=\242\342\332\340\313\000\340\342"
  39      F8AF3DA2 
ARM GAS  /tmp/cc5xPaTF.s 			page 3


  39      E2DAE0CB 
  39      00E0E2
  40 016c BA0D8271 		.ascii	"\272\015\202qL\226\004i\001Y2\263\000\0170\001Q\017"
  40      4C960469 
  40      015932B3 
  40      000F3001 
  40      510F
  41 017e 1B0D0804 		.ascii	"\033\015\010\004\243\027 \337b\0108\230-\215\032\224"
  41      A31720DF 
  41      62083898 
  41      2D8D1A94 
  42 018e B7C08C41 		.ascii	"\267\300\214A\300\323\024e\300\240\373(e\006`k\214\203"
  42      C0D31465 
  42      C0A0FB28 
  42      6506606B 
  42      8C83
  43 01a0 9384E450 		.ascii	"\223\204\344P\0322\251P\306)a%\031H\243)B\006\302Zs"
  43      1A32A950 
  43      C6296125 
  43      1948A329 
  43      4206C25A 
  44 01b5 B1438959 		.ascii	"\261C\211Y\0118\340\370\236g\027\0075\002Z\200\375\243"
  44      0938E0F8 
  44      9E671707 
  44      35025A80 
  44      FDA3
  45 01c7 06E506E2 		.ascii	"\006\345\006\342\0050\246\005\246v\335[\205\3026\217"
  45      0530A605 
  45      A676DD5B 
  45      85C2368F 
  46 01d7 0C8CE126 		.ascii	"\014\214\341&$GJ\315q@eHX\001\2273\301\251\003^\310"
  46      24474ACD 
  46      71406548 
  46      58019733 
  46      C1A9035E 
  47 01ec CD2A60CC 		.ascii	"\315*`\314\240\210\347Z+8H\035%\206\021P\231\301\011"
  47      A088E75A 
  47      2B38481D 
  47      25861150 
  47      99C109
  48 01ff 39C49B14 		.ascii	"9\304\233\024\001\2200\301\252\200\352A1p\260\337\212"
  48      019030C1 
  48      AA80EA41 
  48      3170B0DF 
  48      8A
  49 0210 67994E62 		.ascii	"g\231Nb\014`\226\033\316c\032\367\240\2742d\000\315"
  49      0C60961B 
  49      CE631AF7 
  49      A0BC3264 
  49      00CD
  50 0222 F8CE046B 		.ascii	"\370\316\004k\225\000w\376=\354\034\340\371\361t\342"
  50      950077FE 
  50      3DEC1CE0 
  50      F9F174E2 
  51 0232 E720980F 		.ascii	"\347 \230\017`\225dp=A\255\370Z\017__\011\220^\226\321"
  51      60956470 
  51      3D41ADF8 
ARM GAS  /tmp/cc5xPaTF.s 			page 4


  51      5A0F5F5F 
  51      09905E96 
  52 0247 A32A02C9 		.ascii	"\243*\002\311\370\305r\210]\036:\245\000\343\003\306"
  52      F8C57288 
  52      5D1E3AA5 
  52      00E303C6 
  53 0257 029BE32A 		.ascii	"\002\233\343*\240\021\300r\010.)\337f\014\304\023\364"
  53      A011C072 
  53      082E29DF 
  53      660CC413 
  53      F4
  54 0268 EC9053CF 		.ascii	"\354\220S\317\315\334I\277\335\333\3306\334\275+\353"
  54      CDDC49BF 
  54      DDDBD836 
  54      DCBD2BEB 
  55 0278 9BDDEC18 		.ascii	"\233\335\354\030R\300\211:\273\335\261@\373r%0}f\361"
  55      52C0893A 
  55      BBDDB140 
  55      FB722530 
  55      7D66F1
  56 028b D4E2E921 		.ascii	"\324\342\351!\267\262\331\275\032\355v\014\326\353F"
  56      B7B2D9BD 
  56      1AED760C 
  56      D6EB46
  57 029a 9D2DB328 		.ascii	"\235-\263(b\275\366\372\316\246\321\330io\345<\006:"
  57      62BDF6FA 
  57      CEA6D1D8 
  57      696FE53C 
  57      063A
  58 02ac 31C8DADD 		.ascii	"1\310\332\335\275\270\267\321\313\027\223\217lG\353"
  58      BDB8B7D1 
  58      CB17938F 
  58      6C47EB
  59 02bb 91C74E06 		.ascii	"\221\307N\006\034\375\005R\306V\346"
  59      1CFD0552 
  59      C656E6
  60              		.text
  61              		.section	.gnu.lto_.inline.626f114181049fbe,"",%progbits
  62 0000 789C6362 		.ascii	"x\234cb`b\300\006^B\205\201\324\005\306\247\034\214"
  62      6062C006 
  62      5E428581 
  62      D405C6A7 
  62      1C8C
  63 0012 0C4C4C17 		.ascii	"\014LL\027\370\031\330\026\310\203\305\231\270\031\030"
  63      F819D816 
  63      C883C599 
  63      B81918
  64 0021 1847C951 		.ascii	"\030G\311Q\222\226$\203\322\012F\272\245;\006\000\337"
  64      92962483 
  64      D20A46BA 
  64      A53B0600 
  64      DF
  65 0032 090D39   		.ascii	"\011\0159"
  66              		.text
  67              		.section	.gnu.lto_.pureconst.626f114181049fbe,"",%progbits
  68 0000 789C6362 		.ascii	"x\234cb`b`e\200\000&\006\011&\011\000\001\000\000>"
  68      60626065 
ARM GAS  /tmp/cc5xPaTF.s 			page 5


  68      80002606 
  68      09260900 
  68      0100003E 
  69              		.text
  70              		.section	.gnu.lto_test_001_002_execute.626f114181049fbe,"",%progbits
  71 0000 789CA5D9 		.ascii	"x\234\245\331Ol\323V\034\007\360\367\234\226v\2348\262"
  71      4F6CD356 
  71      1C07F0F7 
  71      9C96769C 
  71      38B2
  72 0012 0BCA8D53 		.ascii	"\013\312\215S[\220v\352i\256\363\322XM\354\324~.\224"
  72      5B9076EA 
  72      69AEF3D2 
  72      584DECD4 
  72      7E2E94
  73 0025 8B354539 		.ascii	"\2135E9\344\260M\243E\232\264\003.\252D\201\002= -\375"
  73      E4B04DA3 
  73      459AB403 
  73      2EAA4481 
  73      023D202D 
  74 003a 074313DA 		.ascii	"\007C\023\332:\376i\207I\254\0036\3550ml\024m\207\211"
  74      3AFE6987 
  74      49AC0336 
  74      ED306D6C 
  74      146D8789 
  75 004e 51A095D0 		.ascii	"Q\240\225\320D\241@\017H\033\224Bx\266\023\022\022\377"
  75      44A1400F 
  75      481B9442 
  75      78B61312 
  75      12FF
  76 0060 94F7F4AC 		.ascii	"\224\367\364\254\306u\342\357{\277\217\177~\316%\012"
  76      C675E2EF 
  76      7BBF8F7F 
  76      7ECE250A 
  77 0070 5250FDF6 		.ascii	"RP\375\366.{\015lE\350\363\026\204p\014aeb\001\241\221"
  77      2E7B0D6C 
  77      45E8F316 
  77      84700C61 
  77      656201A1 
  78 0085 760563FF 		.ascii	"v\005c\377\000a\264_\301\373\007q\220\275\250\374\264"
  78      0061B45F 
  78      C1FB0771 
  78      90BDA8FC 
  78      B4
  79 0096 5C2A5D98 		.ascii	"\\*]\230:xn\006\317+\005\366I+\032\365\274\2118B\271"
  79      3A786E06 
  79      CF2B05F6 
  79      492B1AF5 
  79      BC893842 
  80 00ab 2041D9DE 		.ascii	" A\331\336\037\346`\305\377\037\273\216\016\\*\376\267"
  80      1FE660C5 
  80      FF1FBB8E 
  80      0E5C2AFE 
  80      B7
  81 00bc F5037C1A 		.ascii	"\365\003|\032\267\242i45\342y[\012\030}\206\326\275"
  81      B7A26934 
  81      35E2795B 
ARM GAS  /tmp/cc5xPaTF.s 			page 6


  81      0A187D86 
  81      D6BD
  82 00ce 31FF087F 		.ascii	"1\377\010\177\030\014\333\215\331!\252\034!\377\360"
  82      180CDB8D 
  82      D921AA1C 
  82      21FFF0
  83 00dd 061A5DBE 		.ascii	"\006\032]\276u\257-\034\211\252#\224\\9\351\177R\364"
  83      75AF2D1C 
  83      89AA2394 
  83      5C39E97F 
  83      52F4
  84 00ef BCFE028E 		.ascii	"\274\376\002\216mC\357\315z\305\367\013\270\005\225"
  84      6D43EFCD 
  84      7AC5F70B 
  84      B80595
  85 00fe F3057FC7 		.ascii	"\363\005\177\307\246\370b1\3260\303\246\034V\336\324"
  85      A6F86231 
  85      D630C3A6 
  85      1C56DED4 
  86 010e 6ADBC2B2 		.ascii	"j\333\302\262\355a\271\333_n\216*\027\253-\347\024\360"
  86      ED61B9DB 
  86      5F6E8E2A 
  86      17AB2DE7 
  86      14F0
  87 0120 3BDB9013 		.ascii	";\333\220\023\226\333\\_n\371\016\267x\027$\276\333"
  87      96DB5C5F 
  87      6EF90EB7 
  87      781724BE 
  87      DB
  88 0131 4CBCD256 		.ascii	"L\274\322V%/\311\223W\270\311\237B\344\007\315\310J"
  88      252FC993 
  88      57B8C99F 
  88      42E407CD 
  88      C84A
  89 0143 55FC505E 		.ascii	"U\374P^\274\312-\236\304\020\371Q32\252\222\037\313"
  89      BCCA2D9E 
  89      C410F951 
  89      3332AA92 
  89      1FCB
  90 0155 939F7093 		.ascii	"\223\237p\223\347A\362\232\000\371\231<\37197y\021$"
  90      E741F29A 
  90      00F9993C 
  90      F9393779 
  90      1124
  91 0167 AF0B905F 		.ascii	"\257\013\220_\310\2237\270\311\033 \371e32\256\222_"
  91      C89337B8 
  91      C91B20F9 
  91      653332AE 
  91      925F
  92 0179 C9934BDC 		.ascii	"\311\223K\334\344Y\005\"\217\265\362w\371\320\031i\362"
  92      E4590522 
  92      8FB5F277 
  92      F9D01969 
  92      F2
  93 018a E17F79C9 		.ascii	"\341\177y\311WA\362\221f\344\232.\217\313\223\217r\223"
  93      5741F291 
  93      66E49A2E 
ARM GAS  /tmp/cc5xPaTF.s 			page 7


  93      8FCB938F 
  93      7293
  94 019c 9740F231 		.ascii	"\227@\3621\001\362qyr\221\233\354\305 \362\244\000y"
  94      01F27179 
  94      72919BEC 
  94      C520F2A4 
  94      0079
  95 01ae 4A9E3CCD 		.ascii	"J\236<\315M>\015\222g\004\326\362\254<\371$7\371g\220"
  95      4D3E0D92 
  95      6704D6F2 
  95      AC3CF924 
  95      37F96790 
  96 01c2 7C4AA0CB 		.ascii	"|J\240\313_\313\223\347\270\311\367@\3627\002]>+O>\307"
  96      5FCB93E7 
  96      B8C9F740 
  96      F237025D 
  96      3E2B4F3E 
  97 01d7 4D1E6D81 		.ascii	"M\036m\201\310\347\005\272|A\236|\221\233|\006$_\022"
  97      C8E705BA 
  97      7C419E7C 
  97      919B7C06 
  97      245F12
  98 01ea 207F2F4F 		.ascii	" \177/O\236\347&\377\002\222\177\020 _\226'_\341&\337"
  98      9EE726FF 
  98      02927F10 
  98      205F9627 
  98      5FE126DF 
  99 01fe 07C95705 		.ascii	"\007\311W\005\310?\312\223\177\345&\217\265B\344\337"
  99      C83FCA93 
  99      7FE5268F 
  99      B542E4DF 
 100 020e 04C8D7E4 		.ascii	"\004\310\327\344\311\277s\223\347@\362\037\002\337\030"
 100      C9BF7393 
 100      E740F21F 
 100      02DF18
 101 021d D7E5C90B 		.ascii	"\327\345\311\013\334\344k \371\206@\227o\312\223\377"
 101      DCE46B20 
 101      F9864097 
 101      6FCA93FF 
 102 022d E126AF82 		.ascii	"\341&\257\202\344[\002\344Ey\362mn\362\370&\210|G\200"
 102      E45B02E4 
 102      4579F26D 
 102      6EF2F826 
 102      887C4780 
 103 0241 7C579EBC 		.ascii	"|W\236\274\304M>\017\222W\004\310\017\344\311\017\271"
 103      C44D3E0F 
 103      925704C8 
 103      0FE4C90F 
 103      B9
 104 0252 C90B2079 		.ascii	"\311\013 yU\200\374H\236\374\230\233\274\006\222\237"
 104      5580FC48 
 104      9EFC989B 
 104      BC06929F 
 105 0262 087C63AC 		.ascii	"\010|c\254\311\223\237q\223'\332 \362s\001\362\272<"
 105      C9939F71 
 105      9327DA20 
 105      F27301F2 
ARM GAS  /tmp/cc5xPaTF.s 			page 8


 105      BA3C
 106 0274 F90537F9 		.ascii	"\371\0057\371[\220\274!@~)O~\305M\376\013$\227\004\310"
 106      5B90BC21 
 106      407E294F 
 106      7EC54DFE 
 106      0B249704 
 107 0289 635F4993 		.ascii	"c_I\223\017\335\347%?\005\311\207\033\247x\233\\\252"
 107      0FDDE725 
 107      3F05C987 
 107      1BA7789B 
 107      5CAA
 108 029b 79FE8EC8 		.ascii	"y\376\216\310\233\307\271\315'\332!\363\321ff\257\306"
 108      9BC7B9CD 
 108      27DA21F3 
 108      D16666AF 
 108      C6
 109 02ac 7C4CDE7C 		.ascii	"|L\336|\234\333\374\035h.63\327,\215Iy\362\0247\371"
 109      9CDBFC1D 
 109      682E3633 
 109      D72C8D49 
 109      79F21437 
 110 02c1 6F903C2D 		.ascii	"o\220<-@\236\221'\317r\223\377\007\311'\005\310\247"
 110      409E9127 
 110      CF7293FF 
 110      07C92705 
 110      C8A7
 111 02d3 E4C87FA2 		.ascii	"\344\310\177\242\221\345\271\355\225\031\302\2152\355"
 111      91E5B9ED 
 111      9519C28D 
 111      32ED
 112 02e1 C442F04B 		.ascii	"\304B\360K\304\316\316\316\256\360o8?4\334\265w\270"
 112      C4CECECE 
 112      AEF06F38 
 112      3F34DCB5 
 112      77B8
 113 02f3 6BE8E37D 		.ascii	"k\350\343}{s\371\360\255\277s\207\362\237\354\313\177"
 113      7B73F9F0 
 113      ADBF7387 
 113      F29FECCB 
 113      7F
 114 0304 94CBBB3B 		.ascii	"\224\313\273;v\354\354\314\241xGGG\\K\271Z\262\327\265"
 114      76ECECCC 
 114      A1784747 
 114      475C4BB9 
 114      5AB2D7B5 
 115 0318 A96B11DB 		.ascii	"\251k\021\333L;T7\215\356x\260!\\\037IZ\244\337!\206"
 115      4C3B5437 
 115      8DEE78B0 
 115      215C1F49 
 115      5AA4DF21 
 116 032d 36584EC4 		.ascii	"6XN\304\353\003T\317\220\004IS52\340\237u\373\035\325"
 116      EB0354CF 
 116      90044953 
 116      3532E09F 
 116      75FB1DD5 
 117 0341 A04E2632 		.ascii	"\240N&2\220!\031\315\264\210k\353{Hd\3000]=\221&.MY"
 117      902119CD 
ARM GAS  /tmp/cc5xPaTF.s 			page 9


 117      B4886BEB 
 117      7B4864C0 
 117      305D3D91 
 118 0359 444D7437 		.ascii	"DMt7\006\314,+\302F\273v\226\220\250\200c\263\321o\252"
 118      06CC2C2B 
 118      C246BB76 
 118      9690A880 
 118      63B3D16F 
 119 036e 4794F003 		.ascii	"G\224\360\003\026\351\325mjE_\246\037\330\245\352\224"
 119      16E9D56D 
 119      6A455FA6 
 119      1FD8A5EA 
 119      94
 120 037f ECD62918 		.ascii	"\354\326)\030\260IF\315\246\330\265\330\200\241\032"
 120      B04946CD 
 120      A6D8B5D8 
 120      80A11A
 121 038e 70B396DE 		.ascii	"p\263\226\336\335\030\3108\254Bex\324\014\345\000\303"
 121      DD18C838 
 121      AC426578 
 121      D40CE500 
 121      C3
 122 039f 6A8E6547 		.ascii	"j\216eG\314\240\231Fb@\265l\020Y\011\0047\306\214\230"
 122      CCA09946 
 122      6240B56C 
 122      10590904 
 122      37C68C98 
 123 03b3 810C1083 		.ascii	"\201\014\020\203V\011P \034\357\320\250\253 \266\255"
 123      56095020 
 123      1CEFD0A8 
 123      AB20B6AD 
 124 03c3 F612D850 		.ascii	"\366\022\330P\011\204]\210\012\250z\272\307\254v\"b"
 124      09845D88 
 124      0AA87ABA 
 124      C7AC7622 
 124      62
 125 03d4 8660D1C0 		.ascii	"\206`\321\300\215J\0215[{\303\243f\310\232f\032F&\006"
 125      8D4A1135 
 125      5B7BC3A3 
 125      66C89A66 
 125      1A462606 
 126 03e8 0D35A36B 		.ascii	"\0155\243k\215%\022=\376\262W)[-\272\026\325\250 0h"
 126      8D25123D 
 126      FEB25729 
 126      5B2DBA16 
 126      D5A82030 
 127 03fd 53920972 		.ascii	"S\222\011r\254\347)\242\365u\277\035 \206\332\223.\237"
 127      ACE729A2 
 127      F575BF1D 
 127      2086DA93 
 127      2E9F
 128 040f 6AB8CC9A 		.ascii	"j\270\314\232\200j\333\304\242\365+\312\017PK\325\374"
 128      806ADBC4 
 128      A2F52BCA 
 128      0F504BD5 
 128      FC
 129 0420 56D97D80 		.ascii	"V\331}\200!\014\3648\311$\261*\217WT\011\206\324\372"
ARM GAS  /tmp/cc5xPaTF.s 			page 10


 129      210CF438 
 129      C924B12A 
 129      8F575409 
 129      86D4FA
 130 0433 2291493D 		.ascii	"\"\221I=\235.?w\215\215\012J\204\347\330\2154YV7z\375"
 130      9D2E3F77 
 130      8D8D0A4A 
 130      84E7D88D 
 130      34595637 
 131 0449 12AF01D6 		.ascii	"\022\257\001\326\256\032\216"
 131      AE1A8E
 132              		.text
 133              		.section	.gnu.lto_test_001_001_execute.626f114181049fbe,"",%progbits
 134 0000 789C6362 		.ascii	"x\234cb`b@\007\222@\254\311\302\300\300\303\310\300"
 134      60624007 
 134      9240ACC9 
 134      C2C0C0C3 
 134      C8C0
 135 0012 C0C8CCC0 		.ascii	"\300\310\314\300\3104\341\034\003C#\007\023##\210\301"
 135      C834E11C 
 135      03432307 
 135      13232388 
 135      C1
 136 0023 C0C850CF 		.ascii	"\300\310P\317\304X\037\311\010V\273\236\351\300\203"
 136      C4581FC9 
 136      0856BB9E 
 136      E9C083
 137 0032 FFFFD7FD 		.ascii	"\377\377\327\375x\370h%\243\240\020P\200\225\241\245"
 137      78F86825 
 137      A3A01050 
 137      8095A1A5 
 138 0042 A1618202 		.ascii	"\241a\202\002\003C2XA\010\220\004\351\012ed\002\321"
 138      03433258 
 138      41089004 
 138      E90A6564 
 138      02D1
 139 0054 CC67199A 		.ascii	"\314g\031\232v\374\270\317\230\310\270\220\221\225a"
 139      76FCB8CF 
 139      98C8B890 
 139      919561
 140 0063 36C3ACC6 		.ascii	"6\303\254\306\206\006\201LF\206j\206_\015\035 \026c"
 140      8606814C 
 140      46866A86 
 140      5F0D1D20 
 140      1663
 141 0075 2E585B04 		.ascii	".X[\004#\220\311\000c1\200\230\347\031Z\036t.\346\202"
 141      2390C900 
 141      63318098 
 141      E7195A1E 
 141      742EE682 
 142 0089 E86440E8 		.ascii	"\350d@\350`J\206\252\004\211\314hh\010\315dd\226c0\231"
 142      604A86AA 
 142      0489CC68 
 142      6808CD64 
 142      64966330 
 143 009e DB30C321 		.ascii	"\3330\303!\223\221\205\001\252>\023D\200\214\350z\314"
 143      93918501 
ARM GAS  /tmp/cc5xPaTF.s 			page 11


 143      AA3E1344 
 143      808CE87A 
 143      CC
 144 00af 8ECD0826 		.ascii	"\216\315\010&d#\0023\031\331\344\030\342!F\260\243\033"
 144      64230233 
 144      19D9E418 
 144      E22146B0 
 144      A31B
 145 00c1 B1A09B19 		.ascii	"\261\240\233\031\303\004\216d`@\301\234\313\311\010"
 145      C3048E64 
 145      6040C19C 
 145      CBC908
 146 00d0 54CB05B1 		.ascii	"T\313\005\261\256\2078\027s\313140B\354\343\301pr/\321"
 146      AE873817 
 146      73CB3134 
 146      3042ECE3 
 146      C170722F 
 147 00e5 4E6E62C4 		.ascii	"Nnb\304\341\346\007}\304\271\203W\216a1\324\014>\014"
 147      E1E6077D 
 147      C4B98357 
 147      8E6131D4 
 147      0C3E0C
 148 00f8 33FA8976 		.ascii	"3\372\211v\307*\\\356X0\203P\330\261 \302n&\025\302"
 148      C72A5CEE 
 148      58308350 
 148      D8B120C2 
 148      6E2615C2 
 149 010c 6E16D16E 		.ascii	"n\026\321n>\215\323\315\263\011\271\231\001\341\346"
 149      3E8DD3CD 
 149      B309B999 
 149      01E1E6
 150 011b 395470F3 		.ascii	"9Tp\363\\\242\335\374\006\247\233\347\021r3\023\302"
 150      5CA2DDFC 
 150      06A79BE7 
 150      11723313 
 150      C2
 151 012c CDF32974 		.ascii	"\315\363)t\363E\206\306\007+\225aF@@\010P;0\277\203"
 151      F34586C6 
 151      072B9561 
 151      46404008 
 151      503B30BF 
 152 0141 DC6CA8A7 		.ascii	"\334l\250\247\247\017A%\251\305%\372E%\372\305\371\245"
 152      A70F4125 
 152      A9C525FA 
 152      4525FAC5 
 152      F9A5
 153 0153 45C9A910 		.ascii	"E\311\251\020.\210\210/N-,M\315KN\215700\324Kf\320\322"
 153      2E88882F 
 153      4E2D2C4D 
 153      CD4B4E8D 
 153      373030D4 
 154 016b D5D55508 		.ascii	"\325\325U\010(\312O)M.\261R\300\004\316\031\231I\231"
 154      28CA4F29 
 154      4D2EB152 
 154      C004CE19 
 154      994999
 155 017e FEC1FA41 		.ascii	"\376\301\372A!\014\012 \245\301%\211I9\251\012n9\211"
ARM GAS  /tmp/cc5xPaTF.s 			page 12


 155      210C0A20 
 155      A5C12589 
 155      4939A90A 
 155      6E3989
 156 0191 E9E8CA81 		.ascii	"\351\350\312\201E\007XIXjQqf~\036PiQf\036\252*\0066"
 156      45075849 
 156      586A5171 
 156      667E1E50 
 156      6951661E 
 157 01a9 133D033D 		.ascii	"\023=\003=#\210:\337\304\254\374\"\005\277\322\334\244"
 157      23883ADF 
 157      C4ACFC22 
 157      05BFD2DC 
 157      A4
 158 01ba D42234B3 		.ascii	"\324\"4\263\240\0122\363\360+\010H,I\316\300\241\000"
 158      A00A32F3 
 158      F02B0848 
 158      2C49CEC0 
 158      A100
 159 01cc 00ED4748 		.ascii	"\000\355GHC"
 159      43
 160              		.text
 161              		.section	.gnu.lto_.symbol_nodes.626f114181049fbe,"",%progbits
 162 0000 789C4D93 		.ascii	"x\234M\223]\212\032Q\020F\353V\353\350.\262\212,hVr"
 162      5D8A1A51 
 162      1046EB56 
 162      EBE82EB2 
 162      8A2C6856 
 163 0015 070A46A2 		.ascii	"\007\012F\242\240AAA\203>\364F\006\372=\033\310\337"
 163      A0414141 
 163      833EF446 
 163      06FA3D1B 
 163      C8DF
 164 0027 38171474 		.ascii	"8\027\024tPp\236\023\322\351:\225\304\227\272}>9\337"
 164      50709E13 
 164      D2E93A95 
 164      C497BA7D 
 164      3E39DF
 165 003a D3A7A2F2 		.ascii	"\323\247\242\362\276'\376\323o)\213|\374,\222\363\247"
 165      BE27FED3 
 165      6F298B7C 
 165      FC2C92F3 
 165      A7
 166 004b 0FF7FDE7 		.ascii	"\017\367\375\347\324\276D\277\244\234\376\243?R\352"
 166      D4BE44BF 
 166      A49CFEA3 
 166      3F52EA
 167 005a 67E97F4D 		.ascii	"g\351\177M\332\313U\377{\252\332\223J\312\352\377yx"
 167      DACB55FF 
 167      7BAADA93 
 167      4ACAEAFF 
 167      7978
 168 006c 48E925E5 		.ascii	"H\351%\345\352\337\327>\345\336\337\257J\206R?\377j"
 168      EADFD73E 
 168      E5DEDFAF 
 168      4A86523F 
 168      FF6A
ARM GAS  /tmp/cc5xPaTF.s 			page 13


 169 007e EF409AEE 		.ascii	"\357@\232\356\336I\351\356Pl\357\274\336;o\366\316\013"
 169      DE49E9EE 
 169      506CEFBC 
 169      DE3B6FF6 
 169      CE0B
 170 0090 DC1E5FDF 		.ascii	"\334\036_\337\375\341uw\207\322tw \005n#\347\365\310"
 170      FDE17577 
 170      87D27477 
 170      20056E23 
 170      E7F5C8
 171 00a3 7933725E 		.ascii	"y3r^\3406v^\217\2357c\347\005n\023\374\023\374\023\374"
 171      E036765E 
 171      8F9D3763 
 171      E7056E13 
 171      FC13FC13 
 172 00b8 709BE29F 		.ascii	"p\233\342\237\342\237\342\207\333\014\377\014\377\014"
 172      E29FE287 
 172      DB0CFF0C 
 172      FF0C
 173 00c6 3FDCE6F8 		.ascii	"?\334\346\370\347\370\347\370\341\266\300\277\300\277"
 173      E7F8E7F8 
 173      E1B6C0BF 
 173      C0BF
 174 00d4 C00FB725 		.ascii	"\300\017\267%\376%\376%~\270\255\360\257\360\257\360"
 174      FE25FE25 
 174      7EB8ADF0 
 174      AFF0AFF0 
 175 00e4 C36D8D7F 		.ascii	"\303m\215\177\215\177\215\037n\033\374\033\374\033\374"
 175      8D7F8D1F 
 175      6E1BFC1B 
 175      FC1BFC
 176 00f3 70DBE2DF 		.ascii	"p\333\342\337\342\337\342\207\333\016\377\016\377\016"
 176      E2DFE287 
 176      DB0EFF0E 
 176      FF0E
 177 0101 3FDC5E9E 		.ascii	"?\334^\236~V]\201?\332\006\177\264\025\021Y!\252\013"
 177      7E565D81 
 177      3FDA067F 
 177      B4151159 
 177      21AA0B
 178 0114 5153884A 		.ascii	"QS\210JDv \252\017D\315\201\250Dd\307\350:F\3271\272"
 178      447620AA 
 178      0F44CD81 
 178      A84464C7 
 178      E83A46D7 
 179 012a 22B25374 		.ascii	"\"\262St\235\242\353\024]\021\3319\272\316\321u\216"
 179      9DA2EB14 
 179      5D11D939 
 179      BACED175 
 179      8E
 180 013b AE88EC12 		.ascii	"\256\210\354\022]\227\350\272DWDv\215\256kt]\243+\""
 180      5D97E8BA 
 180      44574476 
 180      8DAE6B74 
 180      5DA32B22 
 181 014f BB45D72D 		.ascii	"\273E\327-\272n\321\025\221\275E\327[tu\017\275\363"
 181      BA6ED115 
ARM GAS  /tmp/cc5xPaTF.s 			page 14


 181      91BD45D7 
 181      5B74750F 
 181      BDF3
 182 0161 59E9D067 		.ascii	"Y\351\320g\245\003\237U\313\273Y\265\274\233\2252+e"
 182      A5039F55 
 182      CBBB59B5 
 182      BC9B9532 
 182      2B65
 183 0173 56CAAC94 		.ascii	"V\312\254\224Y)\263Rf\245\314J\231\2252+\365Y\311o\241"
 183      5929B352 
 183      66A5CC4A 
 183      9995322B 
 183      F559C96F 
 184 0188 A35D19   		.ascii	"\243]\031"
 185              		.text
 186              		.section	.gnu.lto_.refs.626f114181049fbe,"",%progbits
 187 0000 789C25C2 		.ascii	"x\234%\302\201\011\000 \014\300\260\266\316\033\374"
 187      81090020 
 187      0CC0B0B6 
 187      CE1BFC
 188 000f FF530543 		.ascii	"\377S\005C\"\016\237\250\275\253i;\345\016.\005H\000"
 188      220E9FA8 
 188      BDAB693B 
 188      E50E2E05 
 188      4800
 189 0021 47       		.ascii	"G"
 190              		.text
 191              		.section	.gnu.lto_.decls.626f114181049fbe,"",%progbits
 192 0000 789C9D56 		.ascii	"x\234\235Vml\024E\030~g\257\245={\271R\242\244$\206"
 192      6D6C1445 
 192      187E67AF 
 192      A53D7BB9 
 192      52A2A424 
 193 0015 1E2698D8 		.ascii	"\036&\230\330\204\273\266\230\370\307\020>b\220(\376"
 193      84BBB698 
 193      F8C7103E 
 193      629028FE 
 194 0025 9090F8C3 		.ascii	"\220\220\370\303x.\327\251\275\244\335\253{{Q\343\237"
 194      782ED7A9 
 194      BDA4DDAB 
 194      7B7B51E3 
 194      9F
 195 0036 B126DA10 		.ascii	"\261&\332\020\243G\361\243?\304\264\005,\012\002\205"
 195      A347F1A3 
 195      3FC4B405 
 195      2C0A0285 
 196 0046 4A4AAC66 		.ascii	"JJ\254fi\240T\324Z\" FK.\250\370\021?\212\011\037Q\353"
 196      69A054D4 
 196      5A222046 
 196      4B2EA8F8 
 196      113F8A09 
 197 005d F9EECEEC 		.ascii	"\371\356\316\354\355\336\335\256w\347\244\357vvv\336"
 197      EDDEDDAE 
 197      77E7A4EF 
 197      767676DE 
 198 006d E77DDE67 		.ascii	"\347}\336gf\3369\011$\270\227\000d\261=\032\004\030"
 198      66DE3909 
ARM GAS  /tmp/cc5xPaTF.s 			page 15


 198      24B89700 
 198      64B13D1A 
 198      0418
 199 007f C1BE0F00 		.ascii	"\301\276\017\000\326\240\371\321\206\320\206\321F\320"
 199      D6A0F9D1 
 199      86D086D1 
 199      46D0
 200 008d F6A31D40 		.ascii	"\366\243\035@;\210v\010m\024\355\010\360V\2156\2066"
 200      3B887608 
 200      6D14ED08 
 200      F0568D36 
 200      8636
 201 009f 8EF601DA 		.ascii	"\216\366\001\332\011\264ShUh\247\321>F\273\214\366\013"
 201      09B45368 
 201      5568A7D1 
 201      3E46BB8C 
 201      F60B
 202 00b1 E437C3A7 		.ascii	"\3447\303\247N\370_C\273\356\2103\201vC\304\236tp\001"
 202      4EF85F43 
 202      BBEE8833 
 202      817643C4 
 202      9E747001 
 203 00c5 813B2662 		.ascii	"\201;&b\234\0201\211\210\345l\006\237\372\002|\213\367"
 203      9C103189 
 203      88E56C06 
 203      9FFA027C 
 203      8BF7
 204 00d7 8423965B 		.ascii	"\204#\226[\034+O+\236\225\233\025\323-^\035lg\254\227"
 204      1C2B4F2B 
 204      9E959B15 
 204      D32D5E1D 
 204      6C67AC97 
 205 00eb 0DBEC0EE 		.ascii	"\015\276\300\356\237\0166@\232a\313T\017\004\375\320"
 205      9F0E3640 
 205      9A61CB54 
 205      0F04FDD0 
 206 00fb 678C67F6 		.ascii	"g\214g\366\262\306F\200G\210Lp\250\326\354\004\374&"
 206      B2C64680 
 206      47884C70 
 206      A8D6EC04 
 206      FC26
 207 010d D24AD883 		.ascii	"\322J\330\203s\321A\222\311n\342\307u\221\010\2706\376"
 207      73D14192 
 207      C96EE2C7 
 207      759108B8 
 207      36FE
 208 011f DD68863B 		.ascii	"\335h\206;\357[\275,qG7\274\206I\203\3313\2710\301\321"
 208      EF5BBD2C 
 208      714737BC 
 208      864983D9 
 208      33B930C1 
 209 0134 9C213C42 		.ascii	"\234!<B\226G\225\360x\333\021'\340wv 7\356\3467D\352"
 209      964795F0 
 209      78DB1127 
 209      E0777620 
 209      37EEE637 
 210 014a AC292271 		.ascii	"\254)\"q\036\314\335\303\314<\235y\345\347\233\022c"
ARM GAS  /tmp/cc5xPaTF.s 			page 16


 210      1ECCDDC3 
 210      CC3C9D79 
 210      E5E79B12 
 210      63
 211 015b B5321931 		.ascii	"\2652\0311\263\357 \320\014\357pI.\337\343&\205Lj\374"
 211      B3EF20D0 
 211      0CEF7049 
 211      2EDFE326 
 211      854C6AFC 
 212 016f 45EF3279 		.ascii	"E\3572y\2274\013j5~\273cl\360z\367\365\011\015\004\271"
 212      97340B6A 
 212      357EBB63 
 212      6CF07AF7 
 212      F5090D04 
 213 0184 78821C93 		.ascii	"x\202\034\223,v!\201{\240b\345\336\363P\256\251\204"
 213      2C762181 
 213      7BA062E5 
 213      DEF350AE 
 213      A984
 214 0196 72FB6DE5 		.ascii	"r\373m\345\312\241\332b\371/\022\376\207*fz\330\203"
 214      CAA1DA62 
 214      F92F12FE 
 214      872A667A 
 214      D883
 215 01a8 697509A6 		.ascii	"iu\011\246\007+c:\233\023\265Y\000\034\251\230\352Q"
 215      072B633A 
 215      9B13B559 
 215      001CA998 
 215      EA51
 216 01ba 0FAA7795 		.ascii	"\017\252w\225\240:jSm\202\267\230>\237\231;}\345,\331"
 216      A03A6A53 
 216      6D82B798 
 216      3E9F993B 
 216      7DE52CD9 
 217 01ce F13C9B66 		.ascii	"\361<\233f\363\306\266X\012\257\011\012\214h2Ys\233"
 217      F3C6B658 
 217      0AAF090A 
 217      8C683259 
 217      739B
 218 01e0 27D4FB64 		.ascii	"'\324\373d\251\350m\365qD\011\366\021\222\333v\274\335"
 218      A9E86DF5 
 218      714409F6 
 218      1192DB76 
 218      BCDD
 219 01f2 097B0D3C 		.ascii	"\011{\015<\266\217\371L4c\376\030i\002G\223\3111\"9"
 219      B68FF94C 
 219      3463FE18 
 219      69024793 
 219      C9312239 
 220 0206 073833FD 		.ascii	"\00783\375&\345\234x(\011>,\013|\274\020\374x1x&\235"
 220      26E59C78 
 220      28093E2C 
 220      0B7CBC10 
 220      FC783178 
 221 021c 393FF35B 		.ascii	"9?\363[/\246=Xq\332\023\"m\037HE\013\236+mz\343@\320"
 221      2FA63D58 
 221      71DA1322 
ARM GAS  /tmp/cc5xPaTF.s 			page 17


 221      6D1F4845 
 221      0B9E2B6D 
 222 0234 BDFAC864 		.ascii	"\275\372\310d\017YYn\335*\012\376\221\275|\266\354\246"
 222      0F59596E 
 222      DD2A0AFE 
 222      91BD7CB6 
 222      ECA6
 223 0246 F2BF1789 		.ascii	"\362\277\027\211\303'\351n\331\353\307>y\211\221\364"
 223      C327E96E 
 223      D9EBC73E 
 223      798991F4 
 224 0256 73996CB6 		.ascii	"s\231l\266\251\374\314'\3633\347\325\251\200\306\337"
 224      A9FCCC27 
 224      F333E7D5 
 224      A980C6DF 
 225 0266 1E344EBA 		.ascii	"\0364N\272\322\030\267ipa%\350\223\334\001\246\362\001"
 225      D218B769 
 225      706125E8 
 225      93DC01A6 
 225      F201
 226 0278 EE802136 		.ascii	"\356\200!6\330\257/\234yu\031\033\352e\354\237l\026"
 226      D8AF2F9C 
 226      7975191B 
 226      EA65EC9F 
 226      6C16
 227 028a C9561BD5 		.ascii	"\311V\033\325rg\016\301+\221i\033\313\3009\254\343!"
 227      72670EC1 
 227      2B91691B 
 227      CBC039AC 
 227      E321
 228 029c F86E37D9 		.ascii	"\370n7\331\311\360\0200\035\221\232\254\223;\035\314"
 228      C9F01030 
 228      1D919AAC 
 228      933B1DCC 
 229 02ac ADAF8EEB 		.ascii	"\255\257\216\353\273\004v\230Z\241T\216\012\316\210"
 229      BB047698 
 229      5AA1548E 
 229      0ACE88
 230 02bb 156031E4 		.ascii	"\025`1\344J\370\371\227O\265b\011\027\036!\317\3512"
 230      4AF8F997 
 230      4FB56209 
 230      171E21CF 
 230      E932
 231 02cd F90CF743 		.ascii	"\371\014\367C\311i\306\304\317\311\022\221\030\277 "
 231      C969C6C4 
 231      CFC91291 
 231      18BF20
 232 02dc F5BF6888 		.ascii	"\365\277h\210\217\202\213d\242\255\000d\333\253/,L\023"
 232      8F828B64 
 232      A2AD0064 
 232      DBAB2F2C 
 232      4C13
 233 02ee D61FE03B 		.ascii	"\326\037\340;H\202]\246F\206\253\233FyW\233\230\220"
 233      48825DA6 
 233      4686AB9B 
 233      4679579B 
 233      9890
ARM GAS  /tmp/cc5xPaTF.s 			page 18


 234 0300 0F97FDC9 		.ascii	"\017\227\375\311\204\313\333\374\374\230zi~\016\343"
 234      84CBDBFC 
 234      FC987A69 
 234      7E0EE3
 235 030f 3A484A30 		.ascii	":HJ0\\1\205P\036\205\364T -s\\\254;\345\200\325z\347"
 235      5C318550 
 235      1E85F454 
 235      202D735C 
 235      AC3BE580 
 236 0326 D3EF041B 		.ascii	"\323\357\004\033\255\030,T :OT&\263\346Q?KV\340\363"
 236      AD182C54 
 236      203A4F54 
 236      26B3E651 
 236      3F4B56E0 
 237 033b 0BF379C1 		.ascii	"\013\363y\301|^\304g\256Ip\274`\317[\213\352\300\263"
 237      7C5EC467 
 237      AE4970BC 
 237      60CF5B8B 
 237      EAC0B3
 238 034e D71E4A23 		.ascii	"\327\036J#\272\257A\301b}\352\221\237\201\377\265]f"
 238      BAAF41C1 
 238      627DEA91 
 238      9F81FFB5 
 238      5D66
 239 0360 F2211FB7 		.ascii	"\362!\037\267f\006\314Q\373\230p\037\367Y2\371\246\342"
 239      6606CC51 
 239      FB98701F 
 239      F75932F9 
 239      A6E2
 240 0372 FB6DCEE3 		.ascii	"\373m\316\343~s\026\001{\026\016\237,<\365E$.\341\251"
 240      7E731601 
 240      7B160E9F 
 240      2C3CF545 
 240      242EE1A9 
 241 0386 5F0E17A4 		.ascii	"_\016\027\244]\214\257\335\335p\224\365\351-29\203\354"
 241      5D8CAFDD 
 241      DD7094F5 
 241      E92D3239 
 241      83EC
 242 0398 72BBE259 		.ascii	"r\273\342Y\370\223\015\260\314\334\213\337\257\3469"
 242      F8930DB0 
 242      CCDC8BDF 
 242      AFE639
 243 03a7 19156276 		.ascii	"\031\025bvV\377r\352M\302\006s\225\306PO\202\371\302"
 243      56FF72EA 
 243      4DC20673 
 243      95C6504F 
 243      82F9C2
 244 03ba A0C587F6 		.ascii	"\240\305\207\366[Qkx\264\265\334\223\257 \017\245\177"
 244      5B516B78 
 244      B4B5DC93 
 244      AF200FA5 
 244      7F
 245 03cb 3545CAF9 		.ascii	"5E\312\371\325P\224\317\017\025\213\372\243\207\250"
 245      D55094CF 
 245      0F158BFA 
 245      A387A8
ARM GAS  /tmp/cc5xPaTF.s 			page 19


 246 03da D6627BF9 		.ascii	"\326b{\371]\261\267\303rX@\001\007\326\332\341\371>"
 246      5DB1B7C3 
 246      72584001 
 246      07D6DAE1 
 246      F93E
 247 03ec 343CCE99 		.ascii	"4<\316\231\323\370\216t\276_\024\271\3661\375\322\""
 247      D3F88E74 
 247      BE5F14B9 
 247      F631FDD2 
 247      22
 248 03fd AB1238AF 		.ascii	"\253\0228\257i\021\227X\212\274^\237/\375\214\213\364"
 248      69119758 
 248      8ABC5E9F 
 248      2FFD8C8B 
 248      F4
 249 040e DB7D25A5 		.ascii	"\333}%\245\377\265\264\3643eI_\014}\265b\355\377\360"
 249      FFB5B4F4 
 249      3365495F 
 249      0C7DB562 
 249      EDFFF0
 250 0421 D0BEBE84 		.ascii	"\320\276\276\204\366\363N\355\337\360q\355\257\376/"
 250      F6F34EED 
 250      DFF071ED 
 250      AFFE2F
 251 0430 ED8396F6 		.ascii	"\355\203\226\366c\305\332\363\237\244\326\271/(\025"
 251      63C5DAF3 
 251      9FA4D6B9 
 251      2F2815
 252 043f D5DE695D 		.ascii	"\325\336i]\363\370\351\313\257s/\257\353\236^\223\377"
 252      F3F8E9CB 
 252      AF732FAF 
 252      EB9E5E93 
 252      FF
 253 0450 E175C351 		.ascii	"\341u\303Q\225\252b\235\262\372X\2443\321M#\011MKD6"
 253      95AA629D 
 253      B2FA58A4 
 253      33D14D23 
 253      094D4B44 
 254 0465 53454BA8 		.ascii	"SEK\250\033U\271\2473\036KF\266$Rj\214\252\317D7$\332"
 254      1B55B9A7 
 254      331E4B46 
 254      B624526A 
 254      8CAACF44 
 255 047c E97AAAC4 		.ascii	"\351z\252\304:\243\017\3065\032\355H\250\321u\017o\216"
 255      3AA30FC6 
 255      351AED48 
 255      A8D1750F 
 255      6F8E
 256 048e DEB76EFD 		.ascii	"\336\267n\375\246\210\254v\257R\022\012]E\345m\361H"
 256      A688AC76 
 256      AF52120A 
 256      5D45E56D 
 256      F148
 257 04a0 5C8975A5 		.ascii	"\\\211u\245\332i$\251\265\307\025-\334\011\265)\374"
 257      DA6924A9 
 257      B5C7152D 
 257      DC09B529 
ARM GAS  /tmp/cc5xPaTF.s 			page 20


 257      FC
 258 04b1 BFBA2DAA 		.ascii	"\277\272-\252-\332\370\320\326\320\006h\015\207#\374"
 258      2DDAF8D0 
 258      D6D00668 
 258      0D8723FC 
 259 04c1 4FA3492D 		.ascii	"O\243I-\242j\221\244\031\205\277\032\217h\222>\231\302"
 259      A26A91A4 
 259      1985BF1A 
 259      8F68923E 
 259      99C2
 260 04d3 6034DAD2 		.ascii	"`4\332\322\322\032\216\301\255\346 \366\321\332\242"
 260      D21A8EC1 
 260      ADE620F6 
 260      D1DAA2
 261 04e2 F4691A4B 		.ascii	"\364i\032Ki\3249\330j\015\336\236\217\335\025\337\026"
 261      69D439D8 
 261      6A0DDE9E 
 261      8FDD15DF 
 261      16
 262 04f3 41CA461F 		.ascii	"A\312F\037\211\004L\217\036\025\351t)u\366\213r\213"
 262      89044C8F 
 262      1E15E974 
 262      2975F68B 
 262      728B
 263 0505 DDF7F3F8 		.ascii	"\335\367\363\370\032\355\251R\344nZ\235\244Z\252\247"
 263      1AEDA952 
 263      E46E5A9D 
 263      A45AAAA7 
 264 0515 56A3B2DA 		.ascii	"V\243\262\332\236xJ\251\021aL\207\230\234\244Q\255\241"
 264      9E784AA9 
 264      11614C87 
 264      989CA451 
 264      ADA1
 265 0527 88F0B2B0 		.ascii	"\210\360\262\260\232h\22759\\\364%\340\244\034x\200"
 265      9A689735 
 265      395CF425 
 265      E0A41C78 
 265      80
 266 0538 AA0AED0A 		.ascii	"\252\012\355\012mR:\022\340\374\322\266X|\331B5-\256"
 266      6D523A12 
 266      E0FCD2B6 
 266      587CD942 
 266      352DAE
 267 054b 3C91847F 		.ascii	"<\221\204\177\001\273\010i\316"
 267      01BB0869 
 267      CE
 268              		.text
 269              		.section	.gnu.lto_.symtab.626f114181049fbe,"",%progbits
 270 0000 74657374 		.ascii	"test_sequence_001\000\000\000\000\000\000\000\000\000"
 270      5F736571 
 270      75656E63 
 270      655F3030 
 270      31000000 
 271 001a 000000C9 		.ascii	"\000\000\000\311\000\000\000test_step\000\000\002\000"
 271      00000074 
 271      6573745F 
 271      73746570 
ARM GAS  /tmp/cc5xPaTF.s 			page 21


 271      00000200 
 272 002e 00000000 		.ascii	"\000\000\000\000\000\000\000\000\307\000\000\000tes"
 272      00000000 
 272      C7000000 
 272      746573
 273 003d 745F7072 		.ascii	"t_println\000\000\002\000\000\000\000\000\000\000\000"
 273      696E746C 
 273      6E000002 
 273      00000000 
 273      00000000 
 274 0051 00BB0000 		.ascii	"\000\273\000\000\000test_printn\000\000\002\000\000"
 274      00746573 
 274      745F7072 
 274      696E746E 
 274      00000200 
 275 0066 00000000 		.ascii	"\000\000\000\000\000\000\000\301\000\000\000test_pr"
 275      000000C1 
 275      00000074 
 275      6573745F 
 275      7072
 276 0078 696E7400 		.ascii	"int\000\000\002\000\000\000\000\000\000\000\000\000"
 276      00020000 
 276      00000000 
 276      000000
 277 0087 C5000000 		.ascii	"\305\000\000\000"
 278              		.text
 279              		.section	.gnu.lto_.opts,"",%progbits
 280 0000 272D6D63 		.ascii	"'-mcpu=cortex-m3' '-mno-thumb-interwork' '-mthumb' "
 280      70753D63 
 280      6F727465 
 280      782D6D33 
 280      2720272D 
 281 0033 272D6767 		.ascii	"'-ggdb' '-O2' '-fomit-frame-pointer' '-falign-funct"
 281      64622720 
 281      272D4F32 
 281      2720272D 
 281      666F6D69 
 282 0066 696F6E73 		.ascii	"ions=16' '-ffunction-sections' '-fdata-sections' '-"
 282      3D313627 
 282      20272D66 
 282      66756E63 
 282      74696F6E 
 283 0099 666E6F2D 		.ascii	"fno-common' '-flto'\000"
 283      636F6D6D 
 283      6F6E2720 
 283      272D666C 
 283      746F2700 
 284              		.text
 285              		.cfi_sections	.debug_frame
 286              		.section	.text.test_001_002_execute,"ax",%progbits
 287              		.align	2
 288              		.p2align 4,,15
 289              		.thumb
 290              		.thumb_func
 291              		.type	test_001_002_execute, %function
 292              	test_001_002_execute:
 293              	.LFB220:
ARM GAS  /tmp/cc5xPaTF.s 			page 22


 294              		.file 1 "../../../test/rt/source/test/test_sequence_001.c"
 295              		.loc 1 101 0
 296              		.cfi_startproc
 297              		@ args = 0, pretend = 0, frame = 0
 298              		@ frame_needed = 0, uses_anonymous_args = 0
 299 0000 38B5     		push	{r3, r4, r5, lr}
 300              		.cfi_def_cfa_offset 16
 301              		.cfi_offset 3, -16
 302              		.cfi_offset 4, -12
 303              		.cfi_offset 5, -8
 304              		.cfi_offset 14, -4
 305              		.loc 1 106 0
 306 0002 40F20000 		movw	r0, #:lower16:.LC0
 307              		.loc 1 104 0
 308 0006 40F20003 		movw	r3, #:lower16:test_step
 309 000a C0F20003 		movt	r3, #:upper16:test_step
 310 000e 0125     		movs	r5, #1
 311              		.loc 1 106 0
 312 0010 C0F20000 		movt	r0, #:upper16:.LC0
 313              		.loc 1 108 0
 314 0014 40F20004 		movw	r4, #:lower16:.LC1
 315              		.loc 1 104 0
 316 0018 1D60     		str	r5, [r3]
 317              		.loc 1 108 0
 318 001a C0F20004 		movt	r4, #:upper16:.LC1
 319              		.loc 1 106 0
 320 001e FFF7FEFF 		bl	test_print
 321              	.LVL0:
 322              		.loc 1 107 0
 323 0022 1020     		movs	r0, #16
 324 0024 FFF7FEFF 		bl	test_printn
 325              	.LVL1:
 326              		.loc 1 108 0
 327 0028 2046     		mov	r0, r4
 328 002a FFF7FEFF 		bl	test_println
 329              	.LVL2:
 330              		.loc 1 109 0
 331 002e 40F20000 		movw	r0, #:lower16:.LC2
 332 0032 C0F20000 		movt	r0, #:upper16:.LC2
 333 0036 FFF7FEFF 		bl	test_print
 334              	.LVL3:
 335              		.loc 1 110 0
 336 003a 4FF47A70 		mov	r0, #1000
 337 003e FFF7FEFF 		bl	test_printn
 338              	.LVL4:
 339              		.loc 1 111 0
 340 0042 2046     		mov	r0, r4
 341 0044 FFF7FEFF 		bl	test_println
 342              	.LVL5:
 343              		.loc 1 112 0
 344 0048 40F20000 		movw	r0, #:lower16:.LC3
 345 004c C0F20000 		movt	r0, #:upper16:.LC3
 346 0050 FFF7FEFF 		bl	test_print
 347              	.LVL6:
 348              		.loc 1 113 0
 349 0054 0220     		movs	r0, #2
 350 0056 FFF7FEFF 		bl	test_printn
ARM GAS  /tmp/cc5xPaTF.s 			page 23


 351              	.LVL7:
 352              		.loc 1 114 0
 353 005a 2046     		mov	r0, r4
 354 005c FFF7FEFF 		bl	test_println
 355              	.LVL8:
 356              		.loc 1 115 0
 357 0060 40F20000 		movw	r0, #:lower16:.LC4
 358 0064 C0F20000 		movt	r0, #:upper16:.LC4
 359 0068 FFF7FEFF 		bl	test_print
 360              	.LVL9:
 361              		.loc 1 116 0
 362 006c 0020     		movs	r0, #0
 363 006e FFF7FEFF 		bl	test_printn
 364              	.LVL10:
 365              		.loc 1 117 0
 366 0072 2046     		mov	r0, r4
 367 0074 FFF7FEFF 		bl	test_println
 368              	.LVL11:
 369              		.loc 1 118 0
 370 0078 40F20000 		movw	r0, #:lower16:.LC5
 371 007c C0F20000 		movt	r0, #:upper16:.LC5
 372 0080 FFF7FEFF 		bl	test_print
 373              	.LVL12:
 374              		.loc 1 119 0
 375 0084 0020     		movs	r0, #0
 376 0086 FFF7FEFF 		bl	test_printn
 377              	.LVL13:
 378              		.loc 1 120 0
 379 008a 2046     		mov	r0, r4
 380 008c FFF7FEFF 		bl	test_println
 381              	.LVL14:
 382              		.loc 1 121 0
 383 0090 40F20000 		movw	r0, #:lower16:.LC6
 384 0094 C0F20000 		movt	r0, #:upper16:.LC6
 385 0098 FFF7FEFF 		bl	test_print
 386              	.LVL15:
 387              		.loc 1 122 0
 388 009c 0020     		movs	r0, #0
 389 009e FFF7FEFF 		bl	test_printn
 390              	.LVL16:
 391              		.loc 1 123 0
 392 00a2 2046     		mov	r0, r4
 393 00a4 FFF7FEFF 		bl	test_println
 394              	.LVL17:
 395              		.loc 1 124 0
 396 00a8 40F20000 		movw	r0, #:lower16:.LC7
 397 00ac C0F20000 		movt	r0, #:upper16:.LC7
 398 00b0 FFF7FEFF 		bl	test_print
 399              	.LVL18:
 400              		.loc 1 125 0
 401 00b4 2846     		mov	r0, r5
 402 00b6 FFF7FEFF 		bl	test_printn
 403              	.LVL19:
 404              		.loc 1 126 0
 405 00ba 2046     		mov	r0, r4
 406 00bc FFF7FEFF 		bl	test_println
 407              	.LVL20:
ARM GAS  /tmp/cc5xPaTF.s 			page 24


 408              		.loc 1 127 0
 409 00c0 40F20000 		movw	r0, #:lower16:.LC8
 410 00c4 C0F20000 		movt	r0, #:upper16:.LC8
 411 00c8 FFF7FEFF 		bl	test_print
 412              	.LVL21:
 413              		.loc 1 128 0
 414 00cc 0020     		movs	r0, #0
 415 00ce FFF7FEFF 		bl	test_printn
 416              	.LVL22:
 417              		.loc 1 129 0
 418 00d2 2046     		mov	r0, r4
 419 00d4 FFF7FEFF 		bl	test_println
 420              	.LVL23:
 421              		.loc 1 130 0
 422 00d8 40F20000 		movw	r0, #:lower16:.LC9
 423 00dc C0F20000 		movt	r0, #:upper16:.LC9
 424 00e0 FFF7FEFF 		bl	test_print
 425              	.LVL24:
 426              		.loc 1 131 0
 427 00e4 2846     		mov	r0, r5
 428 00e6 FFF7FEFF 		bl	test_printn
 429              	.LVL25:
 430              		.loc 1 132 0
 431 00ea 2046     		mov	r0, r4
 432 00ec FFF7FEFF 		bl	test_println
 433              	.LVL26:
 434              		.loc 1 133 0
 435 00f0 40F20000 		movw	r0, #:lower16:.LC10
 436 00f4 C0F20000 		movt	r0, #:upper16:.LC10
 437 00f8 FFF7FEFF 		bl	test_print
 438              	.LVL27:
 439              		.loc 1 134 0
 440 00fc 2846     		mov	r0, r5
 441 00fe FFF7FEFF 		bl	test_printn
 442              	.LVL28:
 443              		.loc 1 135 0
 444 0102 2046     		mov	r0, r4
 445 0104 FFF7FEFF 		bl	test_println
 446              	.LVL29:
 447              		.loc 1 136 0
 448 0108 40F20000 		movw	r0, #:lower16:.LC11
 449 010c C0F20000 		movt	r0, #:upper16:.LC11
 450 0110 FFF7FEFF 		bl	test_print
 451              	.LVL30:
 452              		.loc 1 137 0
 453 0114 2846     		mov	r0, r5
 454 0116 FFF7FEFF 		bl	test_printn
 455              	.LVL31:
 456              		.loc 1 138 0
 457 011a 2046     		mov	r0, r4
 458 011c FFF7FEFF 		bl	test_println
 459              	.LVL32:
 460              		.loc 1 139 0
 461 0120 40F20000 		movw	r0, #:lower16:.LC12
 462 0124 C0F20000 		movt	r0, #:upper16:.LC12
 463 0128 FFF7FEFF 		bl	test_print
 464              	.LVL33:
ARM GAS  /tmp/cc5xPaTF.s 			page 25


 465              		.loc 1 140 0
 466 012c 0020     		movs	r0, #0
 467 012e FFF7FEFF 		bl	test_printn
 468              	.LVL34:
 469              		.loc 1 141 0
 470 0132 2046     		mov	r0, r4
 471 0134 FFF7FEFF 		bl	test_println
 472              	.LVL35:
 473              		.loc 1 142 0
 474 0138 40F20000 		movw	r0, #:lower16:.LC13
 475 013c C0F20000 		movt	r0, #:upper16:.LC13
 476 0140 FFF7FEFF 		bl	test_print
 477              	.LVL36:
 478              		.loc 1 143 0
 479 0144 2846     		mov	r0, r5
 480 0146 FFF7FEFF 		bl	test_printn
 481              	.LVL37:
 482              		.loc 1 144 0
 483 014a 2046     		mov	r0, r4
 484 014c FFF7FEFF 		bl	test_println
 485              	.LVL38:
 486              		.loc 1 145 0
 487 0150 40F20000 		movw	r0, #:lower16:.LC14
 488 0154 C0F20000 		movt	r0, #:upper16:.LC14
 489 0158 FFF7FEFF 		bl	test_print
 490              	.LVL39:
 491              		.loc 1 146 0
 492 015c 0020     		movs	r0, #0
 493 015e FFF7FEFF 		bl	test_printn
 494              	.LVL40:
 495              		.loc 1 147 0
 496 0162 2046     		mov	r0, r4
 497 0164 FFF7FEFF 		bl	test_println
 498              	.LVL41:
 499              		.loc 1 148 0
 500 0168 40F20000 		movw	r0, #:lower16:.LC15
 501 016c C0F20000 		movt	r0, #:upper16:.LC15
 502 0170 FFF7FEFF 		bl	test_print
 503              	.LVL42:
 504              		.loc 1 149 0
 505 0174 2846     		mov	r0, r5
 506 0176 FFF7FEFF 		bl	test_printn
 507              	.LVL43:
 508              		.loc 1 150 0
 509 017a 2046     		mov	r0, r4
 510 017c FFF7FEFF 		bl	test_println
 511              	.LVL44:
 512              		.loc 1 151 0
 513 0180 40F20000 		movw	r0, #:lower16:.LC16
 514 0184 C0F20000 		movt	r0, #:upper16:.LC16
 515 0188 FFF7FEFF 		bl	test_print
 516              	.LVL45:
 517              		.loc 1 152 0
 518 018c 2846     		mov	r0, r5
 519 018e FFF7FEFF 		bl	test_printn
 520              	.LVL46:
 521              		.loc 1 153 0
ARM GAS  /tmp/cc5xPaTF.s 			page 26


 522 0192 2046     		mov	r0, r4
 523 0194 FFF7FEFF 		bl	test_println
 524              	.LVL47:
 525              		.loc 1 154 0
 526 0198 40F20000 		movw	r0, #:lower16:.LC17
 527 019c C0F20000 		movt	r0, #:upper16:.LC17
 528 01a0 FFF7FEFF 		bl	test_print
 529              	.LVL48:
 530              		.loc 1 155 0
 531 01a4 2846     		mov	r0, r5
 532 01a6 FFF7FEFF 		bl	test_printn
 533              	.LVL49:
 534              		.loc 1 156 0
 535 01aa 2046     		mov	r0, r4
 536 01ac FFF7FEFF 		bl	test_println
 537              	.LVL50:
 538              		.loc 1 157 0
 539 01b0 40F20000 		movw	r0, #:lower16:.LC18
 540 01b4 C0F20000 		movt	r0, #:upper16:.LC18
 541 01b8 FFF7FEFF 		bl	test_print
 542              	.LVL51:
 543              		.loc 1 158 0
 544 01bc 2846     		mov	r0, r5
 545 01be FFF7FEFF 		bl	test_printn
 546              	.LVL52:
 547              		.loc 1 159 0
 548 01c2 2046     		mov	r0, r4
 549 01c4 FFF7FEFF 		bl	test_println
 550              	.LVL53:
 551              		.loc 1 160 0
 552 01c8 40F20000 		movw	r0, #:lower16:.LC19
 553 01cc C0F20000 		movt	r0, #:upper16:.LC19
 554 01d0 FFF7FEFF 		bl	test_print
 555              	.LVL54:
 556              		.loc 1 161 0
 557 01d4 2846     		mov	r0, r5
 558 01d6 FFF7FEFF 		bl	test_printn
 559              	.LVL55:
 560              		.loc 1 162 0
 561 01da 2046     		mov	r0, r4
 562 01dc FFF7FEFF 		bl	test_println
 563              	.LVL56:
 564              		.loc 1 163 0
 565 01e0 40F20000 		movw	r0, #:lower16:.LC20
 566 01e4 C0F20000 		movt	r0, #:upper16:.LC20
 567 01e8 FFF7FEFF 		bl	test_print
 568              	.LVL57:
 569              		.loc 1 164 0
 570 01ec 0020     		movs	r0, #0
 571 01ee FFF7FEFF 		bl	test_printn
 572              	.LVL58:
 573              		.loc 1 165 0
 574 01f2 2046     		mov	r0, r4
 575 01f4 FFF7FEFF 		bl	test_println
 576              	.LVL59:
 577              		.loc 1 166 0
 578 01f8 40F20000 		movw	r0, #:lower16:.LC21
ARM GAS  /tmp/cc5xPaTF.s 			page 27


 579 01fc C0F20000 		movt	r0, #:upper16:.LC21
 580 0200 FFF7FEFF 		bl	test_print
 581              	.LVL60:
 582              		.loc 1 167 0
 583 0204 2846     		mov	r0, r5
 584 0206 FFF7FEFF 		bl	test_printn
 585              	.LVL61:
 586              		.loc 1 168 0
 587 020a 2046     		mov	r0, r4
 588 020c FFF7FEFF 		bl	test_println
 589              	.LVL62:
 590              		.loc 1 169 0
 591 0210 40F20000 		movw	r0, #:lower16:.LC22
 592 0214 C0F20000 		movt	r0, #:upper16:.LC22
 593 0218 FFF7FEFF 		bl	test_print
 594              	.LVL63:
 595              		.loc 1 170 0
 596 021c 2846     		mov	r0, r5
 597 021e FFF7FEFF 		bl	test_printn
 598              	.LVL64:
 599              		.loc 1 171 0
 600 0222 2046     		mov	r0, r4
 601 0224 FFF7FEFF 		bl	test_println
 602              	.LVL65:
 603              		.loc 1 172 0
 604 0228 40F20000 		movw	r0, #:lower16:.LC23
 605 022c C0F20000 		movt	r0, #:upper16:.LC23
 606 0230 FFF7FEFF 		bl	test_print
 607              	.LVL66:
 608              		.loc 1 173 0
 609 0234 2846     		mov	r0, r5
 610 0236 FFF7FEFF 		bl	test_printn
 611              	.LVL67:
 612              		.loc 1 174 0
 613 023a 2046     		mov	r0, r4
 614 023c FFF7FEFF 		bl	test_println
 615              	.LVL68:
 616              		.loc 1 175 0
 617 0240 40F20000 		movw	r0, #:lower16:.LC24
 618 0244 C0F20000 		movt	r0, #:upper16:.LC24
 619 0248 FFF7FEFF 		bl	test_print
 620              	.LVL69:
 621              		.loc 1 176 0
 622 024c 2846     		mov	r0, r5
 623 024e FFF7FEFF 		bl	test_printn
 624              	.LVL70:
 625              		.loc 1 177 0
 626 0252 2046     		mov	r0, r4
 627 0254 FFF7FEFF 		bl	test_println
 628              	.LVL71:
 629              		.loc 1 178 0
 630 0258 40F20000 		movw	r0, #:lower16:.LC25
 631 025c C0F20000 		movt	r0, #:upper16:.LC25
 632 0260 FFF7FEFF 		bl	test_print
 633              	.LVL72:
 634              		.loc 1 179 0
 635 0264 2846     		mov	r0, r5
ARM GAS  /tmp/cc5xPaTF.s 			page 28


 636 0266 FFF7FEFF 		bl	test_printn
 637              	.LVL73:
 638              		.loc 1 180 0
 639 026a 2046     		mov	r0, r4
 640 026c FFF7FEFF 		bl	test_println
 641              	.LVL74:
 642              		.loc 1 181 0
 643 0270 40F20000 		movw	r0, #:lower16:.LC26
 644 0274 C0F20000 		movt	r0, #:upper16:.LC26
 645 0278 FFF7FEFF 		bl	test_print
 646              	.LVL75:
 647              		.loc 1 182 0
 648 027c 0020     		movs	r0, #0
 649 027e FFF7FEFF 		bl	test_printn
 650              	.LVL76:
 651              		.loc 1 183 0
 652 0282 2046     		mov	r0, r4
 653 0284 FFF7FEFF 		bl	test_println
 654              	.LVL77:
 655              		.loc 1 184 0
 656 0288 40F20000 		movw	r0, #:lower16:.LC27
 657 028c C0F20000 		movt	r0, #:upper16:.LC27
 658 0290 FFF7FEFF 		bl	test_print
 659              	.LVL78:
 660              		.loc 1 185 0
 661 0294 0020     		movs	r0, #0
 662 0296 FFF7FEFF 		bl	test_printn
 663              	.LVL79:
 664              		.loc 1 186 0
 665 029a 2046     		mov	r0, r4
 666 029c FFF7FEFF 		bl	test_println
 667              	.LVL80:
 668              		.loc 1 187 0
 669 02a0 40F20000 		movw	r0, #:lower16:.LC28
 670 02a4 C0F20000 		movt	r0, #:upper16:.LC28
 671 02a8 FFF7FEFF 		bl	test_print
 672              	.LVL81:
 673              		.loc 1 188 0
 674 02ac 0020     		movs	r0, #0
 675 02ae FFF7FEFF 		bl	test_printn
 676              	.LVL82:
 677              		.loc 1 189 0
 678 02b2 2046     		mov	r0, r4
 679 02b4 FFF7FEFF 		bl	test_println
 680              	.LVL83:
 681              		.loc 1 190 0
 682 02b8 40F20000 		movw	r0, #:lower16:.LC29
 683 02bc C0F20000 		movt	r0, #:upper16:.LC29
 684 02c0 FFF7FEFF 		bl	test_print
 685              	.LVL84:
 686              		.loc 1 191 0
 687 02c4 0020     		movs	r0, #0
 688 02c6 FFF7FEFF 		bl	test_printn
 689              	.LVL85:
 690              		.loc 1 192 0
 691 02ca 2046     		mov	r0, r4
 692 02cc FFF7FEFF 		bl	test_println
ARM GAS  /tmp/cc5xPaTF.s 			page 29


 693              	.LVL86:
 694              		.loc 1 193 0
 695 02d0 40F20000 		movw	r0, #:lower16:.LC30
 696 02d4 C0F20000 		movt	r0, #:upper16:.LC30
 697 02d8 FFF7FEFF 		bl	test_print
 698              	.LVL87:
 699              		.loc 1 194 0
 700 02dc FF20     		movs	r0, #255
 701 02de FFF7FEFF 		bl	test_printn
 702              	.LVL88:
 703              		.loc 1 195 0
 704 02e2 2046     		mov	r0, r4
 705 02e4 FFF7FEFF 		bl	test_println
 706              	.LVL89:
 707              		.loc 1 196 0
 708 02e8 40F20000 		movw	r0, #:lower16:.LC31
 709 02ec C0F20000 		movt	r0, #:upper16:.LC31
 710 02f0 FFF7FEFF 		bl	test_print
 711              	.LVL90:
 712              		.loc 1 197 0
 713 02f4 8020     		movs	r0, #128
 714 02f6 FFF7FEFF 		bl	test_printn
 715              	.LVL91:
 716              		.loc 1 198 0
 717 02fa 2046     		mov	r0, r4
 718 02fc FFF7FEFF 		bl	test_println
 719              	.LVL92:
 720              		.loc 1 199 0
 721 0300 40F20000 		movw	r0, #:lower16:.LC32
 722 0304 C0F20000 		movt	r0, #:upper16:.LC32
 723 0308 FFF7FEFF 		bl	test_print
 724              	.LVL93:
 725              		.loc 1 200 0
 726 030c 0020     		movs	r0, #0
 727 030e FFF7FEFF 		bl	test_printn
 728              	.LVL94:
 729              		.loc 1 201 0
 730 0312 2046     		mov	r0, r4
 731 0314 FFF7FEFF 		bl	test_println
 732              	.LVL95:
 733              		.loc 1 202 0
 734 0318 40F20000 		movw	r0, #:lower16:.LC33
 735 031c C0F20000 		movt	r0, #:upper16:.LC33
 736 0320 FFF7FEFF 		bl	test_print
 737              	.LVL96:
 738              		.loc 1 203 0
 739 0324 0020     		movs	r0, #0
 740 0326 FFF7FEFF 		bl	test_printn
 741              	.LVL97:
 742              		.loc 1 204 0
 743 032a 2046     		mov	r0, r4
 744 032c FFF7FEFF 		bl	test_println
 745              	.LVL98:
 746              		.loc 1 205 0
 747 0330 40F20000 		movw	r0, #:lower16:.LC34
 748 0334 C0F20000 		movt	r0, #:upper16:.LC34
 749 0338 FFF7FEFF 		bl	test_print
ARM GAS  /tmp/cc5xPaTF.s 			page 30


 750              	.LVL99:
 751              		.loc 1 206 0
 752 033c 0020     		movs	r0, #0
 753 033e FFF7FEFF 		bl	test_printn
 754              	.LVL100:
 755              		.loc 1 207 0
 756 0342 2046     		mov	r0, r4
 757              		.loc 1 209 0
 758 0344 BDE83840 		pop	{r3, r4, r5, lr}
 759              		.loc 1 207 0
 760 0348 FFF7FEBF 		b	test_println
 761              	.LVL101:
 762              		.cfi_endproc
 763              	.LFE220:
 764              		.size	test_001_002_execute, .-test_001_002_execute
 765 034c AFF30080 		.section	.text.test_001_001_execute,"ax",%progbits
 766              		.align	2
 767              		.p2align 4,,15
 768              		.thumb
 769              		.thumb_func
 770              		.type	test_001_001_execute, %function
 771              	test_001_001_execute:
 772              	.LFB219:
 773              		.loc 1 60 0
 774              		.cfi_startproc
 775              		@ args = 0, pretend = 0, frame = 0
 776              		@ frame_needed = 0, uses_anonymous_args = 0
 777 0000 38B5     		push	{r3, r4, r5, lr}
 778              		.cfi_def_cfa_offset 16
 779              		.cfi_offset 3, -16
 780              		.cfi_offset 4, -12
 781              		.cfi_offset 5, -8
 782              		.cfi_offset 14, -4
 783              		.loc 1 65 0
 784 0002 40F20000 		movw	r0, #:lower16:.LC35
 785              		.loc 1 63 0
 786 0006 40F20003 		movw	r3, #:lower16:test_step
 787 000a C0F20003 		movt	r3, #:upper16:test_step
 788 000e 0125     		movs	r5, #1
 789              		.loc 1 65 0
 790 0010 C0F20000 		movt	r0, #:upper16:.LC35
 791              		.loc 1 63 0
 792 0014 1D60     		str	r5, [r3]
 793              		.loc 1 65 0
 794 0016 FFF7FEFF 		bl	test_println
 795              	.LVL102:
 796              		.loc 1 66 0
 797 001a 40F20000 		movw	r0, #:lower16:.LC36
 798 001e C0F20000 		movt	r0, #:upper16:.LC36
 799              		.loc 1 68 0
 800 0022 40F20004 		movw	r4, #:lower16:.LC1
 801 0026 C0F20004 		movt	r4, #:upper16:.LC1
 802              		.loc 1 66 0
 803 002a FFF7FEFF 		bl	test_print
 804              	.LVL103:
 805              		.loc 1 67 0
 806 002e 2846     		mov	r0, r5
ARM GAS  /tmp/cc5xPaTF.s 			page 31


 807 0030 FFF7FEFF 		bl	test_printn
 808              	.LVL104:
 809              		.loc 1 68 0
 810 0034 2046     		mov	r0, r4
 811 0036 FFF7FEFF 		bl	test_println
 812              	.LVL105:
 813              		.loc 1 69 0
 814 003a 40F20000 		movw	r0, #:lower16:.LC37
 815 003e C0F20000 		movt	r0, #:upper16:.LC37
 816 0042 FFF7FEFF 		bl	test_print
 817              	.LVL106:
 818              		.loc 1 70 0
 819 0046 40F20000 		movw	r0, #:lower16:.LC38
 820 004a C0F20000 		movt	r0, #:upper16:.LC38
 821 004e FFF7FEFF 		bl	test_println
 822              	.LVL107:
 823              		.loc 1 71 0
 824 0052 40F20000 		movw	r0, #:lower16:.LC39
 825 0056 C0F20000 		movt	r0, #:upper16:.LC39
 826 005a FFF7FEFF 		bl	test_print
 827              	.LVL108:
 828              		.loc 1 72 0
 829 005e 0420     		movs	r0, #4
 830 0060 FFF7FEFF 		bl	test_printn
 831              	.LVL109:
 832              		.loc 1 73 0
 833 0064 2046     		mov	r0, r4
 834 0066 FFF7FEFF 		bl	test_println
 835              	.LVL110:
 836              		.loc 1 74 0
 837 006a 40F20000 		movw	r0, #:lower16:.LC40
 838 006e C0F20000 		movt	r0, #:upper16:.LC40
 839 0072 FFF7FEFF 		bl	test_print
 840              	.LVL111:
 841              		.loc 1 75 0
 842 0076 0020     		movs	r0, #0
 843 0078 FFF7FEFF 		bl	test_printn
 844              	.LVL112:
 845              		.loc 1 76 0
 846 007c 2046     		mov	r0, r4
 847 007e FFF7FEFF 		bl	test_println
 848              	.LVL113:
 849              		.loc 1 77 0
 850 0082 40F20000 		movw	r0, #:lower16:.LC41
 851 0086 C0F20000 		movt	r0, #:upper16:.LC41
 852 008a FFF7FEFF 		bl	test_print
 853              	.LVL114:
 854              		.loc 1 78 0
 855 008e 0220     		movs	r0, #2
 856 0090 FFF7FEFF 		bl	test_printn
 857              	.LVL115:
 858              		.loc 1 79 0
 859 0094 2046     		mov	r0, r4
 860              		.loc 1 81 0
 861 0096 BDE83840 		pop	{r3, r4, r5, lr}
 862              		.loc 1 79 0
 863 009a FFF7FEBF 		b	test_println
ARM GAS  /tmp/cc5xPaTF.s 			page 32


 864              	.LVL116:
 865              		.cfi_endproc
 866              	.LFE219:
 867              		.size	test_001_001_execute, .-test_001_001_execute
 868              		.global	test_sequence_001
 869 009e 00BF     		.section	.rodata.test_sequence_001,"a",%progbits
 870              		.align	2
 871              		.type	test_sequence_001, %object
 872              		.size	test_sequence_001, 12
 873              	test_sequence_001:
 874 0000 00000000 		.word	test_001_001
 875 0004 00000000 		.word	test_001_002
 876 0008 00000000 		.word	0
 877              		.section	.rodata.test_001_001,"a",%progbits
 878              		.align	2
 879              		.type	test_001_001, %object
 880              		.size	test_001_001, 16
 881              	test_001_001:
 882 0000 28050000 		.word	.LC43
 883 0004 00000000 		.word	0
 884 0008 00000000 		.word	0
 885 000c 00000000 		.word	test_001_001_execute
 886              		.section	.rodata.test_001_002,"a",%progbits
 887              		.align	2
 888              		.type	test_001_002, %object
 889              		.size	test_001_002, 16
 890              	test_001_002:
 891 0000 18050000 		.word	.LC42
 892 0004 00000000 		.word	0
 893 0008 00000000 		.word	0
 894 000c 00000000 		.word	test_001_002_execute
 895              		.section	.rodata.str1.4,"aMS",%progbits,1
 896              		.align	2
 897              	.LC0:
 898 0000 2D2D2D20 		.ascii	"--- CH_CFG_ST_RESOLUTION:      \000"
 898      43485F43 
 898      46475F53 
 898      545F5245 
 898      534F4C55 
 899              	.LC1:
 900 0020 00       		.ascii	"\000"
 901 0021 000000   		.space	3
 902              	.LC2:
 903 0024 2D2D2D20 		.ascii	"--- CH_CFG_ST_FREQUENCY:       \000"
 903      43485F43 
 903      46475F53 
 903      545F4652 
 903      45515545 
 904              	.LC3:
 905 0044 2D2D2D20 		.ascii	"--- CH_CFG_ST_TIMEDELTA:       \000"
 905      43485F43 
 905      46475F53 
 905      545F5449 
 905      4D454445 
 906              	.LC4:
 907 0064 2D2D2D20 		.ascii	"--- CH_CFG_TIME_QUANTUM:       \000"
 907      43485F43 
ARM GAS  /tmp/cc5xPaTF.s 			page 33


 907      46475F54 
 907      494D455F 
 907      5155414E 
 908              	.LC5:
 909 0084 2D2D2D20 		.ascii	"--- CH_CFG_MEMCORE_SIZE:       \000"
 909      43485F43 
 909      46475F4D 
 909      454D434F 
 909      52455F53 
 910              	.LC6:
 911 00a4 2D2D2D20 		.ascii	"--- CH_CFG_NO_IDLE_THREAD:     \000"
 911      43485F43 
 911      46475F4E 
 911      4F5F4944 
 911      4C455F54 
 912              	.LC7:
 913 00c4 2D2D2D20 		.ascii	"--- CH_CFG_OPTIMIZE_SPEED:     \000"
 913      43485F43 
 913      46475F4F 
 913      5054494D 
 913      495A455F 
 914              	.LC8:
 915 00e4 2D2D2D20 		.ascii	"--- CH_CFG_USE_TM:             \000"
 915      43485F43 
 915      46475F55 
 915      53455F54 
 915      4D3A2020 
 916              	.LC9:
 917 0104 2D2D2D20 		.ascii	"--- CH_CFG_USE_REGISTRY:       \000"
 917      43485F43 
 917      46475F55 
 917      53455F52 
 917      45474953 
 918              	.LC10:
 919 0124 2D2D2D20 		.ascii	"--- CH_CFG_USE_WAITEXIT:       \000"
 919      43485F43 
 919      46475F55 
 919      53455F57 
 919      41495445 
 920              	.LC11:
 921 0144 2D2D2D20 		.ascii	"--- CH_CFG_USE_SEMAPHORES:     \000"
 921      43485F43 
 921      46475F55 
 921      53455F53 
 921      454D4150 
 922              	.LC12:
 923 0164 2D2D2D20 		.ascii	"--- CH_CFG_USE_SEMAPHORES_PRI: \000"
 923      43485F43 
 923      46475F55 
 923      53455F53 
 923      454D4150 
 924              	.LC13:
 925 0184 2D2D2D20 		.ascii	"--- CH_CFG_USE_MUTEXES:        \000"
 925      43485F43 
 925      46475F55 
 925      53455F4D 
 925      55544558 
ARM GAS  /tmp/cc5xPaTF.s 			page 34


 926              	.LC14:
 927 01a4 2D2D2D20 		.ascii	"--- CH_CFG_USE_MUTEXES_RECURS: \000"
 927      43485F43 
 927      46475F55 
 927      53455F4D 
 927      55544558 
 928              	.LC15:
 929 01c4 2D2D2D20 		.ascii	"--- CH_CFG_USE_CONDVARS:       \000"
 929      43485F43 
 929      46475F55 
 929      53455F43 
 929      4F4E4456 
 930              	.LC16:
 931 01e4 2D2D2D20 		.ascii	"--- CH_CFG_USE_CONDVARS_TIMEO: \000"
 931      43485F43 
 931      46475F55 
 931      53455F43 
 931      4F4E4456 
 932              	.LC17:
 933 0204 2D2D2D20 		.ascii	"--- CH_CFG_USE_EVENTS:         \000"
 933      43485F43 
 933      46475F55 
 933      53455F45 
 933      56454E54 
 934              	.LC18:
 935 0224 2D2D2D20 		.ascii	"--- CH_CFG_USE_EVENTS_TIMEOUT: \000"
 935      43485F43 
 935      46475F55 
 935      53455F45 
 935      56454E54 
 936              	.LC19:
 937 0244 2D2D2D20 		.ascii	"--- CH_CFG_USE_MESSAGES:       \000"
 937      43485F43 
 937      46475F55 
 937      53455F4D 
 937      45535341 
 938              	.LC20:
 939 0264 2D2D2D20 		.ascii	"--- CH_CFG_USE_MESSAGES_PRI:   \000"
 939      43485F43 
 939      46475F55 
 939      53455F4D 
 939      45535341 
 940              	.LC21:
 941 0284 2D2D2D20 		.ascii	"--- CH_CFG_USE_MAILBOXES:      \000"
 941      43485F43 
 941      46475F55 
 941      53455F4D 
 941      41494C42 
 942              	.LC22:
 943 02a4 2D2D2D20 		.ascii	"--- CH_CFG_USE_MEMCORE:        \000"
 943      43485F43 
 943      46475F55 
 943      53455F4D 
 943      454D434F 
 944              	.LC23:
 945 02c4 2D2D2D20 		.ascii	"--- CH_CFG_USE_HEAP:           \000"
 945      43485F43 
ARM GAS  /tmp/cc5xPaTF.s 			page 35


 945      46475F55 
 945      53455F48 
 945      4541503A 
 946              	.LC24:
 947 02e4 2D2D2D20 		.ascii	"--- CH_CFG_USE_MEMPOOLS:       \000"
 947      43485F43 
 947      46475F55 
 947      53455F4D 
 947      454D504F 
 948              	.LC25:
 949 0304 2D2D2D20 		.ascii	"--- CH_CFG_USE_DYNAMIC:        \000"
 949      43485F43 
 949      46475F55 
 949      53455F44 
 949      594E414D 
 950              	.LC26:
 951 0324 2D2D2D20 		.ascii	"--- CH_DBG_STATISTICS:         \000"
 951      43485F44 
 951      42475F53 
 951      54415449 
 951      53544943 
 952              	.LC27:
 953 0344 2D2D2D20 		.ascii	"--- CH_DBG_SYSTEM_STATE_CHECK: \000"
 953      43485F44 
 953      42475F53 
 953      59535445 
 953      4D5F5354 
 954              	.LC28:
 955 0364 2D2D2D20 		.ascii	"--- CH_DBG_ENABLE_CHECKS:      \000"
 955      43485F44 
 955      42475F45 
 955      4E41424C 
 955      455F4348 
 956              	.LC29:
 957 0384 2D2D2D20 		.ascii	"--- CH_DBG_ENABLE_ASSERTS:     \000"
 957      43485F44 
 957      42475F45 
 957      4E41424C 
 957      455F4153 
 958              	.LC30:
 959 03a4 2D2D2D20 		.ascii	"--- CH_DBG_TRACE_MASK:         \000"
 959      43485F44 
 959      42475F54 
 959      52414345 
 959      5F4D4153 
 960              	.LC31:
 961 03c4 2D2D2D20 		.ascii	"--- CH_DBG_TRACE_BUFFER_SIZE:  \000"
 961      43485F44 
 961      42475F54 
 961      52414345 
 961      5F425546 
 962              	.LC32:
 963 03e4 2D2D2D20 		.ascii	"--- CH_DBG_ENABLE_STACK_CHECK: \000"
 963      43485F44 
 963      42475F45 
 963      4E41424C 
 963      455F5354 
ARM GAS  /tmp/cc5xPaTF.s 			page 36


 964              	.LC33:
 965 0404 2D2D2D20 		.ascii	"--- CH_DBG_FILL_THREADS:       \000"
 965      43485F44 
 965      42475F46 
 965      494C4C5F 
 965      54485245 
 966              	.LC34:
 967 0424 2D2D2D20 		.ascii	"--- CH_DBG_THREADS_PROFILING:  \000"
 967      43485F44 
 967      42475F54 
 967      48524541 
 967      44535F50 
 968              	.LC35:
 969 0444 2D2D2D20 		.ascii	"--- Product:                   ChibiOS/RT\000"
 969      50726F64 
 969      7563743A 
 969      20202020 
 969      20202020 
 970 046e 0000     		.space	2
 971              	.LC36:
 972 0470 2D2D2D20 		.ascii	"--- Stable Flag:               \000"
 972      53746162 
 972      6C652046 
 972      6C61673A 
 972      20202020 
 973              	.LC37:
 974 0490 2D2D2D20 		.ascii	"--- Version String:            \000"
 974      56657273 
 974      696F6E20 
 974      53747269 
 974      6E673A20 
 975              	.LC38:
 976 04b0 342E302E 		.ascii	"4.0.2\000"
 976      3200
 977 04b6 0000     		.space	2
 978              	.LC39:
 979 04b8 2D2D2D20 		.ascii	"--- Major Number:              \000"
 979      4D616A6F 
 979      72204E75 
 979      6D626572 
 979      3A202020 
 980              	.LC40:
 981 04d8 2D2D2D20 		.ascii	"--- Minor Number:              \000"
 981      4D696E6F 
 981      72204E75 
 981      6D626572 
 981      3A202020 
 982              	.LC41:
 983 04f8 2D2D2D20 		.ascii	"--- Patch Number:              \000"
 983      50617463 
 983      68204E75 
 983      6D626572 
 983      3A202020 
 984              	.LC42:
 985 0518 4B65726E 		.ascii	"Kernel Settings\000"
 985      656C2053 
 985      65747469 
ARM GAS  /tmp/cc5xPaTF.s 			page 37


 985      6E677300 
 986              	.LC43:
 987 0528 4B65726E 		.ascii	"Kernel Info\000"
 987      656C2049 
 987      6E666F00 
 988              		.text
 989              	.Letext0:
 990              		.file 2 "/home/otto/MentorGraphics/Sourcery_CodeBench_Lite_for_ARM_EABI/lib/gcc/arm-none-eabi/4.8.
 991              		.file 3 "/home/otto/MentorGraphics/Sourcery_CodeBench_Lite_for_ARM_EABI/arm-none-eabi/include/stdi
 992              		.file 4 "../../../os/common/ports/ARMCMx/compilers/GCC/chtypes.h"
 993              		.file 5 "../../../os/rt/include/chsystypes.h"
 994              		.file 6 "../../../os/rt/include/chschd.h"
 995              		.file 7 "../../../os/common/ports/ARMCMx/chcore.h"
 996              		.file 8 "../../../os/common/ports/ARMCMx/chcore_v7m.h"
 997              		.file 9 "../../../os/rt/include/chsem.h"
 998              		.file 10 "../../../os/rt/include/chmtx.h"
 999              		.file 11 "../../../test/lib/ch_test.h"
 1000              		.file 12 "../../../os/common/ext/CMSIS/include/core_cm3.h"
 1001              		.section	.debug_info,"",%progbits
 1002              	.Ldebug_info0:
 1003 0000 57100000 		.4byte	0x1057
 1004 0004 0400     		.2byte	0x4
 1005 0006 00000000 		.4byte	.Ldebug_abbrev0
 1006 000a 04       		.byte	0x4
 1007 000b 01       		.uleb128 0x1
 1008 000c 66020000 		.4byte	.LASF98
 1009 0010 01       		.byte	0x1
 1010 0011 C5030000 		.4byte	.LASF99
 1011 0015 80010000 		.4byte	.LASF100
 1012 0019 00000000 		.4byte	.Ldebug_ranges0+0
 1013 001d 00000000 		.4byte	0
 1014 0021 00000000 		.4byte	.Ldebug_line0
 1015 0025 02       		.uleb128 0x2
 1016 0026 04       		.byte	0x4
 1017 0027 05       		.byte	0x5
 1018 0028 696E7400 		.ascii	"int\000"
 1019 002c 03       		.uleb128 0x3
 1020 002d 75000000 		.4byte	.LASF2
 1021 0031 02       		.byte	0x2
 1022 0032 D4       		.byte	0xd4
 1023 0033 37000000 		.4byte	0x37
 1024 0037 04       		.uleb128 0x4
 1025 0038 04       		.byte	0x4
 1026 0039 07       		.byte	0x7
 1027 003a 2B030000 		.4byte	.LASF0
 1028 003e 04       		.uleb128 0x4
 1029 003f 01       		.byte	0x1
 1030 0040 06       		.byte	0x6
 1031 0041 10030000 		.4byte	.LASF1
 1032 0045 03       		.uleb128 0x3
 1033 0046 23010000 		.4byte	.LASF3
 1034 004a 03       		.byte	0x3
 1035 004b 2A       		.byte	0x2a
 1036 004c 50000000 		.4byte	0x50
 1037 0050 04       		.uleb128 0x4
 1038 0051 01       		.byte	0x1
 1039 0052 08       		.byte	0x8
ARM GAS  /tmp/cc5xPaTF.s 			page 38


 1040 0053 52020000 		.4byte	.LASF4
 1041 0057 04       		.uleb128 0x4
 1042 0058 02       		.byte	0x2
 1043 0059 05       		.byte	0x5
 1044 005a 6B000000 		.4byte	.LASF5
 1045 005e 03       		.uleb128 0x3
 1046 005f 38030000 		.4byte	.LASF6
 1047 0063 03       		.byte	0x3
 1048 0064 36       		.byte	0x36
 1049 0065 69000000 		.4byte	0x69
 1050 0069 04       		.uleb128 0x4
 1051 006a 02       		.byte	0x2
 1052 006b 07       		.byte	0x7
 1053 006c 67030000 		.4byte	.LASF7
 1054 0070 03       		.uleb128 0x3
 1055 0071 A8030000 		.4byte	.LASF8
 1056 0075 03       		.byte	0x3
 1057 0076 4F       		.byte	0x4f
 1058 0077 7B000000 		.4byte	0x7b
 1059 007b 04       		.uleb128 0x4
 1060 007c 04       		.byte	0x4
 1061 007d 05       		.byte	0x5
 1062 007e E6010000 		.4byte	.LASF9
 1063 0082 03       		.uleb128 0x3
 1064 0083 22030000 		.4byte	.LASF10
 1065 0087 03       		.byte	0x3
 1066 0088 50       		.byte	0x50
 1067 0089 8D000000 		.4byte	0x8d
 1068 008d 04       		.uleb128 0x4
 1069 008e 04       		.byte	0x4
 1070 008f 07       		.byte	0x7
 1071 0090 23040000 		.4byte	.LASF11
 1072 0094 04       		.uleb128 0x4
 1073 0095 08       		.byte	0x8
 1074 0096 05       		.byte	0x5
 1075 0097 72010000 		.4byte	.LASF12
 1076 009b 03       		.uleb128 0x3
 1077 009c 57000000 		.4byte	.LASF13
 1078 00a0 03       		.byte	0x3
 1079 00a1 78       		.byte	0x78
 1080 00a2 A6000000 		.4byte	0xa6
 1081 00a6 04       		.uleb128 0x4
 1082 00a7 08       		.byte	0x8
 1083 00a8 07       		.byte	0x7
 1084 00a9 94000000 		.4byte	.LASF14
 1085 00ad 03       		.uleb128 0x3
 1086 00ae E0000000 		.4byte	.LASF15
 1087 00b2 04       		.byte	0x4
 1088 00b3 3C       		.byte	0x3c
 1089 00b4 45000000 		.4byte	0x45
 1090 00b8 03       		.uleb128 0x3
 1091 00b9 1A040000 		.4byte	.LASF16
 1092 00bd 04       		.byte	0x4
 1093 00be 3D       		.byte	0x3d
 1094 00bf 45000000 		.4byte	0x45
 1095 00c3 03       		.uleb128 0x3
 1096 00c4 09000000 		.4byte	.LASF17
ARM GAS  /tmp/cc5xPaTF.s 			page 39


 1097 00c8 04       		.byte	0x4
 1098 00c9 3E       		.byte	0x3e
 1099 00ca 45000000 		.4byte	0x45
 1100 00ce 03       		.uleb128 0x3
 1101 00cf DE010000 		.4byte	.LASF18
 1102 00d3 04       		.byte	0x4
 1103 00d4 40       		.byte	0x40
 1104 00d5 82000000 		.4byte	0x82
 1105 00d9 03       		.uleb128 0x3
 1106 00da 11050000 		.4byte	.LASF19
 1107 00de 04       		.byte	0x4
 1108 00df 41       		.byte	0x41
 1109 00e0 70000000 		.4byte	0x70
 1110 00e4 03       		.uleb128 0x3
 1111 00e5 D4000000 		.4byte	.LASF20
 1112 00e9 04       		.byte	0x4
 1113 00ea 43       		.byte	0x43
 1114 00eb 82000000 		.4byte	0x82
 1115 00ef 03       		.uleb128 0x3
 1116 00f0 B0030000 		.4byte	.LASF21
 1117 00f4 04       		.byte	0x4
 1118 00f5 45       		.byte	0x45
 1119 00f6 70000000 		.4byte	0x70
 1120 00fa 03       		.uleb128 0x3
 1121 00fb 7A030000 		.4byte	.LASF22
 1122 00ff 05       		.byte	0x5
 1123 0100 35       		.byte	0x35
 1124 0101 5E000000 		.4byte	0x5e
 1125 0105 03       		.uleb128 0x3
 1126 0106 00000000 		.4byte	.LASF23
 1127 010a 05       		.byte	0x5
 1128 010b 3F       		.byte	0x3f
 1129 010c 10010000 		.4byte	0x110
 1130 0110 05       		.uleb128 0x5
 1131 0111 50010000 		.4byte	.LASF41
 1132 0115 44       		.byte	0x44
 1133 0116 06       		.byte	0x6
 1134 0117 9A       		.byte	0x9a
 1135 0118 EE010000 		.4byte	0x1ee
 1136 011c 06       		.uleb128 0x6
 1137 011d 2D020000 		.4byte	.LASF24
 1138 0121 06       		.byte	0x6
 1139 0122 9B       		.byte	0x9b
 1140 0123 23020000 		.4byte	0x223
 1141 0127 00       		.byte	0
 1142 0128 06       		.uleb128 0x6
 1143 0129 17050000 		.4byte	.LASF25
 1144 012d 06       		.byte	0x6
 1145 012e 9C       		.byte	0x9c
 1146 012f CE000000 		.4byte	0xce
 1147 0133 08       		.byte	0x8
 1148 0134 07       		.uleb128 0x7
 1149 0135 63747800 		.ascii	"ctx\000"
 1150 0139 06       		.byte	0x6
 1151 013a 9D       		.byte	0x9d
 1152 013b 0F040000 		.4byte	0x40f
 1153 013f 0C       		.byte	0xc
ARM GAS  /tmp/cc5xPaTF.s 			page 40


 1154 0140 06       		.uleb128 0x6
 1155 0141 27020000 		.4byte	.LASF26
 1156 0145 06       		.byte	0x6
 1157 0146 9F       		.byte	0x9f
 1158 0147 F9010000 		.4byte	0x1f9
 1159 014b 10       		.byte	0x10
 1160 014c 06       		.uleb128 0x6
 1161 014d 5A010000 		.4byte	.LASF27
 1162 0151 06       		.byte	0x6
 1163 0152 A0       		.byte	0xa0
 1164 0153 F9010000 		.4byte	0x1f9
 1165 0157 14       		.byte	0x14
 1166 0158 06       		.uleb128 0x6
 1167 0159 33020000 		.4byte	.LASF28
 1168 015d 06       		.byte	0x6
 1169 015e A7       		.byte	0xa7
 1170 015f 74050000 		.4byte	0x574
 1171 0163 18       		.byte	0x18
 1172 0164 06       		.uleb128 0x6
 1173 0165 60010000 		.4byte	.LASF29
 1174 0169 06       		.byte	0x6
 1175 016a B0       		.byte	0xb0
 1176 016b 86050000 		.4byte	0x586
 1177 016f 1C       		.byte	0x1c
 1178 0170 06       		.uleb128 0x6
 1179 0171 51000000 		.4byte	.LASF30
 1180 0175 06       		.byte	0x6
 1181 0176 B5       		.byte	0xb5
 1182 0177 B8000000 		.4byte	0xb8
 1183 017b 20       		.byte	0x20
 1184 017c 06       		.uleb128 0x6
 1185 017d 1C030000 		.4byte	.LASF31
 1186 0181 06       		.byte	0x6
 1187 0182 B9       		.byte	0xb9
 1188 0183 AD000000 		.4byte	0xad
 1189 0187 21       		.byte	0x21
 1190 0188 06       		.uleb128 0x6
 1191 0189 00040000 		.4byte	.LASF32
 1192 018d 06       		.byte	0x6
 1193 018e BE       		.byte	0xbe
 1194 018f C3000000 		.4byte	0xc3
 1195 0193 22       		.byte	0x22
 1196 0194 08       		.uleb128 0x8
 1197 0195 7500     		.ascii	"u\000"
 1198 0197 06       		.byte	0x6
 1199 0198 0F01     		.2byte	0x10f
 1200 019a A9040000 		.4byte	0x4a9
 1201 019e 24       		.byte	0x24
 1202 019f 09       		.uleb128 0x9
 1203 01a0 CB040000 		.4byte	.LASF33
 1204 01a4 06       		.byte	0x6
 1205 01a5 1401     		.2byte	0x114
 1206 01a7 FF010000 		.4byte	0x1ff
 1207 01ab 28       		.byte	0x28
 1208 01ac 09       		.uleb128 0x9
 1209 01ad 0B010000 		.4byte	.LASF34
 1210 01b1 06       		.byte	0x6
ARM GAS  /tmp/cc5xPaTF.s 			page 41


 1211 01b2 1A01     		.2byte	0x11a
 1212 01b4 23020000 		.4byte	0x223
 1213 01b8 2C       		.byte	0x2c
 1214 01b9 09       		.uleb128 0x9
 1215 01ba 48000000 		.4byte	.LASF35
 1216 01be 06       		.byte	0x6
 1217 01bf 2001     		.2byte	0x120
 1218 01c1 E4000000 		.4byte	0xe4
 1219 01c5 34       		.byte	0x34
 1220 01c6 09       		.uleb128 0x9
 1221 01c7 78040000 		.4byte	.LASF36
 1222 01cb 06       		.byte	0x6
 1223 01cc 2701     		.2byte	0x127
 1224 01ce 6E050000 		.4byte	0x56e
 1225 01d2 38       		.byte	0x38
 1226 01d3 09       		.uleb128 0x9
 1227 01d4 B6030000 		.4byte	.LASF37
 1228 01d8 06       		.byte	0x6
 1229 01d9 2B01     		.2byte	0x12b
 1230 01db CE000000 		.4byte	0xce
 1231 01df 3C       		.byte	0x3c
 1232 01e0 09       		.uleb128 0x9
 1233 01e1 94040000 		.4byte	.LASF38
 1234 01e5 06       		.byte	0x6
 1235 01e6 3201     		.2byte	0x132
 1236 01e8 D6020000 		.4byte	0x2d6
 1237 01ec 40       		.byte	0x40
 1238 01ed 00       		.byte	0
 1239 01ee 03       		.uleb128 0x3
 1240 01ef 5E040000 		.4byte	.LASF39
 1241 01f3 05       		.byte	0x5
 1242 01f4 44       		.byte	0x44
 1243 01f5 F9010000 		.4byte	0x1f9
 1244 01f9 0A       		.uleb128 0xa
 1245 01fa 04       		.byte	0x4
 1246 01fb 05010000 		.4byte	0x105
 1247 01ff 03       		.uleb128 0x3
 1248 0200 28050000 		.4byte	.LASF40
 1249 0204 05       		.byte	0x5
 1250 0205 49       		.byte	0x49
 1251 0206 0A020000 		.4byte	0x20a
 1252 020a 05       		.uleb128 0x5
 1253 020b E8000000 		.4byte	.LASF42
 1254 020f 04       		.byte	0x4
 1255 0210 06       		.byte	0x6
 1256 0211 88       		.byte	0x88
 1257 0212 23020000 		.4byte	0x223
 1258 0216 06       		.uleb128 0x6
 1259 0217 1C050000 		.4byte	.LASF43
 1260 021b 06       		.byte	0x6
 1261 021c 89       		.byte	0x89
 1262 021d F9010000 		.4byte	0x1f9
 1263 0221 00       		.byte	0
 1264 0222 00       		.byte	0
 1265 0223 03       		.uleb128 0x3
 1266 0224 57030000 		.4byte	.LASF44
 1267 0228 05       		.byte	0x5
ARM GAS  /tmp/cc5xPaTF.s 			page 42


 1268 0229 50       		.byte	0x50
 1269 022a 2E020000 		.4byte	0x22e
 1270 022e 05       		.uleb128 0x5
 1271 022f 2B010000 		.4byte	.LASF45
 1272 0233 08       		.byte	0x8
 1273 0234 06       		.byte	0x6
 1274 0235 8F       		.byte	0x8f
 1275 0236 53020000 		.4byte	0x253
 1276 023a 06       		.uleb128 0x6
 1277 023b 1C050000 		.4byte	.LASF43
 1278 023f 06       		.byte	0x6
 1279 0240 90       		.byte	0x90
 1280 0241 F9010000 		.4byte	0x1f9
 1281 0245 00       		.byte	0
 1282 0246 06       		.uleb128 0x6
 1283 0247 EE040000 		.4byte	.LASF46
 1284 024b 06       		.byte	0x6
 1285 024c 91       		.byte	0x91
 1286 024d F9010000 		.4byte	0x1f9
 1287 0251 04       		.byte	0x4
 1288 0252 00       		.byte	0
 1289 0253 03       		.uleb128 0x3
 1290 0254 A3040000 		.4byte	.LASF47
 1291 0258 05       		.byte	0x5
 1292 0259 57       		.byte	0x57
 1293 025a 5E020000 		.4byte	0x25e
 1294 025e 0B       		.uleb128 0xb
 1295 025f D3040000 		.4byte	.LASF48
 1296 0263 1C       		.byte	0x1c
 1297 0264 06       		.byte	0x6
 1298 0265 6A01     		.2byte	0x16a
 1299 0267 BA020000 		.4byte	0x2ba
 1300 026b 09       		.uleb128 0x9
 1301 026c 2D020000 		.4byte	.LASF24
 1302 0270 06       		.byte	0x6
 1303 0271 6B01     		.2byte	0x16b
 1304 0273 23020000 		.4byte	0x223
 1305 0277 00       		.byte	0
 1306 0278 09       		.uleb128 0x9
 1307 0279 17050000 		.4byte	.LASF25
 1308 027d 06       		.byte	0x6
 1309 027e 6C01     		.2byte	0x16c
 1310 0280 CE000000 		.4byte	0xce
 1311 0284 08       		.byte	0x8
 1312 0285 08       		.uleb128 0x8
 1313 0286 63747800 		.ascii	"ctx\000"
 1314 028a 06       		.byte	0x6
 1315 028b 6E01     		.2byte	0x16e
 1316 028d 0F040000 		.4byte	0x40f
 1317 0291 0C       		.byte	0xc
 1318 0292 09       		.uleb128 0x9
 1319 0293 27020000 		.4byte	.LASF26
 1320 0297 06       		.byte	0x6
 1321 0298 7101     		.2byte	0x171
 1322 029a F9010000 		.4byte	0x1f9
 1323 029e 10       		.byte	0x10
 1324 029f 09       		.uleb128 0x9
ARM GAS  /tmp/cc5xPaTF.s 			page 43


 1325 02a0 5A010000 		.4byte	.LASF27
 1326 02a4 06       		.byte	0x6
 1327 02a5 7201     		.2byte	0x172
 1328 02a7 F9010000 		.4byte	0x1f9
 1329 02ab 14       		.byte	0x14
 1330 02ac 09       		.uleb128 0x9
 1331 02ad C3040000 		.4byte	.LASF49
 1332 02b1 06       		.byte	0x6
 1333 02b2 7501     		.2byte	0x175
 1334 02b4 F9010000 		.4byte	0x1f9
 1335 02b8 18       		.byte	0x18
 1336 02b9 00       		.byte	0
 1337 02ba 03       		.uleb128 0x3
 1338 02bb 9A040000 		.4byte	.LASF50
 1339 02bf 05       		.byte	0x5
 1340 02c0 5C       		.byte	0x5c
 1341 02c1 C5020000 		.4byte	0x2c5
 1342 02c5 0A       		.uleb128 0xa
 1343 02c6 04       		.byte	0x4
 1344 02c7 CB020000 		.4byte	0x2cb
 1345 02cb 0C       		.uleb128 0xc
 1346 02cc D6020000 		.4byte	0x2d6
 1347 02d0 0D       		.uleb128 0xd
 1348 02d1 D6020000 		.4byte	0x2d6
 1349 02d5 00       		.byte	0
 1350 02d6 0E       		.uleb128 0xe
 1351 02d7 04       		.byte	0x4
 1352 02d8 03       		.uleb128 0x3
 1353 02d9 06020000 		.4byte	.LASF51
 1354 02dd 05       		.byte	0x5
 1355 02de 61       		.byte	0x61
 1356 02df E3020000 		.4byte	0x2e3
 1357 02e3 0B       		.uleb128 0xb
 1358 02e4 97030000 		.4byte	.LASF52
 1359 02e8 14       		.byte	0x14
 1360 02e9 06       		.byte	0x6
 1361 02ea 4501     		.2byte	0x145
 1362 02ec 32030000 		.4byte	0x332
 1363 02f0 09       		.uleb128 0x9
 1364 02f1 1C050000 		.4byte	.LASF43
 1365 02f5 06       		.byte	0x6
 1366 02f6 4601     		.2byte	0x146
 1367 02f8 8C050000 		.4byte	0x58c
 1368 02fc 00       		.byte	0
 1369 02fd 09       		.uleb128 0x9
 1370 02fe EE040000 		.4byte	.LASF46
 1371 0302 06       		.byte	0x6
 1372 0303 4701     		.2byte	0x147
 1373 0305 8C050000 		.4byte	0x58c
 1374 0309 04       		.byte	0x4
 1375 030a 09       		.uleb128 0x9
 1376 030b 1D010000 		.4byte	.LASF53
 1377 030f 06       		.byte	0x6
 1378 0310 4801     		.2byte	0x148
 1379 0312 FA000000 		.4byte	0xfa
 1380 0316 08       		.byte	0x8
 1381 0317 09       		.uleb128 0x9
ARM GAS  /tmp/cc5xPaTF.s 			page 44


 1382 0318 6D010000 		.4byte	.LASF54
 1383 031c 06       		.byte	0x6
 1384 031d 4901     		.2byte	0x149
 1385 031f BA020000 		.4byte	0x2ba
 1386 0323 0C       		.byte	0xc
 1387 0324 08       		.uleb128 0x8
 1388 0325 70617200 		.ascii	"par\000"
 1389 0329 06       		.byte	0x6
 1390 032a 4B01     		.2byte	0x14b
 1391 032c D6020000 		.4byte	0x2d6
 1392 0330 10       		.byte	0x10
 1393 0331 00       		.byte	0
 1394 0332 03       		.uleb128 0x3
 1395 0333 41030000 		.4byte	.LASF55
 1396 0337 05       		.byte	0x5
 1397 0338 66       		.byte	0x66
 1398 0339 3D030000 		.4byte	0x33d
 1399 033d 0B       		.uleb128 0xb
 1400 033e F3040000 		.4byte	.LASF56
 1401 0342 0C       		.byte	0xc
 1402 0343 06       		.byte	0x6
 1403 0344 5501     		.2byte	0x155
 1404 0346 7F030000 		.4byte	0x37f
 1405 034a 09       		.uleb128 0x9
 1406 034b 1C050000 		.4byte	.LASF43
 1407 034f 06       		.byte	0x6
 1408 0350 5601     		.2byte	0x156
 1409 0352 8C050000 		.4byte	0x58c
 1410 0356 00       		.byte	0
 1411 0357 09       		.uleb128 0x9
 1412 0358 EE040000 		.4byte	.LASF46
 1413 035c 06       		.byte	0x6
 1414 035d 5801     		.2byte	0x158
 1415 035f 8C050000 		.4byte	0x58c
 1416 0363 04       		.byte	0x4
 1417 0364 09       		.uleb128 0x9
 1418 0365 1D010000 		.4byte	.LASF53
 1419 0369 06       		.byte	0x6
 1420 036a 5A01     		.2byte	0x15a
 1421 036c FA000000 		.4byte	0xfa
 1422 0370 08       		.byte	0x8
 1423 0371 09       		.uleb128 0x9
 1424 0372 05040000 		.4byte	.LASF57
 1425 0376 06       		.byte	0x6
 1426 0377 6201     		.2byte	0x162
 1427 0379 FA000000 		.4byte	0xfa
 1428 037d 0A       		.byte	0xa
 1429 037e 00       		.byte	0
 1430 037f 03       		.uleb128 0x3
 1431 0380 85000000 		.4byte	.LASF58
 1432 0384 05       		.byte	0x5
 1433 0385 6B       		.byte	0x6b
 1434 0386 8A030000 		.4byte	0x38a
 1435 038a 0B       		.uleb128 0xb
 1436 038b 38000000 		.4byte	.LASF59
 1437 038f 04       		.byte	0x4
 1438 0390 06       		.byte	0x6
ARM GAS  /tmp/cc5xPaTF.s 			page 45


 1439 0391 7C01     		.2byte	0x17c
 1440 0393 A5030000 		.4byte	0x3a5
 1441 0397 09       		.uleb128 0x9
 1442 0398 35040000 		.4byte	.LASF60
 1443 039c 06       		.byte	0x6
 1444 039d 8401     		.2byte	0x184
 1445 039f 92050000 		.4byte	0x592
 1446 03a3 00       		.byte	0
 1447 03a4 00       		.byte	0
 1448 03a5 03       		.uleb128 0x3
 1449 03a6 FF000000 		.4byte	.LASF61
 1450 03aa 05       		.byte	0x5
 1451 03ab 70       		.byte	0x70
 1452 03ac B0030000 		.4byte	0x3b0
 1453 03b0 0B       		.uleb128 0xb
 1454 03b1 EF010000 		.4byte	.LASF62
 1455 03b5 70       		.byte	0x70
 1456 03b6 06       		.byte	0x6
 1457 03b7 9C01     		.2byte	0x19c
 1458 03b9 F2030000 		.4byte	0x3f2
 1459 03bd 09       		.uleb128 0x9
 1460 03be 84030000 		.4byte	.LASF63
 1461 03c2 06       		.byte	0x6
 1462 03c3 A001     		.2byte	0x1a0
 1463 03c5 53020000 		.4byte	0x253
 1464 03c9 00       		.byte	0
 1465 03ca 09       		.uleb128 0x9
 1466 03cb F8000000 		.4byte	.LASF64
 1467 03cf 06       		.byte	0x6
 1468 03d0 A401     		.2byte	0x1a4
 1469 03d2 32030000 		.4byte	0x332
 1470 03d6 1C       		.byte	0x1c
 1471 03d7 08       		.uleb128 0x8
 1472 03d8 64626700 		.ascii	"dbg\000"
 1473 03dc 06       		.byte	0x6
 1474 03dd A801     		.2byte	0x1a8
 1475 03df 7F030000 		.4byte	0x37f
 1476 03e3 28       		.byte	0x28
 1477 03e4 09       		.uleb128 0x9
 1478 03e5 60000000 		.4byte	.LASF65
 1479 03e9 06       		.byte	0x6
 1480 03ea AC01     		.2byte	0x1ac
 1481 03ec 05010000 		.4byte	0x105
 1482 03f0 2C       		.byte	0x2c
 1483 03f1 00       		.byte	0
 1484 03f2 04       		.uleb128 0x4
 1485 03f3 04       		.byte	0x4
 1486 03f4 07       		.byte	0x7
 1487 03f5 7C000000 		.4byte	.LASF66
 1488 03f9 03       		.uleb128 0x3
 1489 03fa 14010000 		.4byte	.LASF67
 1490 03fe 07       		.byte	0x7
 1491 03ff 65       		.byte	0x65
 1492 0400 D6020000 		.4byte	0x2d6
 1493 0404 03       		.uleb128 0x3
 1494 0405 80040000 		.4byte	.LASF68
 1495 0409 07       		.byte	0x7
ARM GAS  /tmp/cc5xPaTF.s 			page 46


 1496 040a 6D       		.byte	0x6d
 1497 040b 9B000000 		.4byte	0x9b
 1498 040f 05       		.uleb128 0x5
 1499 0410 F9010000 		.4byte	.LASF69
 1500 0414 04       		.byte	0x4
 1501 0415 07       		.byte	0x7
 1502 0416 89       		.byte	0x89
 1503 0417 27040000 		.4byte	0x427
 1504 041b 07       		.uleb128 0x7
 1505 041c 737000   		.ascii	"sp\000"
 1506 041f 07       		.byte	0x7
 1507 0420 8A       		.byte	0x8a
 1508 0421 A3040000 		.4byte	0x4a3
 1509 0425 00       		.byte	0
 1510 0426 00       		.byte	0
 1511 0427 0B       		.uleb128 0xb
 1512 0428 52040000 		.4byte	.LASF70
 1513 042c 24       		.byte	0x24
 1514 042d 08       		.byte	0x8
 1515 042e 5901     		.2byte	0x159
 1516 0430 A3040000 		.4byte	0x4a3
 1517 0434 08       		.uleb128 0x8
 1518 0435 723400   		.ascii	"r4\000"
 1519 0438 08       		.byte	0x8
 1520 0439 6C01     		.2byte	0x16c
 1521 043b F9030000 		.4byte	0x3f9
 1522 043f 00       		.byte	0
 1523 0440 08       		.uleb128 0x8
 1524 0441 723500   		.ascii	"r5\000"
 1525 0444 08       		.byte	0x8
 1526 0445 6D01     		.2byte	0x16d
 1527 0447 F9030000 		.4byte	0x3f9
 1528 044b 04       		.byte	0x4
 1529 044c 08       		.uleb128 0x8
 1530 044d 723600   		.ascii	"r6\000"
 1531 0450 08       		.byte	0x8
 1532 0451 6E01     		.2byte	0x16e
 1533 0453 F9030000 		.4byte	0x3f9
 1534 0457 08       		.byte	0x8
 1535 0458 08       		.uleb128 0x8
 1536 0459 723700   		.ascii	"r7\000"
 1537 045c 08       		.byte	0x8
 1538 045d 6F01     		.2byte	0x16f
 1539 045f F9030000 		.4byte	0x3f9
 1540 0463 0C       		.byte	0xc
 1541 0464 08       		.uleb128 0x8
 1542 0465 723800   		.ascii	"r8\000"
 1543 0468 08       		.byte	0x8
 1544 0469 7001     		.2byte	0x170
 1545 046b F9030000 		.4byte	0x3f9
 1546 046f 10       		.byte	0x10
 1547 0470 08       		.uleb128 0x8
 1548 0471 723900   		.ascii	"r9\000"
 1549 0474 08       		.byte	0x8
 1550 0475 7101     		.2byte	0x171
 1551 0477 F9030000 		.4byte	0x3f9
 1552 047b 14       		.byte	0x14
ARM GAS  /tmp/cc5xPaTF.s 			page 47


 1553 047c 08       		.uleb128 0x8
 1554 047d 72313000 		.ascii	"r10\000"
 1555 0481 08       		.byte	0x8
 1556 0482 7201     		.2byte	0x172
 1557 0484 F9030000 		.4byte	0x3f9
 1558 0488 18       		.byte	0x18
 1559 0489 08       		.uleb128 0x8
 1560 048a 72313100 		.ascii	"r11\000"
 1561 048e 08       		.byte	0x8
 1562 048f 7301     		.2byte	0x173
 1563 0491 F9030000 		.4byte	0x3f9
 1564 0495 1C       		.byte	0x1c
 1565 0496 08       		.uleb128 0x8
 1566 0497 6C7200   		.ascii	"lr\000"
 1567 049a 08       		.byte	0x8
 1568 049b 7401     		.2byte	0x174
 1569 049d F9030000 		.4byte	0x3f9
 1570 04a1 20       		.byte	0x20
 1571 04a2 00       		.byte	0
 1572 04a3 0A       		.uleb128 0xa
 1573 04a4 04       		.byte	0x4
 1574 04a5 27040000 		.4byte	0x427
 1575 04a9 0F       		.uleb128 0xf
 1576 04aa 04       		.byte	0x4
 1577 04ab 06       		.byte	0x6
 1578 04ac D2       		.byte	0xd2
 1579 04ad 0C050000 		.4byte	0x50c
 1580 04b1 10       		.uleb128 0x10
 1581 04b2 0A050000 		.4byte	.LASF71
 1582 04b6 06       		.byte	0x6
 1583 04b7 D9       		.byte	0xd9
 1584 04b8 D9000000 		.4byte	0xd9
 1585 04bc 10       		.uleb128 0x10
 1586 04bd 8B040000 		.4byte	.LASF72
 1587 04c1 06       		.byte	0x6
 1588 04c2 E0       		.byte	0xe0
 1589 04c3 D9000000 		.4byte	0xd9
 1590 04c7 10       		.uleb128 0x10
 1591 04c8 71040000 		.4byte	.LASF73
 1592 04cc 06       		.byte	0x6
 1593 04cd E7       		.byte	0xe7
 1594 04ce D6020000 		.4byte	0x2d6
 1595 04d2 10       		.uleb128 0x10
 1596 04d3 3F040000 		.4byte	.LASF74
 1597 04d7 06       		.byte	0x6
 1598 04d8 EE       		.byte	0xee
 1599 04d9 0C050000 		.4byte	0x50c
 1600 04dd 10       		.uleb128 0x10
 1601 04de 16020000 		.4byte	.LASF75
 1602 04e2 06       		.byte	0x6
 1603 04e3 F3       		.byte	0xf3
 1604 04e4 D9000000 		.4byte	0xd9
 1605 04e8 10       		.uleb128 0x10
 1606 04e9 C0000000 		.4byte	.LASF76
 1607 04ed 06       		.byte	0x6
 1608 04ee FC       		.byte	0xfc
 1609 04ef 37050000 		.4byte	0x537
ARM GAS  /tmp/cc5xPaTF.s 			page 48


 1610 04f3 11       		.uleb128 0x11
 1611 04f4 21050000 		.4byte	.LASF77
 1612 04f8 06       		.byte	0x6
 1613 04f9 0501     		.2byte	0x105
 1614 04fb 6E050000 		.4byte	0x56e
 1615 04ff 11       		.uleb128 0x11
 1616 0500 09030000 		.4byte	.LASF78
 1617 0504 06       		.byte	0x6
 1618 0505 0D01     		.2byte	0x10d
 1619 0507 E4000000 		.4byte	0xe4
 1620 050b 00       		.byte	0
 1621 050c 0A       		.uleb128 0xa
 1622 050d 04       		.byte	0x4
 1623 050e EE010000 		.4byte	0x1ee
 1624 0512 05       		.uleb128 0x5
 1625 0513 45040000 		.4byte	.LASF79
 1626 0517 0C       		.byte	0xc
 1627 0518 09       		.byte	0x9
 1628 0519 34       		.byte	0x34
 1629 051a 37050000 		.4byte	0x537
 1630 051e 06       		.uleb128 0x6
 1631 051f 2D020000 		.4byte	.LASF24
 1632 0523 09       		.byte	0x9
 1633 0524 35       		.byte	0x35
 1634 0525 23020000 		.4byte	0x223
 1635 0529 00       		.byte	0
 1636 052a 07       		.uleb128 0x7
 1637 052b 636E7400 		.ascii	"cnt\000"
 1638 052f 09       		.byte	0x9
 1639 0530 37       		.byte	0x37
 1640 0531 EF000000 		.4byte	0xef
 1641 0535 08       		.byte	0x8
 1642 0536 00       		.byte	0
 1643 0537 0A       		.uleb128 0xa
 1644 0538 04       		.byte	0x4
 1645 0539 12050000 		.4byte	0x512
 1646 053d 05       		.uleb128 0x5
 1647 053e 47010000 		.4byte	.LASF80
 1648 0542 10       		.byte	0x10
 1649 0543 0A       		.byte	0xa
 1650 0544 39       		.byte	0x39
 1651 0545 6E050000 		.4byte	0x56e
 1652 0549 06       		.uleb128 0x6
 1653 054a 2D020000 		.4byte	.LASF24
 1654 054e 0A       		.byte	0xa
 1655 054f 3A       		.byte	0x3a
 1656 0550 23020000 		.4byte	0x223
 1657 0554 00       		.byte	0
 1658 0555 06       		.uleb128 0x6
 1659 0556 60020000 		.4byte	.LASF81
 1660 055a 0A       		.byte	0xa
 1661 055b 3C       		.byte	0x3c
 1662 055c F9010000 		.4byte	0x1f9
 1663 0560 08       		.byte	0x8
 1664 0561 06       		.uleb128 0x6
 1665 0562 1C050000 		.4byte	.LASF43
 1666 0566 0A       		.byte	0xa
ARM GAS  /tmp/cc5xPaTF.s 			page 49


 1667 0567 3E       		.byte	0x3e
 1668 0568 A2050000 		.4byte	0x5a2
 1669 056c 0C       		.byte	0xc
 1670 056d 00       		.byte	0
 1671 056e 0A       		.uleb128 0xa
 1672 056f 04       		.byte	0x4
 1673 0570 3D050000 		.4byte	0x53d
 1674 0574 0A       		.uleb128 0xa
 1675 0575 04       		.byte	0x4
 1676 0576 7A050000 		.4byte	0x57a
 1677 057a 12       		.uleb128 0x12
 1678 057b 7F050000 		.4byte	0x57f
 1679 057f 04       		.uleb128 0x4
 1680 0580 01       		.byte	0x1
 1681 0581 08       		.byte	0x8
 1682 0582 8A030000 		.4byte	.LASF82
 1683 0586 0A       		.uleb128 0xa
 1684 0587 04       		.byte	0x4
 1685 0588 04040000 		.4byte	0x404
 1686 058c 0A       		.uleb128 0xa
 1687 058d 04       		.byte	0x4
 1688 058e D8020000 		.4byte	0x2d8
 1689 0592 13       		.uleb128 0x13
 1690 0593 74050000 		.4byte	0x574
 1691 0597 03       		.uleb128 0x3
 1692 0598 8F030000 		.4byte	.LASF83
 1693 059c 0A       		.byte	0xa
 1694 059d 34       		.byte	0x34
 1695 059e 3D050000 		.4byte	0x53d
 1696 05a2 0A       		.uleb128 0xa
 1697 05a3 04       		.byte	0x4
 1698 05a4 97050000 		.4byte	0x597
 1699 05a8 04       		.uleb128 0x4
 1700 05a9 01       		.byte	0x1
 1701 05aa 02       		.byte	0x2
 1702 05ab BF030000 		.4byte	.LASF84
 1703 05af 0A       		.uleb128 0xa
 1704 05b0 04       		.byte	0x4
 1705 05b1 B5050000 		.4byte	0x5b5
 1706 05b5 14       		.uleb128 0x14
 1707 05b6 15       		.uleb128 0x15
 1708 05b7 10       		.byte	0x10
 1709 05b8 0B       		.byte	0xb
 1710 05b9 3D       		.byte	0x3d
 1711 05ba EF050000 		.4byte	0x5ef
 1712 05be 06       		.uleb128 0x6
 1713 05bf 33020000 		.4byte	.LASF28
 1714 05c3 0B       		.byte	0xb
 1715 05c4 3E       		.byte	0x3e
 1716 05c5 74050000 		.4byte	0x574
 1717 05c9 00       		.byte	0
 1718 05ca 06       		.uleb128 0x6
 1719 05cb 67010000 		.4byte	.LASF85
 1720 05cf 0B       		.byte	0xb
 1721 05d0 3F       		.byte	0x3f
 1722 05d1 AF050000 		.4byte	0x5af
 1723 05d5 04       		.byte	0x4
ARM GAS  /tmp/cc5xPaTF.s 			page 50


 1724 05d6 06       		.uleb128 0x6
 1725 05d7 1E020000 		.4byte	.LASF86
 1726 05db 0B       		.byte	0xb
 1727 05dc 40       		.byte	0x40
 1728 05dd AF050000 		.4byte	0x5af
 1729 05e1 08       		.byte	0x8
 1730 05e2 06       		.uleb128 0x6
 1731 05e3 BB040000 		.4byte	.LASF87
 1732 05e7 0B       		.byte	0xb
 1733 05e8 41       		.byte	0x41
 1734 05e9 AF050000 		.4byte	0x5af
 1735 05ed 0C       		.byte	0xc
 1736 05ee 00       		.byte	0
 1737 05ef 03       		.uleb128 0x3
 1738 05f0 B0040000 		.4byte	.LASF88
 1739 05f4 0B       		.byte	0xb
 1740 05f5 42       		.byte	0x42
 1741 05f6 B6050000 		.4byte	0x5b6
 1742 05fa 16       		.uleb128 0x16
 1743 05fb 11000000 		.4byte	.LASF89
 1744 05ff 01       		.byte	0x1
 1745 0600 65       		.byte	0x65
 1746 0601 00000000 		.4byte	.LFB220
 1747 0605 4C030000 		.4byte	.LFE220-.LFB220
 1748 0609 01       		.uleb128 0x1
 1749 060a 9C       		.byte	0x9c
 1750 060b 5E0E0000 		.4byte	0xe5e
 1751 060f 17       		.uleb128 0x17
 1752 0610 22000000 		.4byte	.LVL0
 1753 0614 2B100000 		.4byte	0x102b
 1754 0618 26060000 		.4byte	0x626
 1755 061c 18       		.uleb128 0x18
 1756 061d 01       		.uleb128 0x1
 1757 061e 50       		.byte	0x50
 1758 061f 05       		.uleb128 0x5
 1759 0620 03       		.byte	0x3
 1760 0621 00000000 		.4byte	.LC0
 1761 0625 00       		.byte	0
 1762 0626 17       		.uleb128 0x17
 1763 0627 28000000 		.4byte	.LVL1
 1764 062b 3C100000 		.4byte	0x103c
 1765 062f 39060000 		.4byte	0x639
 1766 0633 18       		.uleb128 0x18
 1767 0634 01       		.uleb128 0x1
 1768 0635 50       		.byte	0x50
 1769 0636 01       		.uleb128 0x1
 1770 0637 40       		.byte	0x40
 1771 0638 00       		.byte	0
 1772 0639 17       		.uleb128 0x17
 1773 063a 2E000000 		.4byte	.LVL2
 1774 063e 4D100000 		.4byte	0x104d
 1775 0642 4D060000 		.4byte	0x64d
 1776 0646 18       		.uleb128 0x18
 1777 0647 01       		.uleb128 0x1
 1778 0648 50       		.byte	0x50
 1779 0649 02       		.uleb128 0x2
 1780 064a 74       		.byte	0x74
ARM GAS  /tmp/cc5xPaTF.s 			page 51


 1781 064b 00       		.sleb128 0
 1782 064c 00       		.byte	0
 1783 064d 17       		.uleb128 0x17
 1784 064e 3A000000 		.4byte	.LVL3
 1785 0652 2B100000 		.4byte	0x102b
 1786 0656 64060000 		.4byte	0x664
 1787 065a 18       		.uleb128 0x18
 1788 065b 01       		.uleb128 0x1
 1789 065c 50       		.byte	0x50
 1790 065d 05       		.uleb128 0x5
 1791 065e 03       		.byte	0x3
 1792 065f 24000000 		.4byte	.LC2
 1793 0663 00       		.byte	0
 1794 0664 17       		.uleb128 0x17
 1795 0665 42000000 		.4byte	.LVL4
 1796 0669 3C100000 		.4byte	0x103c
 1797 066d 79060000 		.4byte	0x679
 1798 0671 18       		.uleb128 0x18
 1799 0672 01       		.uleb128 0x1
 1800 0673 50       		.byte	0x50
 1801 0674 03       		.uleb128 0x3
 1802 0675 0A       		.byte	0xa
 1803 0676 E803     		.2byte	0x3e8
 1804 0678 00       		.byte	0
 1805 0679 17       		.uleb128 0x17
 1806 067a 48000000 		.4byte	.LVL5
 1807 067e 4D100000 		.4byte	0x104d
 1808 0682 8D060000 		.4byte	0x68d
 1809 0686 18       		.uleb128 0x18
 1810 0687 01       		.uleb128 0x1
 1811 0688 50       		.byte	0x50
 1812 0689 02       		.uleb128 0x2
 1813 068a 74       		.byte	0x74
 1814 068b 00       		.sleb128 0
 1815 068c 00       		.byte	0
 1816 068d 17       		.uleb128 0x17
 1817 068e 54000000 		.4byte	.LVL6
 1818 0692 2B100000 		.4byte	0x102b
 1819 0696 A4060000 		.4byte	0x6a4
 1820 069a 18       		.uleb128 0x18
 1821 069b 01       		.uleb128 0x1
 1822 069c 50       		.byte	0x50
 1823 069d 05       		.uleb128 0x5
 1824 069e 03       		.byte	0x3
 1825 069f 44000000 		.4byte	.LC3
 1826 06a3 00       		.byte	0
 1827 06a4 17       		.uleb128 0x17
 1828 06a5 5A000000 		.4byte	.LVL7
 1829 06a9 3C100000 		.4byte	0x103c
 1830 06ad B7060000 		.4byte	0x6b7
 1831 06b1 18       		.uleb128 0x18
 1832 06b2 01       		.uleb128 0x1
 1833 06b3 50       		.byte	0x50
 1834 06b4 01       		.uleb128 0x1
 1835 06b5 32       		.byte	0x32
 1836 06b6 00       		.byte	0
 1837 06b7 17       		.uleb128 0x17
ARM GAS  /tmp/cc5xPaTF.s 			page 52


 1838 06b8 60000000 		.4byte	.LVL8
 1839 06bc 4D100000 		.4byte	0x104d
 1840 06c0 CB060000 		.4byte	0x6cb
 1841 06c4 18       		.uleb128 0x18
 1842 06c5 01       		.uleb128 0x1
 1843 06c6 50       		.byte	0x50
 1844 06c7 02       		.uleb128 0x2
 1845 06c8 74       		.byte	0x74
 1846 06c9 00       		.sleb128 0
 1847 06ca 00       		.byte	0
 1848 06cb 17       		.uleb128 0x17
 1849 06cc 6C000000 		.4byte	.LVL9
 1850 06d0 2B100000 		.4byte	0x102b
 1851 06d4 E2060000 		.4byte	0x6e2
 1852 06d8 18       		.uleb128 0x18
 1853 06d9 01       		.uleb128 0x1
 1854 06da 50       		.byte	0x50
 1855 06db 05       		.uleb128 0x5
 1856 06dc 03       		.byte	0x3
 1857 06dd 64000000 		.4byte	.LC4
 1858 06e1 00       		.byte	0
 1859 06e2 17       		.uleb128 0x17
 1860 06e3 72000000 		.4byte	.LVL10
 1861 06e7 3C100000 		.4byte	0x103c
 1862 06eb F5060000 		.4byte	0x6f5
 1863 06ef 18       		.uleb128 0x18
 1864 06f0 01       		.uleb128 0x1
 1865 06f1 50       		.byte	0x50
 1866 06f2 01       		.uleb128 0x1
 1867 06f3 30       		.byte	0x30
 1868 06f4 00       		.byte	0
 1869 06f5 17       		.uleb128 0x17
 1870 06f6 78000000 		.4byte	.LVL11
 1871 06fa 4D100000 		.4byte	0x104d
 1872 06fe 09070000 		.4byte	0x709
 1873 0702 18       		.uleb128 0x18
 1874 0703 01       		.uleb128 0x1
 1875 0704 50       		.byte	0x50
 1876 0705 02       		.uleb128 0x2
 1877 0706 74       		.byte	0x74
 1878 0707 00       		.sleb128 0
 1879 0708 00       		.byte	0
 1880 0709 17       		.uleb128 0x17
 1881 070a 84000000 		.4byte	.LVL12
 1882 070e 2B100000 		.4byte	0x102b
 1883 0712 20070000 		.4byte	0x720
 1884 0716 18       		.uleb128 0x18
 1885 0717 01       		.uleb128 0x1
 1886 0718 50       		.byte	0x50
 1887 0719 05       		.uleb128 0x5
 1888 071a 03       		.byte	0x3
 1889 071b 84000000 		.4byte	.LC5
 1890 071f 00       		.byte	0
 1891 0720 17       		.uleb128 0x17
 1892 0721 8A000000 		.4byte	.LVL13
 1893 0725 3C100000 		.4byte	0x103c
 1894 0729 33070000 		.4byte	0x733
ARM GAS  /tmp/cc5xPaTF.s 			page 53


 1895 072d 18       		.uleb128 0x18
 1896 072e 01       		.uleb128 0x1
 1897 072f 50       		.byte	0x50
 1898 0730 01       		.uleb128 0x1
 1899 0731 30       		.byte	0x30
 1900 0732 00       		.byte	0
 1901 0733 17       		.uleb128 0x17
 1902 0734 90000000 		.4byte	.LVL14
 1903 0738 4D100000 		.4byte	0x104d
 1904 073c 47070000 		.4byte	0x747
 1905 0740 18       		.uleb128 0x18
 1906 0741 01       		.uleb128 0x1
 1907 0742 50       		.byte	0x50
 1908 0743 02       		.uleb128 0x2
 1909 0744 74       		.byte	0x74
 1910 0745 00       		.sleb128 0
 1911 0746 00       		.byte	0
 1912 0747 17       		.uleb128 0x17
 1913 0748 9C000000 		.4byte	.LVL15
 1914 074c 2B100000 		.4byte	0x102b
 1915 0750 5E070000 		.4byte	0x75e
 1916 0754 18       		.uleb128 0x18
 1917 0755 01       		.uleb128 0x1
 1918 0756 50       		.byte	0x50
 1919 0757 05       		.uleb128 0x5
 1920 0758 03       		.byte	0x3
 1921 0759 A4000000 		.4byte	.LC6
 1922 075d 00       		.byte	0
 1923 075e 17       		.uleb128 0x17
 1924 075f A2000000 		.4byte	.LVL16
 1925 0763 3C100000 		.4byte	0x103c
 1926 0767 71070000 		.4byte	0x771
 1927 076b 18       		.uleb128 0x18
 1928 076c 01       		.uleb128 0x1
 1929 076d 50       		.byte	0x50
 1930 076e 01       		.uleb128 0x1
 1931 076f 30       		.byte	0x30
 1932 0770 00       		.byte	0
 1933 0771 17       		.uleb128 0x17
 1934 0772 A8000000 		.4byte	.LVL17
 1935 0776 4D100000 		.4byte	0x104d
 1936 077a 85070000 		.4byte	0x785
 1937 077e 18       		.uleb128 0x18
 1938 077f 01       		.uleb128 0x1
 1939 0780 50       		.byte	0x50
 1940 0781 02       		.uleb128 0x2
 1941 0782 74       		.byte	0x74
 1942 0783 00       		.sleb128 0
 1943 0784 00       		.byte	0
 1944 0785 17       		.uleb128 0x17
 1945 0786 B4000000 		.4byte	.LVL18
 1946 078a 2B100000 		.4byte	0x102b
 1947 078e 9C070000 		.4byte	0x79c
 1948 0792 18       		.uleb128 0x18
 1949 0793 01       		.uleb128 0x1
 1950 0794 50       		.byte	0x50
 1951 0795 05       		.uleb128 0x5
ARM GAS  /tmp/cc5xPaTF.s 			page 54


 1952 0796 03       		.byte	0x3
 1953 0797 C4000000 		.4byte	.LC7
 1954 079b 00       		.byte	0
 1955 079c 17       		.uleb128 0x17
 1956 079d BA000000 		.4byte	.LVL19
 1957 07a1 3C100000 		.4byte	0x103c
 1958 07a5 B0070000 		.4byte	0x7b0
 1959 07a9 18       		.uleb128 0x18
 1960 07aa 01       		.uleb128 0x1
 1961 07ab 50       		.byte	0x50
 1962 07ac 02       		.uleb128 0x2
 1963 07ad 75       		.byte	0x75
 1964 07ae 00       		.sleb128 0
 1965 07af 00       		.byte	0
 1966 07b0 17       		.uleb128 0x17
 1967 07b1 C0000000 		.4byte	.LVL20
 1968 07b5 4D100000 		.4byte	0x104d
 1969 07b9 C4070000 		.4byte	0x7c4
 1970 07bd 18       		.uleb128 0x18
 1971 07be 01       		.uleb128 0x1
 1972 07bf 50       		.byte	0x50
 1973 07c0 02       		.uleb128 0x2
 1974 07c1 74       		.byte	0x74
 1975 07c2 00       		.sleb128 0
 1976 07c3 00       		.byte	0
 1977 07c4 17       		.uleb128 0x17
 1978 07c5 CC000000 		.4byte	.LVL21
 1979 07c9 2B100000 		.4byte	0x102b
 1980 07cd DB070000 		.4byte	0x7db
 1981 07d1 18       		.uleb128 0x18
 1982 07d2 01       		.uleb128 0x1
 1983 07d3 50       		.byte	0x50
 1984 07d4 05       		.uleb128 0x5
 1985 07d5 03       		.byte	0x3
 1986 07d6 E4000000 		.4byte	.LC8
 1987 07da 00       		.byte	0
 1988 07db 17       		.uleb128 0x17
 1989 07dc D2000000 		.4byte	.LVL22
 1990 07e0 3C100000 		.4byte	0x103c
 1991 07e4 EE070000 		.4byte	0x7ee
 1992 07e8 18       		.uleb128 0x18
 1993 07e9 01       		.uleb128 0x1
 1994 07ea 50       		.byte	0x50
 1995 07eb 01       		.uleb128 0x1
 1996 07ec 30       		.byte	0x30
 1997 07ed 00       		.byte	0
 1998 07ee 17       		.uleb128 0x17
 1999 07ef D8000000 		.4byte	.LVL23
 2000 07f3 4D100000 		.4byte	0x104d
 2001 07f7 02080000 		.4byte	0x802
 2002 07fb 18       		.uleb128 0x18
 2003 07fc 01       		.uleb128 0x1
 2004 07fd 50       		.byte	0x50
 2005 07fe 02       		.uleb128 0x2
 2006 07ff 74       		.byte	0x74
 2007 0800 00       		.sleb128 0
 2008 0801 00       		.byte	0
ARM GAS  /tmp/cc5xPaTF.s 			page 55


 2009 0802 17       		.uleb128 0x17
 2010 0803 E4000000 		.4byte	.LVL24
 2011 0807 2B100000 		.4byte	0x102b
 2012 080b 19080000 		.4byte	0x819
 2013 080f 18       		.uleb128 0x18
 2014 0810 01       		.uleb128 0x1
 2015 0811 50       		.byte	0x50
 2016 0812 05       		.uleb128 0x5
 2017 0813 03       		.byte	0x3
 2018 0814 04010000 		.4byte	.LC9
 2019 0818 00       		.byte	0
 2020 0819 17       		.uleb128 0x17
 2021 081a EA000000 		.4byte	.LVL25
 2022 081e 3C100000 		.4byte	0x103c
 2023 0822 2D080000 		.4byte	0x82d
 2024 0826 18       		.uleb128 0x18
 2025 0827 01       		.uleb128 0x1
 2026 0828 50       		.byte	0x50
 2027 0829 02       		.uleb128 0x2
 2028 082a 75       		.byte	0x75
 2029 082b 00       		.sleb128 0
 2030 082c 00       		.byte	0
 2031 082d 17       		.uleb128 0x17
 2032 082e F0000000 		.4byte	.LVL26
 2033 0832 4D100000 		.4byte	0x104d
 2034 0836 41080000 		.4byte	0x841
 2035 083a 18       		.uleb128 0x18
 2036 083b 01       		.uleb128 0x1
 2037 083c 50       		.byte	0x50
 2038 083d 02       		.uleb128 0x2
 2039 083e 74       		.byte	0x74
 2040 083f 00       		.sleb128 0
 2041 0840 00       		.byte	0
 2042 0841 17       		.uleb128 0x17
 2043 0842 FC000000 		.4byte	.LVL27
 2044 0846 2B100000 		.4byte	0x102b
 2045 084a 58080000 		.4byte	0x858
 2046 084e 18       		.uleb128 0x18
 2047 084f 01       		.uleb128 0x1
 2048 0850 50       		.byte	0x50
 2049 0851 05       		.uleb128 0x5
 2050 0852 03       		.byte	0x3
 2051 0853 24010000 		.4byte	.LC10
 2052 0857 00       		.byte	0
 2053 0858 17       		.uleb128 0x17
 2054 0859 02010000 		.4byte	.LVL28
 2055 085d 3C100000 		.4byte	0x103c
 2056 0861 6C080000 		.4byte	0x86c
 2057 0865 18       		.uleb128 0x18
 2058 0866 01       		.uleb128 0x1
 2059 0867 50       		.byte	0x50
 2060 0868 02       		.uleb128 0x2
 2061 0869 75       		.byte	0x75
 2062 086a 00       		.sleb128 0
 2063 086b 00       		.byte	0
 2064 086c 17       		.uleb128 0x17
 2065 086d 08010000 		.4byte	.LVL29
ARM GAS  /tmp/cc5xPaTF.s 			page 56


 2066 0871 4D100000 		.4byte	0x104d
 2067 0875 80080000 		.4byte	0x880
 2068 0879 18       		.uleb128 0x18
 2069 087a 01       		.uleb128 0x1
 2070 087b 50       		.byte	0x50
 2071 087c 02       		.uleb128 0x2
 2072 087d 74       		.byte	0x74
 2073 087e 00       		.sleb128 0
 2074 087f 00       		.byte	0
 2075 0880 17       		.uleb128 0x17
 2076 0881 14010000 		.4byte	.LVL30
 2077 0885 2B100000 		.4byte	0x102b
 2078 0889 97080000 		.4byte	0x897
 2079 088d 18       		.uleb128 0x18
 2080 088e 01       		.uleb128 0x1
 2081 088f 50       		.byte	0x50
 2082 0890 05       		.uleb128 0x5
 2083 0891 03       		.byte	0x3
 2084 0892 44010000 		.4byte	.LC11
 2085 0896 00       		.byte	0
 2086 0897 17       		.uleb128 0x17
 2087 0898 1A010000 		.4byte	.LVL31
 2088 089c 3C100000 		.4byte	0x103c
 2089 08a0 AB080000 		.4byte	0x8ab
 2090 08a4 18       		.uleb128 0x18
 2091 08a5 01       		.uleb128 0x1
 2092 08a6 50       		.byte	0x50
 2093 08a7 02       		.uleb128 0x2
 2094 08a8 75       		.byte	0x75
 2095 08a9 00       		.sleb128 0
 2096 08aa 00       		.byte	0
 2097 08ab 17       		.uleb128 0x17
 2098 08ac 20010000 		.4byte	.LVL32
 2099 08b0 4D100000 		.4byte	0x104d
 2100 08b4 BF080000 		.4byte	0x8bf
 2101 08b8 18       		.uleb128 0x18
 2102 08b9 01       		.uleb128 0x1
 2103 08ba 50       		.byte	0x50
 2104 08bb 02       		.uleb128 0x2
 2105 08bc 74       		.byte	0x74
 2106 08bd 00       		.sleb128 0
 2107 08be 00       		.byte	0
 2108 08bf 17       		.uleb128 0x17
 2109 08c0 2C010000 		.4byte	.LVL33
 2110 08c4 2B100000 		.4byte	0x102b
 2111 08c8 D6080000 		.4byte	0x8d6
 2112 08cc 18       		.uleb128 0x18
 2113 08cd 01       		.uleb128 0x1
 2114 08ce 50       		.byte	0x50
 2115 08cf 05       		.uleb128 0x5
 2116 08d0 03       		.byte	0x3
 2117 08d1 64010000 		.4byte	.LC12
 2118 08d5 00       		.byte	0
 2119 08d6 17       		.uleb128 0x17
 2120 08d7 32010000 		.4byte	.LVL34
 2121 08db 3C100000 		.4byte	0x103c
 2122 08df E9080000 		.4byte	0x8e9
ARM GAS  /tmp/cc5xPaTF.s 			page 57


 2123 08e3 18       		.uleb128 0x18
 2124 08e4 01       		.uleb128 0x1
 2125 08e5 50       		.byte	0x50
 2126 08e6 01       		.uleb128 0x1
 2127 08e7 30       		.byte	0x30
 2128 08e8 00       		.byte	0
 2129 08e9 17       		.uleb128 0x17
 2130 08ea 38010000 		.4byte	.LVL35
 2131 08ee 4D100000 		.4byte	0x104d
 2132 08f2 FD080000 		.4byte	0x8fd
 2133 08f6 18       		.uleb128 0x18
 2134 08f7 01       		.uleb128 0x1
 2135 08f8 50       		.byte	0x50
 2136 08f9 02       		.uleb128 0x2
 2137 08fa 74       		.byte	0x74
 2138 08fb 00       		.sleb128 0
 2139 08fc 00       		.byte	0
 2140 08fd 17       		.uleb128 0x17
 2141 08fe 44010000 		.4byte	.LVL36
 2142 0902 2B100000 		.4byte	0x102b
 2143 0906 14090000 		.4byte	0x914
 2144 090a 18       		.uleb128 0x18
 2145 090b 01       		.uleb128 0x1
 2146 090c 50       		.byte	0x50
 2147 090d 05       		.uleb128 0x5
 2148 090e 03       		.byte	0x3
 2149 090f 84010000 		.4byte	.LC13
 2150 0913 00       		.byte	0
 2151 0914 17       		.uleb128 0x17
 2152 0915 4A010000 		.4byte	.LVL37
 2153 0919 3C100000 		.4byte	0x103c
 2154 091d 28090000 		.4byte	0x928
 2155 0921 18       		.uleb128 0x18
 2156 0922 01       		.uleb128 0x1
 2157 0923 50       		.byte	0x50
 2158 0924 02       		.uleb128 0x2
 2159 0925 75       		.byte	0x75
 2160 0926 00       		.sleb128 0
 2161 0927 00       		.byte	0
 2162 0928 17       		.uleb128 0x17
 2163 0929 50010000 		.4byte	.LVL38
 2164 092d 4D100000 		.4byte	0x104d
 2165 0931 3C090000 		.4byte	0x93c
 2166 0935 18       		.uleb128 0x18
 2167 0936 01       		.uleb128 0x1
 2168 0937 50       		.byte	0x50
 2169 0938 02       		.uleb128 0x2
 2170 0939 74       		.byte	0x74
 2171 093a 00       		.sleb128 0
 2172 093b 00       		.byte	0
 2173 093c 17       		.uleb128 0x17
 2174 093d 5C010000 		.4byte	.LVL39
 2175 0941 2B100000 		.4byte	0x102b
 2176 0945 53090000 		.4byte	0x953
 2177 0949 18       		.uleb128 0x18
 2178 094a 01       		.uleb128 0x1
 2179 094b 50       		.byte	0x50
ARM GAS  /tmp/cc5xPaTF.s 			page 58


 2180 094c 05       		.uleb128 0x5
 2181 094d 03       		.byte	0x3
 2182 094e A4010000 		.4byte	.LC14
 2183 0952 00       		.byte	0
 2184 0953 17       		.uleb128 0x17
 2185 0954 62010000 		.4byte	.LVL40
 2186 0958 3C100000 		.4byte	0x103c
 2187 095c 66090000 		.4byte	0x966
 2188 0960 18       		.uleb128 0x18
 2189 0961 01       		.uleb128 0x1
 2190 0962 50       		.byte	0x50
 2191 0963 01       		.uleb128 0x1
 2192 0964 30       		.byte	0x30
 2193 0965 00       		.byte	0
 2194 0966 17       		.uleb128 0x17
 2195 0967 68010000 		.4byte	.LVL41
 2196 096b 4D100000 		.4byte	0x104d
 2197 096f 7A090000 		.4byte	0x97a
 2198 0973 18       		.uleb128 0x18
 2199 0974 01       		.uleb128 0x1
 2200 0975 50       		.byte	0x50
 2201 0976 02       		.uleb128 0x2
 2202 0977 74       		.byte	0x74
 2203 0978 00       		.sleb128 0
 2204 0979 00       		.byte	0
 2205 097a 17       		.uleb128 0x17
 2206 097b 74010000 		.4byte	.LVL42
 2207 097f 2B100000 		.4byte	0x102b
 2208 0983 91090000 		.4byte	0x991
 2209 0987 18       		.uleb128 0x18
 2210 0988 01       		.uleb128 0x1
 2211 0989 50       		.byte	0x50
 2212 098a 05       		.uleb128 0x5
 2213 098b 03       		.byte	0x3
 2214 098c C4010000 		.4byte	.LC15
 2215 0990 00       		.byte	0
 2216 0991 17       		.uleb128 0x17
 2217 0992 7A010000 		.4byte	.LVL43
 2218 0996 3C100000 		.4byte	0x103c
 2219 099a A5090000 		.4byte	0x9a5
 2220 099e 18       		.uleb128 0x18
 2221 099f 01       		.uleb128 0x1
 2222 09a0 50       		.byte	0x50
 2223 09a1 02       		.uleb128 0x2
 2224 09a2 75       		.byte	0x75
 2225 09a3 00       		.sleb128 0
 2226 09a4 00       		.byte	0
 2227 09a5 17       		.uleb128 0x17
 2228 09a6 80010000 		.4byte	.LVL44
 2229 09aa 4D100000 		.4byte	0x104d
 2230 09ae B9090000 		.4byte	0x9b9
 2231 09b2 18       		.uleb128 0x18
 2232 09b3 01       		.uleb128 0x1
 2233 09b4 50       		.byte	0x50
 2234 09b5 02       		.uleb128 0x2
 2235 09b6 74       		.byte	0x74
 2236 09b7 00       		.sleb128 0
ARM GAS  /tmp/cc5xPaTF.s 			page 59


 2237 09b8 00       		.byte	0
 2238 09b9 17       		.uleb128 0x17
 2239 09ba 8C010000 		.4byte	.LVL45
 2240 09be 2B100000 		.4byte	0x102b
 2241 09c2 D0090000 		.4byte	0x9d0
 2242 09c6 18       		.uleb128 0x18
 2243 09c7 01       		.uleb128 0x1
 2244 09c8 50       		.byte	0x50
 2245 09c9 05       		.uleb128 0x5
 2246 09ca 03       		.byte	0x3
 2247 09cb E4010000 		.4byte	.LC16
 2248 09cf 00       		.byte	0
 2249 09d0 17       		.uleb128 0x17
 2250 09d1 92010000 		.4byte	.LVL46
 2251 09d5 3C100000 		.4byte	0x103c
 2252 09d9 E4090000 		.4byte	0x9e4
 2253 09dd 18       		.uleb128 0x18
 2254 09de 01       		.uleb128 0x1
 2255 09df 50       		.byte	0x50
 2256 09e0 02       		.uleb128 0x2
 2257 09e1 75       		.byte	0x75
 2258 09e2 00       		.sleb128 0
 2259 09e3 00       		.byte	0
 2260 09e4 17       		.uleb128 0x17
 2261 09e5 98010000 		.4byte	.LVL47
 2262 09e9 4D100000 		.4byte	0x104d
 2263 09ed F8090000 		.4byte	0x9f8
 2264 09f1 18       		.uleb128 0x18
 2265 09f2 01       		.uleb128 0x1
 2266 09f3 50       		.byte	0x50
 2267 09f4 02       		.uleb128 0x2
 2268 09f5 74       		.byte	0x74
 2269 09f6 00       		.sleb128 0
 2270 09f7 00       		.byte	0
 2271 09f8 17       		.uleb128 0x17
 2272 09f9 A4010000 		.4byte	.LVL48
 2273 09fd 2B100000 		.4byte	0x102b
 2274 0a01 0F0A0000 		.4byte	0xa0f
 2275 0a05 18       		.uleb128 0x18
 2276 0a06 01       		.uleb128 0x1
 2277 0a07 50       		.byte	0x50
 2278 0a08 05       		.uleb128 0x5
 2279 0a09 03       		.byte	0x3
 2280 0a0a 04020000 		.4byte	.LC17
 2281 0a0e 00       		.byte	0
 2282 0a0f 17       		.uleb128 0x17
 2283 0a10 AA010000 		.4byte	.LVL49
 2284 0a14 3C100000 		.4byte	0x103c
 2285 0a18 230A0000 		.4byte	0xa23
 2286 0a1c 18       		.uleb128 0x18
 2287 0a1d 01       		.uleb128 0x1
 2288 0a1e 50       		.byte	0x50
 2289 0a1f 02       		.uleb128 0x2
 2290 0a20 75       		.byte	0x75
 2291 0a21 00       		.sleb128 0
 2292 0a22 00       		.byte	0
 2293 0a23 17       		.uleb128 0x17
ARM GAS  /tmp/cc5xPaTF.s 			page 60


 2294 0a24 B0010000 		.4byte	.LVL50
 2295 0a28 4D100000 		.4byte	0x104d
 2296 0a2c 370A0000 		.4byte	0xa37
 2297 0a30 18       		.uleb128 0x18
 2298 0a31 01       		.uleb128 0x1
 2299 0a32 50       		.byte	0x50
 2300 0a33 02       		.uleb128 0x2
 2301 0a34 74       		.byte	0x74
 2302 0a35 00       		.sleb128 0
 2303 0a36 00       		.byte	0
 2304 0a37 17       		.uleb128 0x17
 2305 0a38 BC010000 		.4byte	.LVL51
 2306 0a3c 2B100000 		.4byte	0x102b
 2307 0a40 4E0A0000 		.4byte	0xa4e
 2308 0a44 18       		.uleb128 0x18
 2309 0a45 01       		.uleb128 0x1
 2310 0a46 50       		.byte	0x50
 2311 0a47 05       		.uleb128 0x5
 2312 0a48 03       		.byte	0x3
 2313 0a49 24020000 		.4byte	.LC18
 2314 0a4d 00       		.byte	0
 2315 0a4e 17       		.uleb128 0x17
 2316 0a4f C2010000 		.4byte	.LVL52
 2317 0a53 3C100000 		.4byte	0x103c
 2318 0a57 620A0000 		.4byte	0xa62
 2319 0a5b 18       		.uleb128 0x18
 2320 0a5c 01       		.uleb128 0x1
 2321 0a5d 50       		.byte	0x50
 2322 0a5e 02       		.uleb128 0x2
 2323 0a5f 75       		.byte	0x75
 2324 0a60 00       		.sleb128 0
 2325 0a61 00       		.byte	0
 2326 0a62 17       		.uleb128 0x17
 2327 0a63 C8010000 		.4byte	.LVL53
 2328 0a67 4D100000 		.4byte	0x104d
 2329 0a6b 760A0000 		.4byte	0xa76
 2330 0a6f 18       		.uleb128 0x18
 2331 0a70 01       		.uleb128 0x1
 2332 0a71 50       		.byte	0x50
 2333 0a72 02       		.uleb128 0x2
 2334 0a73 74       		.byte	0x74
 2335 0a74 00       		.sleb128 0
 2336 0a75 00       		.byte	0
 2337 0a76 17       		.uleb128 0x17
 2338 0a77 D4010000 		.4byte	.LVL54
 2339 0a7b 2B100000 		.4byte	0x102b
 2340 0a7f 8D0A0000 		.4byte	0xa8d
 2341 0a83 18       		.uleb128 0x18
 2342 0a84 01       		.uleb128 0x1
 2343 0a85 50       		.byte	0x50
 2344 0a86 05       		.uleb128 0x5
 2345 0a87 03       		.byte	0x3
 2346 0a88 44020000 		.4byte	.LC19
 2347 0a8c 00       		.byte	0
 2348 0a8d 17       		.uleb128 0x17
 2349 0a8e DA010000 		.4byte	.LVL55
 2350 0a92 3C100000 		.4byte	0x103c
ARM GAS  /tmp/cc5xPaTF.s 			page 61


 2351 0a96 A10A0000 		.4byte	0xaa1
 2352 0a9a 18       		.uleb128 0x18
 2353 0a9b 01       		.uleb128 0x1
 2354 0a9c 50       		.byte	0x50
 2355 0a9d 02       		.uleb128 0x2
 2356 0a9e 75       		.byte	0x75
 2357 0a9f 00       		.sleb128 0
 2358 0aa0 00       		.byte	0
 2359 0aa1 17       		.uleb128 0x17
 2360 0aa2 E0010000 		.4byte	.LVL56
 2361 0aa6 4D100000 		.4byte	0x104d
 2362 0aaa B50A0000 		.4byte	0xab5
 2363 0aae 18       		.uleb128 0x18
 2364 0aaf 01       		.uleb128 0x1
 2365 0ab0 50       		.byte	0x50
 2366 0ab1 02       		.uleb128 0x2
 2367 0ab2 74       		.byte	0x74
 2368 0ab3 00       		.sleb128 0
 2369 0ab4 00       		.byte	0
 2370 0ab5 17       		.uleb128 0x17
 2371 0ab6 EC010000 		.4byte	.LVL57
 2372 0aba 2B100000 		.4byte	0x102b
 2373 0abe CC0A0000 		.4byte	0xacc
 2374 0ac2 18       		.uleb128 0x18
 2375 0ac3 01       		.uleb128 0x1
 2376 0ac4 50       		.byte	0x50
 2377 0ac5 05       		.uleb128 0x5
 2378 0ac6 03       		.byte	0x3
 2379 0ac7 64020000 		.4byte	.LC20
 2380 0acb 00       		.byte	0
 2381 0acc 17       		.uleb128 0x17
 2382 0acd F2010000 		.4byte	.LVL58
 2383 0ad1 3C100000 		.4byte	0x103c
 2384 0ad5 DF0A0000 		.4byte	0xadf
 2385 0ad9 18       		.uleb128 0x18
 2386 0ada 01       		.uleb128 0x1
 2387 0adb 50       		.byte	0x50
 2388 0adc 01       		.uleb128 0x1
 2389 0add 30       		.byte	0x30
 2390 0ade 00       		.byte	0
 2391 0adf 17       		.uleb128 0x17
 2392 0ae0 F8010000 		.4byte	.LVL59
 2393 0ae4 4D100000 		.4byte	0x104d
 2394 0ae8 F30A0000 		.4byte	0xaf3
 2395 0aec 18       		.uleb128 0x18
 2396 0aed 01       		.uleb128 0x1
 2397 0aee 50       		.byte	0x50
 2398 0aef 02       		.uleb128 0x2
 2399 0af0 74       		.byte	0x74
 2400 0af1 00       		.sleb128 0
 2401 0af2 00       		.byte	0
 2402 0af3 17       		.uleb128 0x17
 2403 0af4 04020000 		.4byte	.LVL60
 2404 0af8 2B100000 		.4byte	0x102b
 2405 0afc 0A0B0000 		.4byte	0xb0a
 2406 0b00 18       		.uleb128 0x18
 2407 0b01 01       		.uleb128 0x1
ARM GAS  /tmp/cc5xPaTF.s 			page 62


 2408 0b02 50       		.byte	0x50
 2409 0b03 05       		.uleb128 0x5
 2410 0b04 03       		.byte	0x3
 2411 0b05 84020000 		.4byte	.LC21
 2412 0b09 00       		.byte	0
 2413 0b0a 17       		.uleb128 0x17
 2414 0b0b 0A020000 		.4byte	.LVL61
 2415 0b0f 3C100000 		.4byte	0x103c
 2416 0b13 1E0B0000 		.4byte	0xb1e
 2417 0b17 18       		.uleb128 0x18
 2418 0b18 01       		.uleb128 0x1
 2419 0b19 50       		.byte	0x50
 2420 0b1a 02       		.uleb128 0x2
 2421 0b1b 75       		.byte	0x75
 2422 0b1c 00       		.sleb128 0
 2423 0b1d 00       		.byte	0
 2424 0b1e 17       		.uleb128 0x17
 2425 0b1f 10020000 		.4byte	.LVL62
 2426 0b23 4D100000 		.4byte	0x104d
 2427 0b27 320B0000 		.4byte	0xb32
 2428 0b2b 18       		.uleb128 0x18
 2429 0b2c 01       		.uleb128 0x1
 2430 0b2d 50       		.byte	0x50
 2431 0b2e 02       		.uleb128 0x2
 2432 0b2f 74       		.byte	0x74
 2433 0b30 00       		.sleb128 0
 2434 0b31 00       		.byte	0
 2435 0b32 17       		.uleb128 0x17
 2436 0b33 1C020000 		.4byte	.LVL63
 2437 0b37 2B100000 		.4byte	0x102b
 2438 0b3b 490B0000 		.4byte	0xb49
 2439 0b3f 18       		.uleb128 0x18
 2440 0b40 01       		.uleb128 0x1
 2441 0b41 50       		.byte	0x50
 2442 0b42 05       		.uleb128 0x5
 2443 0b43 03       		.byte	0x3
 2444 0b44 A4020000 		.4byte	.LC22
 2445 0b48 00       		.byte	0
 2446 0b49 17       		.uleb128 0x17
 2447 0b4a 22020000 		.4byte	.LVL64
 2448 0b4e 3C100000 		.4byte	0x103c
 2449 0b52 5D0B0000 		.4byte	0xb5d
 2450 0b56 18       		.uleb128 0x18
 2451 0b57 01       		.uleb128 0x1
 2452 0b58 50       		.byte	0x50
 2453 0b59 02       		.uleb128 0x2
 2454 0b5a 75       		.byte	0x75
 2455 0b5b 00       		.sleb128 0
 2456 0b5c 00       		.byte	0
 2457 0b5d 17       		.uleb128 0x17
 2458 0b5e 28020000 		.4byte	.LVL65
 2459 0b62 4D100000 		.4byte	0x104d
 2460 0b66 710B0000 		.4byte	0xb71
 2461 0b6a 18       		.uleb128 0x18
 2462 0b6b 01       		.uleb128 0x1
 2463 0b6c 50       		.byte	0x50
 2464 0b6d 02       		.uleb128 0x2
ARM GAS  /tmp/cc5xPaTF.s 			page 63


 2465 0b6e 74       		.byte	0x74
 2466 0b6f 00       		.sleb128 0
 2467 0b70 00       		.byte	0
 2468 0b71 17       		.uleb128 0x17
 2469 0b72 34020000 		.4byte	.LVL66
 2470 0b76 2B100000 		.4byte	0x102b
 2471 0b7a 880B0000 		.4byte	0xb88
 2472 0b7e 18       		.uleb128 0x18
 2473 0b7f 01       		.uleb128 0x1
 2474 0b80 50       		.byte	0x50
 2475 0b81 05       		.uleb128 0x5
 2476 0b82 03       		.byte	0x3
 2477 0b83 C4020000 		.4byte	.LC23
 2478 0b87 00       		.byte	0
 2479 0b88 17       		.uleb128 0x17
 2480 0b89 3A020000 		.4byte	.LVL67
 2481 0b8d 3C100000 		.4byte	0x103c
 2482 0b91 9C0B0000 		.4byte	0xb9c
 2483 0b95 18       		.uleb128 0x18
 2484 0b96 01       		.uleb128 0x1
 2485 0b97 50       		.byte	0x50
 2486 0b98 02       		.uleb128 0x2
 2487 0b99 75       		.byte	0x75
 2488 0b9a 00       		.sleb128 0
 2489 0b9b 00       		.byte	0
 2490 0b9c 17       		.uleb128 0x17
 2491 0b9d 40020000 		.4byte	.LVL68
 2492 0ba1 4D100000 		.4byte	0x104d
 2493 0ba5 B00B0000 		.4byte	0xbb0
 2494 0ba9 18       		.uleb128 0x18
 2495 0baa 01       		.uleb128 0x1
 2496 0bab 50       		.byte	0x50
 2497 0bac 02       		.uleb128 0x2
 2498 0bad 74       		.byte	0x74
 2499 0bae 00       		.sleb128 0
 2500 0baf 00       		.byte	0
 2501 0bb0 17       		.uleb128 0x17
 2502 0bb1 4C020000 		.4byte	.LVL69
 2503 0bb5 2B100000 		.4byte	0x102b
 2504 0bb9 C70B0000 		.4byte	0xbc7
 2505 0bbd 18       		.uleb128 0x18
 2506 0bbe 01       		.uleb128 0x1
 2507 0bbf 50       		.byte	0x50
 2508 0bc0 05       		.uleb128 0x5
 2509 0bc1 03       		.byte	0x3
 2510 0bc2 E4020000 		.4byte	.LC24
 2511 0bc6 00       		.byte	0
 2512 0bc7 17       		.uleb128 0x17
 2513 0bc8 52020000 		.4byte	.LVL70
 2514 0bcc 3C100000 		.4byte	0x103c
 2515 0bd0 DB0B0000 		.4byte	0xbdb
 2516 0bd4 18       		.uleb128 0x18
 2517 0bd5 01       		.uleb128 0x1
 2518 0bd6 50       		.byte	0x50
 2519 0bd7 02       		.uleb128 0x2
 2520 0bd8 75       		.byte	0x75
 2521 0bd9 00       		.sleb128 0
ARM GAS  /tmp/cc5xPaTF.s 			page 64


 2522 0bda 00       		.byte	0
 2523 0bdb 17       		.uleb128 0x17
 2524 0bdc 58020000 		.4byte	.LVL71
 2525 0be0 4D100000 		.4byte	0x104d
 2526 0be4 EF0B0000 		.4byte	0xbef
 2527 0be8 18       		.uleb128 0x18
 2528 0be9 01       		.uleb128 0x1
 2529 0bea 50       		.byte	0x50
 2530 0beb 02       		.uleb128 0x2
 2531 0bec 74       		.byte	0x74
 2532 0bed 00       		.sleb128 0
 2533 0bee 00       		.byte	0
 2534 0bef 17       		.uleb128 0x17
 2535 0bf0 64020000 		.4byte	.LVL72
 2536 0bf4 2B100000 		.4byte	0x102b
 2537 0bf8 060C0000 		.4byte	0xc06
 2538 0bfc 18       		.uleb128 0x18
 2539 0bfd 01       		.uleb128 0x1
 2540 0bfe 50       		.byte	0x50
 2541 0bff 05       		.uleb128 0x5
 2542 0c00 03       		.byte	0x3
 2543 0c01 04030000 		.4byte	.LC25
 2544 0c05 00       		.byte	0
 2545 0c06 17       		.uleb128 0x17
 2546 0c07 6A020000 		.4byte	.LVL73
 2547 0c0b 3C100000 		.4byte	0x103c
 2548 0c0f 1A0C0000 		.4byte	0xc1a
 2549 0c13 18       		.uleb128 0x18
 2550 0c14 01       		.uleb128 0x1
 2551 0c15 50       		.byte	0x50
 2552 0c16 02       		.uleb128 0x2
 2553 0c17 75       		.byte	0x75
 2554 0c18 00       		.sleb128 0
 2555 0c19 00       		.byte	0
 2556 0c1a 17       		.uleb128 0x17
 2557 0c1b 70020000 		.4byte	.LVL74
 2558 0c1f 4D100000 		.4byte	0x104d
 2559 0c23 2E0C0000 		.4byte	0xc2e
 2560 0c27 18       		.uleb128 0x18
 2561 0c28 01       		.uleb128 0x1
 2562 0c29 50       		.byte	0x50
 2563 0c2a 02       		.uleb128 0x2
 2564 0c2b 74       		.byte	0x74
 2565 0c2c 00       		.sleb128 0
 2566 0c2d 00       		.byte	0
 2567 0c2e 17       		.uleb128 0x17
 2568 0c2f 7C020000 		.4byte	.LVL75
 2569 0c33 2B100000 		.4byte	0x102b
 2570 0c37 450C0000 		.4byte	0xc45
 2571 0c3b 18       		.uleb128 0x18
 2572 0c3c 01       		.uleb128 0x1
 2573 0c3d 50       		.byte	0x50
 2574 0c3e 05       		.uleb128 0x5
 2575 0c3f 03       		.byte	0x3
 2576 0c40 24030000 		.4byte	.LC26
 2577 0c44 00       		.byte	0
 2578 0c45 17       		.uleb128 0x17
ARM GAS  /tmp/cc5xPaTF.s 			page 65


 2579 0c46 82020000 		.4byte	.LVL76
 2580 0c4a 3C100000 		.4byte	0x103c
 2581 0c4e 580C0000 		.4byte	0xc58
 2582 0c52 18       		.uleb128 0x18
 2583 0c53 01       		.uleb128 0x1
 2584 0c54 50       		.byte	0x50
 2585 0c55 01       		.uleb128 0x1
 2586 0c56 30       		.byte	0x30
 2587 0c57 00       		.byte	0
 2588 0c58 17       		.uleb128 0x17
 2589 0c59 88020000 		.4byte	.LVL77
 2590 0c5d 4D100000 		.4byte	0x104d
 2591 0c61 6C0C0000 		.4byte	0xc6c
 2592 0c65 18       		.uleb128 0x18
 2593 0c66 01       		.uleb128 0x1
 2594 0c67 50       		.byte	0x50
 2595 0c68 02       		.uleb128 0x2
 2596 0c69 74       		.byte	0x74
 2597 0c6a 00       		.sleb128 0
 2598 0c6b 00       		.byte	0
 2599 0c6c 17       		.uleb128 0x17
 2600 0c6d 94020000 		.4byte	.LVL78
 2601 0c71 2B100000 		.4byte	0x102b
 2602 0c75 830C0000 		.4byte	0xc83
 2603 0c79 18       		.uleb128 0x18
 2604 0c7a 01       		.uleb128 0x1
 2605 0c7b 50       		.byte	0x50
 2606 0c7c 05       		.uleb128 0x5
 2607 0c7d 03       		.byte	0x3
 2608 0c7e 44030000 		.4byte	.LC27
 2609 0c82 00       		.byte	0
 2610 0c83 17       		.uleb128 0x17
 2611 0c84 9A020000 		.4byte	.LVL79
 2612 0c88 3C100000 		.4byte	0x103c
 2613 0c8c 960C0000 		.4byte	0xc96
 2614 0c90 18       		.uleb128 0x18
 2615 0c91 01       		.uleb128 0x1
 2616 0c92 50       		.byte	0x50
 2617 0c93 01       		.uleb128 0x1
 2618 0c94 30       		.byte	0x30
 2619 0c95 00       		.byte	0
 2620 0c96 17       		.uleb128 0x17
 2621 0c97 A0020000 		.4byte	.LVL80
 2622 0c9b 4D100000 		.4byte	0x104d
 2623 0c9f AA0C0000 		.4byte	0xcaa
 2624 0ca3 18       		.uleb128 0x18
 2625 0ca4 01       		.uleb128 0x1
 2626 0ca5 50       		.byte	0x50
 2627 0ca6 02       		.uleb128 0x2
 2628 0ca7 74       		.byte	0x74
 2629 0ca8 00       		.sleb128 0
 2630 0ca9 00       		.byte	0
 2631 0caa 17       		.uleb128 0x17
 2632 0cab AC020000 		.4byte	.LVL81
 2633 0caf 2B100000 		.4byte	0x102b
 2634 0cb3 C10C0000 		.4byte	0xcc1
 2635 0cb7 18       		.uleb128 0x18
ARM GAS  /tmp/cc5xPaTF.s 			page 66


 2636 0cb8 01       		.uleb128 0x1
 2637 0cb9 50       		.byte	0x50
 2638 0cba 05       		.uleb128 0x5
 2639 0cbb 03       		.byte	0x3
 2640 0cbc 64030000 		.4byte	.LC28
 2641 0cc0 00       		.byte	0
 2642 0cc1 17       		.uleb128 0x17
 2643 0cc2 B2020000 		.4byte	.LVL82
 2644 0cc6 3C100000 		.4byte	0x103c
 2645 0cca D40C0000 		.4byte	0xcd4
 2646 0cce 18       		.uleb128 0x18
 2647 0ccf 01       		.uleb128 0x1
 2648 0cd0 50       		.byte	0x50
 2649 0cd1 01       		.uleb128 0x1
 2650 0cd2 30       		.byte	0x30
 2651 0cd3 00       		.byte	0
 2652 0cd4 17       		.uleb128 0x17
 2653 0cd5 B8020000 		.4byte	.LVL83
 2654 0cd9 4D100000 		.4byte	0x104d
 2655 0cdd E80C0000 		.4byte	0xce8
 2656 0ce1 18       		.uleb128 0x18
 2657 0ce2 01       		.uleb128 0x1
 2658 0ce3 50       		.byte	0x50
 2659 0ce4 02       		.uleb128 0x2
 2660 0ce5 74       		.byte	0x74
 2661 0ce6 00       		.sleb128 0
 2662 0ce7 00       		.byte	0
 2663 0ce8 17       		.uleb128 0x17
 2664 0ce9 C4020000 		.4byte	.LVL84
 2665 0ced 2B100000 		.4byte	0x102b
 2666 0cf1 FF0C0000 		.4byte	0xcff
 2667 0cf5 18       		.uleb128 0x18
 2668 0cf6 01       		.uleb128 0x1
 2669 0cf7 50       		.byte	0x50
 2670 0cf8 05       		.uleb128 0x5
 2671 0cf9 03       		.byte	0x3
 2672 0cfa 84030000 		.4byte	.LC29
 2673 0cfe 00       		.byte	0
 2674 0cff 17       		.uleb128 0x17
 2675 0d00 CA020000 		.4byte	.LVL85
 2676 0d04 3C100000 		.4byte	0x103c
 2677 0d08 120D0000 		.4byte	0xd12
 2678 0d0c 18       		.uleb128 0x18
 2679 0d0d 01       		.uleb128 0x1
 2680 0d0e 50       		.byte	0x50
 2681 0d0f 01       		.uleb128 0x1
 2682 0d10 30       		.byte	0x30
 2683 0d11 00       		.byte	0
 2684 0d12 17       		.uleb128 0x17
 2685 0d13 D0020000 		.4byte	.LVL86
 2686 0d17 4D100000 		.4byte	0x104d
 2687 0d1b 260D0000 		.4byte	0xd26
 2688 0d1f 18       		.uleb128 0x18
 2689 0d20 01       		.uleb128 0x1
 2690 0d21 50       		.byte	0x50
 2691 0d22 02       		.uleb128 0x2
 2692 0d23 74       		.byte	0x74
ARM GAS  /tmp/cc5xPaTF.s 			page 67


 2693 0d24 00       		.sleb128 0
 2694 0d25 00       		.byte	0
 2695 0d26 17       		.uleb128 0x17
 2696 0d27 DC020000 		.4byte	.LVL87
 2697 0d2b 2B100000 		.4byte	0x102b
 2698 0d2f 3D0D0000 		.4byte	0xd3d
 2699 0d33 18       		.uleb128 0x18
 2700 0d34 01       		.uleb128 0x1
 2701 0d35 50       		.byte	0x50
 2702 0d36 05       		.uleb128 0x5
 2703 0d37 03       		.byte	0x3
 2704 0d38 A4030000 		.4byte	.LC30
 2705 0d3c 00       		.byte	0
 2706 0d3d 17       		.uleb128 0x17
 2707 0d3e E2020000 		.4byte	.LVL88
 2708 0d42 3C100000 		.4byte	0x103c
 2709 0d46 510D0000 		.4byte	0xd51
 2710 0d4a 18       		.uleb128 0x18
 2711 0d4b 01       		.uleb128 0x1
 2712 0d4c 50       		.byte	0x50
 2713 0d4d 02       		.uleb128 0x2
 2714 0d4e 08       		.byte	0x8
 2715 0d4f FF       		.byte	0xff
 2716 0d50 00       		.byte	0
 2717 0d51 17       		.uleb128 0x17
 2718 0d52 E8020000 		.4byte	.LVL89
 2719 0d56 4D100000 		.4byte	0x104d
 2720 0d5a 650D0000 		.4byte	0xd65
 2721 0d5e 18       		.uleb128 0x18
 2722 0d5f 01       		.uleb128 0x1
 2723 0d60 50       		.byte	0x50
 2724 0d61 02       		.uleb128 0x2
 2725 0d62 74       		.byte	0x74
 2726 0d63 00       		.sleb128 0
 2727 0d64 00       		.byte	0
 2728 0d65 17       		.uleb128 0x17
 2729 0d66 F4020000 		.4byte	.LVL90
 2730 0d6a 2B100000 		.4byte	0x102b
 2731 0d6e 7C0D0000 		.4byte	0xd7c
 2732 0d72 18       		.uleb128 0x18
 2733 0d73 01       		.uleb128 0x1
 2734 0d74 50       		.byte	0x50
 2735 0d75 05       		.uleb128 0x5
 2736 0d76 03       		.byte	0x3
 2737 0d77 C4030000 		.4byte	.LC31
 2738 0d7b 00       		.byte	0
 2739 0d7c 17       		.uleb128 0x17
 2740 0d7d FA020000 		.4byte	.LVL91
 2741 0d81 3C100000 		.4byte	0x103c
 2742 0d85 900D0000 		.4byte	0xd90
 2743 0d89 18       		.uleb128 0x18
 2744 0d8a 01       		.uleb128 0x1
 2745 0d8b 50       		.byte	0x50
 2746 0d8c 02       		.uleb128 0x2
 2747 0d8d 08       		.byte	0x8
 2748 0d8e 80       		.byte	0x80
 2749 0d8f 00       		.byte	0
ARM GAS  /tmp/cc5xPaTF.s 			page 68


 2750 0d90 17       		.uleb128 0x17
 2751 0d91 00030000 		.4byte	.LVL92
 2752 0d95 4D100000 		.4byte	0x104d
 2753 0d99 A40D0000 		.4byte	0xda4
 2754 0d9d 18       		.uleb128 0x18
 2755 0d9e 01       		.uleb128 0x1
 2756 0d9f 50       		.byte	0x50
 2757 0da0 02       		.uleb128 0x2
 2758 0da1 74       		.byte	0x74
 2759 0da2 00       		.sleb128 0
 2760 0da3 00       		.byte	0
 2761 0da4 17       		.uleb128 0x17
 2762 0da5 0C030000 		.4byte	.LVL93
 2763 0da9 2B100000 		.4byte	0x102b
 2764 0dad BB0D0000 		.4byte	0xdbb
 2765 0db1 18       		.uleb128 0x18
 2766 0db2 01       		.uleb128 0x1
 2767 0db3 50       		.byte	0x50
 2768 0db4 05       		.uleb128 0x5
 2769 0db5 03       		.byte	0x3
 2770 0db6 E4030000 		.4byte	.LC32
 2771 0dba 00       		.byte	0
 2772 0dbb 17       		.uleb128 0x17
 2773 0dbc 12030000 		.4byte	.LVL94
 2774 0dc0 3C100000 		.4byte	0x103c
 2775 0dc4 CE0D0000 		.4byte	0xdce
 2776 0dc8 18       		.uleb128 0x18
 2777 0dc9 01       		.uleb128 0x1
 2778 0dca 50       		.byte	0x50
 2779 0dcb 01       		.uleb128 0x1
 2780 0dcc 30       		.byte	0x30
 2781 0dcd 00       		.byte	0
 2782 0dce 17       		.uleb128 0x17
 2783 0dcf 18030000 		.4byte	.LVL95
 2784 0dd3 4D100000 		.4byte	0x104d
 2785 0dd7 E20D0000 		.4byte	0xde2
 2786 0ddb 18       		.uleb128 0x18
 2787 0ddc 01       		.uleb128 0x1
 2788 0ddd 50       		.byte	0x50
 2789 0dde 02       		.uleb128 0x2
 2790 0ddf 74       		.byte	0x74
 2791 0de0 00       		.sleb128 0
 2792 0de1 00       		.byte	0
 2793 0de2 17       		.uleb128 0x17
 2794 0de3 24030000 		.4byte	.LVL96
 2795 0de7 2B100000 		.4byte	0x102b
 2796 0deb F90D0000 		.4byte	0xdf9
 2797 0def 18       		.uleb128 0x18
 2798 0df0 01       		.uleb128 0x1
 2799 0df1 50       		.byte	0x50
 2800 0df2 05       		.uleb128 0x5
 2801 0df3 03       		.byte	0x3
 2802 0df4 04040000 		.4byte	.LC33
 2803 0df8 00       		.byte	0
 2804 0df9 17       		.uleb128 0x17
 2805 0dfa 2A030000 		.4byte	.LVL97
 2806 0dfe 3C100000 		.4byte	0x103c
ARM GAS  /tmp/cc5xPaTF.s 			page 69


 2807 0e02 0C0E0000 		.4byte	0xe0c
 2808 0e06 18       		.uleb128 0x18
 2809 0e07 01       		.uleb128 0x1
 2810 0e08 50       		.byte	0x50
 2811 0e09 01       		.uleb128 0x1
 2812 0e0a 30       		.byte	0x30
 2813 0e0b 00       		.byte	0
 2814 0e0c 17       		.uleb128 0x17
 2815 0e0d 30030000 		.4byte	.LVL98
 2816 0e11 4D100000 		.4byte	0x104d
 2817 0e15 200E0000 		.4byte	0xe20
 2818 0e19 18       		.uleb128 0x18
 2819 0e1a 01       		.uleb128 0x1
 2820 0e1b 50       		.byte	0x50
 2821 0e1c 02       		.uleb128 0x2
 2822 0e1d 74       		.byte	0x74
 2823 0e1e 00       		.sleb128 0
 2824 0e1f 00       		.byte	0
 2825 0e20 17       		.uleb128 0x17
 2826 0e21 3C030000 		.4byte	.LVL99
 2827 0e25 2B100000 		.4byte	0x102b
 2828 0e29 370E0000 		.4byte	0xe37
 2829 0e2d 18       		.uleb128 0x18
 2830 0e2e 01       		.uleb128 0x1
 2831 0e2f 50       		.byte	0x50
 2832 0e30 05       		.uleb128 0x5
 2833 0e31 03       		.byte	0x3
 2834 0e32 24040000 		.4byte	.LC34
 2835 0e36 00       		.byte	0
 2836 0e37 17       		.uleb128 0x17
 2837 0e38 42030000 		.4byte	.LVL100
 2838 0e3c 3C100000 		.4byte	0x103c
 2839 0e40 4A0E0000 		.4byte	0xe4a
 2840 0e44 18       		.uleb128 0x18
 2841 0e45 01       		.uleb128 0x1
 2842 0e46 50       		.byte	0x50
 2843 0e47 01       		.uleb128 0x1
 2844 0e48 30       		.byte	0x30
 2845 0e49 00       		.byte	0
 2846 0e4a 19       		.uleb128 0x19
 2847 0e4b 4C030000 		.4byte	.LVL101
 2848 0e4f 4D100000 		.4byte	0x104d
 2849 0e53 18       		.uleb128 0x18
 2850 0e54 01       		.uleb128 0x1
 2851 0e55 50       		.byte	0x50
 2852 0e56 05       		.uleb128 0x5
 2853 0e57 03       		.byte	0x3
 2854 0e58 20000000 		.4byte	.LC1
 2855 0e5c 00       		.byte	0
 2856 0e5d 00       		.byte	0
 2857 0e5e 16       		.uleb128 0x16
 2858 0e5f AB000000 		.4byte	.LASF90
 2859 0e63 01       		.byte	0x1
 2860 0e64 3C       		.byte	0x3c
 2861 0e65 00000000 		.4byte	.LFB219
 2862 0e69 9E000000 		.4byte	.LFE219-.LFB219
 2863 0e6d 01       		.uleb128 0x1
ARM GAS  /tmp/cc5xPaTF.s 			page 70


 2864 0e6e 9C       		.byte	0x9c
 2865 0e6f B10F0000 		.4byte	0xfb1
 2866 0e73 17       		.uleb128 0x17
 2867 0e74 1A000000 		.4byte	.LVL102
 2868 0e78 4D100000 		.4byte	0x104d
 2869 0e7c 8A0E0000 		.4byte	0xe8a
 2870 0e80 18       		.uleb128 0x18
 2871 0e81 01       		.uleb128 0x1
 2872 0e82 50       		.byte	0x50
 2873 0e83 05       		.uleb128 0x5
 2874 0e84 03       		.byte	0x3
 2875 0e85 44040000 		.4byte	.LC35
 2876 0e89 00       		.byte	0
 2877 0e8a 17       		.uleb128 0x17
 2878 0e8b 2E000000 		.4byte	.LVL103
 2879 0e8f 2B100000 		.4byte	0x102b
 2880 0e93 A10E0000 		.4byte	0xea1
 2881 0e97 18       		.uleb128 0x18
 2882 0e98 01       		.uleb128 0x1
 2883 0e99 50       		.byte	0x50
 2884 0e9a 05       		.uleb128 0x5
 2885 0e9b 03       		.byte	0x3
 2886 0e9c 70040000 		.4byte	.LC36
 2887 0ea0 00       		.byte	0
 2888 0ea1 17       		.uleb128 0x17
 2889 0ea2 34000000 		.4byte	.LVL104
 2890 0ea6 3C100000 		.4byte	0x103c
 2891 0eaa B50E0000 		.4byte	0xeb5
 2892 0eae 18       		.uleb128 0x18
 2893 0eaf 01       		.uleb128 0x1
 2894 0eb0 50       		.byte	0x50
 2895 0eb1 02       		.uleb128 0x2
 2896 0eb2 75       		.byte	0x75
 2897 0eb3 00       		.sleb128 0
 2898 0eb4 00       		.byte	0
 2899 0eb5 17       		.uleb128 0x17
 2900 0eb6 3A000000 		.4byte	.LVL105
 2901 0eba 4D100000 		.4byte	0x104d
 2902 0ebe C90E0000 		.4byte	0xec9
 2903 0ec2 18       		.uleb128 0x18
 2904 0ec3 01       		.uleb128 0x1
 2905 0ec4 50       		.byte	0x50
 2906 0ec5 02       		.uleb128 0x2
 2907 0ec6 74       		.byte	0x74
 2908 0ec7 00       		.sleb128 0
 2909 0ec8 00       		.byte	0
 2910 0ec9 17       		.uleb128 0x17
 2911 0eca 46000000 		.4byte	.LVL106
 2912 0ece 2B100000 		.4byte	0x102b
 2913 0ed2 E00E0000 		.4byte	0xee0
 2914 0ed6 18       		.uleb128 0x18
 2915 0ed7 01       		.uleb128 0x1
 2916 0ed8 50       		.byte	0x50
 2917 0ed9 05       		.uleb128 0x5
 2918 0eda 03       		.byte	0x3
 2919 0edb 90040000 		.4byte	.LC37
 2920 0edf 00       		.byte	0
ARM GAS  /tmp/cc5xPaTF.s 			page 71


 2921 0ee0 17       		.uleb128 0x17
 2922 0ee1 52000000 		.4byte	.LVL107
 2923 0ee5 4D100000 		.4byte	0x104d
 2924 0ee9 F70E0000 		.4byte	0xef7
 2925 0eed 18       		.uleb128 0x18
 2926 0eee 01       		.uleb128 0x1
 2927 0eef 50       		.byte	0x50
 2928 0ef0 05       		.uleb128 0x5
 2929 0ef1 03       		.byte	0x3
 2930 0ef2 B0040000 		.4byte	.LC38
 2931 0ef6 00       		.byte	0
 2932 0ef7 17       		.uleb128 0x17
 2933 0ef8 5E000000 		.4byte	.LVL108
 2934 0efc 2B100000 		.4byte	0x102b
 2935 0f00 0E0F0000 		.4byte	0xf0e
 2936 0f04 18       		.uleb128 0x18
 2937 0f05 01       		.uleb128 0x1
 2938 0f06 50       		.byte	0x50
 2939 0f07 05       		.uleb128 0x5
 2940 0f08 03       		.byte	0x3
 2941 0f09 B8040000 		.4byte	.LC39
 2942 0f0d 00       		.byte	0
 2943 0f0e 17       		.uleb128 0x17
 2944 0f0f 64000000 		.4byte	.LVL109
 2945 0f13 3C100000 		.4byte	0x103c
 2946 0f17 210F0000 		.4byte	0xf21
 2947 0f1b 18       		.uleb128 0x18
 2948 0f1c 01       		.uleb128 0x1
 2949 0f1d 50       		.byte	0x50
 2950 0f1e 01       		.uleb128 0x1
 2951 0f1f 34       		.byte	0x34
 2952 0f20 00       		.byte	0
 2953 0f21 17       		.uleb128 0x17
 2954 0f22 6A000000 		.4byte	.LVL110
 2955 0f26 4D100000 		.4byte	0x104d
 2956 0f2a 350F0000 		.4byte	0xf35
 2957 0f2e 18       		.uleb128 0x18
 2958 0f2f 01       		.uleb128 0x1
 2959 0f30 50       		.byte	0x50
 2960 0f31 02       		.uleb128 0x2
 2961 0f32 74       		.byte	0x74
 2962 0f33 00       		.sleb128 0
 2963 0f34 00       		.byte	0
 2964 0f35 17       		.uleb128 0x17
 2965 0f36 76000000 		.4byte	.LVL111
 2966 0f3a 2B100000 		.4byte	0x102b
 2967 0f3e 4C0F0000 		.4byte	0xf4c
 2968 0f42 18       		.uleb128 0x18
 2969 0f43 01       		.uleb128 0x1
 2970 0f44 50       		.byte	0x50
 2971 0f45 05       		.uleb128 0x5
 2972 0f46 03       		.byte	0x3
 2973 0f47 D8040000 		.4byte	.LC40
 2974 0f4b 00       		.byte	0
 2975 0f4c 17       		.uleb128 0x17
 2976 0f4d 7C000000 		.4byte	.LVL112
 2977 0f51 3C100000 		.4byte	0x103c
ARM GAS  /tmp/cc5xPaTF.s 			page 72


 2978 0f55 5F0F0000 		.4byte	0xf5f
 2979 0f59 18       		.uleb128 0x18
 2980 0f5a 01       		.uleb128 0x1
 2981 0f5b 50       		.byte	0x50
 2982 0f5c 01       		.uleb128 0x1
 2983 0f5d 30       		.byte	0x30
 2984 0f5e 00       		.byte	0
 2985 0f5f 17       		.uleb128 0x17
 2986 0f60 82000000 		.4byte	.LVL113
 2987 0f64 4D100000 		.4byte	0x104d
 2988 0f68 730F0000 		.4byte	0xf73
 2989 0f6c 18       		.uleb128 0x18
 2990 0f6d 01       		.uleb128 0x1
 2991 0f6e 50       		.byte	0x50
 2992 0f6f 02       		.uleb128 0x2
 2993 0f70 74       		.byte	0x74
 2994 0f71 00       		.sleb128 0
 2995 0f72 00       		.byte	0
 2996 0f73 17       		.uleb128 0x17
 2997 0f74 8E000000 		.4byte	.LVL114
 2998 0f78 2B100000 		.4byte	0x102b
 2999 0f7c 8A0F0000 		.4byte	0xf8a
 3000 0f80 18       		.uleb128 0x18
 3001 0f81 01       		.uleb128 0x1
 3002 0f82 50       		.byte	0x50
 3003 0f83 05       		.uleb128 0x5
 3004 0f84 03       		.byte	0x3
 3005 0f85 F8040000 		.4byte	.LC41
 3006 0f89 00       		.byte	0
 3007 0f8a 17       		.uleb128 0x17
 3008 0f8b 94000000 		.4byte	.LVL115
 3009 0f8f 3C100000 		.4byte	0x103c
 3010 0f93 9D0F0000 		.4byte	0xf9d
 3011 0f97 18       		.uleb128 0x18
 3012 0f98 01       		.uleb128 0x1
 3013 0f99 50       		.byte	0x50
 3014 0f9a 01       		.uleb128 0x1
 3015 0f9b 32       		.byte	0x32
 3016 0f9c 00       		.byte	0
 3017 0f9d 19       		.uleb128 0x19
 3018 0f9e 9E000000 		.4byte	.LVL116
 3019 0fa2 4D100000 		.4byte	0x104d
 3020 0fa6 18       		.uleb128 0x18
 3021 0fa7 01       		.uleb128 0x1
 3022 0fa8 50       		.byte	0x50
 3023 0fa9 05       		.uleb128 0x5
 3024 0faa 03       		.byte	0x3
 3025 0fab 20000000 		.4byte	.LC1
 3026 0faf 00       		.byte	0
 3027 0fb0 00       		.byte	0
 3028 0fb1 1A       		.uleb128 0x1a
 3029 0fb2 38020000 		.4byte	.LASF91
 3030 0fb6 01       		.byte	0x1
 3031 0fb7 53       		.byte	0x53
 3032 0fb8 C20F0000 		.4byte	0xfc2
 3033 0fbc 05       		.uleb128 0x5
 3034 0fbd 03       		.byte	0x3
ARM GAS  /tmp/cc5xPaTF.s 			page 73


 3035 0fbe 00000000 		.4byte	test_001_001
 3036 0fc2 12       		.uleb128 0x12
 3037 0fc3 EF050000 		.4byte	0x5ef
 3038 0fc7 1A       		.uleb128 0x1a
 3039 0fc8 45020000 		.4byte	.LASF92
 3040 0fcc 01       		.byte	0x1
 3041 0fcd D3       		.byte	0xd3
 3042 0fce C20F0000 		.4byte	0xfc2
 3043 0fd2 05       		.uleb128 0x5
 3044 0fd3 03       		.byte	0x3
 3045 0fd4 00000000 		.4byte	test_001_002
 3046 0fd8 1B       		.uleb128 0x1b
 3047 0fd9 E1040000 		.4byte	.LASF93
 3048 0fdd 0C       		.byte	0xc
 3049 0fde 9606     		.2byte	0x696
 3050 0fe0 E40F0000 		.4byte	0xfe4
 3051 0fe4 13       		.uleb128 0x13
 3052 0fe5 70000000 		.4byte	0x70
 3053 0fe9 1C       		.uleb128 0x1c
 3054 0fea 636800   		.ascii	"ch\000"
 3055 0fed 06       		.byte	0x6
 3056 0fee D201     		.2byte	0x1d2
 3057 0ff0 A5030000 		.4byte	0x3a5
 3058 0ff4 1D       		.uleb128 0x1d
 3059 0ff5 F6030000 		.4byte	.LASF94
 3060 0ff9 0B       		.byte	0xb
 3061 0ffa 9E       		.byte	0x9e
 3062 0ffb 37000000 		.4byte	0x37
 3063 0fff 1E       		.uleb128 0x1e
 3064 1000 0F100000 		.4byte	0x100f
 3065 1004 0F100000 		.4byte	0x100f
 3066 1008 1F       		.uleb128 0x1f
 3067 1009 F2030000 		.4byte	0x3f2
 3068 100d 02       		.byte	0x2
 3069 100e 00       		.byte	0
 3070 100f 0A       		.uleb128 0xa
 3071 1010 04       		.byte	0x4
 3072 1011 C20F0000 		.4byte	0xfc2
 3073 1015 20       		.uleb128 0x20
 3074 1016 26000000 		.4byte	.LASF95
 3075 101a 01       		.byte	0x1
 3076 101b E1       		.byte	0xe1
 3077 101c 26100000 		.4byte	0x1026
 3078 1020 05       		.uleb128 0x5
 3079 1021 03       		.byte	0x3
 3080 1022 00000000 		.4byte	test_sequence_001
 3081 1026 12       		.uleb128 0x12
 3082 1027 FF0F0000 		.4byte	0xfff
 3083 102b 21       		.uleb128 0x21
 3084 102c 3C010000 		.4byte	.LASF96
 3085 1030 0B       		.byte	0xb
 3086 1031 AC       		.byte	0xac
 3087 1032 3C100000 		.4byte	0x103c
 3088 1036 0D       		.uleb128 0xd
 3089 1037 74050000 		.4byte	0x574
 3090 103b 00       		.byte	0
 3091 103c 21       		.uleb128 0x21
ARM GAS  /tmp/cc5xPaTF.s 			page 74


 3092 103d 0E040000 		.4byte	.LASF97
 3093 1041 0B       		.byte	0xb
 3094 1042 AB       		.byte	0xab
 3095 1043 4D100000 		.4byte	0x104d
 3096 1047 0D       		.uleb128 0xd
 3097 1048 82000000 		.4byte	0x82
 3098 104c 00       		.byte	0
 3099 104d 22       		.uleb128 0x22
 3100 104e C7000000 		.4byte	.LASF101
 3101 1052 0B       		.byte	0xb
 3102 1053 AD       		.byte	0xad
 3103 1054 0D       		.uleb128 0xd
 3104 1055 74050000 		.4byte	0x574
 3105 1059 00       		.byte	0
 3106 105a 00       		.byte	0
 3107              		.section	.debug_abbrev,"",%progbits
 3108              	.Ldebug_abbrev0:
 3109 0000 01       		.uleb128 0x1
 3110 0001 11       		.uleb128 0x11
 3111 0002 01       		.byte	0x1
 3112 0003 25       		.uleb128 0x25
 3113 0004 0E       		.uleb128 0xe
 3114 0005 13       		.uleb128 0x13
 3115 0006 0B       		.uleb128 0xb
 3116 0007 03       		.uleb128 0x3
 3117 0008 0E       		.uleb128 0xe
 3118 0009 1B       		.uleb128 0x1b
 3119 000a 0E       		.uleb128 0xe
 3120 000b 55       		.uleb128 0x55
 3121 000c 17       		.uleb128 0x17
 3122 000d 11       		.uleb128 0x11
 3123 000e 01       		.uleb128 0x1
 3124 000f 10       		.uleb128 0x10
 3125 0010 17       		.uleb128 0x17
 3126 0011 00       		.byte	0
 3127 0012 00       		.byte	0
 3128 0013 02       		.uleb128 0x2
 3129 0014 24       		.uleb128 0x24
 3130 0015 00       		.byte	0
 3131 0016 0B       		.uleb128 0xb
 3132 0017 0B       		.uleb128 0xb
 3133 0018 3E       		.uleb128 0x3e
 3134 0019 0B       		.uleb128 0xb
 3135 001a 03       		.uleb128 0x3
 3136 001b 08       		.uleb128 0x8
 3137 001c 00       		.byte	0
 3138 001d 00       		.byte	0
 3139 001e 03       		.uleb128 0x3
 3140 001f 16       		.uleb128 0x16
 3141 0020 00       		.byte	0
 3142 0021 03       		.uleb128 0x3
 3143 0022 0E       		.uleb128 0xe
 3144 0023 3A       		.uleb128 0x3a
 3145 0024 0B       		.uleb128 0xb
 3146 0025 3B       		.uleb128 0x3b
 3147 0026 0B       		.uleb128 0xb
 3148 0027 49       		.uleb128 0x49
ARM GAS  /tmp/cc5xPaTF.s 			page 75


 3149 0028 13       		.uleb128 0x13
 3150 0029 00       		.byte	0
 3151 002a 00       		.byte	0
 3152 002b 04       		.uleb128 0x4
 3153 002c 24       		.uleb128 0x24
 3154 002d 00       		.byte	0
 3155 002e 0B       		.uleb128 0xb
 3156 002f 0B       		.uleb128 0xb
 3157 0030 3E       		.uleb128 0x3e
 3158 0031 0B       		.uleb128 0xb
 3159 0032 03       		.uleb128 0x3
 3160 0033 0E       		.uleb128 0xe
 3161 0034 00       		.byte	0
 3162 0035 00       		.byte	0
 3163 0036 05       		.uleb128 0x5
 3164 0037 13       		.uleb128 0x13
 3165 0038 01       		.byte	0x1
 3166 0039 03       		.uleb128 0x3
 3167 003a 0E       		.uleb128 0xe
 3168 003b 0B       		.uleb128 0xb
 3169 003c 0B       		.uleb128 0xb
 3170 003d 3A       		.uleb128 0x3a
 3171 003e 0B       		.uleb128 0xb
 3172 003f 3B       		.uleb128 0x3b
 3173 0040 0B       		.uleb128 0xb
 3174 0041 01       		.uleb128 0x1
 3175 0042 13       		.uleb128 0x13
 3176 0043 00       		.byte	0
 3177 0044 00       		.byte	0
 3178 0045 06       		.uleb128 0x6
 3179 0046 0D       		.uleb128 0xd
 3180 0047 00       		.byte	0
 3181 0048 03       		.uleb128 0x3
 3182 0049 0E       		.uleb128 0xe
 3183 004a 3A       		.uleb128 0x3a
 3184 004b 0B       		.uleb128 0xb
 3185 004c 3B       		.uleb128 0x3b
 3186 004d 0B       		.uleb128 0xb
 3187 004e 49       		.uleb128 0x49
 3188 004f 13       		.uleb128 0x13
 3189 0050 38       		.uleb128 0x38
 3190 0051 0B       		.uleb128 0xb
 3191 0052 00       		.byte	0
 3192 0053 00       		.byte	0
 3193 0054 07       		.uleb128 0x7
 3194 0055 0D       		.uleb128 0xd
 3195 0056 00       		.byte	0
 3196 0057 03       		.uleb128 0x3
 3197 0058 08       		.uleb128 0x8
 3198 0059 3A       		.uleb128 0x3a
 3199 005a 0B       		.uleb128 0xb
 3200 005b 3B       		.uleb128 0x3b
 3201 005c 0B       		.uleb128 0xb
 3202 005d 49       		.uleb128 0x49
 3203 005e 13       		.uleb128 0x13
 3204 005f 38       		.uleb128 0x38
 3205 0060 0B       		.uleb128 0xb
ARM GAS  /tmp/cc5xPaTF.s 			page 76


 3206 0061 00       		.byte	0
 3207 0062 00       		.byte	0
 3208 0063 08       		.uleb128 0x8
 3209 0064 0D       		.uleb128 0xd
 3210 0065 00       		.byte	0
 3211 0066 03       		.uleb128 0x3
 3212 0067 08       		.uleb128 0x8
 3213 0068 3A       		.uleb128 0x3a
 3214 0069 0B       		.uleb128 0xb
 3215 006a 3B       		.uleb128 0x3b
 3216 006b 05       		.uleb128 0x5
 3217 006c 49       		.uleb128 0x49
 3218 006d 13       		.uleb128 0x13
 3219 006e 38       		.uleb128 0x38
 3220 006f 0B       		.uleb128 0xb
 3221 0070 00       		.byte	0
 3222 0071 00       		.byte	0
 3223 0072 09       		.uleb128 0x9
 3224 0073 0D       		.uleb128 0xd
 3225 0074 00       		.byte	0
 3226 0075 03       		.uleb128 0x3
 3227 0076 0E       		.uleb128 0xe
 3228 0077 3A       		.uleb128 0x3a
 3229 0078 0B       		.uleb128 0xb
 3230 0079 3B       		.uleb128 0x3b
 3231 007a 05       		.uleb128 0x5
 3232 007b 49       		.uleb128 0x49
 3233 007c 13       		.uleb128 0x13
 3234 007d 38       		.uleb128 0x38
 3235 007e 0B       		.uleb128 0xb
 3236 007f 00       		.byte	0
 3237 0080 00       		.byte	0
 3238 0081 0A       		.uleb128 0xa
 3239 0082 0F       		.uleb128 0xf
 3240 0083 00       		.byte	0
 3241 0084 0B       		.uleb128 0xb
 3242 0085 0B       		.uleb128 0xb
 3243 0086 49       		.uleb128 0x49
 3244 0087 13       		.uleb128 0x13
 3245 0088 00       		.byte	0
 3246 0089 00       		.byte	0
 3247 008a 0B       		.uleb128 0xb
 3248 008b 13       		.uleb128 0x13
 3249 008c 01       		.byte	0x1
 3250 008d 03       		.uleb128 0x3
 3251 008e 0E       		.uleb128 0xe
 3252 008f 0B       		.uleb128 0xb
 3253 0090 0B       		.uleb128 0xb
 3254 0091 3A       		.uleb128 0x3a
 3255 0092 0B       		.uleb128 0xb
 3256 0093 3B       		.uleb128 0x3b
 3257 0094 05       		.uleb128 0x5
 3258 0095 01       		.uleb128 0x1
 3259 0096 13       		.uleb128 0x13
 3260 0097 00       		.byte	0
 3261 0098 00       		.byte	0
 3262 0099 0C       		.uleb128 0xc
ARM GAS  /tmp/cc5xPaTF.s 			page 77


 3263 009a 15       		.uleb128 0x15
 3264 009b 01       		.byte	0x1
 3265 009c 27       		.uleb128 0x27
 3266 009d 19       		.uleb128 0x19
 3267 009e 01       		.uleb128 0x1
 3268 009f 13       		.uleb128 0x13
 3269 00a0 00       		.byte	0
 3270 00a1 00       		.byte	0
 3271 00a2 0D       		.uleb128 0xd
 3272 00a3 05       		.uleb128 0x5
 3273 00a4 00       		.byte	0
 3274 00a5 49       		.uleb128 0x49
 3275 00a6 13       		.uleb128 0x13
 3276 00a7 00       		.byte	0
 3277 00a8 00       		.byte	0
 3278 00a9 0E       		.uleb128 0xe
 3279 00aa 0F       		.uleb128 0xf
 3280 00ab 00       		.byte	0
 3281 00ac 0B       		.uleb128 0xb
 3282 00ad 0B       		.uleb128 0xb
 3283 00ae 00       		.byte	0
 3284 00af 00       		.byte	0
 3285 00b0 0F       		.uleb128 0xf
 3286 00b1 17       		.uleb128 0x17
 3287 00b2 01       		.byte	0x1
 3288 00b3 0B       		.uleb128 0xb
 3289 00b4 0B       		.uleb128 0xb
 3290 00b5 3A       		.uleb128 0x3a
 3291 00b6 0B       		.uleb128 0xb
 3292 00b7 3B       		.uleb128 0x3b
 3293 00b8 0B       		.uleb128 0xb
 3294 00b9 01       		.uleb128 0x1
 3295 00ba 13       		.uleb128 0x13
 3296 00bb 00       		.byte	0
 3297 00bc 00       		.byte	0
 3298 00bd 10       		.uleb128 0x10
 3299 00be 0D       		.uleb128 0xd
 3300 00bf 00       		.byte	0
 3301 00c0 03       		.uleb128 0x3
 3302 00c1 0E       		.uleb128 0xe
 3303 00c2 3A       		.uleb128 0x3a
 3304 00c3 0B       		.uleb128 0xb
 3305 00c4 3B       		.uleb128 0x3b
 3306 00c5 0B       		.uleb128 0xb
 3307 00c6 49       		.uleb128 0x49
 3308 00c7 13       		.uleb128 0x13
 3309 00c8 00       		.byte	0
 3310 00c9 00       		.byte	0
 3311 00ca 11       		.uleb128 0x11
 3312 00cb 0D       		.uleb128 0xd
 3313 00cc 00       		.byte	0
 3314 00cd 03       		.uleb128 0x3
 3315 00ce 0E       		.uleb128 0xe
 3316 00cf 3A       		.uleb128 0x3a
 3317 00d0 0B       		.uleb128 0xb
 3318 00d1 3B       		.uleb128 0x3b
 3319 00d2 05       		.uleb128 0x5
ARM GAS  /tmp/cc5xPaTF.s 			page 78


 3320 00d3 49       		.uleb128 0x49
 3321 00d4 13       		.uleb128 0x13
 3322 00d5 00       		.byte	0
 3323 00d6 00       		.byte	0
 3324 00d7 12       		.uleb128 0x12
 3325 00d8 26       		.uleb128 0x26
 3326 00d9 00       		.byte	0
 3327 00da 49       		.uleb128 0x49
 3328 00db 13       		.uleb128 0x13
 3329 00dc 00       		.byte	0
 3330 00dd 00       		.byte	0
 3331 00de 13       		.uleb128 0x13
 3332 00df 35       		.uleb128 0x35
 3333 00e0 00       		.byte	0
 3334 00e1 49       		.uleb128 0x49
 3335 00e2 13       		.uleb128 0x13
 3336 00e3 00       		.byte	0
 3337 00e4 00       		.byte	0
 3338 00e5 14       		.uleb128 0x14
 3339 00e6 15       		.uleb128 0x15
 3340 00e7 00       		.byte	0
 3341 00e8 27       		.uleb128 0x27
 3342 00e9 19       		.uleb128 0x19
 3343 00ea 00       		.byte	0
 3344 00eb 00       		.byte	0
 3345 00ec 15       		.uleb128 0x15
 3346 00ed 13       		.uleb128 0x13
 3347 00ee 01       		.byte	0x1
 3348 00ef 0B       		.uleb128 0xb
 3349 00f0 0B       		.uleb128 0xb
 3350 00f1 3A       		.uleb128 0x3a
 3351 00f2 0B       		.uleb128 0xb
 3352 00f3 3B       		.uleb128 0x3b
 3353 00f4 0B       		.uleb128 0xb
 3354 00f5 01       		.uleb128 0x1
 3355 00f6 13       		.uleb128 0x13
 3356 00f7 00       		.byte	0
 3357 00f8 00       		.byte	0
 3358 00f9 16       		.uleb128 0x16
 3359 00fa 2E       		.uleb128 0x2e
 3360 00fb 01       		.byte	0x1
 3361 00fc 03       		.uleb128 0x3
 3362 00fd 0E       		.uleb128 0xe
 3363 00fe 3A       		.uleb128 0x3a
 3364 00ff 0B       		.uleb128 0xb
 3365 0100 3B       		.uleb128 0x3b
 3366 0101 0B       		.uleb128 0xb
 3367 0102 27       		.uleb128 0x27
 3368 0103 19       		.uleb128 0x19
 3369 0104 11       		.uleb128 0x11
 3370 0105 01       		.uleb128 0x1
 3371 0106 12       		.uleb128 0x12
 3372 0107 06       		.uleb128 0x6
 3373 0108 40       		.uleb128 0x40
 3374 0109 18       		.uleb128 0x18
 3375 010a 9742     		.uleb128 0x2117
 3376 010c 19       		.uleb128 0x19
ARM GAS  /tmp/cc5xPaTF.s 			page 79


 3377 010d 01       		.uleb128 0x1
 3378 010e 13       		.uleb128 0x13
 3379 010f 00       		.byte	0
 3380 0110 00       		.byte	0
 3381 0111 17       		.uleb128 0x17
 3382 0112 898201   		.uleb128 0x4109
 3383 0115 01       		.byte	0x1
 3384 0116 11       		.uleb128 0x11
 3385 0117 01       		.uleb128 0x1
 3386 0118 31       		.uleb128 0x31
 3387 0119 13       		.uleb128 0x13
 3388 011a 01       		.uleb128 0x1
 3389 011b 13       		.uleb128 0x13
 3390 011c 00       		.byte	0
 3391 011d 00       		.byte	0
 3392 011e 18       		.uleb128 0x18
 3393 011f 8A8201   		.uleb128 0x410a
 3394 0122 00       		.byte	0
 3395 0123 02       		.uleb128 0x2
 3396 0124 18       		.uleb128 0x18
 3397 0125 9142     		.uleb128 0x2111
 3398 0127 18       		.uleb128 0x18
 3399 0128 00       		.byte	0
 3400 0129 00       		.byte	0
 3401 012a 19       		.uleb128 0x19
 3402 012b 898201   		.uleb128 0x4109
 3403 012e 01       		.byte	0x1
 3404 012f 11       		.uleb128 0x11
 3405 0130 01       		.uleb128 0x1
 3406 0131 9542     		.uleb128 0x2115
 3407 0133 19       		.uleb128 0x19
 3408 0134 31       		.uleb128 0x31
 3409 0135 13       		.uleb128 0x13
 3410 0136 00       		.byte	0
 3411 0137 00       		.byte	0
 3412 0138 1A       		.uleb128 0x1a
 3413 0139 34       		.uleb128 0x34
 3414 013a 00       		.byte	0
 3415 013b 03       		.uleb128 0x3
 3416 013c 0E       		.uleb128 0xe
 3417 013d 3A       		.uleb128 0x3a
 3418 013e 0B       		.uleb128 0xb
 3419 013f 3B       		.uleb128 0x3b
 3420 0140 0B       		.uleb128 0xb
 3421 0141 49       		.uleb128 0x49
 3422 0142 13       		.uleb128 0x13
 3423 0143 02       		.uleb128 0x2
 3424 0144 18       		.uleb128 0x18
 3425 0145 00       		.byte	0
 3426 0146 00       		.byte	0
 3427 0147 1B       		.uleb128 0x1b
 3428 0148 34       		.uleb128 0x34
 3429 0149 00       		.byte	0
 3430 014a 03       		.uleb128 0x3
 3431 014b 0E       		.uleb128 0xe
 3432 014c 3A       		.uleb128 0x3a
 3433 014d 0B       		.uleb128 0xb
ARM GAS  /tmp/cc5xPaTF.s 			page 80


 3434 014e 3B       		.uleb128 0x3b
 3435 014f 05       		.uleb128 0x5
 3436 0150 49       		.uleb128 0x49
 3437 0151 13       		.uleb128 0x13
 3438 0152 3F       		.uleb128 0x3f
 3439 0153 19       		.uleb128 0x19
 3440 0154 3C       		.uleb128 0x3c
 3441 0155 19       		.uleb128 0x19
 3442 0156 00       		.byte	0
 3443 0157 00       		.byte	0
 3444 0158 1C       		.uleb128 0x1c
 3445 0159 34       		.uleb128 0x34
 3446 015a 00       		.byte	0
 3447 015b 03       		.uleb128 0x3
 3448 015c 08       		.uleb128 0x8
 3449 015d 3A       		.uleb128 0x3a
 3450 015e 0B       		.uleb128 0xb
 3451 015f 3B       		.uleb128 0x3b
 3452 0160 05       		.uleb128 0x5
 3453 0161 49       		.uleb128 0x49
 3454 0162 13       		.uleb128 0x13
 3455 0163 3F       		.uleb128 0x3f
 3456 0164 19       		.uleb128 0x19
 3457 0165 3C       		.uleb128 0x3c
 3458 0166 19       		.uleb128 0x19
 3459 0167 00       		.byte	0
 3460 0168 00       		.byte	0
 3461 0169 1D       		.uleb128 0x1d
 3462 016a 34       		.uleb128 0x34
 3463 016b 00       		.byte	0
 3464 016c 03       		.uleb128 0x3
 3465 016d 0E       		.uleb128 0xe
 3466 016e 3A       		.uleb128 0x3a
 3467 016f 0B       		.uleb128 0xb
 3468 0170 3B       		.uleb128 0x3b
 3469 0171 0B       		.uleb128 0xb
 3470 0172 49       		.uleb128 0x49
 3471 0173 13       		.uleb128 0x13
 3472 0174 3F       		.uleb128 0x3f
 3473 0175 19       		.uleb128 0x19
 3474 0176 3C       		.uleb128 0x3c
 3475 0177 19       		.uleb128 0x19
 3476 0178 00       		.byte	0
 3477 0179 00       		.byte	0
 3478 017a 1E       		.uleb128 0x1e
 3479 017b 01       		.uleb128 0x1
 3480 017c 01       		.byte	0x1
 3481 017d 49       		.uleb128 0x49
 3482 017e 13       		.uleb128 0x13
 3483 017f 01       		.uleb128 0x1
 3484 0180 13       		.uleb128 0x13
 3485 0181 00       		.byte	0
 3486 0182 00       		.byte	0
 3487 0183 1F       		.uleb128 0x1f
 3488 0184 21       		.uleb128 0x21
 3489 0185 00       		.byte	0
 3490 0186 49       		.uleb128 0x49
ARM GAS  /tmp/cc5xPaTF.s 			page 81


 3491 0187 13       		.uleb128 0x13
 3492 0188 2F       		.uleb128 0x2f
 3493 0189 0B       		.uleb128 0xb
 3494 018a 00       		.byte	0
 3495 018b 00       		.byte	0
 3496 018c 20       		.uleb128 0x20
 3497 018d 34       		.uleb128 0x34
 3498 018e 00       		.byte	0
 3499 018f 03       		.uleb128 0x3
 3500 0190 0E       		.uleb128 0xe
 3501 0191 3A       		.uleb128 0x3a
 3502 0192 0B       		.uleb128 0xb
 3503 0193 3B       		.uleb128 0x3b
 3504 0194 0B       		.uleb128 0xb
 3505 0195 49       		.uleb128 0x49
 3506 0196 13       		.uleb128 0x13
 3507 0197 3F       		.uleb128 0x3f
 3508 0198 19       		.uleb128 0x19
 3509 0199 02       		.uleb128 0x2
 3510 019a 18       		.uleb128 0x18
 3511 019b 00       		.byte	0
 3512 019c 00       		.byte	0
 3513 019d 21       		.uleb128 0x21
 3514 019e 2E       		.uleb128 0x2e
 3515 019f 01       		.byte	0x1
 3516 01a0 3F       		.uleb128 0x3f
 3517 01a1 19       		.uleb128 0x19
 3518 01a2 03       		.uleb128 0x3
 3519 01a3 0E       		.uleb128 0xe
 3520 01a4 3A       		.uleb128 0x3a
 3521 01a5 0B       		.uleb128 0xb
 3522 01a6 3B       		.uleb128 0x3b
 3523 01a7 0B       		.uleb128 0xb
 3524 01a8 27       		.uleb128 0x27
 3525 01a9 19       		.uleb128 0x19
 3526 01aa 3C       		.uleb128 0x3c
 3527 01ab 19       		.uleb128 0x19
 3528 01ac 01       		.uleb128 0x1
 3529 01ad 13       		.uleb128 0x13
 3530 01ae 00       		.byte	0
 3531 01af 00       		.byte	0
 3532 01b0 22       		.uleb128 0x22
 3533 01b1 2E       		.uleb128 0x2e
 3534 01b2 01       		.byte	0x1
 3535 01b3 3F       		.uleb128 0x3f
 3536 01b4 19       		.uleb128 0x19
 3537 01b5 03       		.uleb128 0x3
 3538 01b6 0E       		.uleb128 0xe
 3539 01b7 3A       		.uleb128 0x3a
 3540 01b8 0B       		.uleb128 0xb
 3541 01b9 3B       		.uleb128 0x3b
 3542 01ba 0B       		.uleb128 0xb
 3543 01bb 27       		.uleb128 0x27
 3544 01bc 19       		.uleb128 0x19
 3545 01bd 3C       		.uleb128 0x3c
 3546 01be 19       		.uleb128 0x19
 3547 01bf 00       		.byte	0
ARM GAS  /tmp/cc5xPaTF.s 			page 82


 3548 01c0 00       		.byte	0
 3549 01c1 00       		.byte	0
 3550              		.section	.debug_aranges,"",%progbits
 3551 0000 24000000 		.4byte	0x24
 3552 0004 0200     		.2byte	0x2
 3553 0006 00000000 		.4byte	.Ldebug_info0
 3554 000a 04       		.byte	0x4
 3555 000b 00       		.byte	0
 3556 000c 0000     		.2byte	0
 3557 000e 0000     		.2byte	0
 3558 0010 00000000 		.4byte	.LFB220
 3559 0014 4C030000 		.4byte	.LFE220-.LFB220
 3560 0018 00000000 		.4byte	.LFB219
 3561 001c 9E000000 		.4byte	.LFE219-.LFB219
 3562 0020 00000000 		.4byte	0
 3563 0024 00000000 		.4byte	0
 3564              		.section	.debug_ranges,"",%progbits
 3565              	.Ldebug_ranges0:
 3566 0000 00000000 		.4byte	.LFB220
 3567 0004 4C030000 		.4byte	.LFE220
 3568 0008 00000000 		.4byte	.LFB219
 3569 000c 9E000000 		.4byte	.LFE219
 3570 0010 00000000 		.4byte	0
 3571 0014 00000000 		.4byte	0
 3572              		.section	.debug_line,"",%progbits
 3573              	.Ldebug_line0:
 3574 0000 D3020000 		.section	.debug_str,"MS",%progbits,1
 3574      02002902 
 3574      00000201 
 3574      FB0E0D00 
 3574      01010101 
 3575              	.LASF23:
 3576 0000 74687265 		.ascii	"thread_t\000"
 3576      61645F74 
 3576      00
 3577              	.LASF17:
 3578 0009 74726566 		.ascii	"trefs_t\000"
 3578      735F7400 
 3579              	.LASF89:
 3580 0011 74657374 		.ascii	"test_001_002_execute\000"
 3580      5F303031 
 3580      5F303032 
 3580      5F657865 
 3580      63757465 
 3581              	.LASF95:
 3582 0026 74657374 		.ascii	"test_sequence_001\000"
 3582      5F736571 
 3582      75656E63 
 3582      655F3030 
 3582      3100
 3583              	.LASF59:
 3584 0038 63685F73 		.ascii	"ch_system_debug\000"
 3584      79737465 
 3584      6D5F6465 
 3584      62756700 
 3585              	.LASF35:
 3586 0048 6570656E 		.ascii	"epending\000"
ARM GAS  /tmp/cc5xPaTF.s 			page 83


 3586      64696E67 
 3586      00
 3587              	.LASF30:
 3588 0051 73746174 		.ascii	"state\000"
 3588      6500
 3589              	.LASF13:
 3590 0057 75696E74 		.ascii	"uint64_t\000"
 3590      36345F74 
 3590      00
 3591              	.LASF65:
 3592 0060 6D61696E 		.ascii	"mainthread\000"
 3592      74687265 
 3592      616400
 3593              	.LASF5:
 3594 006b 73686F72 		.ascii	"short int\000"
 3594      7420696E 
 3594      7400
 3595              	.LASF2:
 3596 0075 73697A65 		.ascii	"size_t\000"
 3596      5F7400
 3597              	.LASF66:
 3598 007c 73697A65 		.ascii	"sizetype\000"
 3598      74797065 
 3598      00
 3599              	.LASF58:
 3600 0085 73797374 		.ascii	"system_debug_t\000"
 3600      656D5F64 
 3600      65627567 
 3600      5F7400
 3601              	.LASF14:
 3602 0094 6C6F6E67 		.ascii	"long long unsigned int\000"
 3602      206C6F6E 
 3602      6720756E 
 3602      7369676E 
 3602      65642069 
 3603              	.LASF90:
 3604 00ab 74657374 		.ascii	"test_001_001_execute\000"
 3604      5F303031 
 3604      5F303031 
 3604      5F657865 
 3604      63757465 
 3605              	.LASF76:
 3606 00c0 77747365 		.ascii	"wtsemp\000"
 3606      6D7000
 3607              	.LASF101:
 3608 00c7 74657374 		.ascii	"test_println\000"
 3608      5F707269 
 3608      6E746C6E 
 3608      00
 3609              	.LASF20:
 3610 00d4 6576656E 		.ascii	"eventmask_t\000"
 3610      746D6173 
 3610      6B5F7400 
 3611              	.LASF15:
 3612 00e0 746D6F64 		.ascii	"tmode_t\000"
 3612      655F7400 
 3613              	.LASF42:
ARM GAS  /tmp/cc5xPaTF.s 			page 84


 3614 00e8 63685F74 		.ascii	"ch_threads_list\000"
 3614      68726561 
 3614      64735F6C 
 3614      69737400 
 3615              	.LASF64:
 3616 00f8 76746C69 		.ascii	"vtlist\000"
 3616      737400
 3617              	.LASF61:
 3618 00ff 63685F73 		.ascii	"ch_system_t\000"
 3618      79737465 
 3618      6D5F7400 
 3619              	.LASF34:
 3620 010b 6D736771 		.ascii	"msgqueue\000"
 3620      75657565 
 3620      00
 3621              	.LASF67:
 3622 0114 72656761 		.ascii	"regarm_t\000"
 3622      726D5F74 
 3622      00
 3623              	.LASF53:
 3624 011d 64656C74 		.ascii	"delta\000"
 3624      6100
 3625              	.LASF3:
 3626 0123 75696E74 		.ascii	"uint8_t\000"
 3626      385F7400 
 3627              	.LASF45:
 3628 012b 63685F74 		.ascii	"ch_threads_queue\000"
 3628      68726561 
 3628      64735F71 
 3628      75657565 
 3628      00
 3629              	.LASF96:
 3630 013c 74657374 		.ascii	"test_print\000"
 3630      5F707269 
 3630      6E7400
 3631              	.LASF80:
 3632 0147 63685F6D 		.ascii	"ch_mutex\000"
 3632      75746578 
 3632      00
 3633              	.LASF41:
 3634 0150 63685F74 		.ascii	"ch_thread\000"
 3634      68726561 
 3634      6400
 3635              	.LASF27:
 3636 015a 6F6C6465 		.ascii	"older\000"
 3636      7200
 3637              	.LASF29:
 3638 0160 77616261 		.ascii	"wabase\000"
 3638      736500
 3639              	.LASF85:
 3640 0167 73657475 		.ascii	"setup\000"
 3640      7000
 3641              	.LASF54:
 3642 016d 66756E63 		.ascii	"func\000"
 3642      00
 3643              	.LASF12:
 3644 0172 6C6F6E67 		.ascii	"long long int\000"
ARM GAS  /tmp/cc5xPaTF.s 			page 85


 3644      206C6F6E 
 3644      6720696E 
 3644      7400
 3645              	.LASF100:
 3646 0180 2F686F6D 		.ascii	"/home/otto/Escritorio/Semestre12/Embebidos/ChibiOS_"
 3646      652F6F74 
 3646      746F2F45 
 3646      73637269 
 3646      746F7269 
 3647 01b3 31372E36 		.ascii	"17.6.2/demos/STM32/NIL-STM32F100-DISCOVERY\000"
 3647      2E322F64 
 3647      656D6F73 
 3647      2F53544D 
 3647      33322F4E 
 3648              	.LASF18:
 3649 01de 74707269 		.ascii	"tprio_t\000"
 3649      6F5F7400 
 3650              	.LASF9:
 3651 01e6 6C6F6E67 		.ascii	"long int\000"
 3651      20696E74 
 3651      00
 3652              	.LASF62:
 3653 01ef 63685F73 		.ascii	"ch_system\000"
 3653      79737465 
 3653      6D00
 3654              	.LASF69:
 3655 01f9 706F7274 		.ascii	"port_context\000"
 3655      5F636F6E 
 3655      74657874 
 3655      00
 3656              	.LASF51:
 3657 0206 76697274 		.ascii	"virtual_timer_t\000"
 3657      75616C5F 
 3657      74696D65 
 3657      725F7400 
 3658              	.LASF75:
 3659 0216 73656E74 		.ascii	"sentmsg\000"
 3659      6D736700 
 3660              	.LASF86:
 3661 021e 74656172 		.ascii	"teardown\000"
 3661      646F776E 
 3661      00
 3662              	.LASF26:
 3663 0227 6E657765 		.ascii	"newer\000"
 3663      7200
 3664              	.LASF24:
 3665 022d 71756575 		.ascii	"queue\000"
 3665      6500
 3666              	.LASF28:
 3667 0233 6E616D65 		.ascii	"name\000"
 3667      00
 3668              	.LASF91:
 3669 0238 74657374 		.ascii	"test_001_001\000"
 3669      5F303031 
 3669      5F303031 
 3669      00
 3670              	.LASF92:
ARM GAS  /tmp/cc5xPaTF.s 			page 86


 3671 0245 74657374 		.ascii	"test_001_002\000"
 3671      5F303031 
 3671      5F303032 
 3671      00
 3672              	.LASF4:
 3673 0252 756E7369 		.ascii	"unsigned char\000"
 3673      676E6564 
 3673      20636861 
 3673      7200
 3674              	.LASF81:
 3675 0260 6F776E65 		.ascii	"owner\000"
 3675      7200
 3676              	.LASF98:
 3677 0266 474E5520 		.ascii	"GNU C 4.8.1 -mcpu=cortex-m3 -mno-thumb-interwork -m"
 3677      4320342E 
 3677      382E3120 
 3677      2D6D6370 
 3677      753D636F 
 3678 0299 7468756D 		.ascii	"thumb -ggdb -O2 -fomit-frame-pointer -falign-functi"
 3678      62202D67 
 3678      67646220 
 3678      2D4F3220 
 3678      2D666F6D 
 3679 02cc 6F6E733D 		.ascii	"ons=16 -ffunction-sections -fdata-sections -fno-com"
 3679      3136202D 
 3679      6666756E 
 3679      6374696F 
 3679      6E2D7365 
 3680 02ff 6D6F6E20 		.ascii	"mon -flto\000"
 3680      2D666C74 
 3680      6F00
 3681              	.LASF78:
 3682 0309 65776D61 		.ascii	"ewmask\000"
 3682      736B00
 3683              	.LASF1:
 3684 0310 7369676E 		.ascii	"signed char\000"
 3684      65642063 
 3684      68617200 
 3685              	.LASF31:
 3686 031c 666C6167 		.ascii	"flags\000"
 3686      7300
 3687              	.LASF10:
 3688 0322 75696E74 		.ascii	"uint32_t\000"
 3688      33325F74 
 3688      00
 3689              	.LASF0:
 3690 032b 756E7369 		.ascii	"unsigned int\000"
 3690      676E6564 
 3690      20696E74 
 3690      00
 3691              	.LASF6:
 3692 0338 75696E74 		.ascii	"uint16_t\000"
 3692      31365F74 
 3692      00
 3693              	.LASF55:
 3694 0341 76697274 		.ascii	"virtual_timers_list_t\000"
 3694      75616C5F 
ARM GAS  /tmp/cc5xPaTF.s 			page 87


 3694      74696D65 
 3694      72735F6C 
 3694      6973745F 
 3695              	.LASF44:
 3696 0357 74687265 		.ascii	"threads_queue_t\000"
 3696      6164735F 
 3696      71756575 
 3696      655F7400 
 3697              	.LASF7:
 3698 0367 73686F72 		.ascii	"short unsigned int\000"
 3698      7420756E 
 3698      7369676E 
 3698      65642069 
 3698      6E7400
 3699              	.LASF22:
 3700 037a 73797374 		.ascii	"systime_t\000"
 3700      696D655F 
 3700      7400
 3701              	.LASF63:
 3702 0384 726C6973 		.ascii	"rlist\000"
 3702      7400
 3703              	.LASF82:
 3704 038a 63686172 		.ascii	"char\000"
 3704      00
 3705              	.LASF83:
 3706 038f 6D757465 		.ascii	"mutex_t\000"
 3706      785F7400 
 3707              	.LASF52:
 3708 0397 63685F76 		.ascii	"ch_virtual_timer\000"
 3708      69727475 
 3708      616C5F74 
 3708      696D6572 
 3708      00
 3709              	.LASF8:
 3710 03a8 696E7433 		.ascii	"int32_t\000"
 3710      325F7400 
 3711              	.LASF21:
 3712 03b0 636E745F 		.ascii	"cnt_t\000"
 3712      7400
 3713              	.LASF37:
 3714 03b6 7265616C 		.ascii	"realprio\000"
 3714      7072696F 
 3714      00
 3715              	.LASF84:
 3716 03bf 5F426F6F 		.ascii	"_Bool\000"
 3716      6C00
 3717              	.LASF99:
 3718 03c5 2E2E2F2E 		.ascii	"../../../test/rt/source/test/test_sequence_001.c\000"
 3718      2E2F2E2E 
 3718      2F746573 
 3718      742F7274 
 3718      2F736F75 
 3719              	.LASF94:
 3720 03f6 74657374 		.ascii	"test_step\000"
 3720      5F737465 
 3720      7000
 3721              	.LASF32:
ARM GAS  /tmp/cc5xPaTF.s 			page 88


 3722 0400 72656673 		.ascii	"refs\000"
 3722      00
 3723              	.LASF57:
 3724 0405 6C617374 		.ascii	"lasttime\000"
 3724      74696D65 
 3724      00
 3725              	.LASF97:
 3726 040e 74657374 		.ascii	"test_printn\000"
 3726      5F707269 
 3726      6E746E00 
 3727              	.LASF16:
 3728 041a 74737461 		.ascii	"tstate_t\000"
 3728      74655F74 
 3728      00
 3729              	.LASF11:
 3730 0423 6C6F6E67 		.ascii	"long unsigned int\000"
 3730      20756E73 
 3730      69676E65 
 3730      6420696E 
 3730      7400
 3731              	.LASF60:
 3732 0435 70616E69 		.ascii	"panic_msg\000"
 3732      635F6D73 
 3732      6700
 3733              	.LASF74:
 3734 043f 77747472 		.ascii	"wttrp\000"
 3734      7000
 3735              	.LASF79:
 3736 0445 63685F73 		.ascii	"ch_semaphore\000"
 3736      656D6170 
 3736      686F7265 
 3736      00
 3737              	.LASF70:
 3738 0452 706F7274 		.ascii	"port_intctx\000"
 3738      5F696E74 
 3738      63747800 
 3739              	.LASF39:
 3740 045e 74687265 		.ascii	"thread_reference_t\000"
 3740      61645F72 
 3740      65666572 
 3740      656E6365 
 3740      5F7400
 3741              	.LASF73:
 3742 0471 77746F62 		.ascii	"wtobjp\000"
 3742      6A7000
 3743              	.LASF36:
 3744 0478 6D74786C 		.ascii	"mtxlist\000"
 3744      69737400 
 3745              	.LASF68:
 3746 0480 73746B61 		.ascii	"stkalign_t\000"
 3746      6C69676E 
 3746      5F7400
 3747              	.LASF72:
 3748 048b 65786974 		.ascii	"exitcode\000"
 3748      636F6465 
 3748      00
 3749              	.LASF38:
ARM GAS  /tmp/cc5xPaTF.s 			page 89


 3750 0494 6D706F6F 		.ascii	"mpool\000"
 3750      6C00
 3751              	.LASF50:
 3752 049a 76746675 		.ascii	"vtfunc_t\000"
 3752      6E635F74 
 3752      00
 3753              	.LASF47:
 3754 04a3 72656164 		.ascii	"ready_list_t\000"
 3754      795F6C69 
 3754      73745F74 
 3754      00
 3755              	.LASF88:
 3756 04b0 74657374 		.ascii	"testcase_t\000"
 3756      63617365 
 3756      5F7400
 3757              	.LASF87:
 3758 04bb 65786563 		.ascii	"execute\000"
 3758      75746500 
 3759              	.LASF49:
 3760 04c3 63757272 		.ascii	"current\000"
 3760      656E7400 
 3761              	.LASF33:
 3762 04cb 77616974 		.ascii	"waiting\000"
 3762      696E6700 
 3763              	.LASF48:
 3764 04d3 63685F72 		.ascii	"ch_ready_list\000"
 3764      65616479 
 3764      5F6C6973 
 3764      7400
 3765              	.LASF93:
 3766 04e1 49544D5F 		.ascii	"ITM_RxBuffer\000"
 3766      52784275 
 3766      66666572 
 3766      00
 3767              	.LASF46:
 3768 04ee 70726576 		.ascii	"prev\000"
 3768      00
 3769              	.LASF56:
 3770 04f3 63685F76 		.ascii	"ch_virtual_timers_list\000"
 3770      69727475 
 3770      616C5F74 
 3770      696D6572 
 3770      735F6C69 
 3771              	.LASF71:
 3772 050a 7264796D 		.ascii	"rdymsg\000"
 3772      736700
 3773              	.LASF19:
 3774 0511 6D73675F 		.ascii	"msg_t\000"
 3774      7400
 3775              	.LASF25:
 3776 0517 7072696F 		.ascii	"prio\000"
 3776      00
 3777              	.LASF43:
 3778 051c 6E657874 		.ascii	"next\000"
 3778      00
 3779              	.LASF77:
 3780 0521 77746D74 		.ascii	"wtmtxp\000"
ARM GAS  /tmp/cc5xPaTF.s 			page 90


 3780      787000
 3781              	.LASF40:
 3782 0528 74687265 		.ascii	"threads_list_t\000"
 3782      6164735F 
 3782      6C697374 
 3782      5F7400
 3783              		.comm	__gnu_lto_v1,1,1
 3784              		.ident	"GCC: (Sourcery CodeBench Lite 2013.11-24) 4.8.1"
ARM GAS  /tmp/cc5xPaTF.s 			page 91


DEFINED SYMBOLS
                            *ABS*:00000000 test_sequence_001.c
     /tmp/cc5xPaTF.s:287    .text.test_001_002_execute:00000000 $t
     /tmp/cc5xPaTF.s:292    .text.test_001_002_execute:00000000 test_001_002_execute
     /tmp/cc5xPaTF.s:897    .rodata.str1.4:00000000 .LC0
     /tmp/cc5xPaTF.s:899    .rodata.str1.4:00000020 .LC1
     /tmp/cc5xPaTF.s:902    .rodata.str1.4:00000024 .LC2
     /tmp/cc5xPaTF.s:904    .rodata.str1.4:00000044 .LC3
     /tmp/cc5xPaTF.s:906    .rodata.str1.4:00000064 .LC4
     /tmp/cc5xPaTF.s:908    .rodata.str1.4:00000084 .LC5
     /tmp/cc5xPaTF.s:910    .rodata.str1.4:000000a4 .LC6
     /tmp/cc5xPaTF.s:912    .rodata.str1.4:000000c4 .LC7
     /tmp/cc5xPaTF.s:914    .rodata.str1.4:000000e4 .LC8
     /tmp/cc5xPaTF.s:916    .rodata.str1.4:00000104 .LC9
     /tmp/cc5xPaTF.s:918    .rodata.str1.4:00000124 .LC10
     /tmp/cc5xPaTF.s:920    .rodata.str1.4:00000144 .LC11
     /tmp/cc5xPaTF.s:922    .rodata.str1.4:00000164 .LC12
     /tmp/cc5xPaTF.s:924    .rodata.str1.4:00000184 .LC13
     /tmp/cc5xPaTF.s:926    .rodata.str1.4:000001a4 .LC14
     /tmp/cc5xPaTF.s:928    .rodata.str1.4:000001c4 .LC15
     /tmp/cc5xPaTF.s:930    .rodata.str1.4:000001e4 .LC16
     /tmp/cc5xPaTF.s:932    .rodata.str1.4:00000204 .LC17
     /tmp/cc5xPaTF.s:934    .rodata.str1.4:00000224 .LC18
     /tmp/cc5xPaTF.s:936    .rodata.str1.4:00000244 .LC19
     /tmp/cc5xPaTF.s:938    .rodata.str1.4:00000264 .LC20
     /tmp/cc5xPaTF.s:940    .rodata.str1.4:00000284 .LC21
     /tmp/cc5xPaTF.s:942    .rodata.str1.4:000002a4 .LC22
     /tmp/cc5xPaTF.s:944    .rodata.str1.4:000002c4 .LC23
     /tmp/cc5xPaTF.s:946    .rodata.str1.4:000002e4 .LC24
     /tmp/cc5xPaTF.s:948    .rodata.str1.4:00000304 .LC25
     /tmp/cc5xPaTF.s:950    .rodata.str1.4:00000324 .LC26
     /tmp/cc5xPaTF.s:952    .rodata.str1.4:00000344 .LC27
     /tmp/cc5xPaTF.s:954    .rodata.str1.4:00000364 .LC28
     /tmp/cc5xPaTF.s:956    .rodata.str1.4:00000384 .LC29
     /tmp/cc5xPaTF.s:958    .rodata.str1.4:000003a4 .LC30
     /tmp/cc5xPaTF.s:960    .rodata.str1.4:000003c4 .LC31
     /tmp/cc5xPaTF.s:962    .rodata.str1.4:000003e4 .LC32
     /tmp/cc5xPaTF.s:964    .rodata.str1.4:00000404 .LC33
     /tmp/cc5xPaTF.s:966    .rodata.str1.4:00000424 .LC34
     /tmp/cc5xPaTF.s:766    .text.test_001_001_execute:00000000 $t
     /tmp/cc5xPaTF.s:771    .text.test_001_001_execute:00000000 test_001_001_execute
     /tmp/cc5xPaTF.s:968    .rodata.str1.4:00000444 .LC35
     /tmp/cc5xPaTF.s:971    .rodata.str1.4:00000470 .LC36
     /tmp/cc5xPaTF.s:973    .rodata.str1.4:00000490 .LC37
     /tmp/cc5xPaTF.s:975    .rodata.str1.4:000004b0 .LC38
     /tmp/cc5xPaTF.s:978    .rodata.str1.4:000004b8 .LC39
     /tmp/cc5xPaTF.s:980    .rodata.str1.4:000004d8 .LC40
     /tmp/cc5xPaTF.s:982    .rodata.str1.4:000004f8 .LC41
     /tmp/cc5xPaTF.s:873    .rodata.test_sequence_001:00000000 test_sequence_001
     /tmp/cc5xPaTF.s:870    .rodata.test_sequence_001:00000000 $d
     /tmp/cc5xPaTF.s:881    .rodata.test_001_001:00000000 test_001_001
     /tmp/cc5xPaTF.s:890    .rodata.test_001_002:00000000 test_001_002
     /tmp/cc5xPaTF.s:878    .rodata.test_001_001:00000000 $d
     /tmp/cc5xPaTF.s:887    .rodata.test_001_002:00000000 $d
     /tmp/cc5xPaTF.s:896    .rodata.str1.4:00000000 $d
                            *COM*:00000001 __gnu_lto_v1
                     .debug_frame:00000010 $d
ARM GAS  /tmp/cc5xPaTF.s 			page 92



UNDEFINED SYMBOLS
test_step
test_print
test_printn
test_println
