ARM GAS  /tmp/ccBs6P4c.s 			page 1


   1              		.syntax unified
   2              		.cpu cortex-m3
   3              		.fpu softvfp
   4              		.eabi_attribute 20, 1
   5              		.eabi_attribute 21, 1
   6              		.eabi_attribute 23, 3
   7              		.eabi_attribute 24, 1
   8              		.eabi_attribute 25, 1
   9              		.eabi_attribute 26, 1
  10              		.eabi_attribute 30, 2
  11              		.eabi_attribute 34, 1
  12              		.eabi_attribute 18, 4
  13              		.thumb
  14              		.file	"ch_test.c"
  15              		.text
  16              	.Ltext0:
  17              		.section	.gnu.lto_.jmpfuncs.e388cacfe785dfa8,"",%progbits
  18 0000 789CB591 		.ascii	"x\234\265\221;O\002A\020\307g\356x\234 o\220h\261\331"
  18      3B4F0241 
  18      10C767EE 
  18      789C206F 
  18      9068B1D9 
  19 0014 181B484E 		.ascii	"\030\033HN\357\216\370\010\225\206Gb\004M8 \266>6q\023"
  19      EF8EF808 
  19      95864762 
  19      044D3820 
  19      B63E3671 
  20 0029 04238F84 		.ascii	"\004#\217\204XHic-\215\265_\305\317d\345\271\013\002"
  20      58486963 
  20      2D8DB55F 
  20      C5CF64E5 
  20      B90B02
  21 003c 178D5AB8 		.ascii	"\027\215Z\270\331\235\331\235\337\1772\223Y\005\024"
  21      D99DD99D 
  21      DF7F3293 
  21      590514
  22 004b F86A3D39 		.ascii	"\370j=9\341\027\307\207A\012\356\001<\370a\305\001\352"
  22      E117C787 
  22      410AEE01 
  22      3CF861C5 
  22      01EA
  23 005d F381EAA0 		.ascii	"\363\201\352\240;x\033\215GQ\216@\000\237G\343}\216"
  23      3B781B8D 
  23      47518E40 
  23      009F47E3 
  23      7D8E
  24 006f 28F29553 		.ascii	"(\362\225S\344\250(B\256L\236\252.\236\376Y\300\020"
  24      E4A82842 
  24      AE4C9EAA 
  24      2E9EFE59 
  24      C010
  25 0081 010D83EA 		.ascii	"\001\015\203\352\262\032\362\207\361\263V\004\247\267"
  25      B21AF287 
  25      F1B35604 
  25      A7B7
  26 008f 28FEA58E 		.ascii	"(\376\245\216\3601\214c\002q\226\344!\340\225I^\221"
  26      F0318C63 
ARM GAS  /tmp/ccBs6P4c.s 			page 2


  26      027196E4 
  26      21E09549 
  26      5E91
  27 00a1 B488C2DF 		.ascii	"\264\210\302\337 \037\201\264D~p3\215\300\252dKn\344"
  27      201F81B4 
  27      447E7033 
  27      8DC0AA64 
  27      4B6EE4
  28 00b4 74B839DF 		.ascii	"t\2709\337!\240\334\242\323\300+.\210\203\004,)^\236"
  28      21A0DCA2 
  28      D3C02B2E 
  28      8883042C 
  28      295E9E
  29 00c7 D3FEB68B 		.ascii	"\323\376\266\213\020\201m\311\302n\024!p$Q\324\215b"
  29      10816DC9 
  29      C26E1421 
  29      702451D4 
  29      8D62
  30 00d9 046E248A 		.ascii	"\004n$\212\273Q\202\300\303d\274I7K\021x\234\260\225"
  30      BB5182C0 
  30      C364BC49 
  30      374B1178 
  30      9CB095
  31 00ec 9F4635FD 		.ascii	"\237F5\375\211\377\362\240\206\002\240\331\215B\241"
  31      89FFF2A0 
  31      8602A0D9 
  31      8D42A1
  32 00fb 64DBA095 		.ascii	"d\333\240\225\017\016+\215Z\311\031]R\327uZc\335~\253"
  32      0F0E2B8D 
  32      5AC9195D 
  32      52D7755A 
  32      63DD7EAB 
  33 010f 97A753AE 		.ascii	"\227\247S\256\256g@\311@\312\256S\273^\315Y\315\212"
  33      AE6740C9 
  33      40CAAE53 
  33      BB5ECD59 
  33      CD8A
  34 0121 5EE4DD8B 		.ascii	"^\344\335\213\316\200\335\016aC\204\312\246a\320\346"
  34      CE80DD0E 
  34      614384CA 
  34      A661D0E6 
  35 0131 59ABCF68 		.ascii	"Y\253\317h\205\267\031\255\262K\336\277\246E\326\356"
  35      85B719AD 
  35      B24BDEBF 
  35      A645D6EE 
  36 0141 F2DE10D2 		.ascii	"\362\336\020\322\307\235\0015w\250e\230\273T\247\246"
  36      C79D0135 
  36      77A86598 
  36      BB54A7A6 
  37 0151 95B7CC7C 		.ascii	"\225\267\314|n\017<\331l\026\326\034C\013W\374\234\237"
  37      6E0F3CD9 
  37      6C16D61C 
  37      430B57FC 
  37      9C9F
  38 0163 D85BB53A 		.ascii	"\330[\265:\255\263n\217\332}\336c\360\016\023\365\232"
  38      ADB36E8F 
  38      DA7DDE63 
ARM GAS  /tmp/ccBs6P4c.s 			page 3


  38      F00E13F5 
  38      9A
  39 0174 C1       		.ascii	"\301"
  40              		.text
  41              		.section	.gnu.lto_.inline.e388cacfe785dfa8,"",%progbits
  42 0000 789CAD51 		.ascii	"x\234\255Q\273J\304@\024=s\223L\222M6\231]u\037\260"
  42      BB4AC440 
  42      143D7393 
  42      4C924D36 
  42      995D751F 
  43 0015 B056DA2D 		.ascii	"\260V\332-\226\376\203\220Z\360\003\\\375\012\321FP"
  43      96FE8390 
  43      5AF0035C 
  43      FD0AD146 
  43      50
  44 0026 21BD205B 		.ascii	"!\275 [\330\373\0036\266b!v\202\205\210\202\262\315"
  44      D8FB0336 
  44      B6622176 
  44      82858882 
  44      B2CD
  45 0038 160A56E2 		.ascii	"\026\012V\342\235\331\354\030\366\321\231\342\346p\316"
  45      9DD9EC18 
  45      F6D199E2 
  45      E670CE
  46 0047 9D7BCEDC 		.ascii	"\235{\316\334!\020\346}o\005\235\000\352\220\004H=_"
  46      2110E67D 
  46      6F059D00 
  46      EA900448 
  46      3D5F
  47 0059 5420075D 		.ascii	"T \007]\303{5f\362,\317\\\254l\010\007\375m\261'\232"
  47      C37B3566 
  47      F22CCF5C 
  47      AC6C0807 
  47      FD6DB127 
  48 006e 80B38ADD 		.ascii	"\200\263\212\335?(tu+y\206`\324#\210w_\021\274\343u"
  48      3F287475 
  48      2B798660 
  48      D4238877 
  48      5F11BCE3 
  49 0083 A5473869 		.ascii	"\245G8i\251\270\200DsX\345\251\365\317\363M\353#\353"
  49      A9B88044 
  49      7358E5A9 
  49      F5CFF34D 
  49      EB23EB
  50 0096 2CF3F989 		.ascii	",\363\371\211!|\0255\030\311Q\257\224\005F\012 \275"
  50      217C1535 
  50      18C951AF 
  50      9405460A 
  50      20BD
  51 00a8 29294220 		.ascii	"))B 9\235\211\324\322D\337\"\316\246]\307\255\356\240"
  51      399D89D4 
  51      D244DF22 
  51      CEA65DC7 
  51      ADEEA0
  52 00bb AB20EF3A 		.ascii	"\253 \357:\232@\214\306\007\313\264\366s\033\333IUD"
  52      9A408CC6 
  52      07CBB4F6 
ARM GAS  /tmp/ccBs6P4c.s 			page 4


  52      731BDB49 
  52      5544
  53 00cd A1202126 		.ascii	"\241 !&G\235\344tg,\322}\032\233E\2516\357\2510k[\263"
  53      479DE474 
  53      672CD27D 
  53      1A9B45A9 
  53      36EFA930 
  54 00e4 F67CB3CE 		.ascii	"\366|\263\316\345I\022\030\251\242\025\276^0^h\212\364"
  54      E5491218 
  54      A9A215BE 
  54      5E305E68 
  54      8AF4
  55 00f6 9B6D2879 		.ascii	"\233m(y9\010g\327\255\320:\323\217\261\374p\025.\\R"
  55      390867D7 
  55      ADD03AD3 
  55      8FB1FC70 
  55      152E5C52 
  56 010a 9ED5745A 		.ascii	"\236\325tZ~\262\247}\333TG\3503\025_oYj\011\217\342"
  56      7EB2A77D 
  56      DB5447E8 
  56      33155F6F 
  56      596A098F 
  57 011f E84B9BBD 		.ascii	"\350K\233\275\212\321\360\306\267\002E:r\271rJM\223"
  57      8AD1F0C6 
  57      B702453A 
  57      72B9724A 
  57      4D93
  58 0131 21C81054 		.ascii	"!\310\020T\020yV\376\225\233\254R4\227\006M\317\237"
  58      107956FE 
  58      959BAC52 
  58      3497064D 
  58      CF9F
  59 0143 ADF62E5E 		.ascii	"\255\366.^\315\371' \026\001\374\002&(\\\267"
  59      CDF92720 
  59      1601FC02 
  59      26285CB7 
  60              		.text
  61              		.section	.gnu.lto_.pureconst.e388cacfe785dfa8,"",%progbits
  62 0000 789C6362 		.ascii	"x\234cb`b\220e\200\000>\006K\026I6IvI\016\011n\011\036"
  62      60629065 
  62      80003E06 
  62      4B164936 
  62      4976490E 
  63 0018 4B5E293E 		.ascii	"K^)>K~K\001KA+!)aK\000*\005\003\017"
  63      4B7E4B01 
  63      4B412B21 
  63      29614B00 
  63      2A05030F 
  64              		.text
  65              		.section	.gnu.lto_print_tokens.e388cacfe785dfa8,"",%progbits
  66 0000 789C8D92 		.ascii	"x\234\215\222\301k\023Q\020\306\347{o\337\356\246IQ"
  66      C16B1351 
  66      10C6E77B 
  66      6FDFEEA6 
  66      4951
  67 0012 C14B41B0 		.ascii	"\301KA\260\324\213\030\330P\275\250\320\377\242\005"
  67      D48B18D8 
ARM GAS  /tmp/ccBs6P4c.s 			page 5


  67      50BDA8D0 
  67      FFA205
  68 0021 F552DA45 		.ascii	"\365R\332E\322E\203\001s\363\320\227\030D\264h\360$"
  68      D2458301 
  68      73F3D097 
  68      1844B468 
  68      F024
  69 0033 E6D09622 		.ascii	"\346\320\226\"\212\010\"\275\210\247\010Z\315A\305\233"
  69      8A0822BD 
  69      88A7085A 
  69      CD41C59B 
  70 0043 DE8260F0 		.ascii	"\336\202`\360\340_\340\3018\223\267\273\246^\364\221"
  70      E05FE0C1 
  70      3893B7BB 
  70      A65EF491 
  71 0053 BC99DD9D 		.ascii	"\274\231\335\235\3377\363\276]E\212\376^\013\3747\232"
  71      DF37F3BE 
  71      5D458AFE 
  71      5E0BFC37 
  71      9A
  72 0064 E82C47F8 		.ascii	"\350,G\370\004\325\371@\324\014\025<\227h\227\274\012"
  72      04D5F940 
  72      D40C153C 
  72      976897BC 
  72      0A
  73 0075 3DA537DE 		.ascii	"=\2457\336\022\331)\323\016\310\226\014 \367\011\264"
  73      12D929D3 
  73      0EC8960C 
  73      20F709B4 
  74 0085 AEB467B0 		.ascii	"\256\264g\260~\036\"\247\347h\333\332{\2037\303\307"
  74      7E1E22A7 
  74      E768DBDA 
  74      7B8337C3 
  74      C7
  75 0096 33B7B65A 		.ascii	"3\267\266Z\035\373k4B\002n|\024\024\203\316\361\005"
  75      1DFB6B34 
  75      42026E7C 
  75      141483CE 
  75      F105
  76 00a8 66C74179 		.ascii	"f\307Ay\373'qdow\357\316$\251\025\225\377\223\334\334"
  76      FB277164 
  76      6F77EFCE 
  76      24A91595 
  76      FF93DCDC 
  77 00bc DB98B1FB 		.ascii	"\333\230\261\373\310\323\377\"\237\251\336`4\372\361"
  77      C8D3FF22 
  77      9FA9DE60 
  77      34FAF1
  78 00cb 7CEB6B17 		.ascii	"|\353k\027\207\212\240\025<\304\034y\034w8\032\216\333"
  78      878AA015 
  78      3CC41C79 
  78      1C77381A 
  78      8EDB
  79 00dd 1C7D4AE0 		.ascii	"\034}J\340\005\274\2310\255(\360\205/\316Q\333\332\316"
  79      05BC9930 
  79      AD28F085 
  79      2FCE51DB 
ARM GAS  /tmp/ccBs6P4c.s 			page 6


  79      DACE
  80 00ef ACBB49D2 		.ascii	"\254\273I\322\214\327\"\357\354\321\022\024\007\335"
  80      8CD722EF 
  80      ECD11214 
  80      07DD
  81 00fd A7D6E0EE 		.ascii	"\247\326\340\356\216\277\202G0)}\215~\332\233\326.$"
  81      8EBF8247 
  81      30297D8D 
  81      7EDA9BD6 
  81      2E24
  82 010f 086AF833 		.ascii	"\010j\3703\314\0224\261\305\372=\265\372\237\207\307"
  82      CC1234B1 
  82      C5FA3DB5 
  82      FA9F87C7 
  83 011f 1D5185E9 		.ascii	"\035Q\205\351\322\203\246\265\007\331E\007r\026\326"
  83      D283A6B5 
  83      07D94507 
  83      7216D6
  84 012e 20A01C29 		.ascii	" \240\034)Li\246.d\210_\246\023<2\203\\P`\011)te\253"
  84      4C69A62E 
  84      64885FA6 
  84      133C3283 
  84      5C506009 
  85 0146 79C34920 		.ascii	"y\303I (\323\023\321\235rH\221%\004\361R\0049r\375\266"
  85      28D313D1 
  85      9D724891 
  85      2504F152 
  85      043972FD 
  86 015b CE98B00A 		.ascii	"\316\230\260\012\214=\225\247}R\223'\254\312X\334\340"
  86      8C3D95A7 
  86      7D529327 
  86      ACCA58DC 
  86      E0
  87 016c A5C9AA0B 		.ascii	"\245\311\252\013N\331O!\235*~\244\264\202d\012\331\014"
  87      4ED94F21 
  87      9D2A7EA4 
  87      B482640A 
  87      D90C
  88 017e D7262865 		.ascii	"\327&(e\226x\304\237\231\230\310\202\2316\306\332\375"
  88      9678C49F 
  88      9998C882 
  88      9936C6DA 
  88      FD
  89 018f 17C3EFC8 		.ascii	"\027\303\357\310\344\275\334$\235\2334]\203JM\232N\333"
  89      E4BDDC24 
  89      9D9B345D 
  89      834A4D9A 
  89      4EDB
  90 01a1 BDA3D7DF 		.ascii	"\275\243\327\337\232\2472\010U\344\337\303\027\202\003"
  90      9AA73208 
  90      55E4DFC3 
  90      178203
  91 01b0 7B9B370E 		.ascii	"{\2337\016\344/F\335\327|\024\375t\367\260\314b\344"
  91      E42F46DD 
  91      D77C14FD 
  91      74F7B0CC 
  91      62E4
ARM GAS  /tmp/ccBs6P4c.s 			page 7


  92 01c2 7D7EA2E6 		.ascii	"}~\242\346\240{,\033\332\255E\036\251\035H\263#QTq\277"
  92      A07B2C1B 
  92      DAAD451E 
  92      A91D48B3 
  92      23515471 
  93 01d7 C6C5AB8D 		.ascii	"\306\305\253\215\312\345d\265\022\257-K\036\305T\224"
  93      CAE564B5 
  93      12AF2D4B 
  93      1EC55494 
  94 01e7 B81CAFD5 		.ascii	"\270\034\257\325\243\3713\245q\336\270r\251\036\235"
  94      A3F933A5 
  94      71DEB872 
  94      A91E9D
  95 01f6 9C5771FD 		.ascii	"\234Wq\3757\016!\274\213"
  95      370E21BC 
  95      8B
  96              		.text
  97              		.section	.gnu.lto_execute_test.e388cacfe785dfa8,"",%progbits
  98 0000 789C7D51 		.ascii	"x\234}Q;O\002A\020\236\331\273\333\343\241\206\316F"
  98      3B4F0241 
  98      109ED9BB 
  98      DBE3A186 
  98      CE46
  99 0012 C5C4D204 		.ascii	"\305\304\322\004\254\350\370\005\266\220h\243\001b\220"
  99      ACE8F805 
  99      B69068A3 
  99      016290
 100 0021 C4ABA4B3 		.ascii	"\304\253\244\263`\021\012\013L\250,\2442t\306Hcq\261"
 100      60110A0B 
 100      4CA82CA4 
 100      3274C648 
 100      6371B1
 101 0034 2231112D 		.ascii	"\"1\021-|u\206\212\304\016lM\014\015\316\356r\207\032"
 101      7C75868A 
 101      C40E6C4D 
 101      0C0DCEEE 
 101      72871A
 102 0047 C2E46E76 		.ascii	"\302\344nvn\366\373\276y\034\003\006\377m\223\336\035"
 102      6EF6FBBE 
 102      791C0306 
 102      FF6D93DE 
 102      1D
 103 0058 4AAFD089 		.ascii	"J\257\320\2116 \253?\003\224\003\214\031\235\004\210"
 103      3620AB3F 
 103      0394038C 
 103      199D0488 
 104 0068 90F9B808 		.ascii	"\220\371\270\010b\316@S\247Mf5\222\224\346_\021J[\310"
 104      62CE4053 
 104      A74D6635 
 104      9294E65F 
 104      114A5BC8 
 105 007c 759A23CA 		.ascii	"u\232#\312\000\020J\3140-\216\245mT\352-\326\356\215"
 105      00104ACC 
 105      302D8EA5 
 105      6D54EA2D 
 105      D6EE8D
 106 008f 46D7B7F7 		.ascii	"F\327\267\36775l\260\005\216\016\202\015\005\204\240"
ARM GAS  /tmp/ccBs6P4c.s 			page 8


 106      37356CB0 
 106      058E0E82 
 106      0D0584A0 
 107 009f 7461E9C8 		.ascii	"ta\351\310,\250\012Q_\005\310\251\317\024y)\227F&O\343"
 107      2CA80A51 
 107      5F05C8A9 
 107      CF147929 
 107      9746264F 
 108 00b4 098E8795 		.ascii	"\011\216\207\225Vm\331\207\351@4O\243\000\031\274@\213"
 108      566DD987 
 108      E940344F 
 108      A30019BC 
 108      408B
 109 00c6 888AD980 		.ascii	"\210\212\331\200\363\262\020\221\002\342\021\014\305"
 109      F3B21091 
 109      02E2110C 
 109      C5
 110 00d3 898C98A3 		.ascii	"\211\214\230\243\256\266\220B\325\222\276i\237\361\002"
 110      AEB69042 
 110      D592BE69 
 110      9FF102
 111 00e2 1A0EB20C 		.ascii	"\032\016\262\0146\211OFU\\\267\377\316\264\240\257d"
 111      36894F46 
 111      555CB7FF 
 111      CEB4A0AF 
 111      64
 112 00f3 FA4A9683 		.ascii	"\372J\226\203\306XI\021Td\216\251\335\357\376+jj\036"
 112      C6584911 
 112      54648EA9 
 112      DDEFFE2B 
 112      6A6A1E
 113 0106 ED75B894 		.ascii	"\355u\270\224\014N*\204\261\363\310%6\240XY\364V\377"
 113      0C4E2A84 
 113      B1F3C825 
 113      36A05859 
 113      F456FF
 114 0119 00D5CFF2 		.ascii	"\000\325\317\362\274O\222\020\376\373\327\244\251^'"
 114      BC4F9210 
 114      FEFBD7A4 
 114      A95E27
 115 0128 61BC40A5 		.ascii	"a\274@\245w\365ak\034H$\320\336\202\036\306\364v\324"
 115      77F5616B 
 115      1C4824D0 
 115      DE821EC6 
 115      F476D4
 116 013b 75071B9E 		.ascii	"u\007\033\236Xpv\007^\013$\335\216N\204\203ca)\366>"
 116      58707607 
 116      5E0B24DD 
 116      8E4E8483 
 116      636129F6 
 117 0150 98CC139E 		.ascii	"\230\314\023\236\255\306\246\316\023\2362\017\3555\251"
 117      ADC6A6CE 
 117      139E320F 
 117      ED35A9
 118 015f E669DD85 		.ascii	"\346i\335\205&e\303\177\346\341j\2367(\367\3345\017"
 118      2665C37F 
 118      E6E16A9E 
ARM GAS  /tmp/ccBs6P4c.s 			page 9


 118      3728F7DC 
 118      350F
 119 0171 A32D457D 		.ascii	"\243-E}\323\235,\267\024\213\305\365S\334;,\306\017"
 119      D39D2CB7 
 119      148BC5F5 
 119      53DC3B2C 
 119      C60F
 120 0183 0AD9786E 		.ascii	"\012\331xn\177W\306\261\034\374\000F\343\226\364"
 120      7F57C6B1 
 120      1CFC0046 
 120      E396F4
 121              		.text
 122              		.section	.gnu.lto_print_line.e388cacfe785dfa8,"",%progbits
 123 0000 789C9593 		.ascii	"x\234\225\223Ah\023A\024\206\3777\263\263\311\3566\332"
 123      41681341 
 123      1486FF37 
 123      B3B3C9EE 
 123      36DA
 124 0012 DE5A102D 		.ascii	"\336Z\020-\365\"\206&\322\223\207\012\275{mA\275\224"
 124      F5228626 
 124      D293870A 
 124      BD7B6D41 
 124      BD94
 125 0024 36885D50 		.ascii	"6\210]P\020\354\315C'\333R\202`\011\236\304\"\264\210"
 125      10ECCD43 
 125      27DB5282 
 125      60099EC4 
 125      22B488
 126 0037 5044F0E8 		.ascii	"PD\360\350I\250\210\220\034j\361\246\267x\361\232c\213"
 126      49A88890 
 126      1C6AF1A6 
 126      B778F19A 
 126      638B
 127 0049 07E37B3B 		.ascii	"\007\343{;;m-BqH\336{\331\367\276\177f\376$\012\012"
 127      3B6D2D42 
 127      7148DE7B 
 127      D9F7BE7F 
 127      66FE240A 
 128 005e A7D70D7E 		.ascii	"\247\327\015~Ok\340\032g\012A\252\375\005h\226\025\005"
 128      4F6BE01A 
 128      670A41AA 
 128      FD056896 
 128      1505
 129 0070 AED0AEF8 		.ascii	"\256\320\256\370X\016\224\336\330\003ll2\202\0352D\362"
 129      580E94DE 
 129      D8036C6C 
 129      32821D32 
 129      44F2
 130 0082 1C8415A5 		.ascii	"\034\204\025\245\003C+\267I\344\324\004\266\255}\326"
 130      03432BB7 
 130      49E4D404 
 130      B6AD7DD6 
 131 0092 FBDCDF19 		.ascii	"\373\334\337\031{\262\225\265\355\357\301\200R\342\215"
 131      7BB295B5 
 131      EDEFC180 
 131      52E28D
 132 00a1 2F111A84 		.ascii	"/\021\032\204[\374\201\306\363\244\202\277O\342\310"
ARM GAS  /tmp/ccBs6P4c.s 			page 10


 132      5BFC81C6 
 132      F3A482BF 
 132      4FE2C8
 133 00b0 DD83F58D 		.ascii	"\335\203\365\2151{Lj\205\352Y\344;\265\333\033\014\336"
 133      317B4C6A 
 133      85EA59E4 
 133      3BB5DB1B 
 133      0CDE
 134 00c2 BE3FFCD1 		.ascii	"\276?\374\321\241\221\012a\201^\321\004\002\316\333"
 134      A1910A61 
 134      815ED104 
 134      02CEDB
 135 00d1 9C0D520A 		.ascii	"\234\015R\012B\016\246\\t\242\242\023K'\341\020\262"
 135      420EA65C 
 135      74A2A213 
 135      4B27E110 
 135      B2
 136 00e2 88C19AB5 		.ascii	"\210\301\232\265\355q7\001\331\221\327,G\276\356\034"
 136      ED713701 
 136      D991D72C 
 136      47BEEE1C 
 137 00f2 294EBA8B 		.ascii	")N\272\213\254\367\341S\270@\257\311\024Rr\034\355\317"
 137      ACF7E153 
 137      B840AFC9 
 137      1452721C 
 137      EDCF
 138 0104 31C7257B 		.ascii	"1\307%{\244\367\220u\277\365\257\270\271{\024l\342E"
 138      A4F79075 
 138      BFF5AFB8 
 138      B97B146C 
 138      E245
 139 0116 D3DA61B6 		.ascii	"\323\332a\266\3411~\331\226T\245\007\271\276\340\245"
 139      E1317ED9 
 139      9654A507 
 139      B9BEE0A5 
 140 0126 8266EA8E 		.ascii	"\202f\352\216GL\025W\323\034\344\2012K\310\240\033["
 140      474C1557 
 140      D31CE481 
 140      324BC8A0 
 140      1B5B
 141 0138 24FC0308 		.ascii	"$\374\003\010\253x#\272\221Cb\226\020$(\020\317\354"
 141      AB7823BA 
 141      91436296 
 141      10242810 
 141      CFEC
 142 014a C33802C2 		.ascii	"\3038\002\302H\310\225\223I6aH\024W[\253\007O\257{U"
 142      48C89593 
 142      49366148 
 142      14575BAB 
 142      074FAF7B 
 143 015f DE99F21B 		.ascii	"\336\231\362\033\012\337\205:ys\356\372[\007\340\237"
 143      0ADF853A 
 143      7973EEFA 
 143      5B07E09F 
 144 016f 82B8C34F 		.ascii	"\202\270\303O|\223\211\016\326~6K^\313\011\335<\372"
 144      7C93890E 
 144      D67E364B 
ARM GAS  /tmp/ccBs6P4c.s 			page 11


 144      5ECB09DD 
 144      3CFA
 145 0181 D2BE830A 		.ascii	"\322\276\203\012\363\324\216f1\335*\211\226\021\243"
 145      F3D48E66 
 145      31DD2A89 
 145      9611A3
 146 0190 C5C0C3FE 		.ascii	"\305\300\303\376\250G\243\37770>e`t\226\201Ia`\345\310"
 146      A847A3FF 
 146      37303E65 
 146      60749681 
 146      496160E5 
 147 01a5 C0F8A481 		.ascii	"\300\370\244\201\376\217\263\217\360\330\300DB$G\032"
 147      FE8FB38F 
 147      F0D8C044 
 147      4224471A 
 148 01b5 4DE9DC45 		.ascii	"M\351\334EL\276\264\317gR:\217bD\004\206\025[;\002|"
 148      4CBEB4CF 
 148      67523A8F 
 148      62440486 
 148      155B3B02 
 149 01ca 45B3D7B9 		.ascii	"E\263\327\271\354Y\267f\331\245,\227\276P\253\325\335"
 149      EC59B766 
 149      D9A52C97 
 149      BE50ABD5 
 149      DD
 150 01db 6BF9EEA3 		.ascii	"k\371\356\243\345\372\375t\261\336X\232\227\272\326"
 150      E5FAFD74 
 150      B1DE589A 
 150      97BAD6
 151 01ea 402279BE 		.ascii	"@\"y\276\261\364\26065E\251\256\304\370\003S\243\267"
 151      B1F4B036 
 151      3545A9AE 
 151      C4F80353 
 151      A3B7
 152 01fc 95       		.ascii	"\225"
 153              		.text
 154              		.section	.gnu.lto_test_printn.part.0.e388cacfe785dfa8,"",%progbits
 155 0000 789C8D92 		.ascii	"x\234\215\222AK\033Q\020\307\347\377\336\256Y\265b\256"
 155      414B1B51 
 155      10C7E7FF 
 155      DEAE59B5 
 155      62AE
 156 0012 4241AB48 		.ascii	"BA\253H\261\201\215`z\366K(X/\222\0045\013F\002MO\036"
 156      B1818D60 
 156      7AF64B28 
 156      582F9204 
 156      350B4602 
 157 0029 F2121444 		.ascii	"\362\022\024Dz\010\201B\325K\203\210T\301b\373\005\202"
 157      7A088142 
 157      D54B8388 
 157      54C162FB 
 157      0582
 158 003b 2713D0D2 		.ascii	"'\023\320\322\263\227\334\275\350Q\017]gv\263i#\205"
 158      B397DCBD 
 158      E8510F5D 
 158      6776B369 
 158      2385
ARM GAS  /tmp/ccBs6P4c.s 			page 12


 159 004d FA783B33 		.ascii	"\372x;3\357\275\371\315\314\233\267\212\024=\035\011"
 159      EFBDF9CD 
 159      CC9BB78A 
 159      143D1D09 
 160 005d FE8E78FB 		.ascii	"\376\216x\373-k\330\004\253z\305\206\005\025h\005-\272"
 160      2D6BD804 
 160      AB7AC586 
 160      05156805 
 160      2DBA
 161 006f EC68400C 		.ascii	"\354h@\014\002\225,\245Qz\007\201\355q\252\033Sko\235"
 161      02952CA5 
 161      517A0781 
 161      ED71AA1B 
 161      536B6F9D 
 162 0083 9C8D982F 		.ascii	"\234\215\230/\225\252\371\355\373\360\300iFAY\320\002"
 162      95AAF9ED 
 162      FBF0C069 
 162      464159D0 
 162      02
 163 0094 2F301628 		.ascii	"/0\026(e\365\346\015\311\306\365\316\247\277I\255\350"
 163      65F5E60D 
 163      C9C6F5CE 
 163      A7BF49AD 
 163      E8
 164 00a5 D573C846 		.ascii	"\325s\310F\325\234Y\027f\263\341\373\263\036,E\023\177"
 164      D59C5917 
 164      66B3E1FB 
 164      B31E2C45 
 164      137F
 165 00b7 28136A15 		.ascii	"(\023j\025\377g\302\373\326\307\221\235\236\204\257"
 165      FF67C2FB 
 165      D6C7919D 
 165      9E84AF
 166 00c6 9F59EA5D 		.ascii	"\237Y\352]\253U\207\251\231\362\255\357\017{\260\025"
 166      AB5587A9 
 166      99F2ADEF 
 166      0F7BB015 
 167 00d6 25FE477E 		.ascii	"%\376G~S\246\355\373\273\337\373c\2404\276b\234;\343"
 167      53A6EDFB 
 167      BBDFFB63 
 167      A034BE62 
 167      9C3BE3
 168 00e9 A14FB388 		.ascii	"\241O\263\210I\373h\323\230\352X\032\207|\222\306A "
 168      49FB68D3 
 168      98EA581A 
 168      877C92C6 
 168      4120
 169 00fb EB2C49E2 		.ascii	"\353,I\342\362\230c)m\237\207%Z7\351\334!\312\203'\237"
 169      F2986329 
 169      6D9F8725 
 169      5A37E9DC 
 169      21CA8327 
 170 0110 34A9C2AB 		.ascii	"4\251\302\253\220\310\243\223r\036*p\275\244J\363\363"
 170      90C8A393 
 170      721E2A70 
 170      BDA44AF3 
 170      F3
ARM GAS  /tmp/ccBs6P4c.s 			page 13


 171 0121 E9541A27 		.ascii	"\351T\032'\374\252\253\300>\355\225\215\211s\335\033"
 171      FCAAABC0 
 171      3EED958D 
 171      8973DD1B 
 172 0131 F460B6C5 		.ascii	"\364`\266\305r\362\220\377A\012w:4S\213\021\242\022"
 172      72F290FF 
 172      410A773A 
 172      34538B11 
 172      A212
 173 0143 F4868BED 		.ascii	"\364\206\213\355\202\375\034E|\355\3003\023%\354at\202"
 173      82FD1C45 
 173      7CEDC033 
 173      1325EC61 
 173      7482
 174 0155 8EC577A0 		.ascii	"\216\305w\240K\015r \241\372:T\204\375$;\204H0\021A"
 174      4B0D7220 
 174      A1FA3A54 
 174      84FD243B 
 174      84483011 
 175 016a F017D3DC 		.ascii	"\360\027\323\334\233\241\350*\272s\225\363\033\025:"
 175      9BA1E82A 
 175      BA7395F3 
 175      1B153A
 176 0179 87AD4AD1 		.ascii	"\207\255J\321\017\263\315\316\322\355_Tn_LF\241\302"
 176      0FB3CDCE 
 176      D2ED5F54 
 176      6E5F4C46 
 176      A1C2
 177 018b 31C75918 		.ascii	"1\307Y\030\224\313\275t\335d8\213\313\357\213\3115/"
 177      94CBBD74 
 177      DD64388B 
 177      CBEF8BC9 
 177      352F
 178 019d 93CCE696 		.ascii	"\223\314\346\226\304v\263\204u\024t\346\303\212.\270"
 178      C476B384 
 178      751474E6 
 178      C38A2EB8 
 179 01ad A901D95B 		.ascii	"\251\001\331[\312\346\012\356\314#\306,\244\304"
 179      CAE60AEE 
 179      CC23C62C 
 179      A4C4
 180              		.text
 181              		.section	.gnu.lto__test_fail.e388cacfe785dfa8,"",%progbits
 182 0000 789C6362 		.ascii	"x\234cb`b@\007\222@\314\311\310\300 \007\244\031\231"
 182      60624007 
 182      9240CCC9 
 182      C8C02007 
 182      A41999
 183 0013 19189926 		.ascii	"\031\030\231&\234c`h\344`bd\0041\030\030\031\352\231"
 183      9C636068 
 183      E4606264 
 183      04311818 
 183      19EA99
 184 0026 18EB2319 		.ascii	"\030\353#\031\301j\3273\035x\360\377\377\2729\355K\317"
 184      C16AD733 
 184      1D78F0FF 
 184      FFBA39ED 
ARM GAS  /tmp/ccBs6P4c.s 			page 14


 184      4BCF
 185 0038 30CE6562 		.ascii	"0\316ebca\314\005\213\2632\26444LP``H\006sC\200$Ho("
 185      6361CC05 
 185      8BB332B4 
 185      34344C50 
 185      60604806 
 186 0053 23138866 		.ascii	"#\023\210f>\313\320\264c\306\267\003\314\211\214\013"
 186      3ECBD0B4 
 186      63C6B703 
 186      CC898C0B 
 187 0063 19591966 		.ascii	"\031Y\031f3\314jlh\020\310dd\250f\370\325\320\001b\001"
 187      33CC6A6C 
 187      6810C864 
 187      64A866F8 
 187      D5D00162 
 188 0078 8D01698C 		.ascii	"\215\001i\214`\314d\204\330\003b1\200\230 \255+\312"
 188      60CC6484 
 188      D8036231 
 188      809820AD 
 188      2BCA
 189 008a F06964C2 		.ascii	"\360id\302\251\361\364\011t\215Lp\215\314\271@\257B"
 189      A9F1F409 
 189      748D4C70 
 189      8DCCB940 
 189      AF42
 190 009c 94338335 		.ascii	"\2243\2035\2463\26200\\dh|p;\031\242\011n\022\304G\214"
 190      A633B230 
 190      305C6468 
 190      7C703B19 
 190      A2096E12 
 191 00b3 209F80EC 		.ascii	" \237\200\354\222\321\323\323\207\240\222\324\342\022"
 191      92D1D3D3 
 191      87A092D4 
 191      E212
 192 00c1 FD9CCC24 		.ascii	"\375\234\314$\375\344\214x\020[/\231\001\000\353}J\243"
 192      FDE48C78 
 192      105B2F99 
 192      0100EB7D 
 192      4AA3
 193              		.text
 194              		.section	.gnu.lto__test_assert.e388cacfe785dfa8,"",%progbits
 195 0000 789C7551 		.ascii	"x\234uQ\261J\003A\020\235\267\263\007!\244\260\260\024"
 195      B14A0341 
 195      109DB7B3 
 195      0721A4B0 
 195      B014
 196 0012 0D7EC01D 		.ascii	"\015~\300\035\370-\006\264\222xH<\360\252\004\033\213"
 196      F82D06B4 
 196      9278483C 
 196      F0AA041B 
 196      8B
 197 0023 6C4220E9 		.ascii	"lB \351\014V\242\"D\004\033\321NR\\ VFD!\220\306\316"
 197      0C56A222 
 197      44041BD1 
 197      4E525C20 
 197      56464421 
 198 003a 0FB0B6B0 		.ascii	"\017\260\266\2609w\366B$A\227\335\231a\231\367\366\315"
ARM GAS  /tmp/ccBs6P4c.s 			page 15


 198      3977F642 
 198      244197DD 
 198      996199F7 
 198      F6CD
 199 004c 5B458A16 		.ascii	"[E\212\026\327\206=\003\020\255\333\014\217\240\272"
 199      D7863D03 
 199      10ADDB0C 
 199      8FA0BA
 200 005b 6F448D9C 		.ascii	"oD\215\234R<\011\310\024t\262J&\317\320\331\265\006"
 200      523C09C8 
 200      1474B24A 
 200      26CFD0D9 
 200      B506
 201 006d A420505D 		.ascii	"\244 P]\261F}\033\216\344^\015?\322\364.i?$\270TyP\004"
 201      B1467D1B 
 201      8EE45E0D 
 201      3FD2F42E 
 201      693F24B8 
 202 0085 62C420CF 		.ascii	"b\304 \317\006i\361\250eL\267H\024:\300\246\215\302"
 202      0669F1A8 
 202      654CB748 
 202      143AC0A6 
 202      8DC2
 203 0097 538292CC 		.ascii	"S\202\222\314#j}>\216\333\\F\317j\250\200\267\020aN"
 203      236A7D3E 
 203      8EDB5C46 
 203      CF6AA880 
 203      B710614E 
 204 00ab 66094C93 		.ascii	"f\011L\223\200\237\251\231\023\255=cN\206\311S\241\333"
 204      809FA999 
 204      13AD3D63 
 204      4E86C953 
 204      A1DB
 205 00bd E89834AD 		.ascii	"\350\2304\255G\260Dk\020vA\252\242K\254\347G\255Xnz"
 205      47B0446B 
 205      107641AA 
 205      A24BACE7 
 205      47AD586E 
 206 00d2 A566FFF4 		.ascii	"\245f\377\364k\3103EYan\216\2752\256 6d*B'\234\316\351"
 206      6BC83345 
 206      59616E8E 
 206      BD32AE20 
 206      36642A42 
 207 00ea AC61CC92 		.ascii	"\254a\314\222\225sD\337\246#\225\216!>\312\023\331\013"
 207      957344DF 
 207      A623958E 
 207      213ECA13 
 207      D90B
 208 00fc 4EAD740B 		.ascii	"N\255t\013y\337\222\227qm\031\376\206\362\277\320\227"
 208      79DF9297 
 208      716D19FE 
 208      86F2BFD0 
 208      97
 209 010d D1E10210 		.ascii	"\321\341\002\0203\240\027;\200\264{\277\303d\316h\347"
 209      33A0173B 
 209      80B47BBF 
 209      C364CE68 
ARM GAS  /tmp/ccBs6P4c.s 			page 16


 209      E7
 210 011e E1D87E8F 		.ascii	"\341\330~\217\\;\325\357\204)3_\014\226\247n\252\333"
 210      5C3BD5EF 
 210      8429335F 
 210      0C96A76E 
 210      AADB
 211 0130 4141BC87 		.ascii	"AA\274\207\364\313\004+\276\037d\273\266W\255\005\007"
 211      F4CB042B 
 211      BE1F64BB 
 211      B657AD05 
 211      07
 212 0141 D16E10EE 		.ascii	"\321n\020\356\357H\355\207\304q\265\362\003b\005t\315"
 212      EF48ED87 
 212      C471B5F2 
 212      03620574 
 212      CD
 213              		.text
 214              		.section	.gnu.lto__test_assert_sequence.e388cacfe785dfa8,"",%progbits
 215 0000 789CAD54 		.ascii	"x\234\255T\335KTA\024?g\346~\355\335M#z0\260\024_\203"
 215      DD4B5441 
 215      143F67E6 
 215      7EEDDD4D 
 215      237A30B0 
 216 0017 5DAAE71E 		.ascii	"]\252\347\036\372\037Z\250'\331\226\270-\265$(A\004"
 216      FA1F5AA8 
 216      27D996B8 
 216      2DB52428 
 216      4104
 217 0029 39EB070A 		.ascii	"9\353\007\012\012\273\210\204}<(\322C%\371\330\022\205"
 217      0ABB8884 
 217      7D3C28D2 
 217      4325F9D8 
 217      1285
 218 003b 9B046AA2 		.ascii	"\233\004j\242`\364b%\010\021\005\211\370\020\005\026"
 218      60F46225 
 218      08110589 
 218      F8100516 
 219 004b DECECCDC 		.ascii	"\336\316\314\334{]\267R\372\030v\357\2349\363;\277\363"
 219      7B5DB752 
 219      FA1876EF 
 219      9C39F33B 
 219      BFF3
 220 005d 792F0306 		.ascii	"y/\003\006\265\353*\375_\232\000\307h\3078 +-\002\024"
 220      B5EB2AFD 
 220      5F9A00C7 
 220      68C73820 
 220      2B2D0214 
 221 0071 1C86A616 		.ascii	"\034\206\246\02683\2469\010\327]|\001 \022\006\306\264"
 221      3833A639 
 221      08D75D7C 
 221      01201206 
 221      C6B4
 222 0083 DED58053 		.ascii	"\336\325\200S&\343\352\306\265$,a1\373\311\021:9\257"
 222      26E3EAC6 
 222      B5242C61 
 222      31FBC911 
 222      3A39AF
ARM GAS  /tmp/ccBs6P4c.s 			page 17


 223 0096 5274B243 		.ascii	"Rt\262C\264\023\0121D)\000B'\343\206kZ6\251:\317\242"
 223      B4130A31 
 223      44290042 
 223      27E3866B 
 223      5A36A93A 
 224 00ac 0C85B5C0 		.ascii	"\014\205\265\300\230\020C\253\275[\037\361\346p\245"
 224      981043AB 
 224      BD5B1FF1 
 224      E670A5
 225 00bb 67547CF7 		.ascii	"gT|\367}\304\034R\330M\010Y\2043t\300f\2651cg\036\332"
 225      7DC41C52 
 225      D84D0859 
 225      843374C0 
 225      66B53163 
 226 00d2 B6B23233 		.ascii	"\266\26223xH\214v\225\304\026\231*\313\243{YN\262\312"
 226      78488C76 
 226      95C41699 
 226      2ACBA37B 
 226      594EB2CA 
 227 00e6 AAEFBF7D 		.ascii	"\252\357\277}\372\371\335\000\036h@\310K\253\014\216"
 227      FAF9DD00 
 227      1E6840C8 
 227      4BAB0C8E 
 228 00f6 630B70C8 		.ascii	"c\013p\310!7\22146i\306H\343\00471\2721\\\211\215K)"
 228      21379134 
 228      3669C648 
 228      E3043731 
 228      BA315C89 
 229 010d 4118AC93 		.ascii	"A\030\254\223\022\021\232\320#D\251Y\003Az\247u\232"
 229      12119AD0 
 229      2344A959 
 229      03417AA7 
 229      759A
 230 011f 9E1B16A4 		.ascii	"\236\033\026\244\221\321\306\347\240ku}\334\312\340"
 230      91D1C6E7 
 230      A06B757D 
 230      DCCAE0
 231 012e 5D3403C6 		.ascii	"]4\003\306k\260)\372\2058\231C3\217\333}J#\007*0_\200"
 231      6BB029FA 
 231      85389943 
 231      338FDB7D 
 231      4A23072A 
 232 0145 EE81EE0F 		.ascii	"\356\201\356\017\305Fm\342\241\343!S\331H\3669`\325"
 232      C5466DE2 
 232      A1E32153 
 232      D948F639 
 232      60D5
 233 0157 54740BB0 		.ascii	"Tt\013\260\000]\217{\257\207\360\330m\270Eh#\260\012"
 233      005D8F7B 
 233      AF87F0D8 
 233      6DB84568 
 233      23B00A
 234 016a D915EB3A 		.ascii	"\331\025\353:\206(\327C\374\231\224\222\244\253Z\306"
 234      8628D743 
 234      FC999492 
 234      A4AB5AC6 
 235 017a 78C488D5 		.ascii	"x\304\210\325\214\263\320\263V8\026\271%\034T\345b\300"
ARM GAS  /tmp/ccBs6P4c.s 			page 18


 235      8CB3D0B3 
 235      563816B9 
 235      251C54E5 
 235      62C0
 236 018c 432E9377 		.ascii	"C.\223w\242\206\275\351\233G1$\012\033\276_\237C\213"
 236      A286BDE9 
 236      9B473124 
 236      0A1BBE5F 
 236      9F438B
 237 019f 4172AF7E 		.ascii	"Ar\257~y\230P\261\224G\276TxP\353\260\350\342S\221\212"
 237      799850B1 
 237      9447BE54 
 237      7850EBB0 
 237      E8E25391 
 238 01b4 7A4FD55D 		.ascii	"zO\325]\307\220E\025\032\005[\020b?\265S\327\231$;O"
 238      C7904515 
 238      1A055B10 
 238      623FB553 
 238      D799243B 
 239 01c9 A505E5C2 		.ascii	"\245\005\345\302V\304R\342\010\232\274L\344\031|@\014"
 239      56C452E2 
 239      089ABC4C 
 239      E4197C40 
 239      0C
 240 01da BF36357E 		.ascii	"\27765~k:?{\245\306\320\212\014\235<\3515\334\331NF"
 240      6B3A3F7B 
 240      A5C6D08A 
 240      0C9D3CE9 
 240      35DCD94E 
 241 01ef CF870BA3 		.ascii	"\317\207\013\2433\200i\002\320\033\022\024)\354'\223"
 241      33806902 
 241      D01B1214 
 241      29EC2793 
 242 01ff ED900AD5 		.ascii	"\355\220\012\325\013T~\346F\350=\011\013mG\316 r\026"
 242      0B547EE6 
 242      46E83D09 
 242      0B6D47CE 
 242      207216
 243 0212 CBA31538 		.ascii	"\313\243\0258\213E\335y\376\276p\"4b^\020>\255e@\017"
 243      8B45DD79 
 243      FEBE7022 
 243      34625E10 
 243      3EAD6540 
 244 0227 4D460FD7 		.ascii	"MF\017\327\2753\265\206\313\3004Qe\245\257>\232I6\302"
 244      BD33B586 
 244      CBC03451 
 244      65A5AF3E 
 244      9A4936C2 
 245 023b 69B808D0 		.ascii	"i\270\010\320&\273i\3014\347j*\276\026\355\220\264n"
 245      26BB69C1 
 245      34E76A2A 
 245      BE16ED90 
 245      B46E
 246 024d 97B9D817 		.ascii	"\227\271\330\027\201\344\225[\335\3254\2052\211;g\343"
 246      81E4955B 
 246      DDD53485 
 246      32893B67 
ARM GAS  /tmp/ccBs6P4c.s 			page 19


 246      E3
 247 025e F54CA254 		.ascii	"\365L\242T\350\027\276\337I5\314\340}\012\341\037F\343"
 247      E817BEDF 
 247      4935CCE0 
 247      7D0AE11F 
 247      46E3
 248 0270 5BD1CCE0 		.ascii	"[\321\314\340\243\3776\032\345\277\035\215\362\237\216"
 248      A3FF361A 
 248      E5BF1D8D 
 248      F29F8E
 249 027f 469A1443 		.ascii	"F\232\024CL\026z\263{r\360pm^\343\303M\333\031\261\035"
 249      4C167AB3 
 249      7B72F070 
 249      6D5EE3C3 
 249      4DDB19B1 
 250 0294 19ED320B 		.ascii	"\031\3552\013AsoX\272\267\031|\246\334\007\016c\362"
 250      41736F58 
 250      BAB7197C 
 250      A6DC070E 
 250      63F2
 251 02a6 23B544DF 		.ascii	"#\265D\337k\031\006\327\363\301\203L\214\211\251\206"
 251      6B1906D7 
 251      F3C1834C 
 251      8C89A986 
 252 02b6 40B4D7A6 		.ascii	"@\264\327\246\016*\021\300\231XJ\310)F\262\224A4&\223"
 252      0E2A11C0 
 252      99584AC8 
 252      2946B294 
 252      41342693 
 253 02ca 29FDEB38 		.ascii	")\375\3538\337\336\221\272\224;\227\312^h\225r2\013"
 253      DFDE91BA 
 253      943B97CA 
 253      5E689572 
 253      320B
 254 02dc 71B9B776 		.ascii	"q\271\267v\\\276\330\226<\316\262m<\337\356\375\000"
 254      5CBED896 
 254      3CCEB26D 
 254      3CDFEEFD 
 254      00
 255 02ed D1CB7004 		.ascii	"\321\313p\004"
 256              		.text
 257              		.section	.gnu.lto__test_assert_time_window.e388cacfe785dfa8,"",%progbits
 258 0000 789C8D94 		.ascii	"x\234\215\224Kh\023A\030\200\377\177gc^>\012\012\"H"
 258      4B681341 
 258      1880FF7F 
 258      67635E3E 
 258      0A0A2248 
 259 0014 2DBD0A5D 		.ascii	"-\275\012]\332\036<y\020\275\010\366\242\025\364T\266"
 259      DA1E3C79 
 259      10BD08F6 
 259      A215F454 
 259      B6
 260 0025 9BD02E24 		.ascii	"\233\320.$YI\326\"xpR\337E\261\224\372\250U\261V\220"
 260      5949D622 
 260      787052DF 
 260      45B194FA 
 260      A855B156 
ARM GAS  /tmp/ccBs6P4c.s 			page 20


 261 003a DA47AA28 		.ascii	"\332G\252(Dm!\266>*\265>\320\213\026$(\342M<\210\210"
 261      446D21B6 
 261      3E2AB53E 
 261      D08B1624 
 261      28E24D3C 
 262 0050 54D67F66 		.ascii	"T\326\177f\323\230,Z\262d\376\231\311\314\377\375\317"
 262      D3982C5A 
 262      B264FE99 
 262      C9CCFFFD 
 262      CF
 263 0061 5D0514F0 		.ascii	"]\005\024\360>\0154\006}\000\037hF\037\240\322\375\002"
 263      3E0D3406 
 263      7D001F68 
 263      461FA0D2 
 263      FD02
 264 0073 201D5014 		.ascii	" \035P\024\366V\003\276\\\235\250\006\036b\250\272\177"
 264      F65603BE 
 264      5C9DA806 
 264      1E62A8BA 
 264      7F
 265 0084 AB886201 		.ascii	"\253\210b\001\010\207\024\246\342\241\275(!\031%\227"
 265      088714A6 
 265      E2A1BD28 
 265      21192597 
 266 0094 779CB12B 		.ascii	"w\234\261+]w&pH\251b\030GPI\240\217\204\342\007\023"
 266      5D772670 
 266      48A96218 
 266      475049A0 
 266      8F84E207 
 267 00a9 21400283 		.ascii	"!@\002\203$\224\220\020a\022\2144}p\204\363\356\032"
 267      24949010 
 267      61128C34 
 267      7D7084F3 
 267      EE1A
 268 00bb 0043929A 		.ascii	"\000C\222\232I\012\003\273Q\0213\233\203\251\367\013"
 268      490A03BB 
 268      5111339B 
 268      83A9F70B 
 269 00cb 2F5FF404 		.ascii	"/_\364\004\213\367\334E.sz\236\261\342n\264\367\362"
 269      8BF7DC45 
 269      2E737A9E 
 269      B1E26EB4 
 269      F7F2
 270 00dd 8AE266E8 		.ascii	"\212\342f\350\334\373\325X\334\315>\377H\321\3518@\301"
 270      DCFBD558 
 270      DCCD3EFF 
 270      48D1E938 
 270      40C1
 271 00ef 19883414 		.ascii	"\031\2104\024\032\214\206*\014\266\241\177#\334\344"
 271      1A8C862A 
 271      0CB6A17F 
 271      23DCE4
 272 00fe 47D279E7 		.ascii	"G\322y\347{\357v\023\325~\270\230\356\346U&\372\366"
 272      7BEF7613 
 272      D57EB898 
 272      EEE65526 
 272      FAF6
ARM GAS  /tmp/ccBs6P4c.s 			page 21


 273 0110 A089CB38 		.ascii	"\240\211\3138=*\310\245\214\264U\270\251\343 \321\350"
 273      3D2AC8A5 
 273      8CB455B8 
 273      A9E320D1 
 273      E8
 274 0121 9983CEAF 		.ascii	"\231\203\316\257\207W\352x\215\266m\030 \030\3003\350"
 274      8757EA78 
 274      8DB66D18 
 274      2018C033 
 274      E8
 275 0132 FCD6F326 		.ascii	"\374\326\363&\213\256\311Z\030\340\274'\327\3375\215"
 275      8BAEC95A 
 275      18E0BC27 
 275      D7DF358D 
 276 0142 BC8BA7BF 		.ascii	"\274\213\247\2779\316*\312\203\002S\322\025\011\366"
 276      39CE2ACA 
 276      830253D2 
 276      1509F6
 277 0151 57C929E0 		.ascii	"W\311)\340\251\015\361$,\337\3678\2744\353i\005,V!k"
 277      A90DF124 
 277      2CDFF738 
 277      BC34EB69 
 277      052C5621 
 278 0166 AE02962A 		.ascii	"\256\002\226*Y\344\235\013\311\237\235\375\275nd\234"
 278      59E49D0B 
 278      C99F9DFD 
 278      BD6E649C 
 279 0176 F3A339FE 		.ascii	"\363\2439\376\323A\207\021H\307\2332\317\225\004X\004"
 279      D3418711 
 279      48C79B32 
 279      CF950458 
 279      04
 280 0187 7162F8AE 		.ascii	"qb\370\256\362\005\247\200\030\251\000\301\226F\214"
 280      F205A780 
 280      18A900C1 
 280      96468C
 281 0196 55805045 		.ascii	"U\200PE\035\017\237\234\316\364\236\312\204\274}6|\316"
 281      1D0F9F9C 
 281      CEF49ECA 
 281      84BC7D36 
 281      7CCE
 282 01a8 595DAFE3 		.ascii	"Y]\257\343-\254\245\252\217K\231!Y\326^:\216\312\203"
 282      2DACA5AA 
 282      8F4B9921 
 282      59D65E3A 
 282      8ECA83
 283 01bb 612987E4 		.ascii	"a)\207\344\361b\303\211\261\314\265\023\224\035\302"
 283      F162C389 
 283      B1CCB513 
 283      941DC2
 284 01ca 4AACADD5 		.ascii	"J\254\255\325\361\266\354\234\020y\261\030\313\277\232"
 284      F1B6EC9C 
 284      1079B118 
 284      CBBF9A
 285 01d9 E701F263 		.ascii	"\347\001\362c\213Eb\012\274.)R\300\215\012\313\243\212"
 285      8B45620A 
 285      BC2E2952 
ARM GAS  /tmp/ccBs6P4c.s 			page 22


 285      C08D0ACB 
 285      A38A
 286 01eb C0276ADC 		.ascii	"\300'j\334\374\371\256'\233HC\332\016\271\306\340\277"
 286      FCF9AE27 
 286      9B4843DA 
 286      0EB9C6E0 
 286      BF
 287 01fc 466691F2 		.ascii	"Ff\221\362W0\022T`\276\304H\215kD\365\246\216p3\360"
 287      57301254 
 287      60BEC448 
 287      8D6B44F5 
 287      A68E7033 
 288 0211 E8F3C357 		.ascii	"\350\363\303W~O\336\370\227^\246cV&\344nYB\374\305d"
 288      7E4FDEF8 
 288      975EA663 
 288      5626E46E 
 288      5942FCC5 
 289 0226 84FE9276 		.ascii	"\204\376\222vS\354o5VZ\311\334\344\3612\207t\274WR\313"
 289      53EC6F35 
 289      565AC9DC 
 289      E4F13287 
 289      74BC5752 
 290 023b 251CA277 		.ascii	"%\034\242w2{\341G\216y=\272q\206\0125Q\360\345\276\364"
 290      327BE147 
 290      8E793DBA 
 290      71860A35 
 290      51F0E5BE 
 291 0250 252094C4 		.ascii	"% \224\304\013\317\305\013\317\016\302/~B\254Bq\371"
 291      0BCFC50B 
 291      CF0EC22F 
 291      7E42AC42 
 291      71F9
 292 0262 6D12265C 		.ascii	"m\022&\\'\305\212\211\024\013x\226\340:N\022\341\337"
 292      27C58A89 
 292      140B7896 
 292      E03A4E12 
 292      E1DF
 293 0274 AAEA7F55 		.ascii	"\252\352\177Ugg:<\212\301\242b8.\213#\256\207\377\006"
 293      67673A3C 
 293      8AC1A262 
 293      382E8B23 
 293      AE87FF06 
 294 0288 E3264795 		.ascii	"\343&G\225\337\302\327\220\316\367E\335<\266\271\227"
 294      DFC2D790 
 294      CEF745DD 
 294      3CB6B997 
 295 0298 DE4158F2 		.ascii	"\336AX\362\001\224\353\233\013\226\330\245\3115\342"
 295      0194EB9B 
 295      0B96D8A5 
 295      C935E2
 296 02a7 438A4249 		.ascii	"C\212BI4\373\372\272:\315\375\331\321\224\255\305\314"
 296      34FBFABA 
 296      3ACDFDD9 
 296      D194ADC5 
 296      CC
 297 02b8 56CD686F 		.ascii	"V\315ho\021\353:\003\032\213\207VJk\327c\332>+i\247"
 297      11EB3A03 
ARM GAS  /tmp/ccBs6P4c.s 			page 23


 297      1A8B8756 
 297      4A6BD763 
 297      DA3E2B69 
 298 02cd B45DCD4D 		.ascii	"\264]\315M\215\015\332\216\035\333\264\346\355M\035"
 298      8D0DDA8E 
 298      1DDBB4E6 
 298      ED4D1D
 299 02dc F5E2A425 		.ascii	"\365\342\244%e\267\304b\221\272v\320Ju\014+\036\267"
 299      65B7C462 
 299      91BA76D0 
 299      4A750C2B 
 299      1EB7
 300 02ee 1205B52D 		.ascii	"\022\005\265-;\233\2666\035 \274a%\243-\266\031\217"
 300      3B9BB636 
 300      1D20BC61 
 300      25A32DB6 
 300      198F
 301 0300 26E97E75 		.ascii	"&\351~u\351\375\244\255\231\011#\266?\022\245k\0356"
 301      E9FDA4AD 
 301      990923B6 
 301      3F12A56B 
 301      1D36
 302 0312 1D6FF0BA 		.ascii	"\035o\360\272`\245H\320=1\323\271*8\276\224\255'm\026"
 302      60A548D0 
 302      3D31D3B9 
 302      2A38BE94 
 302      AD276D16 
 303 0326 4D448286 		.ascii	"MD\202\206\225\210\230\266i%X<\325\366\007\015\001\252"
 303      958898B6 
 303      6925583C 
 303      D5F6070D 
 303      01AA
 304 0338 A0       		.ascii	"\240"
 305              		.text
 306              		.section	.gnu.lto_test_printn.e388cacfe785dfa8,"",%progbits
 307 0000 789C8554 		.ascii	"x\234\205TKH\224Q\024>\347\336\371\037\363\317\350\350"
 307      4B489451 
 307      143EE7DE 
 307      F91FF3CF 
 307      E8E8
 308 0012 A8238690 		.ascii	"\250#\206\220\010m\024\306\2406-\244u{\205j#:\3258\220"
 308      086D14C6 
 308      A0362DA4 
 308      757B856A 
 308      233AD538 
 309 0027 206514B4 		.ascii	" e\024\264\360:3\201\250\301 D\257\215\026\025\265\310"
 309      F03A3381 
 309      A8C12044 
 309      AF8D1615 
 309      B5C8
 310 0039 45BB5633 		.ascii	"E\273V3!4\212\026-\304\244E\266\210 \005\027\021\275"
 310      21348A16 
 310      2DC4A445 
 310      B6882005 
 310      1711BD
 311 004c A0E99CFF 		.ascii	"\240\351\234\377\376w\306L\350\342\3343\367\234\357"
 311      FE77C64C 
ARM GAS  /tmp/ccBs6P4c.s 			page 24


 311      E8E2DC33 
 311      F79CEF
 312 005b 3BEF5180 		.ascii	";\357Q\200\200\275\3472}>\207\000zHb\004P\024^\001L"
 312      80BDE732 
 312      7D3E8700 
 312      7A486204 
 312      50145E01 
 313 0070 B842846E 		.ascii	"\270B\204n6\200\362\344\217^PQ\2116\2531\204\236/-\375"
 313      3680F2E4 
 313      8F5E5051 
 313      8936AB31 
 313      849E2F2D 
 314 0085 2EB9B6B0 		.ascii	".\271\266\260f^\002\341\234\274C8\007\303\276\335\325"
 314      665E02E1 
 314      9CBC4338 
 314      07C3BEDD 
 314      D5
 315 0096 B2E48685 		.ascii	"\262\344\206\205\253\355\236o\367\020Y\017\010\343B"
 315      ABED9E6F 
 315      F710590F 
 315      08E342
 316 00a5 862CDB71 		.ascii	"\206,\333q\303\036\216\237BNDv\302\274R\263\233\327"
 316      C31E8E9F 
 316      424E4476 
 316      C2BC52B3 
 316      9BD7
 317 00b7 9E3E6E9B 		.ascii	"\236>n\233\232\313\026\324\357J\0053H)\037DH!\234\244"
 317      9ACB16D4 
 317      EF4A0533 
 317      48291F44 
 317      48219CA4 
 318 00cb 0776F842 		.ascii	"\007v\370B\204\376\256\201\231\305B\361\335\324\014"
 318      84FEAE81 
 318      99C542F1 
 318      DDD40C
 319 00da AA1A530A 		.ascii	"\252\032S\012\350\2521\225\226\242\341_\252\232Ukg\312"
 319      E8AA3195 
 319      96A2E15F 
 319      AA9A556B 
 319      67CA
 320 00ec 2A5FAC54 		.ascii	"*_\254T\216g0$ \371\277\200\013\242\270Y\251\254\254"
 320      8E673024 
 320      20F9BF80 
 320      0BA2B859 
 320      A9ACAC
 321 00ff 7DFF50C6 		.ascii	"}\377P\306\370\001\204\021Ns\020\037`'\310@\332HJ/x"
 321      F8018411 
 321      4E73101F 
 321      6027C840 
 321      DA484A2F 
 322 0114 4418110D 		.ascii	"D\030\021\015\036u\220A\253\236.;\306W#\333\342d\233"
 322      1E759041 
 322      AB9E2E3B 
 322      C65723DB 
 322      E2649B
 323 0127 275B1369 		.ascii	"'[\023i\234f\272\334\226\000\235\010d+c)\264\005y\245"
 323      9C66BADC 
ARM GAS  /tmp/ccBs6P4c.s 			page 25


 323      96009D08 
 323      642B6329 
 323      B40579A5 
 324 013b 0A1D8378 		.ascii	"\012\035\203x\237\224\332\004\234-\235>\272w\\\350G"
 324      9F94DA04 
 324      9C2D9D3E 
 324      BA775CE8 
 324      47
 325 014c 41429661 		.ascii	"AB\226a\361S\351\375\224\034\304GhA\032m.\304\332]E"
 325      F153E9FD 
 325      941CC447 
 325      68411A6D 
 325      2EC4DA5D 
 326 0161 3F4AC83B 		.ascii	"?J\310;\022`\003\"d\027\270\001\336U\370\251\224*~]"
 326      12600322 
 326      6417B801 
 326      DE55F8A9 
 326      942A7E5D 
 327 0175 8E6630AC 		.ascii	"\216f0\254\203\320\021W\030\035\202-\224K\220u\265\313"
 327      83D01157 
 327      181D822D 
 327      944B9075 
 327      B5CB
 328 0187 11C434A7 		.ascii	"\021\3044\247\364\032r\201\006\200\351\223\252!\203"
 328      F41A7281 
 328      0680E993 
 328      AA2183
 329 0196 5E0AFD9C 		.ascii	"^\012\375\234(\353\210\211f\001\355\202\\\205\334t\356"
 329      28EB8889 
 329      6601ED82 
 329      5C85DC74 
 329      EE
 330 01a7 CB8D3693 		.ascii	"\313\2156\223W4\215\302\3571\343\227@h\275\256\214\254"
 330      57348DC2 
 330      EF31E397 
 330      4068BDAE 
 330      8CAC
 331 01b9 0044B89D 		.ascii	"\000D\270\235{\210\006_\227F\364K\361\200m\331\255\334"
 331      7B88065F 
 331      9746F44B 
 331      F1806DD9 
 331      ADDC
 332 01cb 0563AA27 		.ascii	"\005c\252'\253\217\237\254V\035#-\243\355\303\032}B"
 332      AB8F9FAC 
 332      561D232D 
 332      A3EDC31A 
 332      7D42
 333 01dd 1BEEC29D 		.ascii	"\033\356\302\235\011\2523F\206 \274\2360\021|\007\327"
 333      09AA3346 
 333      8620BC9E 
 333      30117C07 
 333      D7
 334 01ee 73F78471 		.ascii	"s\367\204q\321\270;`5A\032\032\231Li6\320^\373\275\201"
 334      D1B83B60 
 334      35411A1A 
 334      994C6936 
 334      D05EFBBD 
ARM GAS  /tmp/ccBs6P4c.s 			page 26


 335 0203 6AEA82D1 		.ascii	"j\352\202\321\254\360\241T]\031\362\333\245o\313u\306"
 335      ACF0A154 
 335      5D19F2DB 
 335      A56FCB75 
 335      C6
 336 0214 31EE99C8 		.ascii	"1\356\231\310\006PC#\222\256Fke}Nl\200H\243\307\357"
 336      06504323 
 336      92AE466B 
 336      657D4E6C 
 336      8048A3C7 
 337 0229 A8754B72 		.ascii	"\250uKr\030\307\314\253\205\334\333\310*7hjv\351\355"
 337      18C7CCAB 
 337      85DCDBC8 
 337      2A37686A 
 337      76E9ED
 338 023c C231E339 		.ascii	"\3021\3439\256\353\2439\324&\022\035\341\214\374u\216"
 338      AEEBA339 
 338      D426121D 
 338      E18CFC75 
 338      8E
 339 024d 06018975 		.ascii	"\006\001\211u\332P\232\272\241\213v\217\210\004\240"
 339      DA509ABA 
 339      A18B768F 
 339      8804A0
 340 025c 1EC719A8 		.ascii	"\036\307\031\250aC\010\373\020\232\273\341\011\373\255"
 340      614308FB 
 340      109ABBE1 
 340      09FBAD
 341 026b D7146A74 		.ascii	"\327\024jt\023S\234\200\202UJn\272:\215D\032\245?\353"
 341      13539C80 
 341      82554A6E 
 341      BA3A8D44 
 341      1AA53FEB 
 342 027f 0A9DD87E 		.ascii	"\012\235\330~\363N\370A\236[\206\321\252\275\323\224"
 342      F34EF841 
 342      9E5B86D1 
 342      AABDD394 
 343 028f 12B529F1 		.ascii	"\022\265)\361\316Yf\345(\023\276\342\204\315`\203\031"
 343      CE5966E5 
 343      2813BEE2 
 343      84CD6083 
 343      19
 344 02a0 48789F81 		.ascii	"Hx\237\201H\036\301\342\307\322/3\002\275\354\252w\367"
 344      481EC1E2 
 344      C7D22F33 
 344      02BDECAA 
 344      77F7
 345 02b2 AAFB3033 		.ascii	"\252\37303\017\231\306\026\207\372\237p\267\327\333"
 345      0F99C616 
 345      87FA9F70 
 345      B7D7DB
 346 02c1 D9ADC7BF 		.ascii	"\331\255\307\277\254Ux\261UM\233iG\341\231\232\344\377"
 346      AC5578B1 
 346      554D9B69 
 346      47E1999A 
 346      E4FF
 347 02d3 38447A03 		.ascii	"8Dz\003\023\233\345C&9}\372\250\033;.w\277=\231\354"
ARM GAS  /tmp/ccBs6P4c.s 			page 27


 347      139BE543 
 347      26397DFA 
 347      A81B3B2E 
 347      77BF3D99 
 348 02e8 D17F6367 		.ascii	"\321\177cg/\216\365\234\317\014\365\244\206\007\370"
 348      2F8EF59C 
 348      CF0CF5A4 
 348      8607F8
 349 02f7 7B32051E 		.ascii	"{2\005\036\313\201\324\360h\362\210\034\272t\016G\377"
 349      CB81D4F0 
 349      68F2881C 
 349      BA740E47 
 349      FF
 350 0308 00878F22 		.ascii	"\000\207\217\","
 350      2C
 351              		.text
 352              		.section	.gnu.lto_test_print.e388cacfe785dfa8,"",%progbits
 353 0000 789C6D52 		.ascii	"x\234mR1K\\A\020\376\276\335\267\357\275;\015$\301F"
 353      314B5C41 
 353      10FEBEDD 
 353      B7EFBD3B 
 353      0D24C146 
 354 0014 11948085 		.ascii	"\021\224\200\205\012wE\260\314\2778A\323\210\036r\036"
 354      0A7745B0 
 354      CCBF3841 
 354      D3881E72 
 354      1E
 355 0025 2804B44B 		.ascii	"(\004\264K\341\336y\202\250\305a!!ZD\254\022\004K!\225"
 355      E1DE7982 
 355      A8C56121 
 355      215A44AC 
 355      12044B21 
 356 003a 567A9028 		.ascii	"Vz\220(\226\"\302a-\244O\221\313\314\355\235!\342\362"
 356      9622C261 
 356      2DA44F91 
 356      CBCCED9D 
 356      21E2F2
 357 004d DECCECCC 		.ascii	"\336\314\354\314|\337|o\367\031\030<]\357\344}%\351"
 357      7CDF7C6F 
 357      F719183C 
 357      5DEFE47D 
 357      25E9
 358 005f 51F18C41 		.ascii	"Q\361\214AS\277\004*\251a\024\002\033\202\26342v\373"
 358      53BF042A 
 358      A9611402 
 358      1B82B334 
 358      3276FB
 359 0072 1CF05957 		.ascii	"\034\360YWK\340{\035\251y\020\253\306F\216\253\323T"
 359      4BE07B1D 
 359      A97910AB 
 359      C6468EAB 
 359      D354
 360 0084 3ABEC181 		.ascii	":\276\301\201\367;\315\365\223\257\375\233_\252u\377"
 360      F73BCDF5 
 360      93AFFD9B 
 360      5FAA75FF 
 361 0094 A7D56299 		.ascii	"\247\325b\2312x\210(\022S\262\341p\333\231\350\177%"
ARM GAS  /tmp/ccBs6P4c.s 			page 28


 361      32788828 
 361      1253B2E1 
 361      70DB99E8 
 361      7F25
 362 00a6 C7E6B4D9 		.ascii	"\307\346\264\331j\355\337\036\335\337\361u\017\261D"
 362      6AEDDF1E 
 362      DDDFF175 
 362      0FB144
 363 00b5 588A7128 		.ascii	"X\212q(\323\306\230\345\201\220'\262\211R1.\243\015"
 363      D3C698E5 
 363      819027B2 
 363      8952312E 
 363      A30D
 364 00c7 B21C6ADE 		.ascii	"\262\034j\336\327\207\241\354\262\012bE`\201F\234\235"
 364      D787A1EC 
 364      B20A6245 
 364      6081469C 
 364      9D
 365 00d8 A485A8B6 		.ascii	"\244\205\250\266?Qm|:\031\235\345!\035J\214\367\360"
 365      3F516D7C 
 365      3A199DE5 
 365      211D4A8C 
 365      F7F0
 366 00ea B9E2FD4B 		.ascii	"\271\342\375K\021\366\021\277\375\206F\361\022\225@"
 366      11F611BF 
 366      FD8646F1 
 366      129540
 367 00f9 95C51D45 		.ascii	"\225\305\035E\202z\337\205$\343\030\223\321\002\224"
 367      827ADF85 
 367      24E31893 
 367      D10294
 368 0108 864428B4 		.ascii	"\206D(\2641\264\315\021\317\000\322q|S\3364@2B\241\220"
 368      31B4CD11 
 368      CF00D271 
 368      7C53DE34 
 368      403242A1 
 369 011d A803E123 		.ascii	"\250\003\341#dm\313v1\322\304\366\321h\265\001\023\362"
 369      646DCB76 
 369      31D2C4F6 
 369      D168B501 
 369      13F2
 370 012f F29D5202 		.ascii	"\362\235R\002\256\340B\002J\257&.\321\225\231\015L\223"
 370      AEE04202 
 370      4AAF262E 
 370      D195990D 
 370      4C93
 371 0141 C22D5762 		.ascii	"\302-Wb\033\250J\261\015b[\322\367\365_\273\003\335"
 371      1BA84AB1 
 371      0D625BD2 
 371      F7F55FBB 
 371      03DD
 372 0153 112EC8E9 		.ascii	"\021.\310\351\351L\352\355\310\270@\355\241\362\366"
 372      E94CEAED 
 372      C8B840ED 
 372      A1F2F6
 373 0162 B1494B2F 		.ascii	"\261IK/\376]\315\015X\2425b2\366\307m\237\316rz\274"
 373      FE5DCD0D 
ARM GAS  /tmp/ccBs6P4c.s 			page 29


 373      58A23562 
 373      32F6C76D 
 373      9FCE727A 
 374 0177 D7A834EF 		.ascii	"\327\2504\357F\272\242\302*\310\324Z\242?\332`.\227"
 374      46BAA2C2 
 374      2AC8D45A 
 374      A23FDA60 
 374      2E97
 375 0189 0FCFCAFC 		.ascii	"\017\317\312\374\362J~\261<\227/.\314h\234+\"\253~\246"
 375      F24A7EB1 
 375      3C972F2E 
 375      CC689C2B 
 375      22AB7EA6 
 376 019d B8F02137 		.ascii	"\270\360!7\361\027D\377z\307"
 376      F11744FF 
 376      7AC7
 377              		.text
 378              		.section	.gnu.lto_test_println.e388cacfe785dfa8,"",%progbits
 379 0000 789C8D53 		.ascii	"x\234\215S\315k\023Q\020\237y\037\233\315&\261\261z"
 379      CD6B1351 
 379      109F791F 
 379      9BCD26B1 
 379      B17A
 380 0012 B0E24729 		.ascii	"\260\342G)xh\013\311A\212 \010\376\021-h/%\015\262]"
 380      78680BC9 
 380      418A2008 
 380      FE112D68 
 380      2F250DB2 
 381 0027 3050686F 		.ascii	"0Pho\036\372\022#\210\365\020z\320\252\010\006\251\250"
 381      1EFA1223 
 381      88F5107A 
 381      D0AA0806 
 381      A9A8
 382 0039 172F053F 		.ascii	"\027/\005?\016\245\2364V-\036U\012A\257\005=\347\340"
 382      0EA59E34 
 382      562D1E55 
 382      0A41AF05 
 382      3DE7E0
 383 004c 3AB36F77 		.ascii	":\263ow\373\341\241>v\337\233\2357\277\231\337\374\336"
 383      FBE1A13E 
 383      76DF9B9D 
 383      37BF99DF 
 383      FCDE
 384 005e 5B0102F6 		.ascii	"[\001\002\366\217\013\364\256J\273\242\003(Z\237\001"
 384      8F0BF4AE 
 384      4ABBA203 
 384      285A9F01 
 385 006e EAAE4065 		.ascii	"\352\256@e\015i\215\267\256\022\362\366;\000\343\351"
 385      0D698DB7 
 385      AE12F2F6 
 385      3B00E3E9 
 386 007e 66064C5E 		.ascii	"f\006L^#\262\037\020\026\204T\032\027.#\247\023C\320"
 386      23B21F10 
 386      1684541A 
 386      172E23A7 
 386      1343D0
 387 0091 3666A9BB 		.ascii	"6f\251\273\262vo\340\326\243F\313\374\011C\014\220\012"
ARM GAS  /tmp/ccBs6P4c.s 			page 30


 387      B2766FE0 
 387      D6A346CB 
 387      FC09430C 
 387      900A
 388 00a3 9F46A822 		.ascii	"\237F\250\"\\\242\017\034\214\026\241\3662\261\310\365"
 388      5CA20F1C 
 388      8C16A1F6 
 388      32B1C8F5 
 389 00b3 D71B1FDA 		.ascii	"\327\033\037\332h\226L\375w\030\366E\310\221\203\220"
 389      68964CFD 
 389      7718F645 
 389      C8918390 
 390 00c3 2FC47A37 		.ascii	"/\304z7\014\267\267V\177\364\260\277(\260\206\240\240"
 390      0CB7B756 
 390      7FF4B0BF 
 390      28B086A0 
 390      A0
 391 00d4 826D1C02 		.ascii	"\202m\034\002\015\001J\207&\345\222\3471y\262\354\361"
 391      0D014A87 
 391      26E592E7 
 391      3179B2EC 
 391      F1
 392 00e5 68D239A0 		.ascii	"h\3229\240\300<O\005\372t(\221\206\2461\255A\340z4\306"
 392      C03C4F05 
 392      FA742891 
 392      86A631AD 
 392      41E07A34 
 393 00fa 69A66627 		.ascii	"i\246f'P\320\";\320pS\226[\213\033\273Hf\004\214\035"
 393      50D0223B 
 393      D0705396 
 393      5B8B1BBB 
 393      4866048C 
 394 010f 44D2C758 		.ascii	"D\322\307X\374\011\224@J\312O\320\350,\277\034NkZ\303"
 394      FC099440 
 394      4ACA4FD0 
 394      E82CBF1C 
 394      4E6B5AC3 
 395 0123 FCBC7BB2 		.ascii	"\374\274{\262\202O\210(\020\341\025\324\224\026-\336"
 395      824F8828 
 395      10E115D4 
 395      94162DDE 
 396 0133 7D00F7EB 		.ascii	"}\000\367\353\306\024I\224k\32037\331rk\321.\027t\343"
 396      C6144994 
 396      6BD03337 
 396      D9726BD1 
 396      2E1774E3 
 397 0147 4294F71B 		.ascii	"B\224\367\033\345\255\340S\002\373\230\035\205\021\352"
 397      E5ADE053 
 397      02FB981D 
 397      8511EA
 398 0156 38C56629 		.ascii	"8\305f)\021\207\333\340i\214\352<\243P\013\235Lp\336"
 398      1187DBE0 
 398      698CEA3C 
 398      A3500B9D 
 398      4C70DE
 399 0169 283CE778 		.ascii	"(<\347x/E\346(\031#e\214\304=\310\353\2132\201\346}"
 399      2F45E628 
ARM GAS  /tmp/ccBs6P4c.s 			page 31


 399      1923658C 
 399      C43DC8EB 
 399      8B3281E6 
 400 017e CC451270 		.ascii	"\314E\022p\362\016\010\353\267]\321.\300&h\353\343\266"
 400      F20E08EB 
 400      B75DD12E 
 400      C02668EB 
 400      E3B6
 401 0190 BCA8371F 		.ascii	"\274\2507\037\013\001oY\205\024\320\345\212\025Op\271"
 401      0B016F59 
 401      8514D0E5 
 401      8A154F70 
 401      B9
 402 01a1 88DF9B1B 		.ascii	"\210\337\233\033\277\356\034O\012\025Rn\205\270d&\026"
 402      BFEE1C4F 
 402      0A15526E 
 402      85B86426 
 402      16
 403 01b2 E13D34B7 		.ascii	"\341=4\267\353g\3238\336:\264s\026_\201z\021\002\211"
 403      EB67D338 
 403      DE3AB473 
 403      165F817A 
 403      110289
 404 01c5 8CFCF8FD 		.ascii	"\214\374\370\375(W\324|\304|$\257\326\006\254\356>\252"
 404      2857D47C 
 404      C47C24AF 
 404      D606ACEE 
 404      3EAA
 405 01d7 FF167C32 		.ascii	"\377\026|2\201\350Tm\214\244V\373\244\376\007\340\304"
 405      81E8546D 
 405      8CA456FB 
 405      A4FE07E0 
 405      C4
 406 01e8 32F75908 		.ascii	"2\367Y\010\361\322\2735N~\330Mp,\202\305rxRL\351X\200"
 406      F1D2BB35 
 406      4E7ED84D 
 406      702C82C5 
 406      7278524C 
 407 01ff C55370FE 		.ascii	"\305Sp\376\241Y\276\030\340\341\370\302D\344\372\005"
 407      A159BE18 
 407      E0E1F8C2 
 407      44E4FA05 
 408 020f DDE92300 		.ascii	"\335\351#\000_\240\336\355\235I\260v\214S\013\315\014"
 408      5FA0DEED 
 408      9D49B076 
 408      8C530BCD 
 408      0C
 409 0220 A73E512A 		.ascii	"\247>Q*\225\3553\177en\276|5\230.Wg\246\330.U\301\343"
 409      95ED337F 
 409      656EBE7C 
 409      35982E57 
 409      67A6D82E 
 410 0237 75AA3A33 		.ascii	"u\252:3[:\267c\216\251\332\234?+\013\036\374\005B\250"
 410      5B3AB763 
 410      8EA9DA9C 
 410      3F2B0B1E 
 410      FC0542A8 
ARM GAS  /tmp/ccBs6P4c.s 			page 32


 411 024b DA26     		.ascii	"\332&"
 412              		.text
 413              		.section	.gnu.lto_test_emit_token.e388cacfe785dfa8,"",%progbits
 414 0000 789C8D52 		.ascii	"x\234\215RMh\023Q\020\236y\273\333\224\376`\301\223"
 414      4D681351 
 414      109E79BB 
 414      DB94FE60 
 414      C193
 415 0012 52925010 		.ascii	"R\222P\020\005m\266\365\242G\245\247\036r\351\017\352"
 415      056DB6F5 
 415      A247A5A7 
 415      1E72E90F 
 415      EA
 416 0023 296CD7B5 		.ascii	")l\327\265Y\314vK6--\036\372\222\364 \364`)\212\326"
 416      59CC764B 
 416      362D2D1E 
 416      FA92F420 
 416      F460298A 
 417 0038 5ADA2256 		.ascii	"Z\332\"V\005Q<\012\005#\2504\326\006\305\036<\250\004"
 417      05513C0A 
 417      0523A834 
 417      D606C51E 
 417      3CA804
 418 004b 8B07F120 		.ascii	"\213\007\361 \365\324\252\030\347e\223M\377\260\276"
 418      F5D4AA18 
 418      E765934D 
 418      FFB0BE
 419 005a E4EDBC9F 		.ascii	"\344\355\274\237\371f\276y\3370`\260}\034\247\231\225"
 419      F966BE79 
 419      DF3060B0 
 419      7D1CA799 
 419      95
 420 006b 0036C8A2 		.ascii	"\0006\310\242\002\310\306s\000\311j\306\244\025\025"
 420      02C8C673 
 420      00C96AC6 
 420      A41515
 421 007a 788DBCE0 		.ascii	"x\215\274\340\007^'\241\354\036\313\210b\001\010#L\222"
 421      075E27A1 
 421      EC1ECB88 
 421      62010823 
 421      4C92
 422 008c 71E41C8A 		.ascii	"q\344\034\212\030\254\011\3468\237\310\277X\315\262"
 422      18AC09E6 
 422      389FC8BF 
 422      58CDB2
 423 009b C9AB99D1 		.ascii	"\311\253\231\321Y\376\273P@4\221\362\005\020t\204\263"
 423      59FEBB50 
 423      403491F2 
 423      05107484 
 423      B3
 424 00ac B4C160D1 		.ascii	"\264\301`\3210y+\001\027\233\231\311]9\360j65\316\377"
 424      30792B01 
 424      179B99C9 
 424      5D39F06A 
 424      3635CEFF 
 425 00c0 10B4883C 		.ascii	"\020\264\210<\272+\322\302\012\364\021\313\344\013\205"
 425      BA2BD2C2 
ARM GAS  /tmp/ccBs6P4c.s 			page 33


 425      0AF411CB 
 425      E40B85
 426 00cf 85B57B9F 		.ascii	"\205\265{\237'q\177\235\014\032\316a\023(do\223\365"
 426      27717F9D 
 426      0C1ACE61 
 426      1328646F 
 426      93F5
 427 00e1 A185C259 		.ascii	"\241\205\302Y\201Q\316\307\203 \242\321\350\242\257"
 427      8151CEC7 
 427      8320A2D1 
 427      E8A2AF
 428 00f0 A8A11B99 		.ascii	"\250\241\033\231\260R\026R\325e\026\371\265\373\313"
 428      B0521652 
 428      D56516F9 
 428      B5FBCB
 429 00ff CF7022CD 		.ascii	"\317p\"\315\027\371h\206x\004L\224\030\\\330\253\004"
 429      17F96886 
 429      78044C94 
 429      185CD8AB 
 429      04
 430 0110 71265102 		.ascii	"q&Q\002\310Aj\355Cz\376\240\227\322]dV\337MIG4\234'"
 430      C8416AED 
 430      437AFEA0 
 430      97D25D64 
 430      56DF4D49 
 431 0128 56DED9AF 		.ascii	"V\336\331\257k\353\265\215\336n\343\372\307}\336f\351"
 431      6BEBB58D 
 431      DE6EE3FA 
 431      C77DDE66 
 431      E9
 432 0139 E52A29A2 		.ascii	"\345*)\242\341\035\022DG\221\235\321\224h\026\023#\375"
 432      E11D1244 
 432      47919DD1 
 432      94681613 
 432      23FD
 433 014b 3ED196C4 		.ascii	">\321\226\304\224\\E\375\360\035\247\371\215S\246\353"
 433      945C45FD 
 433      F01DA7F9 
 433      8D53A6EB 
 434 015b E0F1A9DC 		.ascii	"\340\361\251\334\377(\335+.\343eHe\337\223Zn\216^\224"
 434      FF28DD2B 
 434      2EE36548 
 434      65DF935A 
 434      6E8E5E94 
 435 016f A7E06692 		.ascii	"\247\340f\222\363\006z\370K\360\223_\026\253*\367\251"
 435      F3067AF8 
 435      4BF0935F 
 435      16AB2AF7 
 435      A9
 436 0180 45B0AA52 		.ascii	"E\260\252R\241\213\360\374K\262\336\003\271\256\374"
 436      A18BF0FC 
 436      4BB2DE03 
 436      B9AEFC
 437 018f 0CA19AE1 		.ascii	"\014\241\232\341\001\2471M\316>\013\231\000U7\354h6"
 437      01A7314D 
 437      CE3E0B99 
 437      005537EC 
ARM GAS  /tmp/ccBs6P4c.s 			page 34


 437      6836
 438 01a1 31BA89F9 		.ascii	"1\272\211\371\212*-Cz,\375\364V\240\034L\241x\305\267"
 438      8A2A2D43 
 438      7A2CFDF4 
 438      56A01C4C 
 438      A178C5B7 
 439 01b5 45975EBB 		.ascii	"E\227^\273{\361?\274zEU\004YzS\263\031\304k\211K)*\224"
 439      7BF13FBC 
 439      7A455504 
 439      597A53B3 
 439      19C46B89 
 440 01cd 1C7D650E 		.ascii	"\034}e\016\362.\332\177\315m\327^\303\273\305\247\337"
 440      F22EDA7F 
 440      CD6DD75E 
 440      C3BBC5A7 
 440      DF
 441 01de 537CF897 		.ascii	"S|\370\227\370\337\246\205\370O\266\212?S\357\337\324"
 441      F8DFA685 
 441      F84FB68A 
 441      3F53EFDF 
 441      D4
 442 01ef 9A5E17AC 		.ascii	"\232^\027\254W\272`\354uZ\251t\201\230\305ru*bg#h\370"
 442      57BA60EC 
 442      755AA974 
 442      8198C572 
 442      752A6267 
 443 0206 90161E97 		.ascii	"\220\026\036\227\262\360\032>F\277\313\363-$\363\223"
 443      B2F01A3E 
 443      46BFCBF3 
 443      2D24F393 
 444 0216 87DD70E5 		.ascii	"\207\335p\345\321E\315E\357 \\\033C!\325\375'\014'\241"
 444      D145CD45 
 444      EF205C1B 
 444      4321D5FD 
 444      270C27A1 
 445 022a C6CC1E55 		.ascii	"\306\314\036U\217F\304:\244C\255\260\221\204}\261?t"
 445      8F46C43A 
 445      A443ADB0 
 445      91847DB1 
 445      3F74
 446 023c B2AEB26E 		.ascii	"\262\256\262nmi\366P\266\243\352\266e\331}j\277\035"
 446      6D69F650 
 446      B6A3EAB6 
 446      65D97D6A 
 446      BF1D
 447 024e 4F38EAE9 		.ascii	"O8\352\351\216p[x\210b\350v\334\210\014\236\260BQP\006"
 447      8E705B78 
 447      8862E876 
 447      DC880C9E 
 447      B0425150 
 448 0263 B5D880D1 		.ascii	"\265\330\200\321\272\013\306\030J\250m\341\316\366N"
 448      BA0BC618 
 448      4AA86DE1 
 448      CEF64E
 449 0272 D5ECD363 		.ascii	"\325\354\323c\003\347\015U\267\034\323\211\364\352:"
 449      03E70D55 
 449      B71CD389 
ARM GAS  /tmp/ccBs6P4c.s 			page 35


 449      F4EA3A
 450 0281 E1029B11 		.ascii	"\341\002\233\021\361D\305'\352\014;\333\357\243Z\214"
 450      F144C527 
 450      EA0C3BDB 
 450      EFA35A8C 
 451 0291 0C7DC851 		.ascii	"\014}\310QX\272o\010wv\004{4\307\350\217\233\307\202"
 451      58BA6F08 
 451      7776047B 
 451      34C7E88F 
 451      9BC782
 452 02a4 875A80C5 		.ascii	"\207Z\200\305\301g\031\226\035\037\206\277\355\3178"
 452      C1671996 
 452      1D1F86BF 
 452      EDCF38
 453 02b3 C9       		.ascii	"\311"
 454              		.text
 455              		.section	.gnu.lto_test_emit_token_i.e388cacfe785dfa8,"",%progbits
 456 0000 789C8D52 		.ascii	"x\234\215R\277KBQ\024>\347\336\253\210\031\010MA\244"
 456      BF4B4251 
 456      143EE7DE 
 456      AB881908 
 456      4D41A4
 457 0013 B8B4D47B 		.ascii	"\270\264\324{XK\377B\273RMb\022%%\005\2715x\237\032"
 457      584BFF42 
 457      BB524D62 
 457      12252505 
 457      B935789F 
 458 0028 040D4938 		.ascii	"\004\015I8\364\003A\2116\261\266\226\006\207\206,\222"
 458      F4034189 
 458      36B1B696 
 458      0687862C 
 458      92
 459 0039 02B71609 		.ascii	"\002\267\026\011\202\240\271%\242\327\271\357\252\331"
 459      82A0B925 
 459      A2D7B9EF 
 459      AAD9
 460 0047 8FA1C37B 		.ascii	"\217\241\303{\357;\367\336\363}\347\273\207\307\200"
 460      EF3BF7DE 
 460      F37DE7BB 
 460      87C780
 461 0056 C1CF98A4 		.ascii	"\301\317\230\244\367\031\001\246\011\321\005\310\012"
 461      F71901A6 
 461      09D105C8 
 461      0A
 462 0063 4D00CBC3 		.ascii	"M\000\313\303\030o\231 \275\342b\024\244\217\243\320"
 462      186F9920 
 462      BDE26214 
 462      A48FA3D0 
 463 0073 DB025125 		.ascii	"\333\002Q%\200\220a\\`f\036\225\006\013AE\312\275\366"
 463      8090615C 
 463      60661E95 
 463      060B4145 
 463      CABDF6
 464 0086 D64B831D 		.ascii	"\326K\203\035\024\353\371\262|\267m\304$R\277\000B\002"
 464      14EBF9B2 
 464      7CB76DC4 
 464      2452BF00 
ARM GAS  /tmp/ccBs6P4c.s 			page 36


 464      4202
 465 0098 618E1618 		.ascii	"a\216\026\030t\200\211\357\0064\267\376\320\334\035"
 465      748089EF 
 465      0634B7FE 
 465      D0DC1D
 466 00a7 BE2E670B 		.ascii	"\276.g\013\362\203\250\016s\374Of\012\277\250\247\254"
 466      F283A80E 
 466      73FC4F66 
 466      0ABFA8A7 
 466      AC
 467 00b8 DEB6EDEA 		.ascii	"\336\266\355\352\353\331c\015\207<\034\342X\301\020"
 467      EBD9630D 
 467      873C1CE2 
 467      58C110
 468 00c7 08C26342 		.ascii	"\010\302cB7\246P\025\273 /e!\010J\215\"B_u\207(2\205"
 468      37A65015 
 468      BB202F65 
 468      21084A8D 
 468      22425F75 
 469 00df FC16B28D 		.ascii	"\374\026\262\215}2\036\307\023\272\377\022\362#8\264"
 469      7D321EC7 
 469      13BAFF12 
 469      F22338B4 
 470 00ef A4F49387 		.ascii	"\244\364\223\207Mx\223\333*\343\272\2532\301;\275\257"
 470      4D7893DB 
 470      2AE3BAAB 
 470      32C13BBD 
 470      AF
 471 0100 E0F2C91A 		.ascii	"\340\362\311\032\354\221t\251\234%\326\004T%E\211\212"
 471      EC9174A9 
 471      9C25D604 
 471      54254589 
 471      8A
 472 0111 450A9922 		.ascii	"E\012\231\"\271\374\277\346\256\"Jj-\223\034\344vr\347"
 472      B9FCBFE6 
 472      AE224A6A 
 472      2D931CE4 
 472      7672E7
 473 0124 A540574C 		.ascii	"\245@WL\220\236s_\325\224\354\315\350\203\377\370\""
 473      909E735F 
 473      D594ECCD 
 473      E883FFF8 
 473      22
 474 0135 B243B9B9 		.ascii	"\262C\271\271\363\366\223\344@\262\247\012\235Bw\327"
 474      F3F693E4 
 474      40B2A70A 
 474      9D4277D7 
 475 0145 8370C670 		.ascii	"\203p\306p\017V\2736\246I\335\210\320\374\350L\3754"
 475      0F56BB36 
 475      A649DD88 
 475      D0FCE84C 
 475      FD34
 476 0157 238661EA 		.ascii	"#\206a\352'\275\270\2216W\223\013fb9\246r#\001>\205"
 476      27BDB891 
 476      3657930B 
 476      666239A6 
 476      7223013E 
ARM GAS  /tmp/ccBs6P4c.s 			page 37


 477 016c B1F4DACA 		.ascii	"\261\364\332\312\272\021\016\367/\246>\001\005\350\211"
 477      BA110EF7 
 477      2FA63E01 
 477      05E889
 478 017b E8       		.ascii	"\350"
 479              		.text
 480              		.section	.gnu.lto_test_execute.e388cacfe785dfa8,"",%progbits
 481 0000 789CED9A 		.ascii	"x\234\355\232{t\024\325\035\307\357ov\223l\036\020\310"
 481      7B7414D5 
 481      1DC7EF6F 
 481      76936C1E 
 481      10C8
 482 0012 3B816C96 		.ascii	";\201l\226\004\310\213l\262A\304\306V-\010\012\202\""
 482      04C88B6C 
 482      B241C4C6 
 482      562D080A 
 482      8222
 483 0024 495010C4 		.ascii	"IP\020\304M\010\223\305<0\011(\370`!\341\025@\221V@"
 483      4D0893C5 
 483      3C300928 
 483      F86021E1 
 483      15409156 
 484 0039 AD6F14D1 		.ascii	"\255o\024\321\243\250\250\001\001I\264V)\005\217\326"
 484      A3A8A801 
 484      0149B456 
 484      29058FD6 
 485 0049 B62A781A 		.ascii	"\266*x\032_Uz<\352\021<\307WM\177\367\376\356\314\316"
 485      5F557A3C 
 485      EA113CC7 
 485      574D7FF7 
 485      FEEECCCE 
 486 005d EC4CD204 		.ascii	"\354L\322\004\377\351\037\344pv\356\343\373\373\335"
 486      FFE91FE4 
 486      7076EEE3 
 486      FBFBDD
 487 006c B9BFFBF9 		.ascii	"\271\277\373\371\335\271;\213\302\024\026\376W\211M"
 487      DDB93B8B 
 487      C21416FE 
 487      57894D
 488 007b 530A19EB 		.ascii	"S\012\031\353\000\306`,\003e\3631\306V\272\024pR\301"
 488      00C6602C 
 488      0365F331 
 488      C656BA14 
 488      7052C1
 489 008e 41852E97 		.ascii	"A\205.\227Sql|\235\261`LD[\024\013\306E@\024\011\"\251"
 489      53716C7C 
 489      9DB1604C 
 489      445B140B 
 489      C6454014 
 490 00a5 D0E58A52 		.ascii	"\320\345\212R\"I\340\022\002\027\304\220 \232\012]\256"
 490      2249E012 
 490      0217C490 
 490      209A0A5D 
 490      AE
 491 00b6 18259A04 		.ascii	"\030%\232\004\261B\020\013\005$\210\203\301T\030D\205"
 491      B142100B 
 491      05248883 
ARM GAS  /tmp/ccBs6P4c.s 			page 38


 491      C1541844 
 491      85
 492 00c7 2ED76065 		.ascii	".\327`e\020)\343\2052\036\206\222`\010\025\272\\C\225"
 492      1029E385 
 492      321E8692 
 492      600815BA 
 492      5C4395
 493 00da 21244810 		.ascii	"!$H\020\202\004H\"A\"\025\272\\IJ\"\011\222\205 \031"
 493      82044822 
 493      412215BA 
 493      5C494A22 
 493      09928520 
 494 00ef 52499042 		.ascii	"RI\220B\205.W\252\222B\2024!HS\322\017\214\307\332\350"
 494      852E57AA 
 494      92428234 
 494      214853D2 
 494      0F8CC7DA 
 495 0104 7752B096 		.ascii	"wR\260\226\016\303\270\0122\350\332\345\032\246d\220"
 495      0EC3B80A 
 495      32E8DAE5 
 495      1AA66490 
 496 0114 7AB8500F 		.ascii	"z\270P\017\0077\271\313\244B\227\313\255d\222 K\010"
 496      0737B9CB 
 496      A44297CB 
 496      AD649220 
 496      4B08
 497 0126 B2600409 		.ascii	"\262`\004\011<T\350r\215P<$\310\026\202l\030I\202\034"
 497      3C54E872 
 497      8D503C24 
 497      C816826C 
 497      1849821C 
 498 013a 2A74B946 		.ascii	"*t\271F*9$\030%\004\243 \227\004\243\265B.\344\2212"
 498      2A392418 
 498      2504A320 
 498      9704A3B5 
 498      422EE491 
 499 014f 4F892365 		.ascii	"O\211#e\276P\346S\034\273\\\005J!\265\217\021\355\205"
 499      BE50E653 
 499      1CBB5C05 
 499      4A21B58F 
 499      11ED85
 500 0162 A48731E0 		.ascii	"\244\2071\340%\007ET\350ry\225\"\022\026\013a\261Rr"
 500      25074554 
 500      E8727995 
 500      2212160B 
 500      61B15272 
 501 0176 C08D35DF 		.ascii	"\300\2155\337;\305X+\201R\222\373\264B)\000/0`+\024"
 501      3BC5582B 
 501      815292FB 
 501      B4422900 
 501      2F30602B 
 502 018b 87332232 		.ascii	"\2073\"2\312\025\035\023\0337hp\374\220\241\011\211"
 502      CA151D13 
 502      1B376870 
 502      FC90A109 
 502      89
 503 019c 49C929A9 		.ascii	"I\311)\251i\351\031\303\206g\272\263<#\262sF\216\032"
ARM GAS  /tmp/ccBs6P4c.s 			page 39


 503      69E919C3 
 503      8667BAB3 
 503      3C23B273 
 503      468E1A
 504 01af 9D9B975F 		.ascii	"\235\233\227_P8\246\310[\\\342+\205\025\263\201c\346"
 504      5038A6C8 
 504      5B5CE22B 
 504      8515B381 
 504      63E6
 505 01c1 CE660F05 		.ascii	"\316f\017\005\203[\272W?\366\203\343\356\337w\266=\030"
 505      835BBA57 
 505      3FF683E3 
 505      EEDF77B6 
 505      3D18
 506 01d3 FCA9A707 		.ascii	"\374\251\247\007 \000\210d\026\260j`Wc\005<\342\242"
 506      20008864 
 506      16B06A60 
 506      5763053C 
 506      E2A2
 507 01e5 38CD8C92 		.ascii	"8\315\214\222m\347\301-\233R\333\273\203\233\203?\243"
 507      6DE7C12D 
 507      9B52DBBB 
 507      839B833F 
 507      A3
 508 01f6 69001C0A 		.ascii	"i\000\034\012\033\031\262t\221%\330Z\276\265ekz\373"
 508      1B19B274 
 508      9125D85A 
 508      BEB5656B 
 508      7AFB
 509 0208 83AB344B 		.ascii	"\203\2534K\034s|?\307\274\363w\373\037\202\340\232\340"
 509      1C737C3F 
 509      C7BCF377 
 509      FB1F82E0 
 509      9AE0
 510 021a CAAF7B7A 		.ascii	"\312\257{z\342\305\230\027\367k\314\315\235w\277y\004"
 510      E2C59817 
 510      F76BCCCD 
 510      9D77BF79 
 510      04
 511 022b 825B3443 		.ascii	"\202[4C\247\202\332\376\014\2719\370\302\2027\202m\235"
 511      A782DAFE 
 511      0CB939F8 
 511      C2823782 
 511      6D9D
 512 023d 3D3D170A 		.ascii	"==\027\012\2539\375\274\321m\246\341\"\0246\267\237"
 512      AB39FDBC 
 512      D16DA6E1 
 512      221436B7 
 512      9F
 513 024e 86FB8EFC 		.ascii	"\206\373\216\374\371!\203e\244\302\374g6\244\037\236"
 513      F9218365 
 513      A4C2FC67 
 513      36A41F9E 
 514 025e 06E5CCC6 		.ascii	"\006\345\314\306\364\3033\3755=;\350\331A\317\016zv"
 514      F4C333FD 
 514      353D3BE8 
 514      D941CF0E 
ARM GAS  /tmp/ccBs6P4c.s 			page 40


 514      7A76
 515 0270 D0FF8341 		.ascii	"\320\377\203Aw+\235\335==\007\276\177\374\343\367!\351"
 515      772B9DDD 
 515      3D3D07BE 
 515      7FFCE3F7 
 515      21E9
 516 0282 7100DC38 		.ascii	"q\000\3348wA6\343\033\350\223xuA=\260\024\026\200\250"
 516      774136E3 
 516      1BE89378 
 516      75413DB0 
 516      141680A8 
 517 0296 54FE9186 		.ascii	"T\376\221\206\315\017as:VX\006o\031\206\037.7~8\263"
 517      CD0F6173 
 517      3A565806 
 517      6F19861F 
 517      2E377E38 
 518 02ab F0233A9B 		.ascii	"\360#:\233\227rxi4\357\315E\375A\324\347\361J>\227\026"
 518      97727869 
 518      34EFCD45 
 518      FD41D4E7 
 518      F14A3E97 
 519 02c0 60CB7E6C 		.ascii	"`\313~l\361\362\226b9J\011\257\370x\367Xly\004[\306"
 519      F1F29662 
 519      394A09AF 
 519      F878F758 
 519      6C79045B 
 520 02d5 E1F551BC 		.ascii	"\341\365Q\274\226\341\365U\274^ \357k\002^w\342u\222"
 520      96E1F555 
 520      BC5E20EF 
 520      6B025E77 
 520      E27592
 521 02e8 BC4E46A3 		.ascii	"\274NF\243\230K\260\262\033+\227b%v\012~\304M\305\226"
 521      984BB0B2 
 521      1B2B9762 
 521      25760A7E 
 521      C44DC596 
 522 02fc A7B0E532 		.ascii	"\247\260\3452y\235\206\215\203\246c\3459\254\\\316e"
 522      799D868D 
 522      83A663E5 
 522      39AC5CCE 
 522      65
 523 030d 5770D90C 		.ascii	"Wp\331\014ly\026[\256\224\327\231\\V\216\225\347\261"
 523      6C79165B 
 523      AE94D799 
 523      5C568E95 
 523      E7B1
 524 031f 52C16595 		.ascii	"R\301e\225\\6\013[\366`\313U\362z5\227\315\306\312\213"
 524      5C360B5B 
 524      F660CB55 
 524      F27A3597 
 524      CDC6CA8B 
 525 0333 5899C365 		.ascii	"X\231\303e\327p\331\\ly\001[\346\311\353\265\\6\037"
 525      D770D95C 
 525      6C79015B 
 525      E6C9EBB5 
 525      5C361F
 526 0346 2B7BB172 		.ascii	"+{\261r\035\227\371\271\254\012[:\260\245Z^\027pY\015"
ARM GAS  /tmp/ccBs6P4c.s 			page 41


 526      1D97F9B9 
 526      AC0A5B3A 
 526      B0A55A5E 
 526      1770590D 
 527 035a 565EC2CA 		.ascii	"V^\302\312B.S\271\254\026[\366aK@^\027q\331\365X9\200"
 527      422E53B9 
 527      AC165BF6 
 527      614B405E 
 527      1771D9F5 
 528 0371 953A2EAB 		.ascii	"\225:.\253\347\262\006\031\317Fy]\314e7`\345e\2544q"
 528      E7B20619 
 528      CF46795D 
 528      CC653760 
 528      E565AC34 
 529 0386 593397B5 		.ascii	"Y3\227\265\310\205X\"\257K\271\354F\254tb\345&.[\306"
 529      C8855822 
 529      AF4BB9EC 
 529      46AC7462 
 529      E5262E5B 
 530 039b 65CBB1E5 		.ascii	"e\313\261\345\020\266\334,\257\267p\331\255Xy\005+\267"
 530      10B6DC2C 
 530      AFB770D9 
 530      AD587905 
 530      2BB7
 531 03ad 71D90A2E 		.ascii	"q\331\012.\013rL\272\260i\245VX\005\\\331\312\253\177"
 531      0B724CBA 
 531      B069A556 
 531      58055CD9 
 531      CAAB7F
 532 03c0 C46A1BAF 		.ascii	"\304j\033\257\306\256\346\237qk@\256\341Z\255\260N\210"
 532      C6AEE69F 
 532      716B40AE 
 532      E15AADB0 
 532      4E88
 533 03d2 D7F3EA9F 		.ascii	"\327\363\352\237\260\332.\304\033\204x#o|\015\0337i"
 533      B0DA2EC4 
 533      1B847823 
 533      6F7C0D1B 
 533      3769
 534 03e4 85DB8518 		.ascii	"\205\333\205\030I\215`mx\262\360\020\007\304\015\343"
 534      498D606D 
 534      78B2F010 
 534      07C40DE3 
 535 03f4 70E35F05 		.ascii	"p\343_\005~F\263J\204=\332q\224\255:\362\356\251\017"
 535      7E46B34A 
 535      843DDA71 
 535      94AD3AF2 
 535      EEA90F
 536 0407 C10FAF43 		.ascii	"\301\017\257C\004\273\227\335\2632\030\034\202\311p"
 536      04BB97DD 
 536      B332181C 
 536      82C970
 537 0416 33FB21B8 		.ascii	"3\373!\270\216\227\006\327\0037\342\3110X\244\200\212"
 537      8E9706D7 
 537      0337E2C9 
 537      3058A480 
 537      8A
ARM GAS  /tmp/ccBs6P4c.s 			page 42


 538 0427 6720F626 		.ascii	"g \366&k\353~\363\263(\262bLW\307W\003\035\215x\313"
 538      6BEB7EF3 
 538      B328B262 
 538      4C57C757 
 538      031D8D78 
 539 043c F660F0CA 		.ascii	"\366`\360\312\000\014q\263\272\373\202\333/\012\300"
 539      000C71B3 
 539      BAFB82DB 
 539      2F0AC0
 540 044b 5026F501 		.ascii	"P&\365\001H \027\357\365\317E\242\2335\220\213$\213"
 540      482017EF 
 540      F5CF45A2 
 540      9B35908B 
 540      248B
 541 045d 8B0FFAE7 		.ascii	"\213\017\372\347\"\331\315\326\003\371H1\3718\314Vu"
 541      22D9CDD6 
 541      03F94831 
 541      F938CC56 
 541      75
 542 046e 665103C1 		.ascii	"fQ\003\301O6\235\007\357\300=!\325\215\001%\2534\315"
 542      4F369D07 
 542      EFC03D21 
 542      D58D0125 
 542      AB34CD
 543 0481 8AFE2AC1 		.ascii	"\212\376*\301\301\336c<|\207\267w\344\313`kQ\017\376"
 543      C1DE633C 
 543      7C87B777 
 543      E4CB606B 
 543      510FFE
 544 0494 787F2639 		.ascii	"x\177&9c\322\252\032\024\212\335%\375\0111c\350\367"
 544      63D2AA1A 
 544      148ADD25 
 544      FD093163 
 544      E8F7
 545 04a6 7DF4EB87 		.ascii	"}\364\353\207\277\241\261\012\227\026\262\002\\t\335"
 545      BFA1B10A 
 545      9716B202 
 545      5C74DD
 546 04b5 361D1D71 		.ascii	"6\035\035qy\244\020W\201\030\347\357twh:G\263\303oy"
 546      79A41057 
 546      8118E7EF 
 546      7477683A 
 546      47B3C36F 
 547 04ca 4F707D86 		.ascii	"Op}\206n9\014\235q\313Xi\011&\313\326\015\016\315\364"
 547      6E390C9D 
 547      71CB5869 
 547      0926CBD6 
 547      0D0ECDF4 
 548 04de 3215A6EA 		.ascii	"2\025\246\352G\335\303L\241v\232\025\366\362\340GP\033"
 548      47DDC34C 
 548      A1769A15 
 548      F6F2E047 
 548      501B
 549 04f0 9FD61431 		.ascii	"\237\326\02417\025\246\005`\270\026 '\373\21090\274"
 549      3715A605 
 549      60B81620 
 549      27FB8839 
ARM GAS  /tmp/ccBs6P4c.s 			page 43


 549      30BC
 550 0502 2EA69B4D 		.ascii	".\246\233M\025\267\367\322\352\257\266fh\343L\323o-"
 550      15B7F7D2 
 550      EAAFB666 
 550      68E34CD3 
 550      6F2D
 551 0514 538EA8C5 		.ascii	"S\216\250\305\370\015\326\366\305\312\261\272\216w\271"
 551      F80DD6F6 
 551      C5CAB1BA 
 551      8E77B9
 552 0523 433BF17B 		.ascii	"C;\361{l\252i\245\374\360\016v\3135R\000o\321\361\227"
 552      6CAA69A5 
 552      FCF00E76 
 552      CB355200 
 552      6FD1F197 
 553 0537 E349FC3E 		.ascii	"\343I\374>\"\020sN\312?\373A\212#\000Yn\366\260\\sO"
 553      2210734E 
 553      CA3FFB41 
 553      8A230059 
 553      6EF6B05C 
 554 054d EFA43C1B 		.ascii	"\357\244<\033\"\345\257\222\224\227z#%\262\017Rv>\220"
 554      22E5AF92 
 554      94977A23 
 554      25B20F52 
 554      763E90
 555 0560 49CE2CA4 		.ascii	"I\316,\244L\037 )\237\2100]n%e\272\205\224O\215\244"
 555      4C1F2029 
 555      9F88305D 
 555      6E2565BA 
 555      85944F8D 
 556 0575 90DD1576 		.ascii	"\220\335\025v\244\\n!\345S\023)dz\245\0123\314\244|"
 556      A45C6E21 
 556      E5531329 
 556      647AA50A 
 556      33CCA47C 
 557 0589 A287087B 		.ascii	"\242\207\010{%)\237HR\256\020sSa\246\201\224(#)d6\303"
 557      25299F48 
 557      52AE1073 
 557      5361A681 
 557      94282329 
 558 05a0 480A8D33 		.ascii	"H\012\2153\323H\312\014;R\244\316B\312\014\323J\371"
 558      D348CA0C 
 558      3B52A4CE 
 558      42CA0CD3 
 558      4AF9
 559 05b2 E1E31029 		.ascii	"\341\343\020)\021H\312\225\221\222\024\227$\345\337"
 559      1148CA95 
 559      91921497 
 559      24E5DF
 560 05c1 FDDB5346 		.ascii	"\375\333SF\270\3311\271\346\331\275\223\262'D\312qI"
 560      B8D931B9 
 560      E6D9BD93 
 560      B22744CA 
 560      7149
 561 05d3 CAA9DE48 		.ascii	"\312\251\336H\211\356\203\224\016N\312\036;R\312\007"
 561      89EE8394 
 561      0E4ECA1E 
ARM GAS  /tmp/ccBs6P4c.s 			page 44


 561      3B52CA07 
 562 05e3 48CA2911 		.ascii	"H\312)\021\246\012+)\345\026RN\033I!\273J;R*,\244\234"
 562      A60A2B29 
 562      E516524E 
 562      1B4921BB 
 562      4A3B522A 
 563 05fa 369142A6 		.ascii	"6\221B\246W\2510\313L\312)=D\330+I9%I\251\024sS\341"
 563      57A930CB 
 563      4CCA293D 
 563      44D82B49 
 563      392549A9 
 564 0612 6A032931 		.ascii	"j\003)1FR\310l\226\221\024\032\347j#)\263\354H\221:"
 564      4652C86C 
 564      9691141A 
 564      E76A2329 
 564      B3EC4891 
 565 0627 0B29B34C 		.ascii	"\013)\263L+\345\207oB\244\270\220\224\253\242%)\261"
 565      2BE5876F 
 565      42A4B890 
 565      94ABA225 
 565      29B1
 566 0639 92942FFB 		.ascii	"\222\224/\373GJ\216\233\255Uh\315G\206=\301Z\273\277"
 566      474A8E9B 
 566      AD5568CD 
 566      47863DC1 
 566      5ABBBF
 567 064c 572D2E46 		.ascii	"W-.FU\343\343\205\377\005`4=\346~\374e\017[\214\320"
 567      55E3E385 
 567      FF056034 
 567      3DE67EFC 
 567      650F5B8C 
 568 0661 DEBD3D1F 		.ascii	"\336\275=\037*a\217y\207\356+\267^\320\304\003\222+"
 568      2A618F79 
 568      87EE2BB7 
 568      5ED0C403 
 568      922B
 569 0673 7CF292B8 		.ascii	"|\362\222\270\007\214v\367\317;A\303\231\037'x\237~"
 569      078C76F7 
 569      CF3B41C3 
 569      991F2778 
 569      9F7E
 570 0685 30AE8438 		.ascii	"0\256\2048\326\026\345\3403i\337\025c7\025gh*b\321\311"
 570      D616E5E0 
 570      3369DF15 
 570      63371567 
 570      682A62D1 
 571 069a D10BA1BC 		.ascii	"\321\013\241\274\330\266%9\000ynv\237\214Q~x^\014b\033"
 571      D8B62539 
 571      00796E76 
 571      9F8C517E 
 571      785E0C62 
 572 06af 5FEF3531 		.ascii	"_\35751v\357\310'o\226\304\230=\300\304X\257p*\346X"
 572      76EFC827 
 572      6F96C498 
 572      3DC0C458 
 572      AF702AE6 
 573 06c4 1363B625 		.ascii	"\023c\266%1\332\025Cb\220\3355v\2111\307\222\030\272"
ARM GAS  /tmp/ccBs6P4c.s 			page 45


 573      31DA1543 
 573      6290DD35 
 573      768931C7 
 573      9218BA
 574 06d7 A5480C32 		.ascii	"\245H\0142\235\247\302\\sb\360v\232\025\366\312\304"
 574      9DA7C25C 
 574      7362F076 
 574      9A15F6CA 
 574      C4
 575 06e8 58AF5062 		.ascii	"X\257Pb\\#\346\246\302\265\206\304\030\3146\037\013"
 575      5C23E6A6 
 575      C2B586C4 
 575      18CC361F 
 575      0B
 576 06f9 6506D9CD 		.ascii	"e\006\331\3155f\006\015t\25513\346\332e\206\324Y2c\256"
 576      3566060D 
 576      74AD3133 
 576      E6DA6586 
 576      D4593263 
 577 070e 69ADFCB0 		.ascii	"i\255\374\260N\3213#\0163c\336 \231\031\361\034\006"
 577      4ED13323 
 577      0E3363DE 
 577      209919F1 
 577      1C06
 578 0720 9CDCBAD6 		.ascii	"\234\334\272\326=;\212H\240\202[\005\020\320\000\305"
 578      3D3B8A48 
 578      A0825B05 
 578      10D000C5 
 579 0730 ECCBD627 		.ascii	"\354\313\326'@\353\313R\371@o2\247\005\235\202jyw(\012"
 579      40EBCB52 
 579      F9406F32 
 579      A7059D82 
 579      6A797728 
 580 0745 40A1899E 		.ascii	"@\241\211\236\216\020=\367$\004`\214\233=%\341)\012"
 580      8E103DF7 
 580      2404608C 
 580      9B3D25E1 
 580      290A
 581 0757 8767485F 		.ascii	"\207gH_\360tpx:\354\340\231?@x\266\212\300]g\205g\276"
 581      F0747078 
 581      3AECE099 
 581      3F4078B6 
 581      8AC05D67 
 582 076e 059E6D46 		.ascii	"\005\236mFx\310\316o\007\317u\026x\266\231\340!\323"
 582      78C8CE6F 
 582      07CF7516 
 582      78B699E0 
 582      21D3
 583 0780 6A15AACC 		.ascii	"j\025\252\314\360lU\264\020a\257\204g\253\204\307/\346"
 583      F06C55B4 
 583      1061AF84 
 583      67AB84C7 
 583      2FE6
 584 0792 A6C20203 		.ascii	"\246\302\002\003<CM\360\220]\225\021\036\032h\201\021"
 584      3C434DF0 
 584      905D9511 
 584      1E1A6881 
ARM GAS  /tmp/ccBs6P4c.s 			page 46


 584      11
 585 07a3 9E2A3B78 		.ascii	"\236*;x\244\316\002O\225\\\252{9<c\374pW\010\236x\204"
 585      A4CE024F 
 585      955CAA7B 
 585      393C63FC 
 585      7057089E 
 586 07b9 A77A8884 		.ascii	"\247z\210\204'A\207g\177\010\236l\025\224\336\340\311"
 586      27418767 
 586      7F089E6C 
 586      1594DEE0 
 586      C9
 587 07ca 51F9D2FD 		.ascii	"Q\371\322\375\017x"
 587      0F78
 588 07d0 72C2E1D9 		.ascii	"r\302\341\331\027\202\347~\204\307\353f\317Hx\212\303"
 588      1782E77E 
 588      84C7EB66 
 588      CF48788A 
 588      C3
 589 07e1 E149EC0B 		.ascii	"\341I\354\013\236C\034\236}v\360\324\014\020\236GD\340"
 589      9E431C9E 
 589      7D76F0D4 
 589      0C109E47 
 589      44E0
 590 07f3 165AE1A9 		.ascii	"\026Z\341\251\261\300\263\303\010\017\331\251v\360,"
 590      B1C0B3C3 
 590      080FD9A9 
 590      76F02C
 591 0802 B4C0B3C3 		.ascii	"\264\300\263\303\004\017\231\006T\2505\303\363\210\242"
 591      040F9906 
 591      54A835C3 
 591      F388A2
 592 0811 85087B25 		.ascii	"\205\010{%<\217HxT17\025\026\031\340I2\301Cv\265Fxh"
 592      3C8F4878 
 592      54313715 
 592      1619E049 
 592      32C14376 
 593 0829 A0454678 		.ascii	"\240EFxj\355\340\221:\013<\265r\251\036\340\360x\375"
 593      6AEDE091 
 593      3A0B3CB5 
 593      72A91EE0 
 593      F078FD
 594 083c F070089E 		.ascii	"\360p\010\236\004\204'\220(\341I&xV\235\330\376\330"
 594      04842790 
 594      28E14926 
 594      78569DD8 
 594      FED8
 595 084e 470E0D90 		.ascii	"G\016\015\220\321ElL\000\242\364\301K\364\345\360\325"
 595      D1456C4C 
 595      00A2F4C1 
 595      4BF4E5F0 
 595      D5
 596 085f 8BE71B1F 		.ascii	"\213\347\033\037\316'A\011\275\325\3471j\375Y\307,\017"
 596      CE274109 
 596      BDD5E731 
 596      6AFD59C7 
 596      2C0F
 597 0871 1DA9904E 		.ascii	"\035\251\220N\263\212\320Z\363\321+Z\227b?\367\022e"
ARM GAS  /tmp/ccBs6P4c.s 			page 47


 597      B38AD05A 
 597      F3D12B5A 
 597      97623FF7 
 597      1265
 598 0883 58D46762 		.ascii	"X\324gb4Q\201\\\233\261t\013\301\273Py\016\332r\213"
 598      3451815C 
 598      9BB1740B 
 598      C1BB5079 
 598      0EDA728B 
 599 0897 52B93ADA 		.ascii	"R\271:\332Ot\374\334\230\257A\272_D\262@\013sJ_ ~\314"
 599      4F74FCDC 
 599      98AF41BA 
 599      5F44B240 
 599      0B734A5F 
 600 08ae 41DC6F07 		.ascii	"A\334o\007\342\365\003\004q\217X\204:+\210\327[@|\336"
 600      E2F50304 
 600      718F5884 
 600      3A2B88D7 
 600      5B407CDE 
 601 08c2 0822D9D5 		.ascii	"\010\"\331\325\333\201Xg\001\361y\023\210d\332\250B"
 601      DB815867 
 601      01F17913 
 601      8864DAA8 
 601      42
 602 08d3 8319C43D 		.ascii	"\203\031\304=J(\014\215\022\304=\022\304z17\025\026"
 602      4A280C8D 
 602      12C43D12 
 602      C47A3137 
 602      1516
 603 08e5 1B404C35 		.ascii	"\033@L5\201Hv\015F\020i\240\305F\020\033\354@\224:\013"
 603      8148760D 
 603      461069A0 
 603      C546101B 
 603      EC40943A 
 604 08fa 880DB81C 		.ascii	"\210\015\270\034\311H\\c\212$.\215\016>m\335w\237\264"
 604      C9485C63 
 604      8A242E8D 
 604      0E3E6DDD 
 604      779FB4
 605 090d 1E7CC24F 		.ascii	"\036|\302Og\263\305S\352\371\360\247\224\376\205\241"
 605      67B3C553 
 605      EAF9F0A7 
 605      94FE85A1 
 606 091d 901AF4D7 		.ascii	"\220\032\364\327\232\257B\260]{79Na\035J\350'\232!\364"
 606      9AAF42B0 
 606      5D7B3739 
 606      4E611D4A 
 606      E8279A21 
 607 0932 6E32EC97 		.ascii	"n2\354\227]\336v\356\033|L\274\245\257\177\332\365\334"
 607      5DDE76EE 
 607      1B7C4CBC 
 607      A5AF7FDA 
 607      F5DC
 608 0944 A6CC304E 		.ascii	"\246\3140N:\217\034m\361\303!\305\310\011-i\350\266"
 608      3A8F1C6D 
 608      F1C321C5 
 608      C8092D69 
ARM GAS  /tmp/ccBs6P4c.s 			page 48


 608      E8B6
 609 0956 C757039E 		.ascii	"\307W\003\2364_\241\025\322\\\006\340<\021\310\023{"
 609      345FA115 
 609      D25C06E0 
 609      3C11C813 
 609      7B
 610 0967 777EA3A7 		.ascii	"w~\243\247\226\367\027\244\326c\212\346\245\004\035"
 610      96F717A4 
 610      D6638AE6 
 610      A5041D
 611 0976 E9A9B5FA 		.ascii	"\351\251\265\372i=\345|zr\225\030\223\313n\253\377U"
 611      693DE57C 
 611      7A729518 
 611      93CB6EAB 
 611      FF55
 612 0988 357F2525 		.ascii	"5\177%%\206\361\005\240L\270:\374\356\316\267u_c\355"
 612      86F105A0 
 612      4CB83AFC 
 612      EECEB775 
 612      5F63ED
 613 099b 0FBC4E66 		.ascii	"\017\274Nf<\360\322\372\207l\364\003\260\366W\211w\331"
 613      3CF0D2FA 
 613      876CF403 
 613      B0F65789 
 613      77D9
 614 09ad E3747012 		.ascii	"\343tp\022r\345\226thK\212xapB\011{a\220\006\\\237\301"
 614      72E59674 
 614      684B8A78 
 614      61704209 
 614      7B619006 
 615 09c4 0E96F696 		.ascii	"\016\226\366\226\262=;\012\351\335\242%eo\030`\312\036"
 615      B23D3B0A 
 615      E9DDA225 
 615      656F1860 
 615      CA1E
 616 09d6 15B83659 		.ascii	"\025\2706YS\366\006K\312\0363\246,\3315\333\245l\223"
 616      53F6064B 
 616      CA1E33A6 
 616      2CD935DB 
 616      A56C93
 617 09e9 25658F99 		.ascii	"%e\217\231R\226L\227\250\320bN\331\243\"e\017\212\324"
 617      52964C97 
 617      A8D0624E 
 617      D9A32265 
 617      0F8AD4
 618 09fc 5B2253F6 		.ascii	"[\"S\366\250L\331f17\025\226\032Rv\030;0\036\264\214"
 618      A84CD966 
 618      31371596 
 618      1A527618 
 618      3B301EB4 
 619 0a11 25B31663 		.ascii	"%\263\026c\306\3228K\215\031\333b\227\261Rg\311\330"
 619      C6D2384B 
 619      8D19DB62 
 619      97B15267 
 619      C9D8
 620 0a23 161572D3 		.ascii	"\026\025r\3231c\227d\310\214\035\316WP\254\310\023\037"
 620      31639764 
ARM GAS  /tmp/ccBs6P4c.s 			page 49


 620      C88C1DCE 
 620      5750ACC8 
 620      131F
 621 0a35 E9088ED3 		.ascii	"\351\010\216\323\375\207\230:\277^\014\302=\236\337"
 621      FD87983A 
 621      BF5E0CC2 
 621      3D9EDF
 622 0a44 077A8653 		.ascii	"\007z\206S\306\270\360S\306\241\320)\343m:e\234\356"
 622      C6B8F053 
 622      C6A1D029 
 622      E36D3A65 
 622      9CEE
 623 0a56 ED9491D9 		.ascii	"\355\224\221\331\007(;\037-$_\026Pn\034 (\307E\224n"
 623      07283B1F 
 623      2D245F16 
 623      506E1C20 
 623      28C74594 
 624 0a6b B28272A3 		.ascii	"\262\202r\243\005\224\023FP\310n\231\035(7Y@9a\002\205"
 624      05941346 
 624      50C86E99 
 624      1D283759 
 624      40396102 
 625 0a80 4C6F5661 		.ascii	"LoVa\271\031\224\343\212\026!\354\225\240\034\227\240"
 625      B91994E3 
 625      8A1621EC 
 625      95A01C97 
 625      A0
 626 0a91 2C137353 		.ascii	",\023sS\341\026\003(n\004E\337\332\311l\271\021\024"
 626      E1160328 
 626      6E0445DF 
 626      DAC96CB9 
 626      1114
 627 0aa3 1AE71623 		.ascii	"\032\347\026#(\313\355@\221:\013(\313\2657D<\241\361"
 627      28CBED40 
 627      913A0B28 
 627      CBB53744 
 627      3CA1F1
 628 0ab6 8CF17EE8 		.ascii	"\214\361~\350\2141\034\371\2719S\362\223\305\371\341"
 628      8C311CF9 
 628      B93953F2 
 628      93C5F9E1 
 629 0ac6 5F759FD8 		.ascii	"_u\237\330\025k\367U7Z\370\013\377\252\333\025\"\341"
 629      156BF755 
 629      375AF80B 
 629      FFAADB15 
 629      22E1
 630 0ad8 1F7C8064 		.ascii	"\037|\200d7\373N\011{\031\255\315\324\323\007\012\273"
 630      37FB4E09 
 630      7B19ADCD 
 630      D4D3070A 
 630      BB
 631 0ae9 390A5D76 		.ascii	"9\012]v(\334:@\024>\027q\270\315\212\302\255\026\024"
 631      28DC3A40 
 631      143E1771 
 631      B8CD8AC2 
 631      AD1614
 632 0afc 4E1A5120 		.ascii	"N\032Q \273\025v(\334fA\341\244\011\0052]\211\321\014"
ARM GAS  /tmp/ccBs6P4c.s 			page 50


 632      BB157628 
 632      DC6641E1 
 632      A4090532 
 632      5D89D10C 
 633 0b10 821986CF 		.ascii	"\202\031\206\317\025-H\274_\322\360\271\244a\205\230"
 633      152D48BC 
 633      5FD2F0B9 
 633      A4618598 
 634 0b20 9E0AABC0 		.ascii	"\236\012\253\300\200\303\010#\016d\030\004#\0174\330"
 634      80C30823 
 634      0E641804 
 634      230F34D8 
 635 0b30 2A300241 		.ascii	"*0\002A\303\206\023\241)-H\004\301\264d~\370,\304D\026"
 635      C38613A1 
 635      292D4804 
 635      C1B4647E 
 635      F82CC444 
 636 0b45 F03BF548 		.ascii	"\360;\365H(\262\365M\345\311\367\365M\245L\037:B_\221"
 636      28B2F54D 
 636      E5C9F7F5 
 636      4DA54C1F 
 636      3A425F91 
 637 0b59 5FD78BD0 		.ascii	"_\327\213\320\362\241~-\3071P\362\252\230G\2316\307"
 637      F2A17E2D 
 637      C73150F2 
 637      AA984799 
 637      36C7
 638 0b6b 9C3E40D8 		.ascii	"\234>@\330\303Ax\325\016\204V\030 \011\247\305\374\333"
 638      C34178D5 
 638      0E845618 
 638      2009A7C5 
 638      FCDB
 639 0b7d C08A422B 		.ascii	"\300\212B+XX\370\326\310\002Y\256\006;\030\332\300B"
 639      5858F8D6 
 639      C80259AE 
 639      063B18DA 
 639      C042
 640 0b8f C3B7261A 		.ascii	"\303\267&\032\310x-\306qM\030\015\247\225P0\326j4\234"
 640      C8782DC6 
 640      714D180D 
 640      A7955030 
 640      D66A349C 
 641 0ba3 9634AC06 		.ascii	"\2264\254\006\232\244\012\353\214<\2144\362@\246kL<"
 641      9AA40AEB 
 641      8C3C8C34 
 641      F240A66B 
 641      4C3C
 642 0bb5 D070EB4C 		.ascii	"\320p\353L<\254\261\345ASZxX\203\203\226e\003\277\251"
 642      3CACB1E5 
 642      41535A78 
 642      58838396 
 642      6503BFA9 
 643 0bc9 1CB9F0A3 		.ascii	"\034\271\360\243h7h\353~\312f7\010?\377\315\023\217"
 643      683768EB 
 643      7ECA6637 
 643      083FFFCD 
 643      138F
ARM GAS  /tmp/ccBs6P4c.s 			page 51


 644 0bdb 80FF843F 		.ascii	"\200\377\204?\002\304\371\217f1\232\255V\204\273\275"
 644      02C4F98F 
 644      66319AAD 
 644      5684BBBD 
 645 0beb FD73F71B 		.ascii	"\375s\367\0337[\351 w\027\330\270\313\345\247S\376\366"
 645      375BE920 
 645      7717D8B8 
 645      CBE5A753 
 645      FEF6
 646 0bfd 6EDFFA48 		.ascii	"n\337\372H\215\261'El\2625I\036\373 J\177\376R\237\""
 646      8DB12745 
 646      6CB23549 
 646      1EFB204A 
 646      7FFE529F 
 647 0c12 0F7A0F7F 		.ascii	"\017z\017\177\243\243\234z\246\007=\374\252\376/\375"
 647      A3A39C7A 
 647      A6073DFC 
 647      AAFE2FFD 
 648 0c22 4095267D 		.ascii	"@\225&}\267\266\353'H\204,\215\3332g\010\014\352\311"
 648      B7B6EB27 
 648      48842C8D 
 648      DB326708 
 648      0CEAC9
 649 0c35 C051AD5F 		.ascii	"\300Q\255_\270\206\351g\302\014\343\231P,\335x]\024"
 649      B886E967 
 649      C20CE399 
 649      502CDD78 
 649      5D14
 650 0c47 FA662557 		.ascii	"\372f%WNQ\241\270\020\027.;\367\017\333\374|\332\371"
 650      4E51A1B8 
 650      10172E3B 
 650      F70FDBFC 
 650      7CDAF9
 651 0c5a F49ABD75 		.ascii	"\364\232\275u]\353W\217Fjv\027\030\337Q\031\322r\227"
 651      5DEB578F 
 651      466A7617 
 651      18DF5119 
 651      D27297
 652 0c6d 08CB055A 		.ascii	"\010\313\005Z\310\012\214o\240\251\217H;\361\235\376"
 652      C80A8C6F 
 652      A0A98F48 
 652      3BF19DFE 
 653 0c7d 7E558594 		.ascii	"~U\205\2243\013\231\006\241tb\234\244\230\011\3107\257"
 653      330B9906 
 653      A174629C 
 653      A49809C8 
 653      37AF
 654 0c8f B15FF424 		.ascii	"\261_\364$\341=\345\037\330\226\316\357\251\220\317"
 654      E13DE51F 
 654      D896CEEF 
 654      A990CF
 655 0c9e 87F717CB 		.ascii	"\207\367\027\313\376\202\215wf\362\2161\3425uk\367\301"
 655      FE828D77 
 655      66F28E31 
 655      E235756B 
 655      F7C1
 656 0cb0 5DD6B7C7 		.ascii	"]\326\267\307\346\027\263\034\273\227O\376\242w\314"
ARM GAS  /tmp/ccBs6P4c.s 			page 52


 656      E617B31C 
 656      BB974FFE 
 656      A277CC
 657 0cbf A65F3D5E 		.ascii	"\246_=^\013=\362z\266\304\213\267\273[\035\275\274\335"
 657      0B3DF27A 
 657      B6C48BB7 
 657      BB5B1DBD 
 657      BCDD
 658 0cd1 2DEAE357 		.ascii	"-\352\343W\217\236G3\311\231e\247[?\320\235n\263\203"
 658      8F9E4733 
 658      C99965A7 
 658      5B3FD09D 
 658      6EB383
 659 0ce4 07B5DD66 		.ascii	"\007\265\335f\247[o\335\351\356t\030v:\262\334`\273"
 659      A75B6FDD 
 659      E9EE7418 
 659      763AB2DC 
 659      60BB
 660 0cf6 D3B55B77 		.ascii	"\323\265[w:\335V\000M\306\233\220\277\215a;\035\357"
 660      3ADD5600 
 660      4DC69B90 
 660      BF8D613B 
 660      1DEF
 661 0d08 A1C9F17E 		.ascii	"\241\311\361~\271\323mv\320N\267\001h\222*\334n\334"
 661      B9D36D76 
 661      D04EB701 
 661      68922ADC 
 661      6EDC
 662 0d1a E9BC46FC 		.ascii	"\351\274F\374\310t\243i\247\243\341n7\355t\033mw:Mi"
 662      C874A369 
 662      A7A3E16E 
 662      37ED741B 
 662      6D773A4D 
 663 0d2f D9E93682 		.ascii	"\331\3516\202i\345\374p\207C\177\362\215\001~\257Er"
 663      69E5FC70 
 663      87437FF2 
 663      8D017EAF 
 663      4572
 664 0d41 032CA6FF 		.ascii	"\003,\246\377Apx\373s\245\032\264\023\372\363\343B\330"
 664      417078FB 
 664      73A51AB4 
 664      13FAF3E3 
 664      42D8
 665 0d53 77AD0936 		.ascii	"w\255\0116\337\265J\230C\354\205\207m~S\010\207\262"
 665      DFB54A98 
 665      43EC8587 
 665      6D7E5308 
 665      87B2
 666 0d65 320017BA 		.ascii	"2\000\027\272\331c\222\257\213l\366B\037\213\020\336"
 666      D96392AF 
 666      8B6CF642 
 666      1F8B10DE 
 667 0d75 8EF4DBDB 		.ascii	"\216\364\333\333\356>\274\225\312i\357}1\364\035sR\377"
 667      EE3EBC95 
 667      CA69EF7D 
 667      31F41D73 
 667      52FF
ARM GAS  /tmp/ccBs6P4c.s 			page 53


 668 0d87 E62D36C5 		.ascii	"\346-6\305\301\232\321d\264c\354-\246{\231L\252\012"
 668      C19AD164 
 668      B463EC2D 
 668      A67B994C 
 668      AA0A
 669 0d99 BCA3686E 		.ascii	"\274\243hn:\334\353-\246\177-5\315-\305u\201\252\342"
 669      3ADCEB2D 
 669      A67F2D35 
 669      CD2DC575 
 669      81AAE2
 670 0dac EADAF9BC 		.ascii	"\352\332\371\274\354\255f\316E^\3379\011\2742\277\256"
 670      ECAD66CE 
 670      455EDF39 
 670      09BC32BF 
 670      AE
 671 0dbd B1DA5F37 		.ascii	"\261\332_7\177\241?P\347\365\215\213\023M\315-5\213"
 671      7FA13F50 
 671      E7F58D8B 
 671      134DCD2D 
 671      358B
 672 0dcf BDBE7313 		.ascii	"\275\276s\023EE\255k\254\322\005\347\341\375,r\3267"
 672      4545AD6B 
 672      ACD205E7 
 672      E1FD2C72 
 672      D637
 673 0de1 AB8B6344 		.ascii	"\253\213cDgu\355b\3578`\031\005\005\005\236\211\265"
 673      6775ED62 
 673      EF386019 
 673      0505059E 
 673      89B5
 674 0df3 81AAC015 		.ascii	"\201\252\300\025\345\3053+<\025\330\347)_\022h\251a"
 674      E5C5332B 
 674      3C15D8E7 
 674      295F1268 
 674      A961
 675 0e05 4EEC6289 		.ascii	"N\354b\211\242\277\261~q\240\256fA\231\207\377\261\324"
 675      A2BFB17E 
 675      71A0AE66 
 675      419987FF 
 675      B1D4
 676 0e17 CB1B977A 		.ascii	"\313\033\227z|\347zJK|\343=E\036_iY\251\257l\354y\244"
 676      7CE77A4A 
 676      4B7CE33D 
 676      451E5F69 
 676      59A9AF6C 
 677 0e2e 9D51E76F 		.ascii	"\235Q\347oY\330\330T/\265#\313+\246\217-\235\354+)\361"
 677      59D8D854 
 677      2FB523CB 
 677      2BA68F2D 
 677      9DEC2B29 
 678 0e43 CCF2D72D 		.ascii	"\314\362\327-\251\361L\0134\324x\246\327,\010,\251\367"
 678      A9F14C0B 
 678      34D478A6 
 678      D72C082C 
 678      A9F7
 679 0e55 5C5CD3D0 		.ascii	"\\\\\323\320\034hYF\206b\344\011\215\376&1\014K.\257"
 679      1C685946 
ARM GAS  /tmp/ccBs6P4c.s 			page 54


 679      8662E409 
 679      8DFE2631 
 679      0C4B2EAF 
 680 0e69 F008DB59 		.ascii	"\360\010\333Y\323\212.\0164W7.\255iZ\306\342\213\212"
 680      D38A2E0E 
 680      3457372E 
 680      AD695AC6 
 680      E28B8A
 681 0e7c 8A4839D1 		.ascii	"\212H9\321\337\\\343a\212\2279<yL\311g\316\226@}M\226"
 681      DF5CE361 
 681      8A97393C 
 681      794CC967 
 681      CE96407D 
 682 0e92 1EB9C6E6 		.ascii	"\036\271\306\346\342Z\177\035^\360\243\251E\\\275\265"
 682      E25A7F1D 
 682      5EF0A3A9 
 682      455CBDB5 
 683 0ea2 2C959BCF 		.ascii	",\225\233\317\254i^R\327R\346\231\374\333)\323*gN\362"
 683      AC695E52 
 683      D752E699 
 683      FCDB29D3 
 683      2A674EF2 
 684 0eb6 E4E5A08F 		.ascii	"\344\345\240\217k\230s\236'\2339\262\363Y\222QT^9q\342"
 684      6B98739E 
 684      279B39B2 
 684      F3599251 
 684      545E3971 
 685 0ecb A4F27216 		.ascii	"\244\362r\026?9\320\340\257\3634\311f\346\222\326\314"
 685      3F39D0E0 
 685      AFF334C9 
 685      66E692D6 
 685      CC
 686 0edc A529FE0B 		.ascii	"\245)\376\0132\204\333\375"
 686      3284DBFD 
 687              		.text
 688              		.section	.gnu.lto_.symbol_nodes.e388cacfe785dfa8,"",%progbits
 689 0000 789C4D8E 		.ascii	"x\234M\216\313J\034A\024\206\317_\227\0315\261\025\006"
 689      CB4A1C41 
 689      1486CF5F 
 689      971935B1 
 689      1506
 690 0012 7423E401 		.ascii	"t#\344\001\362@!\313<B\236\340\210\013\025D\0116((I"
 690      F24021CB 
 690      3C429EE0 
 690      880B1544 
 690      09362828 
 691 0027 A05D84C8 		.ascii	"\240]\204\310\204@\232 \270\262[p#\350\242\025\021M"
 691      84409A20 
 691      B8B25B70 
 691      23E8A215 
 691      114D
 692 0039 A2E37819 		.ascii	"\242\343x\031c\034t B\222\221TM\325h\365\346\373\277"
 692      631C7420 
 692      42929154 
 692      4DD568F5 
 692      E6FBBF
 693 004c 73E93A82 		.ascii	"s\351:\202\004}\024\344>q\002&z\263E\304\374v\362\225"
ARM GAS  /tmp/ccBs6P4c.s 			page 55


 693      047D14E4 
 693      3E710226 
 693      7AB345C4 
 693      FC76F295 
 694 0060 3E062996 		.ascii	">\006)\226\372\010\260\370\001a \352`\0043\337 m\365"
 694      FA08B0F8 
 694      016120EA 
 694      600433DF 
 694      206DF5
 695 0073 142C1EAB 		.ascii	"\024,\036\253\342\017X>(\304\031Xy}7\011}\010\245\231"
 695      E20F583E 
 695      28C41958 
 695      797D3709 
 695      7D08A599 
 696 0087 F47768BB 		.ascii	"\364wh\273z\016\326\217Mq\001.\005\332\000\227\003\275"
 696      7A0ED68F 
 696      4D71012E 
 696      05DA0097 
 696      03BD
 697 0099 04F704FA 		.ascii	"\004\367\004\372\023\334\033\350\025\270/\320_\340'"
 697      13DC1BE8 
 697      15B82FD0 
 697      5FE027
 698 00a8 815E839F 		.ascii	"\201^\203\237\006\332\004\367\007G\335\242D\346\250"
 698      06DA04F7 
 698      0747DDA2 
 698      44E6A8
 699 00b7 0394CD6D 		.ascii	"\003\224\315mh\201#\327\034\035\005n\300\003\017\246"
 699      688123D7 
 699      1C1D056E 
 699      C0030FA6 
 700 00c7 885AEDE6 		.ascii	"\210Z\355\346s\245(n\354\301\2408\276\267H7\266GT\211"
 700      73A5286E 
 700      ECC1A038 
 700      BEB74837 
 700      B6475489 
 701 00db E24FBB55 		.ascii	"\342O\273Um9q\365L\225)5M\031\225)\3777\242\"\2127w"
 701      6D3971F5 
 701      4C952935 
 701      4D199529 
 701      FF37A222 
 702 00f2 DA520D50 		.ascii	"\332R\015Pj\1770H\205CjFee\220\222#3k\230{\326\272\336"
 702      6A7F3048 
 702      85436A46 
 702      65659092 
 702      23336B98 
 703 010a EDCF388E 		.ascii	"\355\3178\216\305\226\303\264\024;\317;,Q2W_}-+\021"
 703      C596C3B4 
 703      143BCF3B 
 703      2C513257 
 703      5F7D2D2B 
 704 011f E58B3ED4 		.ascii	"\345\213>\324jk\325\371\250\263\323ti\210\326}R\224"
 704      6A6BD5F9 
 704      A8B3D374 
 704      6988D67D 
 704      5294
 705 0131 DFBA64E6 		.ascii	"\337\272d\346\356\326\016\276\366\311\012Q~\357\222"
ARM GAS  /tmp/ccBs6P4c.s 			page 56


 705      EED60EBE 
 705      F6C90A51 
 705      7EEF92
 706 0140 D958CE7C 		.ascii	"\331X\316|J\226\263\375\033\330\027j\237\263\266\354"
 706      4A96B3FD 
 706      1BD8176A 
 706      9FB3B6EC 
 707 0150 34BFF890 		.ascii	"4\277\370\220\2544^vnX\331\237\226\252B\305x}U\033\246"
 707      AC345E76 
 707      6E58D99F 
 707      96AA42C5 
 707      787D551B 
 708 0165 538EF1AC 		.ascii	"S\216\361\254\347\2029\311\326\337;\026g\366m\333\270"
 708      E78239C9 
 708      D6DF3B16 
 708      67F66DDB 
 708      B8
 709 0176 F6A1F8DD 		.ascii	"\366\241\370\335\015\177}H\223\314\317|\360\241\225"
 709      0D7F7D48 
 709      93CCCF7C 
 709      F0A195
 710 0185 66D517F4 		.ascii	"f\325\027\364\037\035\332\353\340"
 710      1F1DDAEB 
 710      E0
 711              		.text
 712              		.section	.gnu.lto_.refs.e388cacfe785dfa8,"",%progbits
 713 0000 789C2D4B 		.ascii	"x\234-K\011\022\2040\014\202\304\256\266\352z\217O\367"
 713      09128430 
 713      0C82C4AE 
 713      B6EA7A8F 
 713      4FF7
 714 0012 BBE6304C 		.ascii	"\273\3460L d@ x\220\243\000!\242\332\321\230E~\346\311"
 714      20644020 
 714      7890A300 
 714      21A2DAD1 
 714      98457EE6 
 715 0027 1ED48185 		.ascii	"\036\324\201\205\225M\307\3246\245\"r~yC\347\357\376"
 715      954DC7D4 
 715      36A52272 
 715      7E7943E7 
 715      EFFE
 716 0039 5B6B0165 		.ascii	"[k\001e\365\276n\221\022\335S\357\203D\2005\025gl1\276"
 716      F5BE6E91 
 716      12DD53EF 
 716      83448035 
 716      15676C31 
 717 004e C2B7F0FE 		.ascii	"\302\267\360\376\255\206\027\0036\002\336"
 717      AD861703 
 717      3602DE
 718              		.text
 719              		.section	.gnu.lto_.decls.e388cacfe785dfa8,"",%progbits
 720 0000 789CA55B 		.ascii	"x\234\245[\011p\024\327\231\356\327=\222FH\2008lcg\023"
 720      097014D7 
 720      99EED73D 
 720      92464880 
 720      386C6367 
 721 0015 E48D133B 		.ascii	"\344\215\023;\33622x+\313Vjm@f\201*\344P\222\234P\225"
ARM GAS  /tmp/ccBs6P4c.s 			page 57


 721      DE323278 
 721      2BCB566A 
 721      6D406681 
 721      2AE45092 
 722 002c DD4CDAA3 		.ascii	"\335L\332\243\006MY\232QfZ\034\273\225\270\305e#0\010"
 722      064D599A 
 722      51665A1C 
 722      BB95B8C5 
 722      65233008 
 723 0040 71582618 		.ascii	"qX&\030\204\025\002\016\230C\0300\2275\330A\210#\334"
 723      8415020E 
 723      98431830 
 723      9735D841 
 723      8823DC
 724 0053 06733972 		.ascii	"\006s9rl\307k\0340\2629cc\355\377^\277\236\351~\363"
 724      6CC76B1C 
 724      30B23963 
 724      63EDFF5E 
 724      BF9EE97E 
 725 0068 DE4C37EE 		.ascii	"\336L7\356\322\337\323\335\363\336\367\177\377\361\316"
 725      D2DFD3DD 
 725      F3DEF77F 
 725      FFF1CE
 726 0077 1EC9922C 		.ascii	"\036\311\222,]\315\221\244n8*\177\"I\237dKRoI\222\036"
 726      5DCD91A4 
 726      6E382A7F 
 726      22499F64 
 726      4B526F49 
 727 008d 07B90F64 		.ascii	"\007\271\017d%\310\253 \253A\326\202\254\007\331\000"
 727      25C8AB20 
 727      AB41D682 
 727      AC07D900 
 728 009d B209A415 		.ascii	"\262\011\244\025\344\015\220- \012\3106\2207Av\200\354"
 728      E40D902D 
 728      200AC836 
 728      90374176 
 728      80EC
 729 00af 04D90DF2 		.ascii	"\004\331\015\362\026H\034d\017\310; \177\002i\007\331"
 729      16481C64 
 729      0FC83B20 
 729      7F026907 
 729      D9
 730 00c0 07B21FE4 		.ascii	"\007\262\037\344\020\010\250'G\001\310\021\220\343 "
 730      1008A827 
 730      4701C811 
 730      90E320
 731 00cf 17412E81 		.ascii	"\027A.\201t\201\334\004AH\222\362@\276\013\362 \310"
 731      7481DC04 
 731      414892F2 
 731      40BE0BF2 
 731      20C8
 732 00e1 20902120 		.ascii	" \220! \377\016\362\037 1\220\311 ~(;\025>\377\027\344"
 732      FF0EF21F 
 732      203190C9 
 732      207E283B 
 732      153EFF17 
 733 00f6 37207520 		.ascii	"7 u \323Af\202<\0172\027I\216\003\353\353\005\362\237"
ARM GAS  /tmp/ccBs6P4c.s 			page 58


 733      D3416682 
 733      3C0F3217 
 733      498E03EB 
 733      EB05F29F 
 734 010a C8FCCC07 		.ascii	"\310\374\314\007\361\301u\011H\005H\013\334\317\203"
 734      F1C17509 
 734      4805480B 
 734      DCCF83
 735 0119 CFF920A3 		.ascii	"\317\371 \243@\032@\236\002\321@\026\200\310\360\375"
 735      401A409E 
 735      02D14016 
 735      80C8F0FD 
 736 0129 58F80C82 		.ascii	"X\370\014\202 \212\207}\201u[<\354\007\266\255\007\310"
 736      208A877D 
 736      81755B3C 
 736      EC07B6AD 
 736      07C8
 737 013b 41AA0763 		.ascii	"A\252\007c`|\354\207Fd\372\344\024\310\273 \007(\326"
 737      607CEC87 
 737      4664FAE4 
 737      14C8BB20 
 737      0728D6
 738 014e 5F403E04 		.ascii	"_@>\004\371@2\365a\214\205P\326\007\237\237HN[\355\007"
 738      F94032F5 
 738      618C8550 
 738      D6079F9F 
 738      484E5BED 
 739 0163 F6615FC6 		.ascii	"\366a_\306\266,)i[\031\307.\034cl\333\022\344\214}9"
 739      B62C2969 
 739      5B19C72E 
 739      1C636CDB 
 739      12E48C7D 
 740 0178 32B958B6 		.ascii	"2\271X\266\226R{\261\016D}n?.Q\277\0262~\375-2\371X"
 740      96527BB1 
 740      0E447D6E 
 740      3F2E51BF 
 740      16327EFD 
 741 0190 1C44FA59 		.ascii	"\034D\372Y\277^\242\276x\011n\036@\251\372p\236\370"
 741      BF5EA2BE 
 741      78096E1E 
 741      40A9FA70 
 741      9EF8
 742 01a2 A4A41FCF 		.ascii	"\244\244\037\317\303g\023-\203l\337_\223\2349a?p\236"
 742      C367132D 
 742      836CDF5F 
 742      939C3961 
 742      3F709E
 743 01b5 65538CF3 		.ascii	"eS\214\363R\2227\306\263\260dZ\256\213\372\3626Hw\032"
 743      529237C6 
 743      B3B0645A 
 743      AE8BFAF2 
 743      3648771A 
 744 01c9 4C92B7D4 		.ascii	"L\222\267\324v\013\017\343[yu\336\206\277\200\332*Q"
 744      760B0FE3 
 744      5B7975DE 
 744      86BF80DA 
 744      2A51
ARM GAS  /tmp/ccBs6P4c.s 			page 59


 745 01db 5B71DD2E 		.ascii	"[q\335.\032k\334Fr\3403\227\223\327l\216\341v\202\365"
 745      1A6BDC46 
 745      72E03397 
 745      93D76C8E 
 745      E17682F5 
 746 01ef E03ABD68 		.ascii	"\340:\275h\334\260\316\227\341z)\310A\033\027\273~\014"
 746      DCB0CE97 
 746      E17A29C8 
 746      411B17BB 
 746      7E0C
 747 0201 B309EBA0 		.ascii	"\263\011\353\240\030\207@\216\202\234\0009\005r\006"
 747      1887408E 
 747      829C0039 
 747      057206
 748 0210 E42394B4 		.ascii	"\344#\224\264\037\373\352\036\270\277\027\344;H\354"
 748      1FFBEA1E 
 748      B8BF17E4 
 748      3B48EC
 749 021f 03DC66FB 		.ascii	"\003\334f\373H\316<\304y\340\243va_X\371\200}r\021\344"
 749      48CE3CC4 
 749      79E0A376 
 749      615F58F9 
 749      807D7211 
 750 0234 B2C46F73 		.ascii	"\262\304os\366\274\220)\266\225\0338/>\343\344\306\203"
 750      F6BC9029 
 750      B6951B38 
 750      2F3EE3E4 
 750      C683
 751 0246 28B58DDB 		.ascii	"(\265\215\333u\362\364\\\240\276ARj.>Hu\377\013G\027"
 751      75F2F45C 
 751      A0BE4152 
 751      6A2E3E48 
 751      75FF0B47 
 752 025b EE97FA33 		.ascii	"\356\227\3723\272Jh[\263\372\223\363\002\333.P}n\332"
 752      BA4A685B 
 752      B3FA93F3 
 752      02DB2E50 
 752      7D6EDA
 753 026e 9E4C7559 		.ascii	"\236LuY\\\036\345p\031Bci\317=\334\036q\037\375w\232"
 753      5C1EE570 
 753      19426369 
 753      CF3DDC1E 
 753      711FFD77 
 754 0283 6F988F8F 		.ascii	"o\230\217\217\226\367\323:\227q\336\201\\\005\271\001"
 754      96F7D33A 
 754      9771DE81 
 754      5C05B901 
 755 0293 F20DB61B 		.ascii	"\362\015\266\033\224\370d\223\007\316\267\037\323<\264"
 755      94F86493 
 755      07CEB71F 
 755      D33CB4
 756 02a2 1FB82FCE 		.ascii	"\037\270/\316f\364\261:\020-g\341\374\204\203\203\373"
 756      66F4B13A 
 756      102D67E1 
 756      FC848383 
 756      FB
 757 02b3 F3E192D9 		.ascii	"\363\341\222\331\276\354m\306G}\207};\033\231}$\316"
ARM GAS  /tmp/ccBs6P4c.s 			page 60


 757      BEEC6DC6 
 757      477D877D 
 757      3B1B997D 
 757      24CE
 758 02c5 9F2790B3 		.ascii	"\237'\220\263\277\306\276\315\221\223c\324C(9\346Xc"
 758      BFC6BECD 
 758      919363D4 
 758      432839E6 
 758      5863
 759 02d7 901FBECF 		.ascii	"\220\037\276\317\225\3051\210K\346\230e\215a\326\230"
 759      95C53188 
 759      4BE69865 
 759      8D61D698 
 760 02e7 86FB6DDC 		.ascii	"\206\373m\334/\3436\223\007\365\363Az\201|\017%\307"
 760      2FE33693 
 760      07F5F341 
 760      7A817C0F 
 760      25C7
 761 02f9 3F2B762F 		.ascii	"?+v/\300\263\336\360]=|\026\310f\277n\265\307>p\257"
 761      C0B3DEF0 
 761      5D3D7C16 
 761      C866BF6E 
 761      B5C73E70 
 762 030e C3755FF8 		.ascii	"\303u_\370<\001\367\375d\263\015Z\343\2515\316\332\343"
 762      3C01F7FD 
 762      64B30D5A 
 762      E3A935CE 
 762      DAE3
 763 0320 7E4E32C7 		.ascii	"~N2\307\016\354\037+\366x\314\303}0n\007\375es\034\304"
 763      0EEC1F2B 
 763      F678CCC3 
 763      7D306E07 
 763      FD65731C 
 764 0335 E3C311EA 		.ascii	"\343\303\021\352\233\032\232\027\270]>O\333\350\\N\033"
 764      9B1A9A17 
 764      B85D3E4F 
 764      DBE85C4E 
 764      1B
 765 0346 CD93EA0D 		.ascii	"\315\223\352\015c\232\321<\313\030\335\321\253\217\324"
 765      639AD13C 
 765      CB18DDD1 
 765      AB8FD4
 766 0355 60C051D8 		.ascii	"`\300Q\330\324+Wz\001?\356\\e\014\030 I\343\221\212"
 766      D42B577A 
 766      013FEE5C 
 766      650C1820 
 766      49E3918A 
 767 0369 E0919F5C 		.ascii	"\340\221\237\\\344\347\022G\375@\372=\024\205\362\262"
 767      E4E71247 
 767      FD40FA3D 
 767      1485F2B2 
 768 0379 8A5A502E 		.ascii	"\212ZP.$\243\314@[\207\371=>pu\363\332\272\352F\011"
 768      24A3CC40 
 768      5B87F93D 
 768      3E7075F3 
 768      DABAEA46 
 769 038e F40116BA 		.ascii	"\364\001\026\272Bk\275\212\372\220+\302\305\240\024"
ARM GAS  /tmp/ccBs6P4c.s 			page 61


 769      426BBD8A 
 769      FA902BC2 
 769      C5A014
 770 039d 49095AA3 		.ascii	"I\011Z\243\320\252\341\2435\376`\323\223\237\233\274"
 770      D0AAE1A3 
 770      35FE60D3 
 770      939F9BBC 
 771 03ad 90291351 		.ascii	"\220)\023Q\275\225(\317\"K\0157\225\361k\020\313\033"
 771      BD9528CF 
 771      224B0D37 
 771      95F16B10 
 771      CB1B
 772 03bf 3AE77F76 		.ascii	":\347\177vK6\014\277\212V\023\353!\250\017K\257\231"
 772      4B360CBF 
 772      8A5613EB 
 772      21A80F4B 
 772      AF99
 773 03d1 2EF9EBE3 		.ascii	".\371\353\343<W\250(+7\345^E\177D\017SjY\271\311\013"
 773      3C57A828 
 773      2B37E55E 
 773      457F440F 
 773      536A59B9 
 774 03e7 3C2FEB9D 		.ascii	"</\353\235\240\203\343\320\324+M \032:\027\325?b\370"
 774      A083E3D0 
 774      D42B4D20 
 774      1A3A17D5 
 774      3F62F8
 775 03fa 54B49690 		.ascii	"T\264\226\220\371\000\206\020\013\331T\205\030\325\310"
 775      F9008610 
 775      0BD95485 
 775      18D5C8
 776 0409 A93A1114 		.ascii	"\251:\021\024\032\023^Z4\017k\352eF\215\322\030f\321"
 776      1A135E5A 
 776      340F6BEA 
 776      65468DD2 
 776      1866D1
 777 041c F053D00D 		.ascii	"\360S\320\015\236#\266Q\0201kj(\252\267>\0311\036\325"
 777      9E23B651 
 777      10316B6A 
 777      28AAB73E 
 777      19311ED5 
 778 0430 CE2C86AA 		.ascii	"\316,\206\252\303c\030\240\3253\325\315\002\252R\006"
 778      C36318A0 
 778      D533D5CD 
 778      02AA5206 
 779 0440 AA9BD253 		.ascii	"\252\233\322S-d\2306#\013\240?\005\330\342\231\352V"
 779      2D649836 
 779      230BA03F 
 779      05D8E299 
 779      EA56
 780 0452 01D57E19 		.ascii	"\001\325~\031\250\276\221\236jJ\002\0248\033\230\212"
 780      A8BE919E 
 780      6A4A0214 
 780      381B988A 
 781 0462 DEF44C75 		.ascii	"\336\364Lu\273\200*\312@u\2337\257\256Ix\365.\012\260"
 781      BB802ACA 
 781      40759B37 
ARM GAS  /tmp/ccBs6P4c.s 			page 62


 781      AFAE4978 
 781      F52E0AB0 
 782 0476 D333D55D 		.ascii	"\3233\325]\002\252\3753P\335\3411\001d\013\340\001\012"
 782      02AAFD33 
 782      50DDE131 
 782      01640BE0 
 782      010A
 783 0488 F09667AA 		.ascii	"\360\226g\252m\002\252\337\317@u\2677\252o&\274z\017"
 783      6D02AADF 
 783      CF4075B7 
 783      37AA6F26 
 783      BC7A0F
 784 049b 05D8E399 		.ascii	"\005\330\343\231\352\333\002\252wg\240\032\367\230\253"
 784      EADB02AA 
 784      7767A01A 
 784      F798AB
 785 04aa 29007FF2 		.ascii	")\000\177\362Lu\257\200\252\222\201\352;\336\274z4\341"
 785      4C75AF80 
 785      AA9281EA 
 785      3BDEBC7A 
 785      34E1
 786 04bc D5FB28C0 		.ascii	"\325\373(\300>\317T;\004T\357\315@\265\235C5\016\312"
 786      3ECF543B 
 786      0454EFCD 
 786      40B59D43 
 786      350ECA
 787 04cf EE961653 		.ascii	"\356\226\026S\315\006\322U\364\370]B\204\003\350nz\365"
 787      CD06D255 
 787      F4F85D42 
 787      8403E86E 
 787      7AF5
 788 04e1 B4924E97 		.ascii	"\264\222N\227\303\023f5\021\344A e\033\315l\227~\351"
 788      C3136635 
 788      11E44120 
 788      651BCD6C 
 788      977EE9
 789 04f4 79323CCE 		.ascii	"y2<\3164\352\320\2573\317S\016!?tU\237\"\341D\005\027"
 789      34EAD0AF 
 789      33CF530E 
 789      213F7455 
 789      9F22E144 
 790 050a B0289BD7 		.ascii	"\260(\233\327\326\025T\031(-7\342W:\333\346\357;\206"
 790      D6155419 
 790      282D37E2 
 790      573ADBE6 
 790      EF3B86
 791 051d 164C373A 		.ascii	"\026L7:\214+x\2106\251\313\322\\\3319\344J\322\017\245"
 791      8C2B7888 
 791      36A9CBD2 
 791      5CD939E4 
 791      4AD20FA5 
 792 0531 55D867C6 		.ascii	"U\330g\306\032C!\036\303\012\216\240\201N\215G\221l"
 792      1A43211E 
 792      C30A8EA0 
 792      814E8D47 
 792      916C
 793 0543 7F60EA88 		.ascii	"\177`\352\210\357h\317o\250\353\354\356\036\350\336"
ARM GAS  /tmp/ccBs6P4c.s 			page 63


 793      EF68CF6F 
 793      A8EBECEE 
 793      1EE8DE
 794 0552 EF27A8DF 		.ascii	"\357'\250\337\025\2633v\270\267\257\264\200\240\000"
 794      15B33376 
 794      B8B7AFB4 
 794      80A000
 795 0561 886D5263 		.ascii	"\210mRc$\362\254@JL#\276l\334;\030f5\264F\241\260\270"
 795      24F2AC40 
 795      4A4C23BE 
 795      6CDC3B18 
 795      6635B446 
 796 0578 8A4EA31F 		.ascii	"\212N\243\037H\031\213\341\202gP_\352\0313\026\361\257"
 796      48198BE1 
 796      8267505F 
 796      EA193316 
 796      F1AF
 797 058a B442F3A9 		.ascii	"\264B\363\251\304x\314v\334/\001\333i\361\333\267;\220"
 797      C478CC76 
 797      DC2F01DB 
 797      69F1DBB7 
 797      3B90
 798 059c D198EFB0 		.ascii	"\321\230\357\260&1'\212\013\347D*\372=\260s9\361Lq\345"
 798      2631278A 
 798      0BE7442A 
 798      FA3DB073 
 798      39F14C71 
 799 05b1 F9642390 		.ascii	"\371d#\220\245\255$\256\230-\257\270c\016@\0138-\350"
 799      A5AD24AE 
 799      982DAFB8 
 799      630E400B 
 799      382DE8
 800 05c4 FE945860 		.ascii	"\376\224X`f\261,\355\364\014W\350\200k\200\314P-\260"
 800      66B12CED 
 800      F40C57E8 
 800      806B80CC 
 800      502DB0
 801 05d7 3D6EC0FC 		.ascii	"=n\300\374bn\215v\260\003\236\301\012\231\230\231\301"
 801      626E8D76 
 801      B0039EC1 
 801      0A999899 
 801      C1
 802 05e8 54D159E2 		.ascii	"T\321Y\342\373s\350~8\377\205\234? \347\017\341\234"
 802      FB73E87E 
 802      38FF859C 
 802      3F20E70F 
 802      E19C
 803 05fa 3864E9B8 		.ascii	"8d\351\270\314NR\315\234\260\341%SG\312\214(\012\347"
 803      CC4E52CD 
 803      9CB0E125 
 803      5347CA8C 
 803      280AE7
 804 060d BBC97026 		.ascii	"\273\311p&;%\302\340\002\303\340\001\251\3050\032;\333"
 804      3B25C2E0 
 804      02C3E001 
 804      A9C5301A 
 804      3BDB
ARM GAS  /tmp/ccBs6P4c.s 			page 64


 805 061f 8E1CDE83 		.ascii	"\216\034\336\203\026O7F\233ue\351\")w\034\332.OGB\003"
 805      164F3746 
 805      9B7565E9 
 805      2229771C 
 805      DA2E4F47 
 806 0635 6DF03B8D 		.ascii	"m\360;\215q\003\022\015\3768\333\340\377\306m\360W\255"
 806      7103120D 
 806      FE38DBE0 
 806      FFC66DF0 
 806      57AD
 807 0647 066F7527 		.ascii	"\006ou'\227]u'\027Y\364\317\270\350g\352\017\326A\022"
 807      975D7527 
 807      1759F4CF 
 807      B8E867EA 
 807      0FD64112 
 808 065b 1A5F7777 		.ascii	"\032_ww+\222\373.\345rJW.K\267\370\274\032\234\274."
 808      2B92FB2E 
 808      E5724A57 
 808      2E4BB7F8 
 808      BC1A9CBC 
 809 0670 B1BC3E4F 		.ascii	"\261\274>O\345\325y%\276l\237i\365\212a\014)\334\343"
 809      E5D57925 
 809      BE6C9F69 
 809      F58A610C 
 809      29DCE3
 810 0683 8A587DE1 		.ascii	"\212X}\341\354\350\314\346\312\004v\256\302\013\254"
 810      ECE8CCE6 
 810      CA0476AE 
 810      C20BAC
 811 0692 F155C568 		.ascii	"\361U\305h\263\270,\275DJt\011Cz\336\026\322i\306\245"
 811      B3B82CBD 
 811      444A7409 
 811      437ADE16 
 811      D269C6A5 
 812 06a6 99330B12 		.ascii	"\2313\013\022C\202\243\032\263\260 __\345\032\273\353"
 812      4382A31A 
 812      B3B0205F 
 812      5FE51ABB 
 812      EB
 813 06b7 4E8CBDC5 		.ascii	"N\214\275\305\032\213\013;,\227R\262\372w|\343\273\376"
 813      1A8B0B3B 
 813      2C9752B2 
 813      FA777CE3 
 813      BBFE
 814 06c9 6B803502 		.ascii	"k\2005\002\256!%n\012\254\240v\322jm\332h\313\305\327"
 814      AE21256E 
 814      0AACA076 
 814      D26A6DDA 
 814      68CBC5D7 
 815 06dd C12E4735 		.ascii	"\301.G5/>\023i\243\206~\235\352\263\346\316\370\331"
 815      2F3E1369 
 815      A3867E9D 
 815      EAB3E6CE 
 815      F8D9
 816 06ef 7DFC7130 		.ascii	"}\374q0\235\313\246\311\342\2010\375\214p\206\234\350"
 816      9DCBA6C9 
 816      E28130FD 
ARM GAS  /tmp/ccBs6P4c.s 			page 65


 816      8C70869C 
 816      E8
 817 0700 2832B8B8 		.ascii	"(2\270\270\225\357\342\305\330W\030E\226:H\211:Y\344"
 817      95EFE2C5 
 817      D8571845 
 817      963A4889 
 817      3A59E4
 818 0713 2BA2CB8A 		.ascii	"+\242\313\212\014\353bq\265\264.\266U\343\271x\226\314"
 818      0CEB6271 
 818      B5B42EB6 
 818      55E3B978 
 818      96CC
 819 0725 73F1D203 		.ascii	"s\361\322\003\336]<\327\351b: \033\263\214\207\326$"
 819      DE5D3CD7 
 819      E9623A20 
 819      1BB38C87 
 819      D624
 820 0737 0764C7E2 		.ascii	"\007d\307\342\220\316.N\274\277\365a\262g2O\306\317"
 820      90CE2E4E 
 820      BCBFF561 
 820      B267324F 
 820      C6CF
 821 0749 AF336E74 		.ascii	"\2573nt\017\264\270~\333P\002\264\200\000\031>v(Q\230"
 821      0FB4B87E 
 821      DB5002B4 
 821      8000193E 
 821      76285198 
 822 075d FD0EC5B9 		.ascii	"\375\016\305\271\337\241\344&/p\247\350\255p\";\260"
 822      DFA1E426 
 822      2F70A7E8 
 822      AD70223B 
 822      B0
 823 076e 1999B365 		.ascii	"\031\231\263e\266O0\314\2647\242\231\323\215\207,w\274"
 823      B64F30CC 
 823      B437A299 
 823      D38D872C 
 823      77BC
 824 0780 4ACACD49 		.ascii	"J\312\315IF\321a9\325fV\216/\253\317\037g\325[\343\241"
 824      46D16139 
 824      D566568E 
 824      2FABCF1F 
 824      67D55BE3 
 825 0795 DE8A03AF 		.ascii	"\336\212\003\257\337k4\313\316|\233\343.\337\342\277"
 825      DF6B34CB 
 825      CE7C9BE3 
 825      2EDFE2BF 
 826 07a5 ABDFB912 		.ascii	"\253\337\271\022\031\331\311\214\233\223>\343\226\244"
 826      19D9C98C 
 826      9B933EE3 
 826      96A4
 827 07b3 661C7484 		.ascii	"f\034t\204\357\035\020t\204i\206\242\345\334\214s\261"
 827      EF1D1074 
 827      846986A2 
 827      E5DC8C73 
 827      B1
 828 07c4 4BB7B8FE 		.ascii	"K\267\270\376d\027\202\224\202/\232\211"
 828      64178294 
ARM GAS  /tmp/ccBs6P4c.s 			page 66


 828      822F9A89 
 829 07d0 B3D6A5A4 		.ascii	"\263\326\245\244J\016\223*9\316\350\347\344&/\350\256"
 829      4A0E932A 
 829      39CEE8E7 
 829      E4262FE8 
 829      AE
 830 07e1 1C13DF2D 		.ascii	"\034\023\337-\202\370\316?\325\212\026\222i\204\251"
 830      82F8CE3F 
 830      D58A1692 
 830      6984A9
 831 07f0 7A0F29F7 		.ascii	"z\017)\367\212\320\331\315f6\321\201\376E\2034n:\242"
 831      8AD0D9CD 
 831      6636D181 
 831      FE458334 
 831      6E3AA2
 832 0803 E25A0E96 		.ascii	"\342Z\016\226-\\\337\266\036\364\356\3335r\346\001\365"
 832      2D5CDFB6 
 832      1EF4EEDB 
 832      3572E601 
 832      F5
 833 0814 1DAE89F6 		.ascii	"\035\256\211\366\001\3650)\261\332U&\261\306\255f\215"
 833      01F53029 
 833      B1DA5526 
 833      B1C6AD66 
 833      8D
 834 0825 FB23D7B8 		.ascii	"\373#\327\270\363\007\023\223$\314Y\226N\360YuW$\372"
 834      F3071393 
 834      24CC5996 
 834      4EF05975 
 834      5724FA
 835 0838 D37532CE 		.ascii	"\323u2\316\357\365w\304j=\313j\003\267\003]r\330\363"
 835      EFF577C4 
 835      6A3DCB6A 
 835      03B7035D 
 835      72D8F3
 836 084b 5A6D33EB 		.ascii	"Zm3\353\361\026\262\035\353\360x'\337\266\033x\0247"
 836      F116B21D 
 836      EBF07827 
 836      DFB61B78 
 836      1437
 837 085d F7DBAF90 		.ascii	"\367\333\257\220\022\255\202&\230X\374pmkem\333\302"
 837      12AD8226 
 837      9858FC70 
 837      6D6B656D 
 837      DBC2
 838 086f B5EDE4E1 		.ascii	"\265\355\344\341\204\3077\023\217_\027\344\201\305J"
 838      84C73713 
 838      8F5F17E4 
 838      81C54A
 839 087e 45DB88C7 		.ascii	"E\333\210\307\267\337\021\253\355,\253\035\\V/\0359"
 839      B7DF11AB 
 839      ED2CAB1D 
 839      5C562F1D 
 839      39
 840 088f C89FCD3A 		.ascii	"\310\237\315:\366G\322v\013\233.v\014\330m\030\005*"
 840      F647D276 
 840      0B9B2E76 
ARM GAS  /tmp/ccBs6P4c.s 			page 67


 840      0CD86D18 
 840      052A
 841 08a1 6A339B66 		.ascii	"j3\233f\026g$r\205\264\370\300\221c\264\203y\233@\355"
 841      16672472 
 841      85B4F8C0 
 841      9163B483 
 841      799B40ED 
 842 08b5 CB623B98 		.ascii	"\313b;\230l\246\203\311vv0p\213u\335\304\235\013z\216"
 842      6CA683C9 
 842      76763070 
 842      8B75DDC4 
 842      9D0B7A8E 
 843 08c9 3EC13739 		.ascii	">\30179\322\035\327\023e\336[i&G\326.Av\006\213\333"
 843      D21DD713 
 843      65DE5B69 
 843      2647D62E 
 843      4176068B 
 844 08de 2EBF77DF 		.ascii	".\277w\337tb\360>\271/\316\011\306\340\2148d\233Hf6"
 844      7462F03E 
 844      B92FCE09 
 844      C6E08C38 
 844      649B4866 
 845 08f3 05DADAF3 		.ascii	"\005\332\332\363\361\373\013\374<\363\266\300\211\366"
 845      F1FB0BFC 
 845      3CF3B6C0 
 845      89F6
 846 0901 75308ABD 		.ascii	"u0\212\275\215<\357r\310\322\234l\224y\333BEGH\032\037"
 846      8D3CEF72 
 846      C8D29C6C 
 846      9479DB42 
 846      4547481A 
 847 0916 6559BE32 		.ascii	"eY\2762\213\260<\352\212\345\212\366\375)\233\027L'"
 847      8BB03CEA 
 847      8AE58AF6 
 847      FD299B17 
 847      4C27
 848 0928 B13ACD74 		.ascii	"\261:\315t\364$\333K<\221\307\215\233\253\375\220ud"
 848      F424DB4B 
 848      3C91C78D 
 848      9BABFD90 
 848      7564
 849 093a 4D9EE1AD 		.ascii	"M\236\341\255\217\210\311\351\344\304\330\316g\265\331"
 849      8F88C9E9 
 849      E4C4D8CE 
 849      67B5D9
 850 0949 941D1D97 		.ascii	"\224\035\035\227p{J\266\355\251\264d#\352\334;\332S"
 850      707B4AB6 
 850      EDA9B464 
 850      23EADC3B 
 850      DA53
 851 095b 315A0D23 		.ascii	"1Z\015#7\373N\335z\301\245[\315wi\"\224\316o\357\222"
 851      37FB4EDD 
 851      7AC1A55B 
 851      CD776922 
 851      94CE6FEF 
 852 0970 F37697BC 		.ascii	"\363v\227\274\346\331%\205\336\\\202\3739\021\223\217"
 852      E6D92585 
ARM GAS  /tmp/ccBs6P4c.s 			page 68


 852      DE5C82FB 
 852      3911938F 
 853 0980 C52E31BD 		.ascii	"\305.1\275\340\326\244\217\354&\255wc\222xw\352\333"
 853      E0D6A48F 
 853      EC26AD77 
 853      63927877 
 853      EADB
 854 0992 99F419C7 		.ascii	"\231\364\031\307$W&\\\264\233\320\352\331\204B\311y"
 854      2457265C 
 854      B49BD0EA 
 854      D98442C9 
 854      79
 855 09a3 2477AF8E 		.ascii	"$w\257\216\313x\307\352\0349\177H\316\237\312.v\257"
 855      CB78C7EA 
 855      1C397F48 
 855      CE9FCA2E 
 855      76AF
 856 09b5 FE6CE7B3 		.ascii	"\376l\347\263\225\3609\340\275\341\360\016{'\254\242"
 856      95F039E0 
 856      BDE1F00E 
 856      7B27ACA2 
 857 09c5 8332EE20 		.ascii	"\2032\356 \016\271\241\324.\2136\324vd\013V:\037\267"
 857      0EB9A1D4 
 857      2E8B36D4 
 857      76640B56 
 857      3A1FB7
 858 09d8 D00DB576 		.ascii	"\320\015\265v\262:\336G\312\355\026N\313\250\006:I\330"
 858      B23ADE47 
 858      CAED164E 
 858      CBA8063A 
 858      49D8
 859 09ea 306B6681 		.ascii	"0kf\201\317\014\267\224\246\032%\3649g\356\330\320\271"
 859      CF0CB794 
 859      A61A25F4 
 859      3967EED8 
 859      D0B9
 860 09fc FB7AC798 		.ascii	"\373z\307\230\246Vc\306l\343\233\356\347\220\373\251"
 860      A65663C6 
 860      6CE39BEE 
 860      E790FBA9 
 861 0a0c DA55368F 		.ascii	"\332U6\217\360b\212\261\372\013\306j\213\311u.\223\257"
 861      F0628AB1 
 861      FA0BC66A 
 861      8BC9752E 
 861      93AF
 862 0a1e 6EDCFCCE 		.ascii	"n\334\374\316\222\351\315\314\353\203\3259|\214\233"
 862      92E9CDCC 
 862      EB83D539 
 862      7C8C9B
 863 0a2d 4E8C7F96 		.ascii	"N\214\177\226V\032\306qp\350\356\307_6\3423\014<\011"
 863      561AC671 
 863      70E8EEC7 
 863      5F36E233 
 863      0C3C09
 864 0a40 42C872EB 		.ascii	"B\310r\353\256\004\210\310\234\177$\341L\250\370\265"
 864      AE0488C8 
 864      9C7F24E1 
ARM GAS  /tmp/ccBs6P4c.s 			page 69


 864      4CA8F8B5 
 865 0a50 5B787FDA 		.ascii	"[x\177\332 l\254\315\213\275\031q\276v\342\304\217\306"
 865      206CACCD 
 865      8BBD1971 
 865      BE76E2C4 
 865      8FC6
 866 0a62 BFBCE6B7 		.ascii	"\277\274\346\267`\004\357\265R\337\014|#{}\257\325-"
 866      6004EFB5 
 866      52DF0C7C 
 866      237B7DAF 
 866      D52D
 867 0a74 F3DF6BF5 		.ascii	"\363\337k\365N\004\343\010\313=U\255\241\260Nx\377\277"
 867      4E04E308 
 867      CB3D55AD 
 867      A1B04E78 
 867      FFBF
 868 0a86 9B6070EF 		.ascii	"\233`p\357\356~\302\332!\373+\213\222\362\003\202iN"
 868      EE7EC2DA 
 868      21FB2B8B 
 868      92F20382 
 868      694E
 869 0a98 90E6E3F1 		.ascii	"\220\346\343\361\235g\3626\202\025\335\335\317Y(_dD"
 869      9D67F236 
 869      8215DDDD 
 869      CF59285F 
 869      6444
 870 0aaa 999142A5 		.ascii	"\231\221B\245k\323~[<\314\265\325t\177\246x\314r\342"
 870      6BD37E5B 
 870      3CCCB5D5 
 870      747FA678 
 870      CC72E2
 871 0abd 9034FBBF 		.ascii	"\2204\373\277Uh\221\001y\206\015C\003\255\240t\364r"
 871      55689101 
 871      79860D43 
 871      03ADA074 
 871      F472
 872 0acf 74A98EB7 		.ascii	"t\251\216\267|*:%\330\376g\366\321EEf+\366Q\221>|A\351"
 872      7C2A3A25 
 872      D8FE67F6 
 872      D1454566 
 872      2BF65191 
 873 0ae7 637F204B 		.ascii	"c\177 KM~6\327U4\207u',\237\327\335\347\310\361,<\273"
 873      4D7E36D7 
 873      55348775 
 873      272C9FD7 
 873      DDE7C8F1 
 874 0afe 6EC9E88A 		.ascii	"n\311\350\212\027\223H\314x\216\323MTk\236\302\177G"
 874      179348CC 
 874      788ED34D 
 874      546B9EC2 
 874      7F47
 875 0b10 6B362D51 		.ascii	"k6-Q\255\371\234Z\246#\361\220\352b\224dt\315H\243k"
 875      ADF99C5A 
 875      A623F190 
 875      EA629464 
 875      74CD48A3 
 876 0b25 819061BA 		.ascii	"\201\220a\272\255\272\306d-\3722`a\373<\230;O\203\244"
ARM GAS  /tmp/ccBs6P4c.s 			page 70


 876      ADBAC664 
 876      2DFA3260 
 876      61FB3C98 
 876      3B4F83A4 
 877 0b39 683350A2 		.ascii	"h3P\242\377y=%&\274\367\015\013\025f\201\266HqtO\214"
 877      FF793D25 
 877      26BCF70D 
 877      0B156681 
 877      B6487174 
 878 0b4f 134EA671 		.ascii	"\023N\246q\202mB\370\240\364\007<\267\336r\242\243\016"
 878      826D42F8 
 878      A0F4073C 
 878      B7DE72A2 
 878      A30E
 879 0b61 1526B641 		.ascii	"\025&\266A8\250\246\271\270M\210P\233\222\346\222Ne"
 879      38A8A6B9 
 879      B84D8850 
 879      9B92E692 
 879      4E65
 880 0b73 7ADA259C 		.ascii	"z\332%\234\212V\222Q/\363\216\017o\305\220mA\375JJ\254"
 880      8A569251 
 880      2FF38E0F 
 880      6FC5906D 
 880      41FD4A4A 
 881 0b88 8DAEB574 		.ascii	"\215\256\265t\205\315\265\321R\005\257\215.\371\271"
 881      85CDB5D1 
 881      5205AF8D 
 881      2EF9B9
 882 0b97 6B23310E 		.ascii	"k#1\016\331\353Q\230U\307\302sd\325\201\237gXu\314\230"
 882      D9EB5198 
 882      55C7C273 
 882      64D5819F 
 882      675875CC 
 883 0bac 1E5F7C6E 		.ascii	"\036_|n\031Y\033\251\350e\005\267\230[\204\002\256{"
 883      19591BA9 
 883      E86505B7 
 883      985B8402 
 883      AE7B
 884 0bbe 07936DC0 		.ascii	"\007\223m\300[r\216\274$4\301n{\006+t\2005\331\301\352"
 884      5B728EBC 
 884      2434C16E 
 884      7B062B74 
 884      8035D9C1 
 885 0bd3 725D8089 		.ascii	"r]\200\211&\210\000\266\324\0166\3133\230\223\3312;"
 885      268800B6 
 885      D40E36CB 
 885      339893D9 
 885      323B
 886 0be5 D81C3760 		.ascii	"\330\0347`\005bf\313\355`\363<\2039\231m\264\2035\272"
 886      056266CB 
 886      ED60F33C 
 886      8339996D 
 886      B48335BA 
 887 0bf9 011B2066 		.ascii	"\001\033 f\326j\007k\362\014\346d\366\206\035l\271\033"
 887      D66A076B 
 887      F20CE664 
 887      F6861D6C 
ARM GAS  /tmp/ccBs6P4c.s 			page 71


 887      B91B
 888 0c0b B04231B3 		.ascii	"\260B1\263\255v\260\026\317`Nfo\332\301V\273\001{H\314"
 888      AD76B016 
 888      CF604E66 
 888      6FDAC156 
 888      BB017B48 
 889 0c20 6C871D6C 		.ascii	"l\207\035l\255g0'\263]v\260\015n\300\036\0251\253\213"
 889      AD673027 
 889      B35D76B0 
 889      0D6EC01E 
 889      1531AB8B 
 890 0c34 BFF58B06 		.ascii	"\277\365\213\00659\260\233\250\202i\217\275X\263\234"
 890      3539B09B 
 890      A882698F 
 890      BD58B39C 
 891 0c44 6652B693 		.ascii	"fR\266\223\016\327\311\337;\261\267\262\264\231\345"
 891      0ED7C9DF 
 891      3BB1B7B2 
 891      B499E5
 892 0c53 ED84E111 		.ascii	"\355\204\341\021wz\341\250\335\013\333\334xa\230\030"
 892      777AE1A8 
 892      DD0BDBDC 
 892      78619818 
 893 0c63 ECB81D6C 		.ascii	"\354\270\035l\227\033\260\321\342`\237\264\203\305="
 893      971BB0D1 
 893      E2609FB4 
 893      83C53D
 894 0c72 8339999D 		.ascii	"\2039\231\235\262\203\355u\0036N\314\354=;X\207g0;\263"
 894      B283ED75 
 894      03364ECC 
 894      EC3D3B58 
 894      8767303B 
 895 0c87 BAF8D964 		.ascii	"\272\370\331d\3464\017cRg\230\263\273t\024\263\245\016"
 895      E6340F63 
 895      526798B3 
 895      BB7414B3 
 895      A50E
 896 0c99 534C45FB 		.ascii	"SLE\373\023\231\263\335\2319\333\223\231s\230\345\355"
 896      1399B3DD 
 896      9939DB93 
 896      997398E5 
 896      ED
 897 0caa 40A197E3 		.ascii	"@\241\227\3439N\340\035\366\241RE\313\025<\226\257P"
 897      394EE01D 
 897      F6A15245 
 897      CB153C96 
 897      AF50
 898 0cbc F0D27A25 		.ascii	"\360\322z%9\267\220\363*r^M\316\257\221\363Zr~\235\234"
 898      39B790F3 
 898      2A725E4D 
 898      CEAF91F3 
 898      5A727E9D 
 899 0cd1 3790F326 		.ascii	"7\220\363&r\336L\316[\310y\0339o'\347\335\344\334F\316"
 899      72DE4CCE 
 899      5BC8791B 
 899      396F27E7 
 899      DDE4DC46 
ARM GAS  /tmp/ccBs6P4c.s 			page 72


 900 0ce6 7BC8F91D 		.ascii	"{\310\371\035r\336K\316\373\024\333\232\231\231\253"
 900      72DE4BCE 
 900      FB14DB9A 
 900      9999AB
 901 0cf5 2C150408 		.ascii	",\025\004\010s?\310N\315:O\255\337\363J\362\247e\315"
 901      733FC84E 
 901      CD3A4FAD 
 901      DFF34AF2 
 901      A765CD
 902 0d08 7E66993A 		.ascii	"~f\231:/\315~\307\237\225\324\337j|\231\313\235\323"
 902      2FCD7EC7 
 902      9F95D4DF 
 902      6A7C99CB 
 902      9DD3
 903 0d1a 4D3336AE 		.ascii	"M36\2561\262\254\227\2270}T\370/\016)\336a%e\025\013"
 903      31B2AC97 
 903      97307D54 
 903      F82F0E29 
 903      DE612565 
 904 0d30 5437B6EE 		.ascii	"T7\266\356\011\221\3319,w\3567\325CG\333\303\225\302"
 904      0991D939 
 904      2C77EE37 
 904      D54347DB 
 904      C395C2
 905 0d43 A3E9151E 		.ascii	"\243\351\025\036\343*\274\272y\377wS\024^t\247\360D"
 905      E32ABCBA 
 905      79FF7753 
 905      145E74A7 
 905      F044
 906 0d55 7A8527B9 		.ascii	"z\205'\271\012\277\336v\346G)\012[\363\\)<\225^\341"
 906      0ABFDE76 
 906      E647290A 
 906      5BF35C29 
 906      3C955EE1 
 907 0d69 E9548547 		.ascii	"\351T\205G\257t\236^\177f\005\332\263j\226\201_\271"
 907      AF749E5E 
 907      7F6605DA 
 907      B36A9681 
 907      5FB9
 908 0d7b 3CB7225E 		.ascii	"<\267\"^\340\341\215\374Y\205\263M!|MM\357\231m\214"
 908      E0E18DFC 
 908      5985B34D 
 908      217C4D4D 
 908      EF996D8C 
 909 0d8f BD8C6DF4 		.ascii	"\275\214m\364\335\316\273j\342\005\365\031R\342\214"
 909      DDCEBB6A 
 909      E205F519 
 909      52E28C
 910 0d9e C038E78B 		.ascii	"\3008\347\213\346\233\237\304\221\321\303\332/i\"\333"
 910      E69B9FC4 
 910      91D1C3DA 
 910      2F6922DB 
 911 0dae E9EE6AFE 		.ascii	"\351\356j\376\303Qs\251\233\232\2117\3247>\351\224_"
 911      C35173A9 
 911      9B9A8937 
 911      D4373EE9 
 911      945F
ARM GAS  /tmp/ccBs6P4c.s 			page 73


 912 0dc0 5A1447C9 		.ascii	"Z\024G\311W\324\266\232\274W\324\357sC\001\331=\305"
 912      57D4B69A 
 912      BC57D4EF 
 912      734301D9 
 912      3DC5
 913 0dd2 16FBB324 		.ascii	"\026\373\263$\366\357\363\375s\314\362\217\212:\025"
 913      F6EFF3FD 
 913      73CCF28F 
 913      8A3A15
 914 0de1 CCF52357 		.ascii	"\314\365#WV6.\267^\340[\336qWo\221\255\336R7\365\022"
 914      56362EB7 
 914      5EE05BDE 
 914      71576F91 
 914      ADDE5237 
 915 0df7 BE59B07C 		.ascii	"\276Y\260|\311=\365\277Jz\346\243\364\236\371X\260\264"
 915      C93DF5BF 
 915      4A7AE6A3 
 915      F49EF958 
 915      B0B4
 916 0e09 333BB6CB 		.ascii	"3;\266\313i~\257{Qa\226v\260\226\277\324\377\345\006"
 916      697EAF7B 
 916      51619676 
 916      B096BFD4 
 916      FFE506
 917 0e1c 3F676D27 		.ascii	"?gm'\330+\032ja\346P\314\277+^\267\212.)\374\255\242"
 917      D82B1A6A 
 917      61E650CC 
 917      BF2B5EB7 
 917      8A2E29FC 
 918 0e32 6C5BA8E3 		.ascii	"l[\250\343\244\325\375f]\253a\220\215\301\272\031\310"
 918      A4D5FD66 
 918      5DAB6190 
 918      8DC1BA19 
 918      C8
 919 0e43 5A105FE1 		.ascii	"Z\020_\341\267tfA|\231]\020\177\316\355Kn\266u\375\322"
 919      B7746641 
 919      7C995D10 
 919      7FCEED4B 
 919      6EB675FD 
 920 0e58 964FA686 		.ascii	"\226O\246\206e\371n4t\261\032\276\340jX\366\341\261"
 920      65F96E34 
 920      74B11ABE 
 920      E06A58F6 
 920      E1B1
 921 0e6a A5F6A1C3 		.ascii	"\245\366\241\303Rr\322\225\222\253\254\222k\\%\267\377"
 921      5272D295 
 921      92ABAC92 
 921      6B5C25B7 
 921      FF
 922 0e7b D635FA56 		.ascii	"\3265\372V\322W\367\233\277\313\220\245\206\236v%\244"
 922      D257F79B 
 922      BFCB90A5 
 922      869E7625 
 922      A4
 923 0e8c 9B81F540 		.ascii	"\233\201\365@O\232LV;i\317o@\211_a\220\0327\024w?\205"
 923      4F9A4C56 
 923      3B69CF6F 
ARM GAS  /tmp/ccBs6P4c.s 			page 74


 923      40895F61 
 923      901A3714 
 924 0ea3 F8B2CEF6 		.ascii	"\370\262\316\366\213\312\033,\327\233\\\256\247\327"
 924      8BCA1B2C 
 924      D79B5CAE 
 924      A7D7
 925 0eb1 77FD9617 		.ascii	"w\375\226\027\327\326\236n\034\362\015\253\244[\020"
 925      D7D69E6E 
 925      1CF20DAB 
 925      A45B10
 926 0ec0 D7639529 		.ascii	"\327c\225)q\215\273\322P\347c4L\363\011\342\372\012"
 926      718DBBD2 
 926      50E76334 
 926      4CF309E2 
 926      FA0A
 927 0ed2 2FAE875C 		.ascii	"/\256\207\\)\231\301*\231\351K\327\250\327\244\331\257"
 927      2999C12A 
 927      99E94BD7 
 927      A8D7A4D9 
 927      AF
 928 0ee3 79DEE7E9 		.ascii	"y\336\347\351\237\030\232\022\013\202~\024`\266\317"
 928      9F189A12 
 928      0B827E14 
 928      60B6CF
 929 0ef2 6B0BAEF7 		.ascii	"k\013\256\367\361[\260\365#aQ\275\027\274Q\235b\325"
 929      F15BB0F5 
 929      236151BD 
 929      17BC519D 
 929      62D5
 930 0f04 EF4DEBCF 		.ascii	"\357M\353\317\365\314\364E\001\323^\031\230\316\021"
 930      F5CCF445 
 930      01D35E19 
 930      98CE11
 931 0f13 30351B96 		.ascii	"05\033\226\250\326<a-\274\325*\2525\237S\313\334\246"
 931      A8D63C61 
 931      2DBCD52A 
 931      AA359F53 
 931      CBDCA6
 932 0f26 BB90E63D 		.ascii	"\273\220\346=\347y\301\377\256\230oFD\265\026\010\031"
 932      E779C1FF 
 932      AE986F46 
 932      44B51608 
 932      19
 933 0f37 9E48336E 		.ascii	"\236H3n4\012ke\211\011.\364\245\316\242o\255u6\231\253"
 933      340A6B65 
 933      89092EF4 
 933      A5CEA26F 
 933      AD753699 
 934 0f4c A4977AAF 		.ascii	"\244\227z\257'w\374\336\315\216\337\213|n\306S\3038"
 934      2777FCDE 
 934      CD8EDF8B 
 934      7C6EC653 
 934      C338
 935 0f5e 63FF9DF7 		.ascii	"c\377\235\367\"\266\245-v\2664\311\027\254T\243UE\225"
 935      22B6A52D 
 935      76B634C9 
 935      17AC54A3 
ARM GAS  /tmp/ccBs6P4c.s 			page 75


 935      554595
 936 0f71 916AAD28 		.ascii	"\221j\255(\242\353\221\242\022-\254G\242\243\242jMe"
 936      A2EB91A2 
 936      122DAC47 
 936      A2A3A26A 
 936      4D65
 937 0f83 28182B2A 		.ascii	"(\030+*\213\324F\203Ztj\2408R\241\215\320\302\301\312"
 937      8BD44683 
 937      5A746AA0 
 937      3852A18D 
 937      D0C2C1CA 
 938 0f97 C0D890AE 		.ascii	"\300\330\220\256\005&D\242\201"
 938      052644A2 
 938      81
 939 0fa0 E1A52581 		.ascii	"\341\245%\201\221\303G\214)\252\012=S41\030,R\243\325"
 939      91C3478C 
 939      29AA0A3D 
 939      53343118 
 939      2C52A3D5 
 940 0fb4 8F842361 		.ascii	"\217\204#a\355\021M}&T\364\257\203\206\016\032\\\024"
 940      ED114D7D 
 940      2654F4AF 
 940      83860E1A 
 940      5C14
 941 0fc6 0A07AB6A 		.ascii	"\012\007\253j+\264\242\230^Q\241M\030T)e\307B\377\243"
 941      2BB4A298 
 941      5E51A14D 
 941      18542965 
 941      C742FFA3 
 942 0fda 05F4EC51 		.ascii	"\005\364\354QO=]X,\375\362[\252v\252\264)\013\205uP"
 942      4F3D5D58 
 942      2CFDF25B 
 942      AA76AAB4 
 942      290B8575 
 943 0fef 96530B9F 		.ascii	"\226S\013\237C\003zV`D$R\365O\203\006\025"
 943      43037A56 
 943      60442452 
 943      F54F8306 
 943      15
 944 1000 997FBA16 		.ascii	"\231\177\272\026\323\011m\000\305\327\203\202R~M\024"
 944      D3096D00 
 944      C5D78382 
 944      527E4D14 
 945 1010 CA06F4C8 		.ascii	"\312\006\364\310\263Z8\226\246d\245\344\013\253\325"
 945      B35A3896 
 945      A664A5E4 
 945      0BABD5
 946 101f 5A564CD3 		.ascii	"ZVL\323kk\374\272\246F+\"\223\3039\332\024-X\253k=p"
 946      6B6BFCBA 
 946      A6462B22 
 946      93C339DA 
 946      142D58AB 
 947 1036 99A01A03 		.ascii	"\231\240\032\003\013\363\351#RM\321\2035=L\015U\241"
 947      0BF3E923 
 947      524DD183 
 947      353D4C0D 
 947      55A1
ARM GAS  /tmp/ccBs6P4c.s 			page 76


 948 1048 B0D6173F 		.ascii	"\260\326\027?\013\220\373\360\240\0325\252\017z\264"
 948      0B90FBF0 
 948      A01A35AA 
 948      0F7AB4
 949 1057 07291798 		.ascii	"\007)\027\230\240\206\252\224\352\330\304|\363V\215"
 949      A086AA94 
 949      EAD8C47C 
 949      F3568D
 950 1066 C5B4A89E 		.ascii	"\305\264\250\236\033\214\204+Bz(\022\276\313\3768\020"
 950      1B8C842B 
 950      427A2812 
 950      BECBFE38 
 950      10
 951 1077 D37E5D0B 		.ascii	"\323~]\013\216\321\374\332\224\032-\250k\025\017$xG"
 951      8ED1FCDA 
 951      941A2DA8 
 951      6B150F24 
 951      7847
 952 1089 6245513D 		.ascii	"bEQ=\341\220`eljL\237Z\243\305\200\177.\276\016U\003"
 952      E1906065 
 952      6C6A4C9F 
 952      5AA3C580 
 952      7F2EBE0E 
 953 109f 313F76CF 		.ascii	"1?v\317\340\037\007\364\001\016X\362\345\344P\030\014"
 953      E01F07F4 
 953      010E58F2 
 953      E5E45018 
 953      0C
 954 10b0 CB8AE9C0 		.ascii	"\313\212\351\300N\321\302\025\244\354cC\002z\236\215"
 954      4ED1C215 
 954      A4EC6343 
 954      027A9E8D 
 955 10c0 3B0AF748 		.ascii	";\012\367H\336\371\200vM~\362\276*\334\233\334h\325"
 955      DEF98076 
 955      4D7EF2BE 
 955      2ADC9BDC 
 955      68D5
 956 10d2 21EAD72C 		.ascii	"!\352\327,r\356\303<\015\204\206\332i\007#\325\325\221"
 956      72EEC33C 
 956      0D8486DA 
 956      690723D5 
 956      D591
 957 10e4 70514D24 		.ascii	"pQM$\252\307\212 \320\305%S\360\263\232P\225\026\215"
 957      AAC78A20 
 957      D0C52553 
 957      F0B39A50 
 957      95168D
 958 10f7 158D2A2E 		.ascii	"\025\215*.\006k,S\262@e@\317\241\314~h\207\251T\253"
 958      066B2C53 
 958      B2406540 
 958      CFA1CC7E 
 958      6887A954 
 959 110c 12E6C375 		.ascii	"\022\346\303u \246G5\265\032W\352?\002\342SF\\\247\207"
 959      20A64735 
 959      B51A57EA 
 959      3F02E253 
 959      465CA787 
ARM GAS  /tmp/ccBs6P4c.s 			page 77


 960 1120 D4AA32F2 		.ascii	"\324\2522\362\305=\274\207?+)\317\232\034\205\244\363"
 960      C53DBC87 
 960      3F2B29CF 
 960      9A1C85A4 
 960      F3
 961 1131 C15D8552 		.ascii	"\301]\205RS\253+\0235]\231T\255\233f\322\010g\233\330"
 961      53AB2B13 
 961      355D9954 
 961      AD9B66D2 
 961      08679BD8 
 962 1145 DF173A5F 		.ascii	"\337\027:_\257\304\365\261\356\036\301\312\362\312\212"
 962      AFC4F5B1 
 962      EE1EC1CA 
 962      F2CA8A
 963 1154 B22A4DAB 		.ascii	"\262*M\253\371\2213\307\240B\214d\274yK\360\243\221"
 963      F99133C7 
 963      A0428C64 
 963      BC794BF0 
 963      A391
 964 1166 084EB8FE 		.ascii	"\010N\270\376I\237\006\260[\002\241\360\204\210\237"
 964      499F06B0 
 964      5B02A1F0 
 964      84889F
 965 1175 3C0C56D6 		.ascii	"<\014V\326\344\222\013\360dM_\353\01228\360L\355\204"
 965      E4920BF0 
 965      644D5FEB 
 965      0A3238F0 
 965      4CED84
 966 1188 095AD48C 		.ascii	"\011Z\324\214@U$\010\036\300\251U@\356'VE\236\241\017"
 966      40552408 
 966      1EC0A955 
 966      40EE2756 
 966      459EA10F 
 967 119c FA27B2AE 		.ascii	"\372'\262\2566\252\005\252\265XL\235hfq V\013\226\233"
 967      36AA05AA 
 967      B5584C9D 
 967      68667120 
 967      560B969B 
 968 11b0 E8315DAB 		.ascii	"\3501]\253\311\017VA\262S\370!\254\253\315p\225\225"
 968      C90F5641 
 968      B253F821 
 968      ACABCD70 
 968      9595
 969 11c2 973C36A4 		.ascii	"\227<6\244h\354\330'\213\312\307\224L\032\014\015\261"
 969      68ECD827 
 969      8BCAC794 
 969      4C1A0C0D 
 969      B1
 970 11d3 1A072654 		.ascii	"\032\007&T\015V\344%n\002\272R\\:\030d\210\257\254\244"
 970      0D56E425 
 970      6E02BA52 
 970      5C3A1864 
 970      88AFACA4 
 971 11e7 B8D4F7E4 		.ascii	"\270\324\367\344\230\221\245rY\2512rTiVqqI\351`r\036"
 971      9891A572 
 971      59A93272 
 971      54695671 
ARM GAS  /tmp/ccBs6P4c.s 			page 78


 971      7149E960 
 972 11fd E22B2E1E 		.ascii	"\342+.\036Y\252\024?U\256\214++V\206\227\226*\245\305"
 972      59AA143F 
 972      55AE8C2B 
 972      2B568697 
 972      962AA5C5 
 973 1211 700F1546 		.ascii	"p\017\025F<Y^\252<\211k\226\014/\225\177j\326z\014\312"
 973      3C595EAA 
 973      3C896B96 
 973      0C2F957F 
 973      6AD67A0C 
 974 1226 8F2F1DC8 		.ascii	"\217/\035\310\022\213\304\340\004\316\305\237\330\227"
 974      128BC4E0 
 974      04CEC59F 
 974      D897
 975 1234 F8F3A7B1 		.ascii	"\370\363\247\261Q\232^\006\255@\253.\207\\\037\377="
 975      519A5E06 
 975      AD40AB2E 
 975      875C1FFF 
 975      3D
 976 1245 61E42661 		.ascii	"a\344&a\377\367\015V\376\254\334Y\243(c\306V\006#\340"
 976      FFF70D56 
 976      FEACDC59 
 976      A32863C6 
 976      560623E0 
 977 1259 50DC94A2 		.ascii	"P\334\224\242\000\321\217\304\215\334\005 \205\310\325"
 977      00D18FC4 
 977      8DDC0520 
 977      85C8D5
 978 1268 63EE7C68 		.ascii	"c\356|h&o\240\252\252\002S1\257\010F0R\033\326\265h"
 978      266FA0AA 
 978      AA025331 
 978      AF084630 
 978      521BD6B5 
 979 127d 3FD3A231 		.ascii	"?\323\24211L\354\347!\2752\024\036\357\303\370}0m\307"
 979      314CECE7 
 979      21BD3214 
 979      1EEFC3F8 
 979      7D306DC7 
 980 1291 E33C5C14 		.ascii	"\343<\\\024\254\030\033\011>;0]W\201{\211`%-\371\210"
 980      AC181B09 
 980      3E3B305D 
 980      57817B89 
 980      60252DF9 
 981 12a6 4B5B27FD 		.ascii	"K['\375\033\016s.\261\0242\356\331\301\234z\332\024"
 981      1B0E732E 
 981      B11432EE 
 981      D9C19C7A 
 981      DA14
 982 12b8 BDA8B8A4 		.ascii	"\275\250\270\244lLYR_u,\024\013\300\360\001u{\006\240"
 982      6C4C5952 
 982      5F752C14 
 982      0BC0F001 
 982      757B06A0 
 983 12cc 4BD30323 		.ascii	"K\323\003#\206\227\215\034W:\246\247Z5Y\235\032\203"
 983      86978D1C 
 983      573AA6A7 
ARM GAS  /tmp/ccBs6P4c.s 			page 79


 983      5A35599D 
 983      1A83
 984 12de 6CC75D66 		.ascii	"l\307]f\326$\265\252V\353I-x:\2145\344\021\216\364\232"
 984      D624B5AA 
 984      56EB492D 
 984      783A8C35 
 984      E4118EF4 
 985 12f3 E8AD25D7 		.ascii	"\350\255%\327\275q\251r\322\350HS\373\177\373\036\376"
 985      BD71A972 
 985      D2E84853 
 985      FB7FFB1E 
 985      FE
 986 1304 DB       		.ascii	"\333"
 987              		.text
 988              		.section	.gnu.lto_.symtab.e388cacfe785dfa8,"",%progbits
 989 0000 5F746573 		.ascii	"_test_fail\000\000\000\000\000\000\000\000\000\000\000"
 989      745F6661 
 989      696C0000 
 989      00000000 
 989      00000000 
 990 0015 00F10000 		.ascii	"\000\361\000\000\000test_global_fail\000\000\000\000"
 990      00746573 
 990      745F676C 
 990      6F62616C 
 990      5F666169 
 991 002e 00000000 		.ascii	"\000\000\000\000\000\000\000\000\203\001\000\000_te"
 991      00000000 
 991      83010000 
 991      5F7465
 992 003d 73745F61 		.ascii	"st_assert\000\000\000\000\000\000\000\000\000\000\000"
 992      73736572 
 992      74000000 
 992      00000000 
 992      00000000 
 993 0051 00F80000 		.ascii	"\000\370\000\000\000_test_assert_sequence\000\000\000"
 993      005F7465 
 993      73745F61 
 993      73736572 
 993      745F7365 
 994 006e 00000000 		.ascii	"\000\000\000\000\000\000\000\000\000\001\001\000\000"
 994      00000000 
 994      00010100 
 994      00
 995 007b 5F746573 		.ascii	"_test_assert_time_window\000\000\000\000\000\000\000"
 995      745F6173 
 995      73657274 
 995      5F74696D 
 995      655F7769 
 996 009a 00000000 		.ascii	"\000\000\000\000\000\013\001\000\000test_printn\000"
 996      000B0100 
 996      00746573 
 996      745F7072 
 996      696E746E 
 997 00af 00000000 		.ascii	"\000\000\000\000\000\000\000\000\000\000\000\035\001"
 997      00000000 
 997      0000001D 
 997      01
ARM GAS  /tmp/ccBs6P4c.s 			page 80


 998 00bc 00007465 		.ascii	"\000\000test_print\000\000\000\000\000\000\000\000\000"
 998      73745F70 
 998      72696E74 
 998      00000000 
 998      00000000 
 999 00d1 00000027 		.ascii	"\000\000\000'\001\000\000test_println\000\000\000\000"
 999      01000074 
 999      6573745F 
 999      7072696E 
 999      746C6E00 
 1000 00e8 00000000 		.ascii	"\000\000\000\000\000\000\000\000.\001\000\000test_e"
 1000      00000000 
 1000      2E010000 
 1000      74657374 
 1000      5F65
 1001 00fa 6D69745F 		.ascii	"mit_token\000\000\000\000\000\000\000\000\000\000\000"
 1001      746F6B65 
 1001      6E000000 
 1001      00000000 
 1001      00000000 
 1002 010e 00320100 		.ascii	"\0002\001\000\000test_emit_token_i\000\000\000\000\000"
 1002      00746573 
 1002      745F656D 
 1002      69745F74 
 1002      6F6B656E 
 1003 0129 00000000 		.ascii	"\000\000\000\000\000\000\0009\001\000\000test_execu"
 1003      00000039 
 1003      01000074 
 1003      6573745F 
 1003      65786563 
 1004 013e 74650000 		.ascii	"te\000\000\000\000\000\000\000\000\000\000\000\000="
 1004      00000000 
 1004      00000000 
 1004      00003D
 1005 014d 01000074 		.ascii	"\001\000\000test_step\000\000\000\000\000\000\000\000"
 1005      6573745F 
 1005      73746570 
 1005      00000000 
 1005      00000000 
 1006 0161 00000000 		.ascii	"\000\000\000\000\214\001\000\000test_suite\000\000\002"
 1006      8C010000 
 1006      74657374 
 1006      5F737569 
 1006      74650000 
 1007 0176 00000000 		.ascii	"\000\000\000\000\000\000\000\000\000\207\001\000\000"
 1007      00000000 
 1007      00870100 
 1007      00
 1008 0183 63685468 		.ascii	"chThdSleep\000\000\002\000\000\000\000\000\000\000\000"
 1008      64536C65 
 1008      65700000 
 1008      02000000 
 1008      00000000 
 1009 0198 00730100 		.ascii	"\000s\001\000\000test_print_port_info\000\000\002\000"
 1009      00746573 
 1009      745F7072 
 1009      696E745F 
ARM GAS  /tmp/ccBs6P4c.s 			page 81


 1009      706F7274 
 1010 01b5 00000000 		.ascii	"\000\000\000\000\000\000\000\000w\001\000\000"
 1010      00000000 
 1010      77010000 
 1011              		.text
 1012              		.section	.gnu.lto_.opts,"",%progbits
 1013 0000 272D6D63 		.ascii	"'-mcpu=cortex-m3' '-mno-thumb-interwork' '-mthumb' "
 1013      70753D63 
 1013      6F727465 
 1013      782D6D33 
 1013      2720272D 
 1014 0033 272D6767 		.ascii	"'-ggdb' '-O2' '-fomit-frame-pointer' '-falign-funct"
 1014      64622720 
 1014      272D4F32 
 1014      2720272D 
 1014      666F6D69 
 1015 0066 696F6E73 		.ascii	"ions=16' '-ffunction-sections' '-fdata-sections' '-"
 1015      3D313627 
 1015      20272D66 
 1015      66756E63 
 1015      74696F6E 
 1016 0099 666E6F2D 		.ascii	"fno-common' '-flto'\000"
 1016      636F6D6D 
 1016      6F6E2720 
 1016      272D666C 
 1016      746F2700 
 1017              		.text
 1018              		.cfi_sections	.debug_frame
 1019              		.section	.text.print_line,"ax",%progbits
 1020              		.align	2
 1021              		.p2align 4,,15
 1022              		.thumb
 1023              		.thumb_func
 1024              		.type	print_line, %function
 1025              	print_line:
 1026              	.LFB222:
 1027              		.file 1 "../../../test/lib/ch_test.c"
 1028              		.loc 1 90 0
 1029              		.cfi_startproc
 1030              		@ args = 0, pretend = 0, frame = 0
 1031              		@ frame_needed = 0, uses_anonymous_args = 0
 1032              	.LVL0:
 1033 0000 70B5     		push	{r4, r5, r6, lr}
 1034              		.cfi_def_cfa_offset 16
 1035              		.cfi_offset 4, -16
 1036              		.cfi_offset 5, -12
 1037              		.cfi_offset 6, -8
 1038              		.cfi_offset 14, -4
 1039 0002 40F20006 		movw	r6, #:lower16:.LANCHOR0
 1040 0006 C0F20006 		movt	r6, #:upper16:.LANCHOR0
 1041              		.loc 1 90 0
 1042 000a 4C25     		movs	r5, #76
 1043              	.LVL1:
 1044              	.L3:
 1045              		.loc 1 94 0 discriminator 2
 1046 000c 3068     		ldr	r0, [r6]
 1047 000e 2D21     		movs	r1, #45
ARM GAS  /tmp/ccBs6P4c.s 			page 82


 1048 0010 0368     		ldr	r3, [r0]
 1049 0012 40F20004 		movw	r4, #:lower16:.LANCHOR0
 1050 0016 9B68     		ldr	r3, [r3, #8]
 1051 0018 9847     		blx	r3
 1052              	.LVL2:
 1053              		.loc 1 93 0 discriminator 2
 1054 001a 013D     		subs	r5, r5, #1
 1055              	.LVL3:
 1056              		.loc 1 94 0 discriminator 2
 1057 001c C0F20004 		movt	r4, #:upper16:.LANCHOR0
 1058              		.loc 1 93 0 discriminator 2
 1059 0020 F4D1     		bne	.L3
 1060              		.loc 1 95 0
 1061 0022 2068     		ldr	r0, [r4]
 1062 0024 40F20001 		movw	r1, #:lower16:.LC0
 1063 0028 0368     		ldr	r3, [r0]
 1064 002a C0F20001 		movt	r1, #:upper16:.LC0
 1065 002e 1B68     		ldr	r3, [r3]
 1066 0030 0222     		movs	r2, #2
 1067 0032 9847     		blx	r3
 1068              	.LVL4:
 1069 0034 70BD     		pop	{r4, r5, r6, pc}
 1070              		.cfi_endproc
 1071              	.LFE222:
 1072              		.size	print_line, .-print_line
 1073 0036 00BFAFF3 		.section	.text._test_fail,"ax",%progbits
 1073      0080AFF3 
 1073      0080
 1074              		.align	2
 1075              		.p2align 4,,15
 1076              		.global	_test_fail
 1077              		.thumb
 1078              		.thumb_func
 1079              		.type	_test_fail, %function
 1080              	_test_fail:
 1081              	.LFB223:
 1082              		.loc 1 102 0
 1083              		.cfi_startproc
 1084              		@ args = 0, pretend = 0, frame = 0
 1085              		@ frame_needed = 0, uses_anonymous_args = 0
 1086              		@ link register save eliminated.
 1087              	.LVL5:
 1088 0000 10B4     		push	{r4}
 1089              		.cfi_def_cfa_offset 4
 1090              		.cfi_offset 4, -4
 1091              		.loc 1 104 0
 1092 0002 40F20001 		movw	r1, #:lower16:.LANCHOR1
 1093              		.loc 1 106 0
 1094 0006 40F20004 		movw	r4, #:lower16:.LANCHOR3
 1095              		.loc 1 105 0
 1096 000a 40F20002 		movw	r2, #:lower16:.LANCHOR2
 1097              		.loc 1 104 0
 1098 000e 0123     		movs	r3, #1
 1099              		.loc 1 106 0
 1100 0010 C0F20004 		movt	r4, #:upper16:.LANCHOR3
 1101              		.loc 1 104 0
 1102 0014 C0F20001 		movt	r1, #:upper16:.LANCHOR1
ARM GAS  /tmp/ccBs6P4c.s 			page 83


 1103              		.loc 1 105 0
 1104 0018 C0F20002 		movt	r2, #:upper16:.LANCHOR2
 1105              		.loc 1 106 0
 1106 001c 2060     		str	r0, [r4]
 1107              		.loc 1 104 0
 1108 001e 0B70     		strb	r3, [r1]
 1109              		.loc 1 108 0
 1110 0020 1846     		mov	r0, r3
 1111              	.LVL6:
 1112              		.loc 1 105 0
 1113 0022 1370     		strb	r3, [r2]
 1114              		.loc 1 108 0
 1115 0024 5DF8044B 		ldr	r4, [sp], #4
 1116 0028 7047     		bx	lr
 1117              		.cfi_endproc
 1118              	.LFE223:
 1119              		.size	_test_fail, .-_test_fail
 1120 002a 00BFAFF3 		.section	.text._test_assert,"ax",%progbits
 1120      0080
 1121              		.align	2
 1122              		.p2align 4,,15
 1123              		.global	_test_assert
 1124              		.thumb
 1125              		.thumb_func
 1126              		.type	_test_assert, %function
 1127              	_test_assert:
 1128              	.LFB224:
 1129              		.loc 1 110 0
 1130              		.cfi_startproc
 1131              		@ args = 0, pretend = 0, frame = 0
 1132              		@ frame_needed = 0, uses_anonymous_args = 0
 1133              		@ link register save eliminated.
 1134              	.LVL7:
 1135 0000 10B4     		push	{r4}
 1136              		.cfi_def_cfa_offset 4
 1137              		.cfi_offset 4, -4
 1138              		.loc 1 112 0
 1139 0002 90B9     		cbnz	r0, .L8
 1140              	.LVL8:
 1141              	.LBB102:
 1142              	.LBB103:
 1143              		.loc 1 104 0
 1144 0004 40F20004 		movw	r4, #:lower16:.LANCHOR1
 1145              		.loc 1 105 0
 1146 0008 40F20002 		movw	r2, #:lower16:.LANCHOR2
 1147              		.loc 1 106 0
 1148 000c 40F20003 		movw	r3, #:lower16:.LANCHOR3
 1149              		.loc 1 104 0
 1150 0010 0120     		movs	r0, #1
 1151              	.LVL9:
 1152 0012 C0F20004 		movt	r4, #:upper16:.LANCHOR1
 1153              		.loc 1 105 0
 1154 0016 C0F20002 		movt	r2, #:upper16:.LANCHOR2
 1155              		.loc 1 106 0
 1156 001a C0F20003 		movt	r3, #:upper16:.LANCHOR3
 1157              		.loc 1 104 0
 1158 001e 2070     		strb	r0, [r4]
ARM GAS  /tmp/ccBs6P4c.s 			page 84


 1159              		.loc 1 105 0
 1160 0020 1070     		strb	r0, [r2]
 1161              		.loc 1 106 0
 1162 0022 1960     		str	r1, [r3]
 1163              	.LBE103:
 1164              	.LBE102:
 1165              		.loc 1 115 0
 1166 0024 5DF8044B 		ldr	r4, [sp], #4
 1167 0028 7047     		bx	lr
 1168              	.LVL10:
 1169              	.L8:
 1170              		.loc 1 114 0
 1171 002a 0020     		movs	r0, #0
 1172              	.LVL11:
 1173              		.loc 1 115 0
 1174 002c 5DF8044B 		ldr	r4, [sp], #4
 1175 0030 7047     		bx	lr
 1176              		.cfi_endproc
 1177              	.LFE224:
 1178              		.size	_test_assert, .-_test_assert
 1179 0032 00BFAFF3 		.section	.text._test_assert_sequence,"ax",%progbits
 1179      0080AFF3 
 1179      0080AFF3 
 1179      0080
 1180              		.align	2
 1181              		.p2align 4,,15
 1182              		.global	_test_assert_sequence
 1183              		.thumb
 1184              		.thumb_func
 1185              		.type	_test_assert_sequence, %function
 1186              	_test_assert_sequence:
 1187              	.LFB225:
 1188              		.loc 1 117 0
 1189              		.cfi_startproc
 1190              		@ args = 0, pretend = 0, frame = 0
 1191              		@ frame_needed = 0, uses_anonymous_args = 0
 1192              		@ link register save eliminated.
 1193              	.LVL12:
 1194 0000 F0B4     		push	{r4, r5, r6, r7}
 1195              		.cfi_def_cfa_offset 16
 1196              		.cfi_offset 4, -16
 1197              		.cfi_offset 5, -12
 1198              		.cfi_offset 6, -8
 1199              		.cfi_offset 7, -4
 1200 0002 40F20006 		movw	r6, #:lower16:.LANCHOR5
 1201              		.loc 1 118 0
 1202 0006 40F20007 		movw	r7, #:lower16:.LANCHOR4
 1203 000a C0F20006 		movt	r6, #:upper16:.LANCHOR5
 1204 000e C0F20007 		movt	r7, #:upper16:.LANCHOR4
 1205 0012 3568     		ldr	r5, [r6]
 1206 0014 3B46     		mov	r3, r7
 1207              		.loc 1 120 0
 1208 0016 05E0     		b	.L10
 1209              	.LVL13:
 1210              	.L13:
 1211              		.loc 1 121 0
 1212 0018 13F8014B 		ldrb	r4, [r3], #1	@ zero_extendqisi2
ARM GAS  /tmp/ccBs6P4c.s 			page 85


 1213              	.LVL14:
 1214 001c 10F8012B 		ldrb	r2, [r0], #1	@ zero_extendqisi2
 1215              	.LVL15:
 1216 0020 9442     		cmp	r4, r2
 1217 0022 06D1     		bne	.L14
 1218              	.LVL16:
 1219              	.L10:
 1220              		.loc 1 120 0 discriminator 1
 1221 0024 AB42     		cmp	r3, r5
 1222 0026 F7D3     		bcc	.L13
 1223              		.loc 1 125 0
 1224 0028 0078     		ldrb	r0, [r0]	@ zero_extendqisi2
 1225              	.LVL17:
 1226 002a 10B9     		cbnz	r0, .L14
 1227              	.LBB104:
 1228              	.LBB105:
 1229              		.loc 1 67 0
 1230 002c 3760     		str	r7, [r6]
 1231              	.LBE105:
 1232              	.LBE104:
 1233              		.loc 1 131 0
 1234 002e F0BC     		pop	{r4, r5, r6, r7}
 1235 0030 7047     		bx	lr
 1236              	.LVL18:
 1237              	.L14:
 1238              	.LBB106:
 1239              	.LBB107:
 1240              		.loc 1 104 0
 1241 0032 40F20004 		movw	r4, #:lower16:.LANCHOR1
 1242              		.loc 1 105 0
 1243 0036 40F20002 		movw	r2, #:lower16:.LANCHOR2
 1244              		.loc 1 106 0
 1245 003a 40F20003 		movw	r3, #:lower16:.LANCHOR3
 1246              		.loc 1 104 0
 1247 003e 0120     		movs	r0, #1
 1248 0040 C0F20004 		movt	r4, #:upper16:.LANCHOR1
 1249              		.loc 1 105 0
 1250 0044 C0F20002 		movt	r2, #:upper16:.LANCHOR2
 1251              		.loc 1 106 0
 1252 0048 C0F20003 		movt	r3, #:upper16:.LANCHOR3
 1253              		.loc 1 104 0
 1254 004c 2070     		strb	r0, [r4]
 1255              		.loc 1 105 0
 1256 004e 1070     		strb	r0, [r2]
 1257              		.loc 1 106 0
 1258 0050 1960     		str	r1, [r3]
 1259              	.LBE107:
 1260              	.LBE106:
 1261              		.loc 1 131 0
 1262 0052 F0BC     		pop	{r4, r5, r6, r7}
 1263 0054 7047     		bx	lr
 1264              		.cfi_endproc
 1265              	.LFE225:
 1266              		.size	_test_assert_sequence, .-_test_assert_sequence
 1267 0056 00BFAFF3 		.section	.text._test_assert_time_window,"ax",%progbits
 1267      0080AFF3 
 1267      0080
ARM GAS  /tmp/ccBs6P4c.s 			page 86


 1268              		.align	2
 1269              		.p2align 4,,15
 1270              		.global	_test_assert_time_window
 1271              		.thumb
 1272              		.thumb_func
 1273              		.type	_test_assert_time_window, %function
 1274              	_test_assert_time_window:
 1275              	.LFB226:
 1276              		.loc 1 135 0
 1277              		.cfi_startproc
 1278              		@ args = 0, pretend = 0, frame = 0
 1279              		@ frame_needed = 0, uses_anonymous_args = 0
 1280              		@ link register save eliminated.
 1281              	.LVL19:
 1282              	.LBB108:
 1283              	.LBB109:
 1284              	.LBB110:
 1285              	.LBB111:
 1286              	.LBB112:
 1287              		.file 2 "../../../os/hal/ports/STM32/LLD/TIMv1/hal_st_lld.h"
 1288              		.loc 2 141 0
 1289 0000 4FF08043 		mov	r3, #1073741824
 1290 0004 5B6A     		ldr	r3, [r3, #36]
 1291              	.LVL20:
 1292              	.LBE112:
 1293              	.LBE111:
 1294              	.LBE110:
 1295              	.LBE109:
 1296              	.LBE108:
 1297              	.LBB113:
 1298              	.LBB114:
 1299              	.LBB115:
 1300              		.file 3 "../../../os/rt/include/chvt.h"
 1301              		.loc 3 452 0
 1302 0006 091A     		subs	r1, r1, r0
 1303              	.LVL21:
 1304 0008 1B1A     		subs	r3, r3, r0
 1305              	.LVL22:
 1306              	.LBE115:
 1307              	.LBE114:
 1308              	.LBE113:
 1309              	.LBB116:
 1310              	.LBB117:
 1311              		.loc 1 112 0
 1312 000a 89B2     		uxth	r1, r1
 1313 000c 9BB2     		uxth	r3, r3
 1314              	.LVL23:
 1315 000e 8B42     		cmp	r3, r1
 1316              	.LBE117:
 1317              	.LBE116:
 1318              		.loc 1 135 0
 1319 0010 10B4     		push	{r4}
 1320              		.cfi_def_cfa_offset 4
 1321              		.cfi_offset 4, -4
 1322              	.LBB121:
 1323              	.LBB120:
 1324              		.loc 1 114 0
ARM GAS  /tmp/ccBs6P4c.s 			page 87


 1325 0012 38BF     		it	cc
 1326 0014 0020     		movcc	r0, #0
 1327              	.LVL24:
 1328              		.loc 1 112 0
 1329 0016 0FD3     		bcc	.L16
 1330              	.LVL25:
 1331              	.LBB118:
 1332              	.LBB119:
 1333              		.loc 1 104 0
 1334 0018 40F20004 		movw	r4, #:lower16:.LANCHOR1
 1335              		.loc 1 105 0
 1336 001c 40F20001 		movw	r1, #:lower16:.LANCHOR2
 1337              		.loc 1 106 0
 1338 0020 40F20003 		movw	r3, #:lower16:.LANCHOR3
 1339              		.loc 1 104 0
 1340 0024 0120     		movs	r0, #1
 1341 0026 C0F20004 		movt	r4, #:upper16:.LANCHOR1
 1342              		.loc 1 105 0
 1343 002a C0F20001 		movt	r1, #:upper16:.LANCHOR2
 1344              		.loc 1 106 0
 1345 002e C0F20003 		movt	r3, #:upper16:.LANCHOR3
 1346              		.loc 1 104 0
 1347 0032 2070     		strb	r0, [r4]
 1348              		.loc 1 105 0
 1349 0034 0870     		strb	r0, [r1]
 1350              		.loc 1 106 0
 1351 0036 1A60     		str	r2, [r3]
 1352              	.LVL26:
 1353              	.L16:
 1354              	.LBE119:
 1355              	.LBE118:
 1356              	.LBE120:
 1357              	.LBE121:
 1358              		.loc 1 139 0
 1359 0038 5DF8044B 		ldr	r4, [sp], #4
 1360 003c 7047     		bx	lr
 1361              		.cfi_endproc
 1362              	.LFE226:
 1363              		.size	_test_assert_time_window, .-_test_assert_time_window
 1364 003e 00BF     		.section	.text.test_printn,"ax",%progbits
 1365              		.align	2
 1366              		.p2align 4,,15
 1367              		.global	test_printn
 1368              		.thumb
 1369              		.thumb_func
 1370              		.type	test_printn, %function
 1371              	test_printn:
 1372              	.LFB227:
 1373              		.loc 1 148 0
 1374              		.cfi_startproc
 1375              		@ args = 0, pretend = 0, frame = 16
 1376              		@ frame_needed = 0, uses_anonymous_args = 0
 1377              	.LVL27:
 1378 0000 70B5     		push	{r4, r5, r6, lr}
 1379              		.cfi_def_cfa_offset 16
 1380              		.cfi_offset 4, -16
 1381              		.cfi_offset 5, -12
ARM GAS  /tmp/ccBs6P4c.s 			page 88


 1382              		.cfi_offset 6, -8
 1383              		.cfi_offset 14, -4
 1384 0002 84B0     		sub	sp, sp, #16
 1385              		.cfi_def_cfa_offset 32
 1386              		.loc 1 151 0
 1387 0004 48B3     		cbz	r0, .L26
 1388 0006 0DF10105 		add	r5, sp, #1
 1389              		.loc 1 156 0
 1390 000a 4CF6CD46 		movw	r6, #52429
 1391 000e 2B46     		mov	r3, r5
 1392 0010 CCF6CC46 		movt	r6, 52428
 1393              	.LVL28:
 1394              	.L22:
 1395 0014 A6FB0012 		umull	r1, r2, r6, r0
 1396 0018 D208     		lsrs	r2, r2, #3
 1397 001a 02EB8201 		add	r1, r2, r2, lsl #2
 1398 001e A0EB4101 		sub	r1, r0, r1, lsl #1
 1399 0022 3031     		adds	r1, r1, #48
 1400 0024 C9B2     		uxtb	r1, r1
 1401 0026 03F8011C 		strb	r1, [r3, #-1]
 1402 002a 1C46     		mov	r4, r3
 1403              	.LVL29:
 1404              		.loc 1 155 0
 1405 002c 1046     		mov	r0, r2
 1406 002e 0133     		adds	r3, r3, #1
 1407              	.LVL30:
 1408 0030 002A     		cmp	r2, #0
 1409 0032 EFD1     		bne	.L22
 1410              		.loc 1 157 0 discriminator 1
 1411 0034 6B46     		mov	r3, sp
 1412 0036 9C42     		cmp	r4, r3
 1413 0038 0DD9     		bls	.L18
 1414 003a 40F20006 		movw	r6, #:lower16:.LANCHOR0
 1415 003e C0F20006 		movt	r6, #:upper16:.LANCHOR0
 1416 0042 02E0     		b	.L25
 1417              	.LVL31:
 1418              	.L27:
 1419 0044 14F8021C 		ldrb	r1, [r4, #-2]	@ zero_extendqisi2
 1420 0048 013C     		subs	r4, r4, #1
 1421              	.LVL32:
 1422              	.L25:
 1423              		.loc 1 158 0
 1424 004a 3068     		ldr	r0, [r6]
 1425              	.LVL33:
 1426 004c 0368     		ldr	r3, [r0]
 1427 004e 9B68     		ldr	r3, [r3, #8]
 1428 0050 9847     		blx	r3
 1429              	.LVL34:
 1430              		.loc 1 157 0
 1431 0052 AC42     		cmp	r4, r5
 1432 0054 F6D1     		bne	.L27
 1433              	.LVL35:
 1434              	.L18:
 1435              		.loc 1 160 0
 1436 0056 04B0     		add	sp, sp, #16
 1437              		@ sp needed
 1438 0058 70BD     		pop	{r4, r5, r6, pc}
ARM GAS  /tmp/ccBs6P4c.s 			page 89


 1439              	.LVL36:
 1440              	.L26:
 1441              	.LBB124:
 1442              	.LBB125:
 1443              		.loc 1 152 0
 1444 005a 40F20003 		movw	r3, #:lower16:.LANCHOR0
 1445 005e C0F20003 		movt	r3, #:upper16:.LANCHOR0
 1446 0062 1868     		ldr	r0, [r3]
 1447              	.LVL37:
 1448 0064 3021     		movs	r1, #48
 1449 0066 0368     		ldr	r3, [r0]
 1450 0068 9B68     		ldr	r3, [r3, #8]
 1451 006a 9847     		blx	r3
 1452              	.LVL38:
 1453              	.LBE125:
 1454              	.LBE124:
 1455              		.loc 1 160 0
 1456 006c 04B0     		add	sp, sp, #16
 1457              		@ sp needed
 1458 006e 70BD     		pop	{r4, r5, r6, pc}
 1459              		.cfi_endproc
 1460              	.LFE227:
 1461              		.size	test_printn, .-test_printn
 1462              		.section	.text.test_print,"ax",%progbits
 1463              		.align	2
 1464              		.p2align 4,,15
 1465              		.global	test_print
 1466              		.thumb
 1467              		.thumb_func
 1468              		.type	test_print, %function
 1469              	test_print:
 1470              	.LFB228:
 1471              		.loc 1 169 0
 1472              		.cfi_startproc
 1473              		@ args = 0, pretend = 0, frame = 0
 1474              		@ frame_needed = 0, uses_anonymous_args = 0
 1475              	.LVL39:
 1476 0000 38B5     		push	{r3, r4, r5, lr}
 1477              		.cfi_def_cfa_offset 16
 1478              		.cfi_offset 3, -16
 1479              		.cfi_offset 4, -12
 1480              		.cfi_offset 5, -8
 1481              		.cfi_offset 14, -4
 1482              		.loc 1 171 0
 1483 0002 0178     		ldrb	r1, [r0]	@ zero_extendqisi2
 1484 0004 61B1     		cbz	r1, .L28
 1485 0006 40F20005 		movw	r5, #:lower16:.LANCHOR0
 1486 000a 0446     		mov	r4, r0
 1487 000c C0F20005 		movt	r5, #:upper16:.LANCHOR0
 1488              	.LVL40:
 1489              	.L31:
 1490              		.loc 1 172 0
 1491 0010 2868     		ldr	r0, [r5]
 1492              	.LVL41:
 1493 0012 0368     		ldr	r3, [r0]
 1494 0014 9B68     		ldr	r3, [r3, #8]
 1495 0016 9847     		blx	r3
ARM GAS  /tmp/ccBs6P4c.s 			page 90


 1496              	.LVL42:
 1497              		.loc 1 171 0
 1498 0018 14F8011F 		ldrb	r1, [r4, #1]!	@ zero_extendqisi2
 1499              	.LVL43:
 1500 001c 0029     		cmp	r1, #0
 1501 001e F7D1     		bne	.L31
 1502              	.LVL44:
 1503              	.L28:
 1504 0020 38BD     		pop	{r3, r4, r5, pc}
 1505              		.cfi_endproc
 1506              	.LFE228:
 1507              		.size	test_print, .-test_print
 1508 0022 00BFAFF3 		.section	.text.test_println,"ax",%progbits
 1508      0080AFF3 
 1508      0080AFF3 
 1508      0080
 1509              		.align	2
 1510              		.p2align 4,,15
 1511              		.global	test_println
 1512              		.thumb
 1513              		.thumb_func
 1514              		.type	test_println, %function
 1515              	test_println:
 1516              	.LFB229:
 1517              		.loc 1 182 0
 1518              		.cfi_startproc
 1519              		@ args = 0, pretend = 0, frame = 0
 1520              		@ frame_needed = 0, uses_anonymous_args = 0
 1521              	.LVL45:
 1522 0000 38B5     		push	{r3, r4, r5, lr}
 1523              		.cfi_def_cfa_offset 16
 1524              		.cfi_offset 3, -16
 1525              		.cfi_offset 4, -12
 1526              		.cfi_offset 5, -8
 1527              		.cfi_offset 14, -4
 1528              	.LBB126:
 1529              	.LBB127:
 1530              		.loc 1 171 0
 1531 0002 0178     		ldrb	r1, [r0]	@ zero_extendqisi2
 1532 0004 40F20005 		movw	r5, #:lower16:.LANCHOR0
 1533 0008 A1B1     		cbz	r1, .L43
 1534 000a 0446     		mov	r4, r0
 1535 000c C0F20005 		movt	r5, #:upper16:.LANCHOR0
 1536              	.LVL46:
 1537              	.L38:
 1538              		.loc 1 172 0
 1539 0010 2868     		ldr	r0, [r5]
 1540              	.LVL47:
 1541 0012 0368     		ldr	r3, [r0]
 1542 0014 9B68     		ldr	r3, [r3, #8]
 1543 0016 9847     		blx	r3
 1544              	.LVL48:
 1545              		.loc 1 171 0
 1546 0018 14F8011F 		ldrb	r1, [r4, #1]!	@ zero_extendqisi2
 1547              	.LVL49:
 1548 001c 0029     		cmp	r1, #0
 1549 001e F7D1     		bne	.L38
ARM GAS  /tmp/ccBs6P4c.s 			page 91


 1550              	.LVL50:
 1551              	.L37:
 1552              	.LBE127:
 1553              	.LBE126:
 1554              		.loc 1 185 0
 1555 0020 2868     		ldr	r0, [r5]
 1556 0022 40F20001 		movw	r1, #:lower16:.LC0
 1557 0026 0368     		ldr	r3, [r0]
 1558 0028 C0F20001 		movt	r1, #:upper16:.LC0
 1559 002c 1B68     		ldr	r3, [r3]
 1560 002e 0222     		movs	r2, #2
 1561 0030 9847     		blx	r3
 1562              	.LVL51:
 1563 0032 38BD     		pop	{r3, r4, r5, pc}
 1564              	.LVL52:
 1565              	.L43:
 1566 0034 C0F20005 		movt	r5, #:upper16:.LANCHOR0
 1567 0038 F2E7     		b	.L37
 1568              		.cfi_endproc
 1569              	.LFE229:
 1570              		.size	test_println, .-test_println
 1571 003a 00BFAFF3 		.section	.text.test_emit_token,"ax",%progbits
 1571      0080
 1572              		.align	2
 1573              		.p2align 4,,15
 1574              		.global	test_emit_token
 1575              		.thumb
 1576              		.thumb_func
 1577              		.type	test_emit_token, %function
 1578              	test_emit_token:
 1579              	.LFB230:
 1580              		.loc 1 195 0
 1581              		.cfi_startproc
 1582              		@ args = 0, pretend = 0, frame = 0
 1583              		@ frame_needed = 0, uses_anonymous_args = 0
 1584              		@ link register save eliminated.
 1585              	.LVL53:
 1586              	.LBB128:
 1587              	.LBB129:
 1588              	.LBB130:
 1589              	.LBB131:
 1590              	.LBB132:
 1591              		.file 4 "../../../os/common/ext/CMSIS/include/cmsis_gcc.h"
 1592              		.loc 4 264 0
 1593 0000 2023     		movs	r3, #32
 1594              	@ 264 "../../../os/common/ext/CMSIS/include/cmsis_gcc.h" 1
 1595 0002 83F31188 		MSR basepri, r3
 1596              	@ 0 "" 2
 1597              		.thumb
 1598              	.LBE132:
 1599              	.LBE131:
 1600              	.LBE130:
 1601              	.LBE129:
 1602              	.LBE128:
 1603              		.loc 1 198 0
 1604 0006 40F20003 		movw	r3, #:lower16:.LANCHOR5
 1605 000a C0F20003 		movt	r3, #:upper16:.LANCHOR5
ARM GAS  /tmp/ccBs6P4c.s 			page 92


 1606 000e 1A68     		ldr	r2, [r3]
 1607 0010 0449     		ldr	r1, .L46
 1608 0012 8A42     		cmp	r2, r1
 1609              		.loc 1 199 0
 1610 0014 3EBF     		ittt	cc
 1611 0016 511C     		addcc	r1, r2, #1
 1612 0018 1960     		strcc	r1, [r3]
 1613              	.LVL54:
 1614 001a 1070     		strbcc	r0, [r2]
 1615              	.LBB133:
 1616              	.LBB134:
 1617              	.LBB135:
 1618              	.LBB136:
 1619              	.LBB137:
 1620              	.LBB138:
 1621              		.loc 4 264 0
 1622 001c 0023     		movs	r3, #0
 1623              	@ 264 "../../../os/common/ext/CMSIS/include/cmsis_gcc.h" 1
 1624 001e 83F31188 		MSR basepri, r3
 1625              	@ 0 "" 2
 1626              		.thumb
 1627 0022 7047     		bx	lr
 1628              	.L47:
 1629              		.align	2
 1630              	.L46:
 1631 0024 10000000 		.word	.LANCHOR4+16
 1632              	.LBE138:
 1633              	.LBE137:
 1634              	.LBE136:
 1635              	.LBE135:
 1636              	.LBE134:
 1637              	.LBE133:
 1638              		.cfi_endproc
 1639              	.LFE230:
 1640              		.size	test_emit_token, .-test_emit_token
 1641 0028 AFF30080 		.section	.text.test_emit_token_i,"ax",%progbits
 1641      AFF30080 
 1642              		.align	2
 1643              		.p2align 4,,15
 1644              		.global	test_emit_token_i
 1645              		.thumb
 1646              		.thumb_func
 1647              		.type	test_emit_token_i, %function
 1648              	test_emit_token_i:
 1649              	.LFB231:
 1650              		.loc 1 210 0
 1651              		.cfi_startproc
 1652              		@ args = 0, pretend = 0, frame = 0
 1653              		@ frame_needed = 0, uses_anonymous_args = 0
 1654              		@ link register save eliminated.
 1655              	.LVL55:
 1656              		.loc 1 212 0
 1657 0000 40F20003 		movw	r3, #:lower16:.LANCHOR5
 1658 0004 C0F20003 		movt	r3, #:upper16:.LANCHOR5
 1659 0008 1A68     		ldr	r2, [r3]
 1660 000a 0349     		ldr	r1, .L50
 1661 000c 8A42     		cmp	r2, r1
ARM GAS  /tmp/ccBs6P4c.s 			page 93


 1662              		.loc 1 213 0
 1663 000e 3EBF     		ittt	cc
 1664 0010 511C     		addcc	r1, r2, #1
 1665 0012 1070     		strbcc	r0, [r2]
 1666 0014 1960     		strcc	r1, [r3]
 1667 0016 7047     		bx	lr
 1668              	.L51:
 1669              		.align	2
 1670              	.L50:
 1671 0018 10000000 		.word	.LANCHOR4+16
 1672              		.cfi_endproc
 1673              	.LFE231:
 1674              		.size	test_emit_token_i, .-test_emit_token_i
 1675 001c AFF30080 		.section	.text.test_execute,"ax",%progbits
 1676              		.align	2
 1677              		.p2align 4,,15
 1678              		.global	test_execute
 1679              		.thumb
 1680              		.thumb_func
 1681              		.type	test_execute, %function
 1682              	test_execute:
 1683              	.LFB232:
 1684              		.loc 1 227 0
 1685              		.cfi_startproc
 1686              		@ args = 0, pretend = 0, frame = 16
 1687              		@ frame_needed = 0, uses_anonymous_args = 0
 1688              	.LVL56:
 1689 0000 2DE9F04F 		push	{r4, r5, r6, r7, r8, r9, r10, fp, lr}
 1690              		.cfi_def_cfa_offset 36
 1691              		.cfi_offset 4, -36
 1692              		.cfi_offset 5, -32
 1693              		.cfi_offset 6, -28
 1694              		.cfi_offset 7, -24
 1695              		.cfi_offset 8, -20
 1696              		.cfi_offset 9, -16
 1697              		.cfi_offset 10, -12
 1698              		.cfi_offset 11, -8
 1699              		.cfi_offset 14, -4
 1700              		.loc 1 230 0
 1701 0004 40F20004 		movw	r4, #:lower16:.LANCHOR0
 1702 0008 C0F20004 		movt	r4, #:upper16:.LANCHOR0
 1703 000c 2060     		str	r0, [r4]
 1704              		.loc 1 231 0
 1705 000e 40F20000 		movw	r0, #:lower16:.LC1
 1706              	.LVL57:
 1707              		.loc 1 227 0
 1708 0012 85B0     		sub	sp, sp, #20
 1709              		.cfi_def_cfa_offset 56
 1710              		.loc 1 231 0
 1711 0014 C0F20000 		movt	r0, #:upper16:.LC1
 1712 0018 FFF7FEFF 		bl	test_println
 1713              	.LVL58:
 1714              		.loc 1 233 0
 1715 001c 40F20000 		movw	r0, #:lower16:.LC2
 1716 0020 C0F20000 		movt	r0, #:upper16:.LC2
 1717 0024 FFF7FEFF 		bl	test_println
 1718              	.LVL59:
ARM GAS  /tmp/ccBs6P4c.s 			page 94


 1719              		.loc 1 237 0
 1720 0028 40F20000 		movw	r0, #:lower16:.LC3
 1721 002c C0F20000 		movt	r0, #:upper16:.LC3
 1722 0030 40F20005 		movw	r5, #:lower16:.LC4
 1723 0034 FFF7FEFF 		bl	test_println
 1724              	.LVL60:
 1725 0038 C0F20005 		movt	r5, #:upper16:.LC4
 1726              	.LBB171:
 1727              	.LBB172:
 1728              		.loc 1 171 0
 1729 003c 2A21     		movs	r1, #42
 1730              	.LVL61:
 1731              	.L54:
 1732              		.loc 1 172 0
 1733 003e 2068     		ldr	r0, [r4]
 1734              	.LVL62:
 1735 0040 0368     		ldr	r3, [r0]
 1736 0042 9B68     		ldr	r3, [r3, #8]
 1737 0044 9847     		blx	r3
 1738              	.LVL63:
 1739              		.loc 1 171 0
 1740 0046 15F8011F 		ldrb	r1, [r5, #1]!	@ zero_extendqisi2
 1741              	.LVL64:
 1742 004a 0029     		cmp	r1, #0
 1743 004c F7D1     		bne	.L54
 1744              	.LBE172:
 1745              	.LBE171:
 1746              		.loc 1 239 0
 1747 004e 40F20000 		movw	r0, #:lower16:.LC14
 1748 0052 C0F20000 		movt	r0, #:upper16:.LC14
 1749 0056 40F20005 		movw	r5, #:lower16:.LC15
 1750              	.LVL65:
 1751 005a FFF7FEFF 		bl	test_println
 1752              	.LVL66:
 1753 005e C0F20005 		movt	r5, #:upper16:.LC15
 1754              	.LBB173:
 1755              	.LBB174:
 1756              		.loc 1 171 0
 1757 0062 2A21     		movs	r1, #42
 1758              	.LVL67:
 1759              	.L87:
 1760              		.loc 1 172 0
 1761 0064 2068     		ldr	r0, [r4]
 1762              	.LVL68:
 1763 0066 0368     		ldr	r3, [r0]
 1764 0068 9B68     		ldr	r3, [r3, #8]
 1765 006a 9847     		blx	r3
 1766              	.LVL69:
 1767              		.loc 1 171 0
 1768 006c 15F8011F 		ldrb	r1, [r5, #1]!	@ zero_extendqisi2
 1769              	.LVL70:
 1770 0070 0029     		cmp	r1, #0
 1771 0072 F7D1     		bne	.L87
 1772              	.LBE174:
 1773              	.LBE173:
 1774              		.loc 1 242 0
 1775 0074 40F20000 		movw	r0, #:lower16:.LC16
ARM GAS  /tmp/ccBs6P4c.s 			page 95


 1776 0078 C0F20000 		movt	r0, #:upper16:.LC16
 1777 007c 40F20005 		movw	r5, #:lower16:.LC17
 1778              	.LVL71:
 1779 0080 FFF7FEFF 		bl	test_println
 1780              	.LVL72:
 1781 0084 C0F20005 		movt	r5, #:upper16:.LC17
 1782              	.LBB175:
 1783              	.LBB176:
 1784              		.loc 1 171 0
 1785 0088 2A21     		movs	r1, #42
 1786              	.LVL73:
 1787              	.L88:
 1788              		.loc 1 172 0
 1789 008a 2068     		ldr	r0, [r4]
 1790              	.LVL74:
 1791 008c 0368     		ldr	r3, [r0]
 1792 008e 9B68     		ldr	r3, [r3, #8]
 1793 0090 9847     		blx	r3
 1794              	.LVL75:
 1795              		.loc 1 171 0
 1796 0092 15F8011F 		ldrb	r1, [r5, #1]!	@ zero_extendqisi2
 1797              	.LVL76:
 1798 0096 0029     		cmp	r1, #0
 1799 0098 F7D1     		bne	.L88
 1800              	.LBE176:
 1801              	.LBE175:
 1802              		.loc 1 246 0
 1803 009a 40F20000 		movw	r0, #:lower16:.LC5
 1804 009e C0F20000 		movt	r0, #:upper16:.LC5
 1805 00a2 0191     		str	r1, [sp, #4]
 1806              		.loc 1 255 0
 1807 00a4 40F20007 		movw	r7, #:lower16:test_suite
 1808              		.loc 1 246 0
 1809 00a8 FFF7FEFF 		bl	test_println
 1810              	.LVL77:
 1811              		.loc 1 249 0
 1812 00ac FFF7FEFF 		bl	test_print_port_info
 1813              	.LVL78:
 1814              		.loc 1 251 0
 1815 00b0 40F20000 		movw	r0, #:lower16:.LC1
 1816 00b4 C0F20000 		movt	r0, #:upper16:.LC1
 1817              		.loc 1 255 0
 1818 00b8 C0F20007 		movt	r7, #:upper16:test_suite
 1819              		.loc 1 251 0
 1820 00bc FFF7FEFF 		bl	test_println
 1821              	.LVL79:
 1822              		.loc 1 253 0
 1823 00c0 40F20002 		movw	r2, #:lower16:.LANCHOR2
 1824 00c4 0199     		ldr	r1, [sp, #4]
 1825              		.loc 1 255 0
 1826 00c6 3B68     		ldr	r3, [r7]
 1827              		.loc 1 253 0
 1828 00c8 C0F20002 		movt	r2, #:upper16:.LANCHOR2
 1829 00cc 0392     		str	r2, [sp, #12]
 1830 00ce 1170     		strb	r1, [r2]
 1831              	.LVL80:
 1832              		.loc 1 255 0
ARM GAS  /tmp/ccBs6P4c.s 			page 96


 1833 00d0 002B     		cmp	r3, #0
 1834 00d2 00F0DB80 		beq	.L58
 1835              	.LBB177:
 1836              	.LBB178:
 1837              	.LBB179:
 1838              	.LBB180:
 1839              		.loc 1 67 0
 1840 00d6 40F20005 		movw	r5, #:lower16:.LANCHOR5
 1841              	.LVL81:
 1842 00da 40F20009 		movw	r9, #:lower16:.LANCHOR4
 1843 00de 0437     		adds	r7, r7, #4
 1844              	.LBE180:
 1845              	.LBE179:
 1846              	.LBE178:
 1847              	.LBE177:
 1848              		.loc 1 254 0
 1849 00e0 0291     		str	r1, [sp, #8]
 1850              	.LBB188:
 1851              	.LBB185:
 1852              	.LBB183:
 1853              	.LBB181:
 1854              		.loc 1 67 0
 1855 00e2 C0F20005 		movt	r5, #:upper16:.LANCHOR5
 1856 00e6 C0F20009 		movt	r9, #:upper16:.LANCHOR4
 1857              	.LVL82:
 1858              	.L59:
 1859 00ea 029A     		ldr	r2, [sp, #8]
 1860              	.LBE181:
 1861              	.LBE183:
 1862              	.LBE185:
 1863              	.LBE188:
 1864              	.LBB189:
 1865              	.LBB190:
 1866              		.loc 1 171 0 discriminator 1
 1867 00ec 0026     		movs	r6, #0
 1868              	.LVL83:
 1869              	.LBE190:
 1870              	.LBE189:
 1871              		.loc 1 257 0 discriminator 1
 1872 00ee 53F82630 		ldr	r3, [r3, r6, lsl #2]
 1873 00f2 0132     		adds	r2, r2, #1
 1874 00f4 0292     		str	r2, [sp, #8]
 1875              	.LVL84:
 1876 00f6 4FEA8608 		lsl	r8, r6, #2
 1877 00fa 002B     		cmp	r3, #0
 1878 00fc 00F0C180 		beq	.L109
 1879              	.LVL85:
 1880              	.L82:
 1881 0100 40F2000A 		movw	r10, #:lower16:.LC6
 1882              		.loc 1 258 0
 1883 0104 FFF7FEFF 		bl	print_line
 1884              	.LVL86:
 1885 0108 C0F2000A 		movt	r10, #:upper16:.LC6
 1886              	.LBB193:
 1887              	.LBB194:
 1888              		.loc 1 171 0
 1889 010c 2D21     		movs	r1, #45
ARM GAS  /tmp/ccBs6P4c.s 			page 97


 1890              	.LVL87:
 1891              	.L61:
 1892              		.loc 1 172 0
 1893 010e 2068     		ldr	r0, [r4]
 1894              	.LVL88:
 1895 0110 40F2000B 		movw	fp, #:lower16:.LANCHOR0
 1896 0114 0368     		ldr	r3, [r0]
 1897 0116 C0F2000B 		movt	fp, #:upper16:.LANCHOR0
 1898 011a 9B68     		ldr	r3, [r3, #8]
 1899 011c 9847     		blx	r3
 1900              	.LVL89:
 1901              		.loc 1 171 0
 1902 011e 1AF8011F 		ldrb	r1, [r10, #1]!	@ zero_extendqisi2
 1903              	.LVL90:
 1904 0122 0029     		cmp	r1, #0
 1905 0124 F3D1     		bne	.L61
 1906              	.LBE194:
 1907              	.LBE193:
 1908              		.loc 1 260 0
 1909 0126 0298     		ldr	r0, [sp, #8]
 1910 0128 FFF7FEFF 		bl	test_printn
 1911              	.LVL91:
 1912              	.LBB195:
 1913              	.LBB196:
 1914              		.loc 1 172 0
 1915 012c DBF80000 		ldr	r0, [fp]
 1916              	.LVL92:
 1917 0130 2E21     		movs	r1, #46
 1918 0132 0368     		ldr	r3, [r0]
 1919              	.LBE196:
 1920              	.LBE195:
 1921              		.loc 1 262 0
 1922 0134 0136     		adds	r6, r6, #1
 1923              	.LVL93:
 1924              	.LBB198:
 1925              	.LBB197:
 1926              		.loc 1 172 0
 1927 0136 9B68     		ldr	r3, [r3, #8]
 1928 0138 9847     		blx	r3
 1929              	.LVL94:
 1930 013a 40F2000B 		movw	fp, #:lower16:.LC18
 1931              	.LBE197:
 1932              	.LBE198:
 1933              		.loc 1 262 0
 1934 013e 3046     		mov	r0, r6
 1935 0140 FFF7FEFF 		bl	test_printn
 1936              	.LVL95:
 1937 0144 C0F2000B 		movt	fp, #:upper16:.LC18
 1938              	.LBB199:
 1939              	.LBB200:
 1940              		.loc 1 171 0
 1941 0148 2021     		movs	r1, #32
 1942              	.LVL96:
 1943              	.L89:
 1944              		.loc 1 172 0
 1945 014a 2068     		ldr	r0, [r4]
 1946              	.LVL97:
ARM GAS  /tmp/ccBs6P4c.s 			page 98


 1947 014c 0268     		ldr	r2, [r0]
 1948 014e 9268     		ldr	r2, [r2, #8]
 1949 0150 9047     		blx	r2
 1950              	.LVL98:
 1951              		.loc 1 171 0
 1952 0152 1BF8011F 		ldrb	r1, [fp, #1]!	@ zero_extendqisi2
 1953              	.LVL99:
 1954 0156 0029     		cmp	r1, #0
 1955 0158 F7D1     		bne	.L89
 1956              	.LBE200:
 1957              	.LBE199:
 1958              		.loc 1 264 0
 1959 015a 57F8043C 		ldr	r3, [r7, #-4]
 1960 015e 53F80830 		ldr	r3, [r3, r8]
 1961 0162 1B68     		ldr	r3, [r3]
 1962              	.LVL100:
 1963              	.LBB201:
 1964              	.LBB202:
 1965              		.loc 1 171 0
 1966 0164 1978     		ldrb	r1, [r3]	@ zero_extendqisi2
 1967 0166 9B46     		mov	fp, r3
 1968              	.LVL101:
 1969 0168 39B1     		cbz	r1, .L66
 1970              	.LVL102:
 1971              	.L67:
 1972              		.loc 1 172 0
 1973 016a 2068     		ldr	r0, [r4]
 1974              	.LVL103:
 1975 016c 0268     		ldr	r2, [r0]
 1976 016e 9268     		ldr	r2, [r2, #8]
 1977 0170 9047     		blx	r2
 1978              	.LVL104:
 1979              		.loc 1 171 0
 1980 0172 1BF8011F 		ldrb	r1, [fp, #1]!	@ zero_extendqisi2
 1981              	.LVL105:
 1982 0176 0029     		cmp	r1, #0
 1983 0178 F7D1     		bne	.L67
 1984              	.LVL106:
 1985              	.L66:
 1986              	.LBE202:
 1987              	.LBE201:
 1988              		.loc 1 265 0
 1989 017a 40F20000 		movw	r0, #:lower16:.LC7
 1990 017e C0F20000 		movt	r0, #:upper16:.LC7
 1991 0182 FFF7FEFF 		bl	test_println
 1992              	.LVL107:
 1993              	.LBB203:
 1994              	.LBB204:
 1995              		.file 5 "../../../os/hal/osal/rt/osal.h"
 1996              		.loc 5 673 0
 1997 0186 C820     		movs	r0, #200
 1998 0188 FFF7FEFF 		bl	chThdSleep
 1999              	.LVL108:
 2000              	.LBE204:
 2001              	.LBE203:
 2002              		.loc 1 269 0
 2003 018c 57F8042C 		ldr	r2, [r7, #-4]
ARM GAS  /tmp/ccBs6P4c.s 			page 99


 2004              	.LBB205:
 2005              	.LBB186:
 2006              		.loc 1 81 0
 2007 0190 40F2000B 		movw	fp, #:lower16:.LANCHOR1
 2008              	.LBE186:
 2009              	.LBE205:
 2010              		.loc 1 269 0
 2011 0194 52F80880 		ldr	r8, [r2, r8]
 2012              	.LVL109:
 2013              	.LBB206:
 2014              	.LBB187:
 2015              		.loc 1 81 0
 2016 0198 C0F2000B 		movt	fp, #:upper16:.LANCHOR1
 2017              		.loc 1 83 0
 2018 019c D8F80420 		ldr	r2, [r8, #4]
 2019              		.loc 1 81 0
 2020 01a0 0021     		movs	r1, #0
 2021              	.LBB184:
 2022              	.LBB182:
 2023              		.loc 1 67 0
 2024 01a2 C5F80090 		str	r9, [r5]
 2025              	.LBE182:
 2026              	.LBE184:
 2027              		.loc 1 81 0
 2028 01a6 8BF80010 		strb	r1, [fp]
 2029              		.loc 1 83 0
 2030 01aa 02B1     		cbz	r2, .L65
 2031              		.loc 1 84 0
 2032 01ac 9047     		blx	r2
 2033              	.LVL110:
 2034              	.L65:
 2035              		.loc 1 85 0
 2036 01ae D8F80C20 		ldr	r2, [r8, #12]
 2037 01b2 9047     		blx	r2
 2038              	.LVL111:
 2039              		.loc 1 86 0
 2040 01b4 D8F80820 		ldr	r2, [r8, #8]
 2041 01b8 02B1     		cbz	r2, .L68
 2042              		.loc 1 87 0
 2043 01ba 9047     		blx	r2
 2044              	.LVL112:
 2045              	.L68:
 2046              	.LBE187:
 2047              	.LBE206:
 2048              		.loc 1 270 0
 2049 01bc 9BF80030 		ldrb	r3, [fp]	@ zero_extendqisi2
 2050 01c0 002B     		cmp	r3, #0
 2051 01c2 00F08680 		beq	.L69
 2052 01c6 40F20008 		movw	r8, #:lower16:.LC8
 2053              	.LVL113:
 2054 01ca C0F20008 		movt	r8, #:upper16:.LC8
 2055              	.LBB207:
 2056              	.LBB208:
 2057              		.loc 1 171 0
 2058 01ce 2D21     		movs	r1, #45
 2059              	.L71:
 2060              	.LVL114:
ARM GAS  /tmp/ccBs6P4c.s 			page 100


 2061              		.loc 1 172 0
 2062 01d0 2068     		ldr	r0, [r4]
 2063              	.LVL115:
 2064 01d2 0368     		ldr	r3, [r0]
 2065 01d4 9B68     		ldr	r3, [r3, #8]
 2066 01d6 9847     		blx	r3
 2067              	.LVL116:
 2068              		.loc 1 171 0
 2069 01d8 18F8011F 		ldrb	r1, [r8, #1]!	@ zero_extendqisi2
 2070              	.LVL117:
 2071 01dc 0029     		cmp	r1, #0
 2072 01de F7D1     		bne	.L71
 2073              	.LBE208:
 2074              	.LBE207:
 2075              		.loc 1 272 0
 2076 01e0 40F20003 		movw	r3, #:lower16:.LANCHOR6
 2077 01e4 C0F20003 		movt	r3, #:upper16:.LANCHOR6
 2078 01e8 1868     		ldr	r0, [r3]
 2079 01ea 40F20008 		movw	r8, #:lower16:.LC19
 2080              	.LVL118:
 2081 01ee FFF7FEFF 		bl	test_printn
 2082              	.LVL119:
 2083 01f2 C0F20008 		movt	r8, #:upper16:.LC19
 2084              	.LBB209:
 2085              	.LBB191:
 2086              		.loc 1 171 0
 2087 01f6 2021     		movs	r1, #32
 2088              	.LVL120:
 2089              	.L90:
 2090              		.loc 1 172 0
 2091 01f8 2068     		ldr	r0, [r4]
 2092              	.LVL121:
 2093 01fa 0368     		ldr	r3, [r0]
 2094 01fc 9B68     		ldr	r3, [r3, #8]
 2095 01fe 9847     		blx	r3
 2096              	.LVL122:
 2097              		.loc 1 171 0
 2098 0200 18F8011F 		ldrb	r1, [r8, #1]!	@ zero_extendqisi2
 2099              	.LVL123:
 2100 0204 0029     		cmp	r1, #0
 2101 0206 F7D1     		bne	.L90
 2102              	.LVL124:
 2103              	.LBE191:
 2104              	.LBE209:
 2105              	.LBB210:
 2106              	.LBB211:
 2107              		.loc 1 73 0
 2108 0208 2B68     		ldr	r3, [r5]
 2109 020a 4B45     		cmp	r3, r9
 2110 020c 88BF     		it	hi
 2111 020e DFF8E880 		ldrhi	r8, .L111
 2112              	.LVL125:
 2113 0212 0AD9     		bls	.L75
 2114              	.LVL126:
 2115              	.L76:
 2116              		.loc 1 74 0
 2117 0214 2068     		ldr	r0, [r4]
ARM GAS  /tmp/ccBs6P4c.s 			page 101


 2118 0216 18F8011C 		ldrb	r1, [r8, #-1]	@ zero_extendqisi2
 2119 021a 0368     		ldr	r3, [r0]
 2120 021c 9B68     		ldr	r3, [r3, #8]
 2121 021e 9847     		blx	r3
 2122              	.LVL127:
 2123              		.loc 1 73 0
 2124 0220 2B68     		ldr	r3, [r5]
 2125              	.LVL128:
 2126 0222 9845     		cmp	r8, r3
 2127 0224 08F10108 		add	r8, r8, #1
 2128              	.LVL129:
 2129 0228 F4D3     		bcc	.L76
 2130              	.LVL130:
 2131              	.L75:
 2132 022a 40F20008 		movw	r8, #:lower16:.LC9
 2133 022e C0F20008 		movt	r8, #:upper16:.LC9
 2134              	.LBE211:
 2135              	.LBE210:
 2136              	.LBB212:
 2137              	.LBB192:
 2138              		.loc 1 171 0
 2139 0232 5D21     		movs	r1, #93
 2140              	.L74:
 2141              	.LVL131:
 2142              	.LBE192:
 2143              	.LBE212:
 2144              	.LBB213:
 2145              	.LBB214:
 2146              		.loc 1 172 0
 2147 0234 2068     		ldr	r0, [r4]
 2148              	.LVL132:
 2149 0236 0368     		ldr	r3, [r0]
 2150 0238 9B68     		ldr	r3, [r3, #8]
 2151 023a 9847     		blx	r3
 2152              	.LVL133:
 2153              		.loc 1 171 0
 2154 023c 18F8011F 		ldrb	r1, [r8, #1]!	@ zero_extendqisi2
 2155              	.LVL134:
 2156 0240 0029     		cmp	r1, #0
 2157 0242 F7D1     		bne	.L74
 2158              	.LBE214:
 2159              	.LBE213:
 2160              		.loc 1 276 0
 2161 0244 40F20003 		movw	r3, #:lower16:.LANCHOR3
 2162 0248 C0F20003 		movt	r3, #:upper16:.LANCHOR3
 2163 024c 1B68     		ldr	r3, [r3]
 2164              	.LVL135:
 2165              	.LBB215:
 2166              	.LBB216:
 2167              		.loc 1 171 0
 2168 024e 1978     		ldrb	r1, [r3]	@ zero_extendqisi2
 2169 0250 9846     		mov	r8, r3
 2170              	.LVL136:
 2171 0252 39B1     		cbz	r1, .L80
 2172              	.LVL137:
 2173              	.L81:
 2174              		.loc 1 172 0
ARM GAS  /tmp/ccBs6P4c.s 			page 102


 2175 0254 2068     		ldr	r0, [r4]
 2176              	.LVL138:
 2177 0256 0368     		ldr	r3, [r0]
 2178 0258 9B68     		ldr	r3, [r3, #8]
 2179 025a 9847     		blx	r3
 2180              	.LVL139:
 2181              		.loc 1 171 0
 2182 025c 18F8011F 		ldrb	r1, [r8, #1]!	@ zero_extendqisi2
 2183              	.LVL140:
 2184 0260 0029     		cmp	r1, #0
 2185 0262 F7D1     		bne	.L81
 2186              	.LVL141:
 2187              	.L80:
 2188              	.LBE216:
 2189              	.LBE215:
 2190              		.loc 1 277 0
 2191 0264 40F20000 		movw	r0, #:lower16:.LC10
 2192 0268 C0F20000 		movt	r0, #:upper16:.LC10
 2193 026c FFF7FEFF 		bl	test_println
 2194              	.LVL142:
 2195              	.L79:
 2196 0270 57F8043C 		ldr	r3, [r7, #-4]
 2197              	.LVL143:
 2198 0274 4FEA8608 		lsl	r8, r6, #2
 2199              		.loc 1 257 0 discriminator 1
 2200 0278 53F82630 		ldr	r3, [r3, r6, lsl #2]
 2201 027c 002B     		cmp	r3, #0
 2202 027e 7FF43FAF 		bne	.L82
 2203              	.LVL144:
 2204              	.L109:
 2205              		.loc 1 255 0
 2206 0282 57F8043B 		ldr	r3, [r7], #4
 2207 0286 002B     		cmp	r3, #0
 2208 0288 7FF42FAF 		bne	.L59
 2209              	.LVL145:
 2210              	.L58:
 2211              		.loc 1 285 0
 2212 028c FFF7FEFF 		bl	print_line
 2213              	.LVL146:
 2214              		.loc 1 286 0
 2215 0290 40F20000 		movw	r0, #:lower16:.LC1
 2216 0294 C0F20000 		movt	r0, #:upper16:.LC1
 2217 0298 40F20005 		movw	r5, #:lower16:.LC20
 2218 029c FFF7FEFF 		bl	test_println
 2219              	.LVL147:
 2220 02a0 C0F20005 		movt	r5, #:upper16:.LC20
 2221              	.LBB217:
 2222              	.LBB218:
 2223              		.loc 1 171 0
 2224 02a4 4621     		movs	r1, #70
 2225              	.LVL148:
 2226              	.L91:
 2227              		.loc 1 172 0
 2228 02a6 2068     		ldr	r0, [r4]
 2229              	.LVL149:
 2230 02a8 0368     		ldr	r3, [r0]
 2231 02aa 9B68     		ldr	r3, [r3, #8]
ARM GAS  /tmp/ccBs6P4c.s 			page 103


 2232 02ac 9847     		blx	r3
 2233              	.LVL150:
 2234              		.loc 1 171 0
 2235 02ae 15F8011F 		ldrb	r1, [r5, #1]!	@ zero_extendqisi2
 2236              	.LVL151:
 2237 02b2 0029     		cmp	r1, #0
 2238 02b4 F7D1     		bne	.L91
 2239              	.LBE218:
 2240              	.LBE217:
 2241              		.loc 1 288 0
 2242 02b6 039A     		ldr	r2, [sp, #12]
 2243 02b8 1378     		ldrb	r3, [r2]	@ zero_extendqisi2
 2244 02ba 8BB9     		cbnz	r3, .L110
 2245              		.loc 1 291 0
 2246 02bc 40F20000 		movw	r0, #:lower16:.LC13
 2247 02c0 C0F20000 		movt	r0, #:upper16:.LC13
 2248 02c4 FFF7FEFF 		bl	test_println
 2249              	.LVL152:
 2250              		.loc 1 297 0
 2251 02c8 039B     		ldr	r3, [sp, #12]
 2252 02ca 1878     		ldrb	r0, [r3]	@ zero_extendqisi2
 2253              		.loc 1 298 0
 2254 02cc 05B0     		add	sp, sp, #20
 2255              		@ sp needed
 2256 02ce BDE8F08F 		pop	{r4, r5, r6, r7, r8, r9, r10, fp, pc}
 2257              	.LVL153:
 2258              	.L69:
 2259              		.loc 1 280 0
 2260 02d2 40F20000 		movw	r0, #:lower16:.LC11
 2261 02d6 C0F20000 		movt	r0, #:upper16:.LC11
 2262 02da FFF7FEFF 		bl	test_println
 2263              	.LVL154:
 2264 02de C7E7     		b	.L79
 2265              	.LVL155:
 2266              	.L110:
 2267              		.loc 1 289 0
 2268 02e0 40F20000 		movw	r0, #:lower16:.LC12
 2269 02e4 C0F20000 		movt	r0, #:upper16:.LC12
 2270 02e8 FFF7FEFF 		bl	test_println
 2271              	.LVL156:
 2272              		.loc 1 297 0
 2273 02ec 039B     		ldr	r3, [sp, #12]
 2274 02ee 1878     		ldrb	r0, [r3]	@ zero_extendqisi2
 2275              		.loc 1 298 0
 2276 02f0 05B0     		add	sp, sp, #20
 2277              		@ sp needed
 2278 02f2 BDE8F08F 		pop	{r4, r5, r6, r7, r8, r9, r10, fp, pc}
 2279              	.LVL157:
 2280              	.L112:
 2281 02f6 00BF     		.align	2
 2282              	.L111:
 2283 02f8 01000000 		.word	.LANCHOR4+1
 2284              		.cfi_endproc
 2285              	.LFE232:
 2286              		.size	test_execute, .-test_execute
 2287              		.global	test_global_fail
 2288              		.global	test_step
ARM GAS  /tmp/ccBs6P4c.s 			page 104


 2289 02fc AFF30080 		.section	.bss.test_failure_message,"aw",%nobits
 2290              		.align	2
 2291              		.set	.LANCHOR3,. + 0
 2292              		.type	test_failure_message, %object
 2293              		.size	test_failure_message, 4
 2294              	test_failure_message:
 2295 0000 00000000 		.space	4
 2296              		.section	.bss.test_local_fail,"aw",%nobits
 2297              		.set	.LANCHOR1,. + 0
 2298              		.type	test_local_fail, %object
 2299              		.size	test_local_fail, 1
 2300              	test_local_fail:
 2301 0000 00       		.space	1
 2302              		.section	.rodata.str1.4,"aMS",%progbits,1
 2303              		.align	2
 2304              	.LC0:
 2305 0000 0D0A00   		.ascii	"\015\012\000"
 2306 0003 00       		.space	1
 2307              	.LC1:
 2308 0004 00       		.ascii	"\000"
 2309 0005 000000   		.space	3
 2310              	.LC2:
 2311 0008 2A2A2A20 		.ascii	"*** ChibiOS/RT Test Suite\000"
 2311      43686962 
 2311      694F532F 
 2311      52542054 
 2311      65737420 
 2312 0022 0000     		.space	2
 2313              	.LC3:
 2314 0024 2A2A2A00 		.ascii	"***\000"
 2315              	.LC4:
 2316 0028 2A2A2A20 		.ascii	"*** Compiled:     \000"
 2316      436F6D70 
 2316      696C6564 
 2316      3A202020 
 2316      202000
 2317 003b 00       		.space	1
 2318              	.LC5:
 2319 003c 53542053 		.ascii	"ST STM32VL-Discovery\000"
 2319      544D3332 
 2319      564C2D44 
 2319      6973636F 
 2319      76657279 
 2320 0051 000000   		.space	3
 2321              	.LC6:
 2322 0054 2D2D2D20 		.ascii	"--- Test Case \000"
 2322      54657374 
 2322      20436173 
 2322      652000
 2323 0063 00       		.space	1
 2324              	.LC7:
 2325 0064 2900     		.ascii	")\000"
 2326 0066 0000     		.space	2
 2327              	.LC8:
 2328 0068 2D2D2D20 		.ascii	"--- Result: FAILURE (#\000"
 2328      52657375 
 2328      6C743A20 
ARM GAS  /tmp/ccBs6P4c.s 			page 105


 2328      4641494C 
 2328      55524520 
 2329 007f 00       		.space	1
 2330              	.LC9:
 2331 0080 5D202200 		.ascii	"] \"\000"
 2332              	.LC10:
 2333 0084 222900   		.ascii	"\")\000"
 2334 0087 00       		.space	1
 2335              	.LC11:
 2336 0088 2D2D2D20 		.ascii	"--- Result: SUCCESS\000"
 2336      52657375 
 2336      6C743A20 
 2336      53554343 
 2336      45535300 
 2337              	.LC12:
 2338 009c 4641494C 		.ascii	"FAILURE\000"
 2338      55524500 
 2339              	.LC13:
 2340 00a4 53554343 		.ascii	"SUCCESS\000"
 2340      45535300 
 2341              	.LC14:
 2342 00ac 4E6F7620 		.ascii	"Nov 16 2017 - 12:21:38\000"
 2342      31362032 
 2342      30313720 
 2342      2D203132 
 2342      3A32313A 
 2343 00c3 00       		.space	1
 2344              	.LC15:
 2345 00c4 2A2A2A20 		.ascii	"*** Platform:     \000"
 2345      506C6174 
 2345      666F726D 
 2345      3A202020 
 2345      202000
 2346 00d7 00       		.space	1
 2347              	.LC16:
 2348 00d8 53544D33 		.ascii	"STM32F100 Value Line Medium Density\000"
 2348      32463130 
 2348      30205661 
 2348      6C756520 
 2348      4C696E65 
 2349              	.LC17:
 2350 00fc 2A2A2A20 		.ascii	"*** Test Board:   \000"
 2350      54657374 
 2350      20426F61 
 2350      72643A20 
 2350      202000
 2351 010f 00       		.space	1
 2352              	.LC18:
 2353 0110 202800   		.ascii	" (\000"
 2354 0113 00       		.space	1
 2355              	.LC19:
 2356 0114 205B00   		.ascii	" [\000"
 2357 0117 00       		.space	1
 2358              	.LC20:
 2359 0118 46696E61 		.ascii	"Final result: \000"
 2359      6C207265 
 2359      73756C74 
ARM GAS  /tmp/ccBs6P4c.s 			page 106


 2359      3A2000
 2360 0127 00       		.section	.bss.test_chp,"aw",%nobits
 2361              		.align	2
 2362              		.set	.LANCHOR0,. + 0
 2363              		.type	test_chp, %object
 2364              		.size	test_chp, 4
 2365              	test_chp:
 2366 0000 00000000 		.space	4
 2367              		.section	.bss.test_tokp,"aw",%nobits
 2368              		.align	2
 2369              		.set	.LANCHOR5,. + 0
 2370              		.type	test_tokp, %object
 2371              		.size	test_tokp, 4
 2372              	test_tokp:
 2373 0000 00000000 		.space	4
 2374              		.section	.bss.test_step,"aw",%nobits
 2375              		.align	2
 2376              		.set	.LANCHOR6,. + 0
 2377              		.type	test_step, %object
 2378              		.size	test_step, 4
 2379              	test_step:
 2380 0000 00000000 		.space	4
 2381              		.section	.bss.test_tokens_buffer,"aw",%nobits
 2382              		.align	2
 2383              		.set	.LANCHOR4,. + 0
 2384              		.type	test_tokens_buffer, %object
 2385              		.size	test_tokens_buffer, 16
 2386              	test_tokens_buffer:
 2387 0000 00000000 		.space	16
 2387      00000000 
 2387      00000000 
 2387      00000000 
 2388              		.section	.bss.test_global_fail,"aw",%nobits
 2389              		.set	.LANCHOR2,. + 0
 2390              		.type	test_global_fail, %object
 2391              		.size	test_global_fail, 1
 2392              	test_global_fail:
 2393 0000 00       		.space	1
 2394              		.text
 2395              	.Letext0:
 2396              		.file 6 "/home/otto/MentorGraphics/Sourcery_CodeBench_Lite_for_ARM_EABI/lib/gcc/arm-none-eabi/4.8.
 2397              		.file 7 "/home/otto/MentorGraphics/Sourcery_CodeBench_Lite_for_ARM_EABI/arm-none-eabi/include/stdi
 2398              		.file 8 "../../../os/common/ports/ARMCMx/compilers/GCC/chtypes.h"
 2399              		.file 9 "../../../os/rt/include/chsystypes.h"
 2400              		.file 10 "../../../os/rt/include/chschd.h"
 2401              		.file 11 "../../../os/common/ports/ARMCMx/chcore.h"
 2402              		.file 12 "../../../os/common/ports/ARMCMx/chcore_v7m.h"
 2403              		.file 13 "../../../os/hal/ports/STM32/LLD/TIMv1/stm32_tim.h"
 2404              		.file 14 "../../../os/rt/include/chsem.h"
 2405              		.file 15 "../../../os/rt/include/chmtx.h"
 2406              		.file 16 "../../../os/hal/include/hal_streams.h"
 2407              		.file 17 "../../../test/lib/ch_test.h"
 2408              		.file 18 "../../../os/common/ports/ARMCMx/chcore_timer.h"
 2409              		.file 19 "../../../os/rt/include/chsys.h"
 2410              		.file 20 "../../../os/common/ext/CMSIS/include/core_cm3.h"
 2411              		.file 21 "../../../test/rt/source/test/test_root.h"
 2412              		.file 22 "../../../os/rt/include/chthreads.h"
ARM GAS  /tmp/ccBs6P4c.s 			page 107


 2413              		.section	.debug_info,"",%progbits
 2414              	.Ldebug_info0:
 2415 0000 8F120000 		.4byte	0x128f
 2416 0004 0400     		.2byte	0x4
 2417 0006 00000000 		.4byte	.Ldebug_abbrev0
 2418 000a 04       		.byte	0x4
 2419 000b 01       		.uleb128 0x1
 2420 000c 1A060000 		.4byte	.LASF149
 2421 0010 01       		.byte	0x1
 2422 0011 0C070000 		.4byte	.LASF150
 2423 0015 EB010000 		.4byte	.LASF151
 2424 0019 98000000 		.4byte	.Ldebug_ranges0+0x98
 2425 001d 00000000 		.4byte	0
 2426 0021 00000000 		.4byte	.Ldebug_line0
 2427 0025 02       		.uleb128 0x2
 2428 0026 04       		.byte	0x4
 2429 0027 05       		.byte	0x5
 2430 0028 696E7400 		.ascii	"int\000"
 2431 002c 03       		.uleb128 0x3
 2432 002d 12000000 		.4byte	.LASF2
 2433 0031 06       		.byte	0x6
 2434 0032 D4       		.byte	0xd4
 2435 0033 37000000 		.4byte	0x37
 2436 0037 04       		.uleb128 0x4
 2437 0038 04       		.byte	0x4
 2438 0039 07       		.byte	0x7
 2439 003a 85020000 		.4byte	.LASF0
 2440 003e 04       		.uleb128 0x4
 2441 003f 01       		.byte	0x1
 2442 0040 06       		.byte	0x6
 2443 0041 15010000 		.4byte	.LASF1
 2444 0045 03       		.uleb128 0x3
 2445 0046 E9060000 		.4byte	.LASF3
 2446 004a 07       		.byte	0x7
 2447 004b 2A       		.byte	0x2a
 2448 004c 50000000 		.4byte	0x50
 2449 0050 04       		.uleb128 0x4
 2450 0051 01       		.byte	0x1
 2451 0052 08       		.byte	0x8
 2452 0053 34040000 		.4byte	.LASF4
 2453 0057 04       		.uleb128 0x4
 2454 0058 02       		.byte	0x2
 2455 0059 05       		.byte	0x5
 2456 005a 4A040000 		.4byte	.LASF5
 2457 005e 03       		.uleb128 0x3
 2458 005f A3010000 		.4byte	.LASF6
 2459 0063 07       		.byte	0x7
 2460 0064 36       		.byte	0x36
 2461 0065 69000000 		.4byte	0x69
 2462 0069 04       		.uleb128 0x4
 2463 006a 02       		.byte	0x2
 2464 006b 07       		.byte	0x7
 2465 006c B1050000 		.4byte	.LASF7
 2466 0070 03       		.uleb128 0x3
 2467 0071 2C040000 		.4byte	.LASF8
 2468 0075 07       		.byte	0x7
 2469 0076 4F       		.byte	0x4f
ARM GAS  /tmp/ccBs6P4c.s 			page 108


 2470 0077 7B000000 		.4byte	0x7b
 2471 007b 04       		.uleb128 0x4
 2472 007c 04       		.byte	0x4
 2473 007d 05       		.byte	0x5
 2474 007e 60010000 		.4byte	.LASF9
 2475 0082 03       		.uleb128 0x3
 2476 0083 DF040000 		.4byte	.LASF10
 2477 0087 07       		.byte	0x7
 2478 0088 50       		.byte	0x50
 2479 0089 8D000000 		.4byte	0x8d
 2480 008d 04       		.uleb128 0x4
 2481 008e 04       		.byte	0x4
 2482 008f 07       		.byte	0x7
 2483 0090 11050000 		.4byte	.LASF11
 2484 0094 04       		.uleb128 0x4
 2485 0095 08       		.byte	0x8
 2486 0096 05       		.byte	0x5
 2487 0097 95010000 		.4byte	.LASF12
 2488 009b 03       		.uleb128 0x3
 2489 009c 2B000000 		.4byte	.LASF13
 2490 00a0 07       		.byte	0x7
 2491 00a1 78       		.byte	0x78
 2492 00a2 A6000000 		.4byte	0xa6
 2493 00a6 04       		.uleb128 0x4
 2494 00a7 08       		.byte	0x8
 2495 00a8 07       		.byte	0x7
 2496 00a9 65000000 		.4byte	.LASF14
 2497 00ad 03       		.uleb128 0x3
 2498 00ae 6A070000 		.4byte	.LASF15
 2499 00b2 08       		.byte	0x8
 2500 00b3 3C       		.byte	0x3c
 2501 00b4 45000000 		.4byte	0x45
 2502 00b8 03       		.uleb128 0x3
 2503 00b9 69010000 		.4byte	.LASF16
 2504 00bd 08       		.byte	0x8
 2505 00be 3D       		.byte	0x3d
 2506 00bf 45000000 		.4byte	0x45
 2507 00c3 03       		.uleb128 0x3
 2508 00c4 F1030000 		.4byte	.LASF17
 2509 00c8 08       		.byte	0x8
 2510 00c9 3E       		.byte	0x3e
 2511 00ca 45000000 		.4byte	0x45
 2512 00ce 03       		.uleb128 0x3
 2513 00cf 0E040000 		.4byte	.LASF18
 2514 00d3 08       		.byte	0x8
 2515 00d4 40       		.byte	0x40
 2516 00d5 82000000 		.4byte	0x82
 2517 00d9 03       		.uleb128 0x3
 2518 00da DE020000 		.4byte	.LASF19
 2519 00de 08       		.byte	0x8
 2520 00df 41       		.byte	0x41
 2521 00e0 70000000 		.4byte	0x70
 2522 00e4 03       		.uleb128 0x3
 2523 00e5 1E030000 		.4byte	.LASF20
 2524 00e9 08       		.byte	0x8
 2525 00ea 43       		.byte	0x43
 2526 00eb 82000000 		.4byte	0x82
ARM GAS  /tmp/ccBs6P4c.s 			page 109


 2527 00ef 03       		.uleb128 0x3
 2528 00f0 6C020000 		.4byte	.LASF21
 2529 00f4 08       		.byte	0x8
 2530 00f5 45       		.byte	0x45
 2531 00f6 70000000 		.4byte	0x70
 2532 00fa 03       		.uleb128 0x3
 2533 00fb 75050000 		.4byte	.LASF22
 2534 00ff 09       		.byte	0x9
 2535 0100 35       		.byte	0x35
 2536 0101 5E000000 		.4byte	0x5e
 2537 0105 03       		.uleb128 0x3
 2538 0106 4F050000 		.4byte	.LASF23
 2539 010a 09       		.byte	0x9
 2540 010b 3F       		.byte	0x3f
 2541 010c 10010000 		.4byte	0x110
 2542 0110 05       		.uleb128 0x5
 2543 0111 C9020000 		.4byte	.LASF41
 2544 0115 44       		.byte	0x44
 2545 0116 0A       		.byte	0xa
 2546 0117 9A       		.byte	0x9a
 2547 0118 EE010000 		.4byte	0x1ee
 2548 011c 06       		.uleb128 0x6
 2549 011d B8020000 		.4byte	.LASF24
 2550 0121 0A       		.byte	0xa
 2551 0122 9B       		.byte	0x9b
 2552 0123 23020000 		.4byte	0x223
 2553 0127 00       		.byte	0
 2554 0128 06       		.uleb128 0x6
 2555 0129 CA030000 		.4byte	.LASF25
 2556 012d 0A       		.byte	0xa
 2557 012e 9C       		.byte	0x9c
 2558 012f CE000000 		.4byte	0xce
 2559 0133 08       		.byte	0x8
 2560 0134 07       		.uleb128 0x7
 2561 0135 63747800 		.ascii	"ctx\000"
 2562 0139 0A       		.byte	0xa
 2563 013a 9D       		.byte	0x9d
 2564 013b 34040000 		.4byte	0x434
 2565 013f 0C       		.byte	0xc
 2566 0140 06       		.uleb128 0x6
 2567 0141 FF050000 		.4byte	.LASF26
 2568 0145 0A       		.byte	0xa
 2569 0146 9F       		.byte	0x9f
 2570 0147 F9010000 		.4byte	0x1f9
 2571 014b 10       		.byte	0x10
 2572 014c 06       		.uleb128 0x6
 2573 014d 34050000 		.4byte	.LASF27
 2574 0151 0A       		.byte	0xa
 2575 0152 A0       		.byte	0xa0
 2576 0153 F9010000 		.4byte	0x1f9
 2577 0157 14       		.byte	0x14
 2578 0158 06       		.uleb128 0x6
 2579 0159 B3020000 		.4byte	.LASF28
 2580 015d 0A       		.byte	0xa
 2581 015e A7       		.byte	0xa7
 2582 015f BB060000 		.4byte	0x6bb
 2583 0163 18       		.byte	0x18
ARM GAS  /tmp/ccBs6P4c.s 			page 110


 2584 0164 06       		.uleb128 0x6
 2585 0165 23050000 		.4byte	.LASF29
 2586 0169 0A       		.byte	0xa
 2587 016a B0       		.byte	0xb0
 2588 016b CD060000 		.4byte	0x6cd
 2589 016f 1C       		.byte	0x1c
 2590 0170 06       		.uleb128 0x6
 2591 0171 5A010000 		.4byte	.LASF30
 2592 0175 0A       		.byte	0xa
 2593 0176 B5       		.byte	0xb5
 2594 0177 B8000000 		.4byte	0xb8
 2595 017b 20       		.byte	0x20
 2596 017c 06       		.uleb128 0x6
 2597 017d 06070000 		.4byte	.LASF31
 2598 0181 0A       		.byte	0xa
 2599 0182 B9       		.byte	0xb9
 2600 0183 AD000000 		.4byte	0xad
 2601 0187 21       		.byte	0x21
 2602 0188 06       		.uleb128 0x6
 2603 0189 F9030000 		.4byte	.LASF32
 2604 018d 0A       		.byte	0xa
 2605 018e BE       		.byte	0xbe
 2606 018f C3000000 		.4byte	0xc3
 2607 0193 22       		.byte	0x22
 2608 0194 08       		.uleb128 0x8
 2609 0195 7500     		.ascii	"u\000"
 2610 0197 0A       		.byte	0xa
 2611 0198 0F01     		.2byte	0x10f
 2612 019a F0050000 		.4byte	0x5f0
 2613 019e 24       		.byte	0x24
 2614 019f 09       		.uleb128 0x9
 2615 01a0 D7010000 		.4byte	.LASF33
 2616 01a4 0A       		.byte	0xa
 2617 01a5 1401     		.2byte	0x114
 2618 01a7 FF010000 		.4byte	0x1ff
 2619 01ab 28       		.byte	0x28
 2620 01ac 09       		.uleb128 0x9
 2621 01ad 51010000 		.4byte	.LASF34
 2622 01b1 0A       		.byte	0xa
 2623 01b2 1A01     		.2byte	0x11a
 2624 01b4 23020000 		.4byte	0x223
 2625 01b8 2C       		.byte	0x2c
 2626 01b9 09       		.uleb128 0x9
 2627 01ba E4020000 		.4byte	.LASF35
 2628 01be 0A       		.byte	0xa
 2629 01bf 2001     		.2byte	0x120
 2630 01c1 E4000000 		.4byte	0xe4
 2631 01c5 34       		.byte	0x34
 2632 01c6 09       		.uleb128 0x9
 2633 01c7 84070000 		.4byte	.LASF36
 2634 01cb 0A       		.byte	0xa
 2635 01cc 2701     		.2byte	0x127
 2636 01ce B5060000 		.4byte	0x6b5
 2637 01d2 38       		.byte	0x38
 2638 01d3 09       		.uleb128 0x9
 2639 01d4 56030000 		.4byte	.LASF37
 2640 01d8 0A       		.byte	0xa
ARM GAS  /tmp/ccBs6P4c.s 			page 111


 2641 01d9 2B01     		.2byte	0x12b
 2642 01db CE000000 		.4byte	0xce
 2643 01df 3C       		.byte	0x3c
 2644 01e0 09       		.uleb128 0x9
 2645 01e1 BE020000 		.4byte	.LASF38
 2646 01e5 0A       		.byte	0xa
 2647 01e6 3201     		.2byte	0x132
 2648 01e8 D6020000 		.4byte	0x2d6
 2649 01ec 40       		.byte	0x40
 2650 01ed 00       		.byte	0
 2651 01ee 03       		.uleb128 0x3
 2652 01ef 68030000 		.4byte	.LASF39
 2653 01f3 09       		.byte	0x9
 2654 01f4 44       		.byte	0x44
 2655 01f5 F9010000 		.4byte	0x1f9
 2656 01f9 0A       		.uleb128 0xa
 2657 01fa 04       		.byte	0x4
 2658 01fb 05010000 		.4byte	0x105
 2659 01ff 03       		.uleb128 0x3
 2660 0200 49070000 		.4byte	.LASF40
 2661 0204 09       		.byte	0x9
 2662 0205 49       		.byte	0x49
 2663 0206 0A020000 		.4byte	0x20a
 2664 020a 05       		.uleb128 0x5
 2665 020b FB040000 		.4byte	.LASF42
 2666 020f 04       		.byte	0x4
 2667 0210 0A       		.byte	0xa
 2668 0211 88       		.byte	0x88
 2669 0212 23020000 		.4byte	0x223
 2670 0216 06       		.uleb128 0x6
 2671 0217 19000000 		.4byte	.LASF43
 2672 021b 0A       		.byte	0xa
 2673 021c 89       		.byte	0x89
 2674 021d F9010000 		.4byte	0x1f9
 2675 0221 00       		.byte	0
 2676 0222 00       		.byte	0
 2677 0223 03       		.uleb128 0x3
 2678 0224 BD060000 		.4byte	.LASF44
 2679 0228 09       		.byte	0x9
 2680 0229 50       		.byte	0x50
 2681 022a 2E020000 		.4byte	0x22e
 2682 022e 05       		.uleb128 0x5
 2683 022f DC000000 		.4byte	.LASF45
 2684 0233 08       		.byte	0x8
 2685 0234 0A       		.byte	0xa
 2686 0235 8F       		.byte	0x8f
 2687 0236 53020000 		.4byte	0x253
 2688 023a 06       		.uleb128 0x6
 2689 023b 19000000 		.4byte	.LASF43
 2690 023f 0A       		.byte	0xa
 2691 0240 90       		.byte	0x90
 2692 0241 F9010000 		.4byte	0x1f9
 2693 0245 00       		.byte	0
 2694 0246 06       		.uleb128 0x6
 2695 0247 34000000 		.4byte	.LASF46
 2696 024b 0A       		.byte	0xa
 2697 024c 91       		.byte	0x91
ARM GAS  /tmp/ccBs6P4c.s 			page 112


 2698 024d F9010000 		.4byte	0x1f9
 2699 0251 04       		.byte	0x4
 2700 0252 00       		.byte	0
 2701 0253 03       		.uleb128 0x3
 2702 0254 00000000 		.4byte	.LASF47
 2703 0258 09       		.byte	0x9
 2704 0259 57       		.byte	0x57
 2705 025a 5E020000 		.4byte	0x25e
 2706 025e 0B       		.uleb128 0xb
 2707 025f 10030000 		.4byte	.LASF48
 2708 0263 1C       		.byte	0x1c
 2709 0264 0A       		.byte	0xa
 2710 0265 6A01     		.2byte	0x16a
 2711 0267 BA020000 		.4byte	0x2ba
 2712 026b 09       		.uleb128 0x9
 2713 026c B8020000 		.4byte	.LASF24
 2714 0270 0A       		.byte	0xa
 2715 0271 6B01     		.2byte	0x16b
 2716 0273 23020000 		.4byte	0x223
 2717 0277 00       		.byte	0
 2718 0278 09       		.uleb128 0x9
 2719 0279 CA030000 		.4byte	.LASF25
 2720 027d 0A       		.byte	0xa
 2721 027e 6C01     		.2byte	0x16c
 2722 0280 CE000000 		.4byte	0xce
 2723 0284 08       		.byte	0x8
 2724 0285 08       		.uleb128 0x8
 2725 0286 63747800 		.ascii	"ctx\000"
 2726 028a 0A       		.byte	0xa
 2727 028b 6E01     		.2byte	0x16e
 2728 028d 34040000 		.4byte	0x434
 2729 0291 0C       		.byte	0xc
 2730 0292 09       		.uleb128 0x9
 2731 0293 FF050000 		.4byte	.LASF26
 2732 0297 0A       		.byte	0xa
 2733 0298 7101     		.2byte	0x171
 2734 029a F9010000 		.4byte	0x1f9
 2735 029e 10       		.byte	0x10
 2736 029f 09       		.uleb128 0x9
 2737 02a0 34050000 		.4byte	.LASF27
 2738 02a4 0A       		.byte	0xa
 2739 02a5 7201     		.2byte	0x172
 2740 02a7 F9010000 		.4byte	0x1f9
 2741 02ab 14       		.byte	0x14
 2742 02ac 09       		.uleb128 0x9
 2743 02ad CF030000 		.4byte	.LASF49
 2744 02b1 0A       		.byte	0xa
 2745 02b2 7501     		.2byte	0x175
 2746 02b4 F9010000 		.4byte	0x1f9
 2747 02b8 18       		.byte	0x18
 2748 02b9 00       		.byte	0
 2749 02ba 03       		.uleb128 0x3
 2750 02bb 7F050000 		.4byte	.LASF50
 2751 02bf 09       		.byte	0x9
 2752 02c0 5C       		.byte	0x5c
 2753 02c1 C5020000 		.4byte	0x2c5
 2754 02c5 0A       		.uleb128 0xa
ARM GAS  /tmp/ccBs6P4c.s 			page 113


 2755 02c6 04       		.byte	0x4
 2756 02c7 CB020000 		.4byte	0x2cb
 2757 02cb 0C       		.uleb128 0xc
 2758 02cc D6020000 		.4byte	0x2d6
 2759 02d0 0D       		.uleb128 0xd
 2760 02d1 D6020000 		.4byte	0x2d6
 2761 02d5 00       		.byte	0
 2762 02d6 0E       		.uleb128 0xe
 2763 02d7 04       		.byte	0x4
 2764 02d8 03       		.uleb128 0x3
 2765 02d9 FE030000 		.4byte	.LASF51
 2766 02dd 09       		.byte	0x9
 2767 02de 61       		.byte	0x61
 2768 02df E3020000 		.4byte	0x2e3
 2769 02e3 0B       		.uleb128 0xb
 2770 02e4 9E040000 		.4byte	.LASF52
 2771 02e8 14       		.byte	0x14
 2772 02e9 0A       		.byte	0xa
 2773 02ea 4501     		.2byte	0x145
 2774 02ec 32030000 		.4byte	0x332
 2775 02f0 09       		.uleb128 0x9
 2776 02f1 19000000 		.4byte	.LASF43
 2777 02f5 0A       		.byte	0xa
 2778 02f6 4601     		.2byte	0x146
 2779 02f8 D3060000 		.4byte	0x6d3
 2780 02fc 00       		.byte	0
 2781 02fd 09       		.uleb128 0x9
 2782 02fe 34000000 		.4byte	.LASF46
 2783 0302 0A       		.byte	0xa
 2784 0303 4701     		.2byte	0x147
 2785 0305 D3060000 		.4byte	0x6d3
 2786 0309 04       		.byte	0x4
 2787 030a 09       		.uleb128 0x9
 2788 030b 1E000000 		.4byte	.LASF53
 2789 030f 0A       		.byte	0xa
 2790 0310 4801     		.2byte	0x148
 2791 0312 FA000000 		.4byte	0xfa
 2792 0316 08       		.byte	0x8
 2793 0317 09       		.uleb128 0x9
 2794 0318 8B010000 		.4byte	.LASF54
 2795 031c 0A       		.byte	0xa
 2796 031d 4901     		.2byte	0x149
 2797 031f BA020000 		.4byte	0x2ba
 2798 0323 0C       		.byte	0xc
 2799 0324 08       		.uleb128 0x8
 2800 0325 70617200 		.ascii	"par\000"
 2801 0329 0A       		.byte	0xa
 2802 032a 4B01     		.2byte	0x14b
 2803 032c D6020000 		.4byte	0x2d6
 2804 0330 10       		.byte	0x10
 2805 0331 00       		.byte	0
 2806 0332 03       		.uleb128 0x3
 2807 0333 B4000000 		.4byte	.LASF55
 2808 0337 09       		.byte	0x9
 2809 0338 66       		.byte	0x66
 2810 0339 3D030000 		.4byte	0x33d
 2811 033d 0B       		.uleb128 0xb
ARM GAS  /tmp/ccBs6P4c.s 			page 114


 2812 033e 7B030000 		.4byte	.LASF56
 2813 0342 0C       		.byte	0xc
 2814 0343 0A       		.byte	0xa
 2815 0344 5501     		.2byte	0x155
 2816 0346 7F030000 		.4byte	0x37f
 2817 034a 09       		.uleb128 0x9
 2818 034b 19000000 		.4byte	.LASF43
 2819 034f 0A       		.byte	0xa
 2820 0350 5601     		.2byte	0x156
 2821 0352 D3060000 		.4byte	0x6d3
 2822 0356 00       		.byte	0
 2823 0357 09       		.uleb128 0x9
 2824 0358 34000000 		.4byte	.LASF46
 2825 035c 0A       		.byte	0xa
 2826 035d 5801     		.2byte	0x158
 2827 035f D3060000 		.4byte	0x6d3
 2828 0363 04       		.byte	0x4
 2829 0364 09       		.uleb128 0x9
 2830 0365 1E000000 		.4byte	.LASF53
 2831 0369 0A       		.byte	0xa
 2832 036a 5A01     		.2byte	0x15a
 2833 036c FA000000 		.4byte	0xfa
 2834 0370 08       		.byte	0x8
 2835 0371 09       		.uleb128 0x9
 2836 0372 54040000 		.4byte	.LASF57
 2837 0376 0A       		.byte	0xa
 2838 0377 6201     		.2byte	0x162
 2839 0379 FA000000 		.4byte	0xfa
 2840 037d 0A       		.byte	0xa
 2841 037e 00       		.byte	0
 2842 037f 03       		.uleb128 0x3
 2843 0380 45000000 		.4byte	.LASF58
 2844 0384 09       		.byte	0x9
 2845 0385 6B       		.byte	0x6b
 2846 0386 8A030000 		.4byte	0x38a
 2847 038a 0B       		.uleb128 0xb
 2848 038b 16040000 		.4byte	.LASF59
 2849 038f 04       		.byte	0x4
 2850 0390 0A       		.byte	0xa
 2851 0391 7C01     		.2byte	0x17c
 2852 0393 A5030000 		.4byte	0x3a5
 2853 0397 09       		.uleb128 0x9
 2854 0398 96050000 		.4byte	.LASF60
 2855 039c 0A       		.byte	0xa
 2856 039d 8401     		.2byte	0x184
 2857 039f D9060000 		.4byte	0x6d9
 2858 03a3 00       		.byte	0
 2859 03a4 00       		.byte	0
 2860 03a5 03       		.uleb128 0x3
 2861 03a6 ED020000 		.4byte	.LASF61
 2862 03aa 09       		.byte	0x9
 2863 03ab 70       		.byte	0x70
 2864 03ac B0030000 		.4byte	0x3b0
 2865 03b0 0B       		.uleb128 0xb
 2866 03b1 64040000 		.4byte	.LASF62
 2867 03b5 70       		.byte	0x70
 2868 03b6 0A       		.byte	0xa
ARM GAS  /tmp/ccBs6P4c.s 			page 115


 2869 03b7 9C01     		.2byte	0x19c
 2870 03b9 F2030000 		.4byte	0x3f2
 2871 03bd 09       		.uleb128 0x9
 2872 03be E3060000 		.4byte	.LASF63
 2873 03c2 0A       		.byte	0xa
 2874 03c3 A001     		.2byte	0x1a0
 2875 03c5 53020000 		.4byte	0x253
 2876 03c9 00       		.byte	0
 2877 03ca 09       		.uleb128 0x9
 2878 03cb 3E010000 		.4byte	.LASF64
 2879 03cf 0A       		.byte	0xa
 2880 03d0 A401     		.2byte	0x1a4
 2881 03d2 32030000 		.4byte	0x332
 2882 03d6 1C       		.byte	0x1c
 2883 03d7 08       		.uleb128 0x8
 2884 03d8 64626700 		.ascii	"dbg\000"
 2885 03dc 0A       		.byte	0xa
 2886 03dd A801     		.2byte	0x1a8
 2887 03df 7F030000 		.4byte	0x37f
 2888 03e3 28       		.byte	0x28
 2889 03e4 09       		.uleb128 0x9
 2890 03e5 D3020000 		.4byte	.LASF65
 2891 03e9 0A       		.byte	0xa
 2892 03ea AC01     		.2byte	0x1ac
 2893 03ec 05010000 		.4byte	0x105
 2894 03f0 2C       		.byte	0x2c
 2895 03f1 00       		.byte	0
 2896 03f2 04       		.uleb128 0x4
 2897 03f3 04       		.byte	0x4
 2898 03f4 07       		.byte	0x7
 2899 03f5 5F030000 		.4byte	.LASF66
 2900 03f9 0F       		.uleb128 0xf
 2901 03fa 82000000 		.4byte	0x82
 2902 03fe 10       		.uleb128 0x10
 2903 03ff 82000000 		.4byte	0x82
 2904 0403 0E040000 		.4byte	0x40e
 2905 0407 11       		.uleb128 0x11
 2906 0408 F2030000 		.4byte	0x3f2
 2907 040c 01       		.byte	0x1
 2908 040d 00       		.byte	0
 2909 040e 10       		.uleb128 0x10
 2910 040f 82000000 		.4byte	0x82
 2911 0413 1E040000 		.4byte	0x41e
 2912 0417 11       		.uleb128 0x11
 2913 0418 F2030000 		.4byte	0x3f2
 2914 041c 03       		.byte	0x3
 2915 041d 00       		.byte	0
 2916 041e 03       		.uleb128 0x3
 2917 041f B9010000 		.4byte	.LASF67
 2918 0423 0B       		.byte	0xb
 2919 0424 65       		.byte	0x65
 2920 0425 D6020000 		.4byte	0x2d6
 2921 0429 03       		.uleb128 0x3
 2922 042a 2F030000 		.4byte	.LASF68
 2923 042e 0B       		.byte	0xb
 2924 042f 6D       		.byte	0x6d
 2925 0430 9B000000 		.4byte	0x9b
ARM GAS  /tmp/ccBs6P4c.s 			page 116


 2926 0434 05       		.uleb128 0x5
 2927 0435 9C030000 		.4byte	.LASF69
 2928 0439 04       		.byte	0x4
 2929 043a 0B       		.byte	0xb
 2930 043b 89       		.byte	0x89
 2931 043c 4C040000 		.4byte	0x44c
 2932 0440 07       		.uleb128 0x7
 2933 0441 737000   		.ascii	"sp\000"
 2934 0444 0B       		.byte	0xb
 2935 0445 8A       		.byte	0x8a
 2936 0446 C8040000 		.4byte	0x4c8
 2937 044a 00       		.byte	0
 2938 044b 00       		.byte	0
 2939 044c 0B       		.uleb128 0xb
 2940 044d 39000000 		.4byte	.LASF70
 2941 0451 24       		.byte	0x24
 2942 0452 0C       		.byte	0xc
 2943 0453 5901     		.2byte	0x159
 2944 0455 C8040000 		.4byte	0x4c8
 2945 0459 08       		.uleb128 0x8
 2946 045a 723400   		.ascii	"r4\000"
 2947 045d 0C       		.byte	0xc
 2948 045e 6C01     		.2byte	0x16c
 2949 0460 1E040000 		.4byte	0x41e
 2950 0464 00       		.byte	0
 2951 0465 08       		.uleb128 0x8
 2952 0466 723500   		.ascii	"r5\000"
 2953 0469 0C       		.byte	0xc
 2954 046a 6D01     		.2byte	0x16d
 2955 046c 1E040000 		.4byte	0x41e
 2956 0470 04       		.byte	0x4
 2957 0471 08       		.uleb128 0x8
 2958 0472 723600   		.ascii	"r6\000"
 2959 0475 0C       		.byte	0xc
 2960 0476 6E01     		.2byte	0x16e
 2961 0478 1E040000 		.4byte	0x41e
 2962 047c 08       		.byte	0x8
 2963 047d 08       		.uleb128 0x8
 2964 047e 723700   		.ascii	"r7\000"
 2965 0481 0C       		.byte	0xc
 2966 0482 6F01     		.2byte	0x16f
 2967 0484 1E040000 		.4byte	0x41e
 2968 0488 0C       		.byte	0xc
 2969 0489 08       		.uleb128 0x8
 2970 048a 723800   		.ascii	"r8\000"
 2971 048d 0C       		.byte	0xc
 2972 048e 7001     		.2byte	0x170
 2973 0490 1E040000 		.4byte	0x41e
 2974 0494 10       		.byte	0x10
 2975 0495 08       		.uleb128 0x8
 2976 0496 723900   		.ascii	"r9\000"
 2977 0499 0C       		.byte	0xc
 2978 049a 7101     		.2byte	0x171
 2979 049c 1E040000 		.4byte	0x41e
 2980 04a0 14       		.byte	0x14
 2981 04a1 08       		.uleb128 0x8
 2982 04a2 72313000 		.ascii	"r10\000"
ARM GAS  /tmp/ccBs6P4c.s 			page 117


 2983 04a6 0C       		.byte	0xc
 2984 04a7 7201     		.2byte	0x172
 2985 04a9 1E040000 		.4byte	0x41e
 2986 04ad 18       		.byte	0x18
 2987 04ae 08       		.uleb128 0x8
 2988 04af 72313100 		.ascii	"r11\000"
 2989 04b3 0C       		.byte	0xc
 2990 04b4 7301     		.2byte	0x173
 2991 04b6 1E040000 		.4byte	0x41e
 2992 04ba 1C       		.byte	0x1c
 2993 04bb 08       		.uleb128 0x8
 2994 04bc 6C7200   		.ascii	"lr\000"
 2995 04bf 0C       		.byte	0xc
 2996 04c0 7401     		.2byte	0x174
 2997 04c2 1E040000 		.4byte	0x41e
 2998 04c6 20       		.byte	0x20
 2999 04c7 00       		.byte	0
 3000 04c8 0A       		.uleb128 0xa
 3001 04c9 04       		.byte	0x4
 3002 04ca 4C040000 		.4byte	0x44c
 3003 04ce 12       		.uleb128 0x12
 3004 04cf 60       		.byte	0x60
 3005 04d0 0D       		.byte	0xd
 3006 04d1 A101     		.2byte	0x1a1
 3007 04d3 DA050000 		.4byte	0x5da
 3008 04d7 08       		.uleb128 0x8
 3009 04d8 43523100 		.ascii	"CR1\000"
 3010 04dc 0D       		.byte	0xd
 3011 04dd A201     		.2byte	0x1a2
 3012 04df F9030000 		.4byte	0x3f9
 3013 04e3 00       		.byte	0
 3014 04e4 08       		.uleb128 0x8
 3015 04e5 43523200 		.ascii	"CR2\000"
 3016 04e9 0D       		.byte	0xd
 3017 04ea A301     		.2byte	0x1a3
 3018 04ec F9030000 		.4byte	0x3f9
 3019 04f0 04       		.byte	0x4
 3020 04f1 09       		.uleb128 0x9
 3021 04f2 C4020000 		.4byte	.LASF71
 3022 04f6 0D       		.byte	0xd
 3023 04f7 A401     		.2byte	0x1a4
 3024 04f9 F9030000 		.4byte	0x3f9
 3025 04fd 08       		.byte	0x8
 3026 04fe 09       		.uleb128 0x9
 3027 04ff 0D000000 		.4byte	.LASF72
 3028 0503 0D       		.byte	0xd
 3029 0504 A501     		.2byte	0x1a5
 3030 0506 F9030000 		.4byte	0x3f9
 3031 050a 0C       		.byte	0xc
 3032 050b 08       		.uleb128 0x8
 3033 050c 535200   		.ascii	"SR\000"
 3034 050f 0D       		.byte	0xd
 3035 0510 A601     		.2byte	0x1a6
 3036 0512 F9030000 		.4byte	0x3f9
 3037 0516 10       		.byte	0x10
 3038 0517 08       		.uleb128 0x8
 3039 0518 45475200 		.ascii	"EGR\000"
ARM GAS  /tmp/ccBs6P4c.s 			page 118


 3040 051c 0D       		.byte	0xd
 3041 051d A701     		.2byte	0x1a7
 3042 051f F9030000 		.4byte	0x3f9
 3043 0523 14       		.byte	0x14
 3044 0524 09       		.uleb128 0x9
 3045 0525 03010000 		.4byte	.LASF73
 3046 0529 0D       		.byte	0xd
 3047 052a A801     		.2byte	0x1a8
 3048 052c F9030000 		.4byte	0x3f9
 3049 0530 18       		.byte	0x18
 3050 0531 09       		.uleb128 0x9
 3051 0532 09010000 		.4byte	.LASF74
 3052 0536 0D       		.byte	0xd
 3053 0537 A901     		.2byte	0x1a9
 3054 0539 F9030000 		.4byte	0x3f9
 3055 053d 1C       		.byte	0x1c
 3056 053e 09       		.uleb128 0x9
 3057 053f 90010000 		.4byte	.LASF75
 3058 0543 0D       		.byte	0xd
 3059 0544 AA01     		.2byte	0x1aa
 3060 0546 F9030000 		.4byte	0x3f9
 3061 054a 20       		.byte	0x20
 3062 054b 08       		.uleb128 0x8
 3063 054c 434E5400 		.ascii	"CNT\000"
 3064 0550 0D       		.byte	0xd
 3065 0551 AB01     		.2byte	0x1ab
 3066 0553 F9030000 		.4byte	0x3f9
 3067 0557 24       		.byte	0x24
 3068 0558 08       		.uleb128 0x8
 3069 0559 50534300 		.ascii	"PSC\000"
 3070 055d 0D       		.byte	0xd
 3071 055e AC01     		.2byte	0x1ac
 3072 0560 F9030000 		.4byte	0x3f9
 3073 0564 28       		.byte	0x28
 3074 0565 08       		.uleb128 0x8
 3075 0566 41525200 		.ascii	"ARR\000"
 3076 056a 0D       		.byte	0xd
 3077 056b AD01     		.2byte	0x1ad
 3078 056d F9030000 		.4byte	0x3f9
 3079 0571 2C       		.byte	0x2c
 3080 0572 08       		.uleb128 0x8
 3081 0573 52435200 		.ascii	"RCR\000"
 3082 0577 0D       		.byte	0xd
 3083 0578 AE01     		.2byte	0x1ae
 3084 057a F9030000 		.4byte	0x3f9
 3085 057e 30       		.byte	0x30
 3086 057f 08       		.uleb128 0x8
 3087 0580 43435200 		.ascii	"CCR\000"
 3088 0584 0D       		.byte	0xd
 3089 0585 AF01     		.2byte	0x1af
 3090 0587 DA050000 		.4byte	0x5da
 3091 058b 34       		.byte	0x34
 3092 058c 09       		.uleb128 0x9
 3093 058d D7000000 		.4byte	.LASF76
 3094 0591 0D       		.byte	0xd
 3095 0592 B001     		.2byte	0x1b0
 3096 0594 F9030000 		.4byte	0x3f9
ARM GAS  /tmp/ccBs6P4c.s 			page 119


 3097 0598 44       		.byte	0x44
 3098 0599 08       		.uleb128 0x8
 3099 059a 44435200 		.ascii	"DCR\000"
 3100 059e 0D       		.byte	0xd
 3101 059f B101     		.2byte	0x1b1
 3102 05a1 F9030000 		.4byte	0x3f9
 3103 05a5 48       		.byte	0x48
 3104 05a6 09       		.uleb128 0x9
 3105 05a7 4A050000 		.4byte	.LASF77
 3106 05ab 0D       		.byte	0xd
 3107 05ac B201     		.2byte	0x1b2
 3108 05ae F9030000 		.4byte	0x3f9
 3109 05b2 4C       		.byte	0x4c
 3110 05b3 08       		.uleb128 0x8
 3111 05b4 4F5200   		.ascii	"OR\000"
 3112 05b7 0D       		.byte	0xd
 3113 05b8 B301     		.2byte	0x1b3
 3114 05ba F9030000 		.4byte	0x3f9
 3115 05be 50       		.byte	0x50
 3116 05bf 09       		.uleb128 0x9
 3117 05c0 0F010000 		.4byte	.LASF78
 3118 05c4 0D       		.byte	0xd
 3119 05c5 B401     		.2byte	0x1b4
 3120 05c7 F9030000 		.4byte	0x3f9
 3121 05cb 54       		.byte	0x54
 3122 05cc 09       		.uleb128 0x9
 3123 05cd BC040000 		.4byte	.LASF79
 3124 05d1 0D       		.byte	0xd
 3125 05d2 B501     		.2byte	0x1b5
 3126 05d4 DF050000 		.4byte	0x5df
 3127 05d8 58       		.byte	0x58
 3128 05d9 00       		.byte	0
 3129 05da 0F       		.uleb128 0xf
 3130 05db 0E040000 		.4byte	0x40e
 3131 05df 0F       		.uleb128 0xf
 3132 05e0 FE030000 		.4byte	0x3fe
 3133 05e4 13       		.uleb128 0x13
 3134 05e5 04030000 		.4byte	.LASF80
 3135 05e9 0D       		.byte	0xd
 3136 05ea B601     		.2byte	0x1b6
 3137 05ec CE040000 		.4byte	0x4ce
 3138 05f0 14       		.uleb128 0x14
 3139 05f1 04       		.byte	0x4
 3140 05f2 0A       		.byte	0xa
 3141 05f3 D2       		.byte	0xd2
 3142 05f4 53060000 		.4byte	0x653
 3143 05f8 15       		.uleb128 0x15
 3144 05f9 24000000 		.4byte	.LASF81
 3145 05fd 0A       		.byte	0xa
 3146 05fe D9       		.byte	0xd9
 3147 05ff D9000000 		.4byte	0xd9
 3148 0603 15       		.uleb128 0x15
 3149 0604 90000000 		.4byte	.LASF82
 3150 0608 0A       		.byte	0xa
 3151 0609 E0       		.byte	0xe0
 3152 060a D9000000 		.4byte	0xd9
 3153 060e 15       		.uleb128 0x15
ARM GAS  /tmp/ccBs6P4c.s 			page 120


 3154 060f 35070000 		.4byte	.LASF83
 3155 0613 0A       		.byte	0xa
 3156 0614 E7       		.byte	0xe7
 3157 0615 D6020000 		.4byte	0x2d6
 3158 0619 15       		.uleb128 0x15
 3159 061a A4020000 		.4byte	.LASF84
 3160 061e 0A       		.byte	0xa
 3161 061f EE       		.byte	0xee
 3162 0620 53060000 		.4byte	0x653
 3163 0624 15       		.uleb128 0x15
 3164 0625 AC000000 		.4byte	.LASF85
 3165 0629 0A       		.byte	0xa
 3166 062a F3       		.byte	0xf3
 3167 062b D9000000 		.4byte	0xd9
 3168 062f 15       		.uleb128 0x15
 3169 0630 92020000 		.4byte	.LASF86
 3170 0634 0A       		.byte	0xa
 3171 0635 FC       		.byte	0xfc
 3172 0636 7E060000 		.4byte	0x67e
 3173 063a 16       		.uleb128 0x16
 3174 063b E8040000 		.4byte	.LASF87
 3175 063f 0A       		.byte	0xa
 3176 0640 0501     		.2byte	0x105
 3177 0642 B5060000 		.4byte	0x6b5
 3178 0646 16       		.uleb128 0x16
 3179 0647 5D040000 		.4byte	.LASF88
 3180 064b 0A       		.byte	0xa
 3181 064c 0D01     		.2byte	0x10d
 3182 064e E4000000 		.4byte	0xe4
 3183 0652 00       		.byte	0
 3184 0653 0A       		.uleb128 0xa
 3185 0654 04       		.byte	0x4
 3186 0655 EE010000 		.4byte	0x1ee
 3187 0659 05       		.uleb128 0x5
 3188 065a AF040000 		.4byte	.LASF89
 3189 065e 0C       		.byte	0xc
 3190 065f 0E       		.byte	0xe
 3191 0660 34       		.byte	0x34
 3192 0661 7E060000 		.4byte	0x67e
 3193 0665 06       		.uleb128 0x6
 3194 0666 B8020000 		.4byte	.LASF24
 3195 066a 0E       		.byte	0xe
 3196 066b 35       		.byte	0x35
 3197 066c 23020000 		.4byte	0x223
 3198 0670 00       		.byte	0
 3199 0671 07       		.uleb128 0x7
 3200 0672 636E7400 		.ascii	"cnt\000"
 3201 0676 0E       		.byte	0xe
 3202 0677 37       		.byte	0x37
 3203 0678 EF000000 		.4byte	0xef
 3204 067c 08       		.byte	0x8
 3205 067d 00       		.byte	0
 3206 067e 0A       		.uleb128 0xa
 3207 067f 04       		.byte	0x4
 3208 0680 59060000 		.4byte	0x659
 3209 0684 05       		.uleb128 0x5
 3210 0685 CD060000 		.4byte	.LASF90
ARM GAS  /tmp/ccBs6P4c.s 			page 121


 3211 0689 10       		.byte	0x10
 3212 068a 0F       		.byte	0xf
 3213 068b 39       		.byte	0x39
 3214 068c B5060000 		.4byte	0x6b5
 3215 0690 06       		.uleb128 0x6
 3216 0691 B8020000 		.4byte	.LASF24
 3217 0695 0F       		.byte	0xf
 3218 0696 3A       		.byte	0x3a
 3219 0697 23020000 		.4byte	0x223
 3220 069b 00       		.byte	0
 3221 069c 06       		.uleb128 0x6
 3222 069d 0B050000 		.4byte	.LASF91
 3223 06a1 0F       		.byte	0xf
 3224 06a2 3C       		.byte	0x3c
 3225 06a3 F9010000 		.4byte	0x1f9
 3226 06a7 08       		.byte	0x8
 3227 06a8 06       		.uleb128 0x6
 3228 06a9 19000000 		.4byte	.LASF43
 3229 06ad 0F       		.byte	0xf
 3230 06ae 3E       		.byte	0x3e
 3231 06af E9060000 		.4byte	0x6e9
 3232 06b3 0C       		.byte	0xc
 3233 06b4 00       		.byte	0
 3234 06b5 0A       		.uleb128 0xa
 3235 06b6 04       		.byte	0x4
 3236 06b7 84060000 		.4byte	0x684
 3237 06bb 0A       		.uleb128 0xa
 3238 06bc 04       		.byte	0x4
 3239 06bd C1060000 		.4byte	0x6c1
 3240 06c1 17       		.uleb128 0x17
 3241 06c2 C6060000 		.4byte	0x6c6
 3242 06c6 04       		.uleb128 0x4
 3243 06c7 01       		.byte	0x1
 3244 06c8 08       		.byte	0x8
 3245 06c9 2F050000 		.4byte	.LASF92
 3246 06cd 0A       		.uleb128 0xa
 3247 06ce 04       		.byte	0x4
 3248 06cf 29040000 		.4byte	0x429
 3249 06d3 0A       		.uleb128 0xa
 3250 06d4 04       		.byte	0x4
 3251 06d5 D8020000 		.4byte	0x2d8
 3252 06d9 0F       		.uleb128 0xf
 3253 06da BB060000 		.4byte	0x6bb
 3254 06de 03       		.uleb128 0x3
 3255 06df 49020000 		.4byte	.LASF93
 3256 06e3 0F       		.byte	0xf
 3257 06e4 34       		.byte	0x34
 3258 06e5 84060000 		.4byte	0x684
 3259 06e9 0A       		.uleb128 0xa
 3260 06ea 04       		.byte	0x4
 3261 06eb DE060000 		.4byte	0x6de
 3262 06ef 04       		.uleb128 0x4
 3263 06f0 01       		.byte	0x1
 3264 06f1 02       		.byte	0x2
 3265 06f2 26040000 		.4byte	.LASF94
 3266 06f6 0A       		.uleb128 0xa
 3267 06f7 04       		.byte	0x4
ARM GAS  /tmp/ccBs6P4c.s 			page 122


 3268 06f8 45000000 		.4byte	0x45
 3269 06fc 05       		.uleb128 0x5
 3270 06fd 6E040000 		.4byte	.LASF95
 3271 0701 10       		.byte	0x10
 3272 0702 10       		.byte	0x10
 3273 0703 46       		.byte	0x46
 3274 0704 39070000 		.4byte	0x739
 3275 0708 06       		.uleb128 0x6
 3276 0709 50030000 		.4byte	.LASF96
 3277 070d 10       		.byte	0x10
 3278 070e 47       		.byte	0x47
 3279 070f 5D070000 		.4byte	0x75d
 3280 0713 00       		.byte	0
 3281 0714 06       		.uleb128 0x6
 3282 0715 2A050000 		.4byte	.LASF97
 3283 0719 10       		.byte	0x10
 3284 071a 47       		.byte	0x47
 3285 071b 7C070000 		.4byte	0x77c
 3286 071f 04       		.byte	0x4
 3287 0720 07       		.uleb128 0x7
 3288 0721 70757400 		.ascii	"put\000"
 3289 0725 10       		.byte	0x10
 3290 0726 47       		.byte	0x47
 3291 0727 96070000 		.4byte	0x796
 3292 072b 08       		.byte	0x8
 3293 072c 07       		.uleb128 0x7
 3294 072d 67657400 		.ascii	"get\000"
 3295 0731 10       		.byte	0x10
 3296 0732 47       		.byte	0x47
 3297 0733 AB070000 		.4byte	0x7ab
 3298 0737 0C       		.byte	0xc
 3299 0738 00       		.byte	0
 3300 0739 18       		.uleb128 0x18
 3301 073a 2C000000 		.4byte	0x2c
 3302 073e 52070000 		.4byte	0x752
 3303 0742 0D       		.uleb128 0xd
 3304 0743 D6020000 		.4byte	0x2d6
 3305 0747 0D       		.uleb128 0xd
 3306 0748 52070000 		.4byte	0x752
 3307 074c 0D       		.uleb128 0xd
 3308 074d 2C000000 		.4byte	0x2c
 3309 0751 00       		.byte	0
 3310 0752 0A       		.uleb128 0xa
 3311 0753 04       		.byte	0x4
 3312 0754 58070000 		.4byte	0x758
 3313 0758 17       		.uleb128 0x17
 3314 0759 45000000 		.4byte	0x45
 3315 075d 0A       		.uleb128 0xa
 3316 075e 04       		.byte	0x4
 3317 075f 39070000 		.4byte	0x739
 3318 0763 18       		.uleb128 0x18
 3319 0764 2C000000 		.4byte	0x2c
 3320 0768 7C070000 		.4byte	0x77c
 3321 076c 0D       		.uleb128 0xd
 3322 076d D6020000 		.4byte	0x2d6
 3323 0771 0D       		.uleb128 0xd
 3324 0772 F6060000 		.4byte	0x6f6
ARM GAS  /tmp/ccBs6P4c.s 			page 123


 3325 0776 0D       		.uleb128 0xd
 3326 0777 2C000000 		.4byte	0x2c
 3327 077b 00       		.byte	0
 3328 077c 0A       		.uleb128 0xa
 3329 077d 04       		.byte	0x4
 3330 077e 63070000 		.4byte	0x763
 3331 0782 18       		.uleb128 0x18
 3332 0783 D9000000 		.4byte	0xd9
 3333 0787 96070000 		.4byte	0x796
 3334 078b 0D       		.uleb128 0xd
 3335 078c D6020000 		.4byte	0x2d6
 3336 0790 0D       		.uleb128 0xd
 3337 0791 45000000 		.4byte	0x45
 3338 0795 00       		.byte	0
 3339 0796 0A       		.uleb128 0xa
 3340 0797 04       		.byte	0x4
 3341 0798 82070000 		.4byte	0x782
 3342 079c 18       		.uleb128 0x18
 3343 079d D9000000 		.4byte	0xd9
 3344 07a1 AB070000 		.4byte	0x7ab
 3345 07a5 0D       		.uleb128 0xd
 3346 07a6 D6020000 		.4byte	0x2d6
 3347 07aa 00       		.byte	0
 3348 07ab 0A       		.uleb128 0xa
 3349 07ac 04       		.byte	0x4
 3350 07ad 9C070000 		.4byte	0x79c
 3351 07b1 19       		.uleb128 0x19
 3352 07b2 04       		.byte	0x4
 3353 07b3 10       		.byte	0x10
 3354 07b4 4F       		.byte	0x4f
 3355 07b5 C6070000 		.4byte	0x7c6
 3356 07b9 07       		.uleb128 0x7
 3357 07ba 766D7400 		.ascii	"vmt\000"
 3358 07be 10       		.byte	0x10
 3359 07bf 51       		.byte	0x51
 3360 07c0 C6070000 		.4byte	0x7c6
 3361 07c4 00       		.byte	0
 3362 07c5 00       		.byte	0
 3363 07c6 0A       		.uleb128 0xa
 3364 07c7 04       		.byte	0x4
 3365 07c8 CC070000 		.4byte	0x7cc
 3366 07cc 17       		.uleb128 0x17
 3367 07cd FC060000 		.4byte	0x6fc
 3368 07d1 03       		.uleb128 0x3
 3369 07d2 57020000 		.4byte	.LASF98
 3370 07d6 10       		.byte	0x10
 3371 07d7 53       		.byte	0x53
 3372 07d8 B1070000 		.4byte	0x7b1
 3373 07dc 0A       		.uleb128 0xa
 3374 07dd 04       		.byte	0x4
 3375 07de E2070000 		.4byte	0x7e2
 3376 07e2 1A       		.uleb128 0x1a
 3377 07e3 19       		.uleb128 0x19
 3378 07e4 10       		.byte	0x10
 3379 07e5 11       		.byte	0x11
 3380 07e6 3D       		.byte	0x3d
 3381 07e7 1C080000 		.4byte	0x81c
ARM GAS  /tmp/ccBs6P4c.s 			page 124


 3382 07eb 06       		.uleb128 0x6
 3383 07ec B3020000 		.4byte	.LASF28
 3384 07f0 11       		.byte	0x11
 3385 07f1 3E       		.byte	0x3e
 3386 07f2 BB060000 		.4byte	0x6bb
 3387 07f6 00       		.byte	0
 3388 07f7 06       		.uleb128 0x6
 3389 07f8 A9030000 		.4byte	.LASF99
 3390 07fc 11       		.byte	0x11
 3391 07fd 3F       		.byte	0x3f
 3392 07fe DC070000 		.4byte	0x7dc
 3393 0802 04       		.byte	0x4
 3394 0803 06       		.uleb128 0x6
 3395 0804 FA000000 		.4byte	.LASF100
 3396 0808 11       		.byte	0x11
 3397 0809 40       		.byte	0x40
 3398 080a DC070000 		.4byte	0x7dc
 3399 080e 08       		.byte	0x8
 3400 080f 06       		.uleb128 0x6
 3401 0810 42040000 		.4byte	.LASF101
 3402 0814 11       		.byte	0x11
 3403 0815 41       		.byte	0x41
 3404 0816 DC070000 		.4byte	0x7dc
 3405 081a 0C       		.byte	0xc
 3406 081b 00       		.byte	0
 3407 081c 03       		.uleb128 0x3
 3408 081d 3A030000 		.4byte	.LASF102
 3409 0821 11       		.byte	0x11
 3410 0822 42       		.byte	0x42
 3411 0823 E3070000 		.4byte	0x7e3
 3412 0827 1B       		.uleb128 0x1b
 3413 0828 88050000 		.4byte	.LASF108
 3414 082c 04       		.byte	0x4
 3415 082d 0601     		.2byte	0x106
 3416 082f 03       		.byte	0x3
 3417 0830 41080000 		.4byte	0x841
 3418 0834 1C       		.uleb128 0x1c
 3419 0835 51020000 		.4byte	.LASF111
 3420 0839 04       		.byte	0x4
 3421 083a 0601     		.2byte	0x106
 3422 083c 82000000 		.4byte	0x82
 3423 0840 00       		.byte	0
 3424 0841 1D       		.uleb128 0x1d
 3425 0842 CC040000 		.4byte	.LASF105
 3426 0846 02       		.byte	0x2
 3427 0847 8B       		.byte	0x8b
 3428 0848 FA000000 		.4byte	0xfa
 3429 084c 03       		.byte	0x3
 3430 084d 1E       		.uleb128 0x1e
 3431 084e 5B000000 		.4byte	.LASF103
 3432 0852 0C       		.byte	0xc
 3433 0853 5202     		.2byte	0x252
 3434 0855 03       		.byte	0x3
 3435 0856 1E       		.uleb128 0x1e
 3436 0857 45010000 		.4byte	.LASF104
 3437 085b 0C       		.byte	0xc
 3438 085c 6A02     		.2byte	0x26a
ARM GAS  /tmp/ccBs6P4c.s 			page 125


 3439 085e 03       		.byte	0x3
 3440 085f 1D       		.uleb128 0x1d
 3441 0860 C4050000 		.4byte	.LASF106
 3442 0864 12       		.byte	0x12
 3443 0865 69       		.byte	0x69
 3444 0866 FA000000 		.4byte	0xfa
 3445 086a 03       		.byte	0x3
 3446 086b 1E       		.uleb128 0x1e
 3447 086c 86040000 		.4byte	.LASF107
 3448 0870 13       		.byte	0x13
 3449 0871 7601     		.2byte	0x176
 3450 0873 03       		.byte	0x3
 3451 0874 1B       		.uleb128 0x1b
 3452 0875 72070000 		.4byte	.LASF109
 3453 0879 13       		.byte	0x13
 3454 087a 8201     		.2byte	0x182
 3455 087c 03       		.byte	0x3
 3456 087d 8F080000 		.4byte	0x88f
 3457 0881 1F       		.uleb128 0x1f
 3458 0882 F1050000 		.4byte	.LASF121
 3459 0886 9F080000 		.4byte	0x89f
 3460 088a 72070000 		.4byte	.LASF109
 3461 088e 00       		.byte	0
 3462 088f 10       		.uleb128 0x10
 3463 0890 C6060000 		.4byte	0x6c6
 3464 0894 9F080000 		.4byte	0x89f
 3465 0898 11       		.uleb128 0x11
 3466 0899 F2030000 		.4byte	0x3f2
 3467 089d 0B       		.byte	0xb
 3468 089e 00       		.byte	0
 3469 089f 17       		.uleb128 0x17
 3470 08a0 8F080000 		.4byte	0x88f
 3471 08a4 20       		.uleb128 0x20
 3472 08a5 72020000 		.4byte	.LASF110
 3473 08a9 03       		.byte	0x3
 3474 08aa 8801     		.2byte	0x188
 3475 08ac FA000000 		.4byte	0xfa
 3476 08b0 03       		.byte	0x3
 3477 08b1 21       		.uleb128 0x21
 3478 08b2 58070000 		.4byte	.LASF116
 3479 08b6 03       		.byte	0x3
 3480 08b7 C001     		.2byte	0x1c0
 3481 08b9 EF060000 		.4byte	0x6ef
 3482 08bd 03       		.byte	0x3
 3483 08be E7080000 		.4byte	0x8e7
 3484 08c2 1C       		.uleb128 0x1c
 3485 08c3 C5030000 		.4byte	.LASF112
 3486 08c7 03       		.byte	0x3
 3487 08c8 C001     		.2byte	0x1c0
 3488 08ca FA000000 		.4byte	0xfa
 3489 08ce 1C       		.uleb128 0x1c
 3490 08cf 7E070000 		.4byte	.LASF113
 3491 08d3 03       		.byte	0x3
 3492 08d4 C101     		.2byte	0x1c1
 3493 08d6 FA000000 		.4byte	0xfa
 3494 08da 22       		.uleb128 0x22
 3495 08db 656E6400 		.ascii	"end\000"
ARM GAS  /tmp/ccBs6P4c.s 			page 126


 3496 08df 03       		.byte	0x3
 3497 08e0 C201     		.2byte	0x1c2
 3498 08e2 FA000000 		.4byte	0xfa
 3499 08e6 00       		.byte	0
 3500 08e7 23       		.uleb128 0x23
 3501 08e8 28070000 		.4byte	.LASF114
 3502 08ec 01       		.byte	0x1
 3503 08ed 41       		.byte	0x41
 3504 08ee 01       		.byte	0x1
 3505 08ef 24       		.uleb128 0x24
 3506 08f0 F9020000 		.4byte	.LASF118
 3507 08f4 01       		.byte	0x1
 3508 08f5 66       		.byte	0x66
 3509 08f6 EF060000 		.4byte	0x6ef
 3510 08fa 01       		.byte	0x1
 3511 08fb 0B090000 		.4byte	0x90b
 3512 08ff 25       		.uleb128 0x25
 3513 0900 6D736700 		.ascii	"msg\000"
 3514 0904 01       		.byte	0x1
 3515 0905 66       		.byte	0x66
 3516 0906 BB060000 		.4byte	0x6bb
 3517 090a 00       		.byte	0
 3518 090b 20       		.uleb128 0x20
 3519 090c C2010000 		.4byte	.LASF115
 3520 0910 05       		.byte	0x5
 3521 0911 6802     		.2byte	0x268
 3522 0913 FA000000 		.4byte	0xfa
 3523 0917 03       		.byte	0x3
 3524 0918 21       		.uleb128 0x21
 3525 0919 D7030000 		.4byte	.LASF117
 3526 091d 05       		.byte	0x5
 3527 091e 7B02     		.2byte	0x27b
 3528 0920 EF060000 		.4byte	0x6ef
 3529 0924 03       		.byte	0x3
 3530 0925 4E090000 		.4byte	0x94e
 3531 0929 1C       		.uleb128 0x1c
 3532 092a C5030000 		.4byte	.LASF112
 3533 092e 05       		.byte	0x5
 3534 092f 7B02     		.2byte	0x27b
 3535 0931 FA000000 		.4byte	0xfa
 3536 0935 1C       		.uleb128 0x1c
 3537 0936 7E070000 		.4byte	.LASF113
 3538 093a 05       		.byte	0x5
 3539 093b 7C02     		.2byte	0x27c
 3540 093d FA000000 		.4byte	0xfa
 3541 0941 22       		.uleb128 0x22
 3542 0942 656E6400 		.ascii	"end\000"
 3543 0946 05       		.byte	0x5
 3544 0947 7D02     		.2byte	0x27d
 3545 0949 FA000000 		.4byte	0xfa
 3546 094d 00       		.byte	0
 3547 094e 24       		.uleb128 0x24
 3548 094f 3C070000 		.4byte	.LASF119
 3549 0953 01       		.byte	0x1
 3550 0954 6E       		.byte	0x6e
 3551 0955 EF060000 		.4byte	0x6ef
 3552 0959 01       		.byte	0x1
ARM GAS  /tmp/ccBs6P4c.s 			page 127


 3553 095a 75090000 		.4byte	0x975
 3554 095e 26       		.uleb128 0x26
 3555 095f 86000000 		.4byte	.LASF120
 3556 0963 01       		.byte	0x1
 3557 0964 6E       		.byte	0x6e
 3558 0965 EF060000 		.4byte	0x6ef
 3559 0969 25       		.uleb128 0x25
 3560 096a 6D736700 		.ascii	"msg\000"
 3561 096e 01       		.byte	0x1
 3562 096f 6E       		.byte	0x6e
 3563 0970 BB060000 		.4byte	0x6bb
 3564 0974 00       		.byte	0
 3565 0975 27       		.uleb128 0x27
 3566 0976 EF040000 		.4byte	.LASF122
 3567 097a 01       		.byte	0x1
 3568 097b 94       		.byte	0x94
 3569 097c 01       		.byte	0x1
 3570 097d 9F090000 		.4byte	0x99f
 3571 0981 25       		.uleb128 0x25
 3572 0982 6E00     		.ascii	"n\000"
 3573 0984 01       		.byte	0x1
 3574 0985 94       		.byte	0x94
 3575 0986 82000000 		.4byte	0x82
 3576 098a 28       		.uleb128 0x28
 3577 098b 62756600 		.ascii	"buf\000"
 3578 098f 01       		.byte	0x1
 3579 0990 95       		.byte	0x95
 3580 0991 9F090000 		.4byte	0x99f
 3581 0995 28       		.uleb128 0x28
 3582 0996 7000     		.ascii	"p\000"
 3583 0998 01       		.byte	0x1
 3584 0999 95       		.byte	0x95
 3585 099a AF090000 		.4byte	0x9af
 3586 099e 00       		.byte	0
 3587 099f 10       		.uleb128 0x10
 3588 09a0 C6060000 		.4byte	0x6c6
 3589 09a4 AF090000 		.4byte	0x9af
 3590 09a8 11       		.uleb128 0x11
 3591 09a9 F2030000 		.4byte	0x3f2
 3592 09ad 0F       		.byte	0xf
 3593 09ae 00       		.byte	0
 3594 09af 0A       		.uleb128 0xa
 3595 09b0 04       		.byte	0x4
 3596 09b1 C6060000 		.4byte	0x6c6
 3597 09b5 27       		.uleb128 0x27
 3598 09b6 45030000 		.4byte	.LASF123
 3599 09ba 01       		.byte	0x1
 3600 09bb A9       		.byte	0xa9
 3601 09bc 01       		.byte	0x1
 3602 09bd CD090000 		.4byte	0x9cd
 3603 09c1 26       		.uleb128 0x26
 3604 09c2 2A030000 		.4byte	.LASF124
 3605 09c6 01       		.byte	0x1
 3606 09c7 A9       		.byte	0xa9
 3607 09c8 BB060000 		.4byte	0x6bb
 3608 09cc 00       		.byte	0
 3609 09cd 1E       		.uleb128 0x1e
ARM GAS  /tmp/ccBs6P4c.s 			page 128


 3610 09ce DF010000 		.4byte	.LASF125
 3611 09d2 05       		.byte	0x5
 3612 09d3 EB01     		.2byte	0x1eb
 3613 09d5 03       		.byte	0x3
 3614 09d6 1E       		.uleb128 0x1e
 3615 09d7 90040000 		.4byte	.LASF126
 3616 09db 05       		.byte	0x5
 3617 09dc F601     		.2byte	0x1f6
 3618 09de 03       		.byte	0x3
 3619 09df 1B       		.uleb128 0x1b
 3620 09e0 3A050000 		.4byte	.LASF127
 3621 09e4 05       		.byte	0x5
 3622 09e5 9F02     		.2byte	0x29f
 3623 09e7 03       		.byte	0x3
 3624 09e8 F9090000 		.4byte	0x9f9
 3625 09ec 1C       		.uleb128 0x1c
 3626 09ed C5030000 		.4byte	.LASF112
 3627 09f1 05       		.byte	0x5
 3628 09f2 9F02     		.2byte	0x29f
 3629 09f4 FA000000 		.4byte	0xfa
 3630 09f8 00       		.byte	0
 3631 09f9 29       		.uleb128 0x29
 3632 09fa 99020000 		.4byte	.LASF152
 3633 09fe 01       		.byte	0x1
 3634 09ff 5A       		.byte	0x5a
 3635 0a00 00000000 		.4byte	.LFB222
 3636 0a04 36000000 		.4byte	.LFE222-.LFB222
 3637 0a08 01       		.uleb128 0x1
 3638 0a09 9C       		.byte	0x9c
 3639 0a0a 400A0000 		.4byte	0xa40
 3640 0a0e 2A       		.uleb128 0x2a
 3641 0a0f 6900     		.ascii	"i\000"
 3642 0a11 01       		.byte	0x1
 3643 0a12 5B       		.byte	0x5b
 3644 0a13 37000000 		.4byte	0x37
 3645 0a17 00000000 		.4byte	.LLST0
 3646 0a1b 2B       		.uleb128 0x2b
 3647 0a1c 1A000000 		.4byte	.LVL2
 3648 0a20 2B0A0000 		.4byte	0xa2b
 3649 0a24 2C       		.uleb128 0x2c
 3650 0a25 01       		.uleb128 0x1
 3651 0a26 51       		.byte	0x51
 3652 0a27 02       		.uleb128 0x2
 3653 0a28 08       		.byte	0x8
 3654 0a29 2D       		.byte	0x2d
 3655 0a2a 00       		.byte	0
 3656 0a2b 2D       		.uleb128 0x2d
 3657 0a2c 34000000 		.4byte	.LVL4
 3658 0a30 2C       		.uleb128 0x2c
 3659 0a31 01       		.uleb128 0x1
 3660 0a32 52       		.byte	0x52
 3661 0a33 01       		.uleb128 0x1
 3662 0a34 32       		.byte	0x32
 3663 0a35 2C       		.uleb128 0x2c
 3664 0a36 01       		.uleb128 0x1
 3665 0a37 51       		.byte	0x51
 3666 0a38 05       		.uleb128 0x5
ARM GAS  /tmp/ccBs6P4c.s 			page 129


 3667 0a39 03       		.byte	0x3
 3668 0a3a 00000000 		.4byte	.LC0
 3669 0a3e 00       		.byte	0
 3670 0a3f 00       		.byte	0
 3671 0a40 2E       		.uleb128 0x2e
 3672 0a41 EF080000 		.4byte	0x8ef
 3673 0a45 00000000 		.4byte	.LFB223
 3674 0a49 2A000000 		.4byte	.LFE223-.LFB223
 3675 0a4d 01       		.uleb128 0x1
 3676 0a4e 9C       		.byte	0x9c
 3677 0a4f 5D0A0000 		.4byte	0xa5d
 3678 0a53 2F       		.uleb128 0x2f
 3679 0a54 FF080000 		.4byte	0x8ff
 3680 0a58 44000000 		.4byte	.LLST1
 3681 0a5c 00       		.byte	0
 3682 0a5d 2E       		.uleb128 0x2e
 3683 0a5e 4E090000 		.4byte	0x94e
 3684 0a62 00000000 		.4byte	.LFB224
 3685 0a66 32000000 		.4byte	.LFE224-.LFB224
 3686 0a6a 01       		.uleb128 0x1
 3687 0a6b 9C       		.byte	0x9c
 3688 0a6c 9A0A0000 		.4byte	0xa9a
 3689 0a70 2F       		.uleb128 0x2f
 3690 0a71 5E090000 		.4byte	0x95e
 3691 0a75 66000000 		.4byte	.LLST2
 3692 0a79 30       		.uleb128 0x30
 3693 0a7a 69090000 		.4byte	0x969
 3694 0a7e 01       		.uleb128 0x1
 3695 0a7f 51       		.byte	0x51
 3696 0a80 31       		.uleb128 0x31
 3697 0a81 EF080000 		.4byte	0x8ef
 3698 0a85 04000000 		.4byte	.LBB102
 3699 0a89 20000000 		.4byte	.LBE102-.LBB102
 3700 0a8d 01       		.byte	0x1
 3701 0a8e 71       		.byte	0x71
 3702 0a8f 2F       		.uleb128 0x2f
 3703 0a90 FF080000 		.4byte	0x8ff
 3704 0a94 A0000000 		.4byte	.LLST3
 3705 0a98 00       		.byte	0
 3706 0a99 00       		.byte	0
 3707 0a9a 32       		.uleb128 0x32
 3708 0a9b AF030000 		.4byte	.LASF129
 3709 0a9f 01       		.byte	0x1
 3710 0aa0 75       		.byte	0x75
 3711 0aa1 EF060000 		.4byte	0x6ef
 3712 0aa5 00000000 		.4byte	.LFB225
 3713 0aa9 56000000 		.4byte	.LFE225-.LFB225
 3714 0aad 01       		.uleb128 0x1
 3715 0aae 9C       		.byte	0x9c
 3716 0aaf 040B0000 		.4byte	0xb04
 3717 0ab3 33       		.uleb128 0x33
 3718 0ab4 AA020000 		.4byte	.LASF128
 3719 0ab8 01       		.byte	0x1
 3720 0ab9 75       		.byte	0x75
 3721 0aba AF090000 		.4byte	0x9af
 3722 0abe B3000000 		.4byte	.LLST4
 3723 0ac2 34       		.uleb128 0x34
ARM GAS  /tmp/ccBs6P4c.s 			page 130


 3724 0ac3 6D736700 		.ascii	"msg\000"
 3725 0ac7 01       		.byte	0x1
 3726 0ac8 75       		.byte	0x75
 3727 0ac9 BB060000 		.4byte	0x6bb
 3728 0acd 01       		.uleb128 0x1
 3729 0ace 51       		.byte	0x51
 3730 0acf 2A       		.uleb128 0x2a
 3731 0ad0 637000   		.ascii	"cp\000"
 3732 0ad3 01       		.byte	0x1
 3733 0ad4 76       		.byte	0x76
 3734 0ad5 AF090000 		.4byte	0x9af
 3735 0ad9 DE000000 		.4byte	.LLST5
 3736 0add 35       		.uleb128 0x35
 3737 0ade E7080000 		.4byte	0x8e7
 3738 0ae2 2C000000 		.4byte	.LBB104
 3739 0ae6 02000000 		.4byte	.LBE104-.LBB104
 3740 0aea 01       		.byte	0x1
 3741 0aeb 80       		.byte	0x80
 3742 0aec 31       		.uleb128 0x31
 3743 0aed EF080000 		.4byte	0x8ef
 3744 0af1 32000000 		.4byte	.LBB106
 3745 0af5 20000000 		.4byte	.LBE106-.LBB106
 3746 0af9 01       		.byte	0x1
 3747 0afa 7A       		.byte	0x7a
 3748 0afb 30       		.uleb128 0x30
 3749 0afc FF080000 		.4byte	0x8ff
 3750 0b00 01       		.uleb128 0x1
 3751 0b01 51       		.byte	0x51
 3752 0b02 00       		.byte	0
 3753 0b03 00       		.byte	0
 3754 0b04 32       		.uleb128 0x32
 3755 0b05 72010000 		.4byte	.LASF130
 3756 0b09 01       		.byte	0x1
 3757 0b0a 85       		.byte	0x85
 3758 0b0b EF060000 		.4byte	0x6ef
 3759 0b0f 00000000 		.4byte	.LFB226
 3760 0b13 3E000000 		.4byte	.LFE226-.LFB226
 3761 0b17 01       		.uleb128 0x1
 3762 0b18 9C       		.byte	0x9c
 3763 0b19 220C0000 		.4byte	0xc22
 3764 0b1d 33       		.uleb128 0x33
 3765 0b1e 7E070000 		.4byte	.LASF113
 3766 0b22 01       		.byte	0x1
 3767 0b23 85       		.byte	0x85
 3768 0b24 FA000000 		.4byte	0xfa
 3769 0b28 19010000 		.4byte	.LLST6
 3770 0b2c 36       		.uleb128 0x36
 3771 0b2d 656E6400 		.ascii	"end\000"
 3772 0b31 01       		.byte	0x1
 3773 0b32 86       		.byte	0x86
 3774 0b33 FA000000 		.4byte	0xfa
 3775 0b37 3A010000 		.4byte	.LLST7
 3776 0b3b 34       		.uleb128 0x34
 3777 0b3c 6D736700 		.ascii	"msg\000"
 3778 0b40 01       		.byte	0x1
 3779 0b41 87       		.byte	0x87
 3780 0b42 BB060000 		.4byte	0x6bb
ARM GAS  /tmp/ccBs6P4c.s 			page 131


 3781 0b46 01       		.uleb128 0x1
 3782 0b47 52       		.byte	0x52
 3783 0b48 37       		.uleb128 0x37
 3784 0b49 0B090000 		.4byte	0x90b
 3785 0b4d 00000000 		.4byte	.LBB108
 3786 0b51 06000000 		.4byte	.LBE108-.LBB108
 3787 0b55 01       		.byte	0x1
 3788 0b56 89       		.byte	0x89
 3789 0b57 8D0B0000 		.4byte	0xb8d
 3790 0b5b 38       		.uleb128 0x38
 3791 0b5c A4080000 		.4byte	0x8a4
 3792 0b60 00000000 		.4byte	.LBB109
 3793 0b64 06000000 		.4byte	.LBE109-.LBB109
 3794 0b68 05       		.byte	0x5
 3795 0b69 6A02     		.2byte	0x26a
 3796 0b6b 38       		.uleb128 0x38
 3797 0b6c 5F080000 		.4byte	0x85f
 3798 0b70 00000000 		.4byte	.LBB110
 3799 0b74 06000000 		.4byte	.LBE110-.LBB110
 3800 0b78 03       		.byte	0x3
 3801 0b79 8D01     		.2byte	0x18d
 3802 0b7b 35       		.uleb128 0x35
 3803 0b7c 41080000 		.4byte	0x841
 3804 0b80 00000000 		.4byte	.LBB111
 3805 0b84 06000000 		.4byte	.LBE111-.LBB111
 3806 0b88 12       		.byte	0x12
 3807 0b89 6B       		.byte	0x6b
 3808 0b8a 00       		.byte	0
 3809 0b8b 00       		.byte	0
 3810 0b8c 00       		.byte	0
 3811 0b8d 37       		.uleb128 0x37
 3812 0b8e 18090000 		.4byte	0x918
 3813 0b92 06000000 		.4byte	.LBB113
 3814 0b96 04000000 		.4byte	.LBE113-.LBB113
 3815 0b9a 01       		.byte	0x1
 3816 0b9b 89       		.byte	0x89
 3817 0b9c E80B0000 		.4byte	0xbe8
 3818 0ba0 2F       		.uleb128 0x2f
 3819 0ba1 41090000 		.4byte	0x941
 3820 0ba5 5B010000 		.4byte	.LLST8
 3821 0ba9 2F       		.uleb128 0x2f
 3822 0baa 35090000 		.4byte	0x935
 3823 0bae 7C010000 		.4byte	.LLST9
 3824 0bb2 2F       		.uleb128 0x2f
 3825 0bb3 29090000 		.4byte	0x929
 3826 0bb7 8F010000 		.4byte	.LLST10
 3827 0bbb 38       		.uleb128 0x38
 3828 0bbc B1080000 		.4byte	0x8b1
 3829 0bc0 06000000 		.4byte	.LBB114
 3830 0bc4 04000000 		.4byte	.LBE114-.LBB114
 3831 0bc8 05       		.byte	0x5
 3832 0bc9 7F02     		.2byte	0x27f
 3833 0bcb 2F       		.uleb128 0x2f
 3834 0bcc DA080000 		.4byte	0x8da
 3835 0bd0 5B010000 		.4byte	.LLST8
 3836 0bd4 2F       		.uleb128 0x2f
 3837 0bd5 CE080000 		.4byte	0x8ce
ARM GAS  /tmp/ccBs6P4c.s 			page 132


 3838 0bd9 7C010000 		.4byte	.LLST9
 3839 0bdd 2F       		.uleb128 0x2f
 3840 0bde C2080000 		.4byte	0x8c2
 3841 0be2 8F010000 		.4byte	.LLST10
 3842 0be6 00       		.byte	0
 3843 0be7 00       		.byte	0
 3844 0be8 39       		.uleb128 0x39
 3845 0be9 4E090000 		.4byte	0x94e
 3846 0bed 0A000000 		.4byte	.LBB116
 3847 0bf1 00000000 		.4byte	.Ldebug_ranges0+0
 3848 0bf5 01       		.byte	0x1
 3849 0bf6 89       		.byte	0x89
 3850 0bf7 30       		.uleb128 0x30
 3851 0bf8 69090000 		.4byte	0x969
 3852 0bfc 01       		.uleb128 0x1
 3853 0bfd 52       		.byte	0x52
 3854 0bfe 2F       		.uleb128 0x2f
 3855 0bff 5E090000 		.4byte	0x95e
 3856 0c03 A2010000 		.4byte	.LLST14
 3857 0c07 31       		.uleb128 0x31
 3858 0c08 EF080000 		.4byte	0x8ef
 3859 0c0c 18000000 		.4byte	.LBB118
 3860 0c10 20000000 		.4byte	.LBE118-.LBB118
 3861 0c14 01       		.byte	0x1
 3862 0c15 71       		.byte	0x71
 3863 0c16 2F       		.uleb128 0x2f
 3864 0c17 FF080000 		.4byte	0x8ff
 3865 0c1b E7010000 		.4byte	.LLST15
 3866 0c1f 00       		.byte	0
 3867 0c20 00       		.byte	0
 3868 0c21 00       		.byte	0
 3869 0c22 3A       		.uleb128 0x3a
 3870 0c23 75090000 		.4byte	0x975
 3871 0c27 00000000 		.4byte	.LFB227
 3872 0c2b 70000000 		.4byte	.LFE227-.LFB227
 3873 0c2f 01       		.uleb128 0x1
 3874 0c30 9C       		.byte	0x9c
 3875 0c31 800C0000 		.4byte	0xc80
 3876 0c35 2F       		.uleb128 0x2f
 3877 0c36 81090000 		.4byte	0x981
 3878 0c3a FA010000 		.4byte	.LLST16
 3879 0c3e 3B       		.uleb128 0x3b
 3880 0c3f 8A090000 		.4byte	0x98a
 3881 0c43 02       		.uleb128 0x2
 3882 0c44 91       		.byte	0x91
 3883 0c45 60       		.sleb128 -32
 3884 0c46 3C       		.uleb128 0x3c
 3885 0c47 95090000 		.4byte	0x995
 3886 0c4b 3C020000 		.4byte	.LLST17
 3887 0c4f 3D       		.uleb128 0x3d
 3888 0c50 5A000000 		.4byte	.LBB124
 3889 0c54 12000000 		.4byte	.LBE124-.LBB124
 3890 0c58 3E       		.uleb128 0x3e
 3891 0c59 81090000 		.4byte	0x981
 3892 0c5d 00       		.byte	0
 3893 0c5e 3D       		.uleb128 0x3d
 3894 0c5f 5A000000 		.4byte	.LBB125
ARM GAS  /tmp/ccBs6P4c.s 			page 133


 3895 0c63 12000000 		.4byte	.LBE125-.LBB125
 3896 0c67 3F       		.uleb128 0x3f
 3897 0c68 8A090000 		.4byte	0x98a
 3898 0c6c 3F       		.uleb128 0x3f
 3899 0c6d 95090000 		.4byte	0x995
 3900 0c71 2D       		.uleb128 0x2d
 3901 0c72 6C000000 		.4byte	.LVL38
 3902 0c76 2C       		.uleb128 0x2c
 3903 0c77 01       		.uleb128 0x1
 3904 0c78 51       		.byte	0x51
 3905 0c79 02       		.uleb128 0x2
 3906 0c7a 08       		.byte	0x8
 3907 0c7b 30       		.byte	0x30
 3908 0c7c 00       		.byte	0
 3909 0c7d 00       		.byte	0
 3910 0c7e 00       		.byte	0
 3911 0c7f 00       		.byte	0
 3912 0c80 3A       		.uleb128 0x3a
 3913 0c81 B5090000 		.4byte	0x9b5
 3914 0c85 00000000 		.4byte	.LFB228
 3915 0c89 22000000 		.4byte	.LFE228-.LFB228
 3916 0c8d 01       		.uleb128 0x1
 3917 0c8e 9C       		.byte	0x9c
 3918 0c8f 9D0C0000 		.4byte	0xc9d
 3919 0c93 2F       		.uleb128 0x2f
 3920 0c94 C1090000 		.4byte	0x9c1
 3921 0c98 8C020000 		.4byte	.LLST18
 3922 0c9c 00       		.byte	0
 3923 0c9d 40       		.uleb128 0x40
 3924 0c9e 31010000 		.4byte	.LASF131
 3925 0ca2 01       		.byte	0x1
 3926 0ca3 B6       		.byte	0xb6
 3927 0ca4 00000000 		.4byte	.LFB229
 3928 0ca8 3A000000 		.4byte	.LFE229-.LFB229
 3929 0cac 01       		.uleb128 0x1
 3930 0cad 9C       		.byte	0x9c
 3931 0cae F30C0000 		.4byte	0xcf3
 3932 0cb2 33       		.uleb128 0x33
 3933 0cb3 2A030000 		.4byte	.LASF124
 3934 0cb7 01       		.byte	0x1
 3935 0cb8 B6       		.byte	0xb6
 3936 0cb9 BB060000 		.4byte	0x6bb
 3937 0cbd C2020000 		.4byte	.LLST19
 3938 0cc1 37       		.uleb128 0x37
 3939 0cc2 B5090000 		.4byte	0x9b5
 3940 0cc6 02000000 		.4byte	.LBB126
 3941 0cca 1E000000 		.4byte	.LBE126-.LBB126
 3942 0cce 01       		.byte	0x1
 3943 0ccf B8       		.byte	0xb8
 3944 0cd0 DE0C0000 		.4byte	0xcde
 3945 0cd4 2F       		.uleb128 0x2f
 3946 0cd5 C1090000 		.4byte	0x9c1
 3947 0cd9 EE020000 		.4byte	.LLST20
 3948 0cdd 00       		.byte	0
 3949 0cde 2D       		.uleb128 0x2d
 3950 0cdf 32000000 		.4byte	.LVL51
 3951 0ce3 2C       		.uleb128 0x2c
ARM GAS  /tmp/ccBs6P4c.s 			page 134


 3952 0ce4 01       		.uleb128 0x1
 3953 0ce5 52       		.byte	0x52
 3954 0ce6 01       		.uleb128 0x1
 3955 0ce7 32       		.byte	0x32
 3956 0ce8 2C       		.uleb128 0x2c
 3957 0ce9 01       		.uleb128 0x1
 3958 0cea 51       		.byte	0x51
 3959 0ceb 05       		.uleb128 0x5
 3960 0cec 03       		.byte	0x3
 3961 0ced 00000000 		.4byte	.LC0
 3962 0cf1 00       		.byte	0
 3963 0cf2 00       		.byte	0
 3964 0cf3 41       		.uleb128 0x41
 3965 0cf4 21010000 		.4byte	.LASF132
 3966 0cf8 01       		.byte	0x1
 3967 0cf9 C3       		.byte	0xc3
 3968 0cfa 00000000 		.4byte	.LFB230
 3969 0cfe 28000000 		.4byte	.LFE230-.LFB230
 3970 0d02 01       		.uleb128 0x1
 3971 0d03 9C       		.byte	0x9c
 3972 0d04 BB0D0000 		.4byte	0xdbb
 3973 0d08 42       		.uleb128 0x42
 3974 0d09 EB030000 		.4byte	.LASF133
 3975 0d0d 01       		.byte	0x1
 3976 0d0e C3       		.byte	0xc3
 3977 0d0f C6060000 		.4byte	0x6c6
 3978 0d13 01       		.uleb128 0x1
 3979 0d14 50       		.byte	0x50
 3980 0d15 37       		.uleb128 0x37
 3981 0d16 CD090000 		.4byte	0x9cd
 3982 0d1a 00000000 		.4byte	.LBB128
 3983 0d1e 06000000 		.4byte	.LBE128-.LBB128
 3984 0d22 01       		.byte	0x1
 3985 0d23 C5       		.byte	0xc5
 3986 0d24 620D0000 		.4byte	0xd62
 3987 0d28 38       		.uleb128 0x38
 3988 0d29 6B080000 		.4byte	0x86b
 3989 0d2d 00000000 		.4byte	.LBB129
 3990 0d31 06000000 		.4byte	.LBE129-.LBB129
 3991 0d35 05       		.byte	0x5
 3992 0d36 ED01     		.2byte	0x1ed
 3993 0d38 38       		.uleb128 0x38
 3994 0d39 4D080000 		.4byte	0x84d
 3995 0d3d 00000000 		.4byte	.LBB130
 3996 0d41 06000000 		.4byte	.LBE130-.LBB130
 3997 0d45 13       		.byte	0x13
 3998 0d46 7801     		.2byte	0x178
 3999 0d48 38       		.uleb128 0x38
 4000 0d49 27080000 		.4byte	0x827
 4001 0d4d 00000000 		.4byte	.LBB131
 4002 0d51 06000000 		.4byte	.LBE131-.LBB131
 4003 0d55 0C       		.byte	0xc
 4004 0d56 5A02     		.2byte	0x25a
 4005 0d58 3E       		.uleb128 0x3e
 4006 0d59 34080000 		.4byte	0x834
 4007 0d5d 20       		.byte	0x20
 4008 0d5e 00       		.byte	0
ARM GAS  /tmp/ccBs6P4c.s 			page 135


 4009 0d5f 00       		.byte	0
 4010 0d60 00       		.byte	0
 4011 0d61 00       		.byte	0
 4012 0d62 31       		.uleb128 0x31
 4013 0d63 D6090000 		.4byte	0x9d6
 4014 0d67 1C000000 		.4byte	.LBB133
 4015 0d6b 0C000000 		.4byte	.LBE133-.LBB133
 4016 0d6f 01       		.byte	0x1
 4017 0d70 C8       		.byte	0xc8
 4018 0d71 38       		.uleb128 0x38
 4019 0d72 74080000 		.4byte	0x874
 4020 0d76 1C000000 		.4byte	.LBB134
 4021 0d7a 0C000000 		.4byte	.LBE134-.LBB134
 4022 0d7e 05       		.byte	0x5
 4023 0d7f F801     		.2byte	0x1f8
 4024 0d81 3D       		.uleb128 0x3d
 4025 0d82 1C000000 		.4byte	.LBB135
 4026 0d86 0C000000 		.4byte	.LBE135-.LBB135
 4027 0d8a 3F       		.uleb128 0x3f
 4028 0d8b 81080000 		.4byte	0x881
 4029 0d8f 38       		.uleb128 0x38
 4030 0d90 56080000 		.4byte	0x856
 4031 0d94 1C000000 		.4byte	.LBB136
 4032 0d98 0C000000 		.4byte	.LBE136-.LBB136
 4033 0d9c 13       		.byte	0x13
 4034 0d9d 8F01     		.2byte	0x18f
 4035 0d9f 38       		.uleb128 0x38
 4036 0da0 27080000 		.4byte	0x827
 4037 0da4 1C000000 		.4byte	.LBB137
 4038 0da8 0C000000 		.4byte	.LBE137-.LBB137
 4039 0dac 0C       		.byte	0xc
 4040 0dad 6D02     		.2byte	0x26d
 4041 0daf 3E       		.uleb128 0x3e
 4042 0db0 34080000 		.4byte	0x834
 4043 0db4 00       		.byte	0
 4044 0db5 00       		.byte	0
 4045 0db6 00       		.byte	0
 4046 0db7 00       		.byte	0
 4047 0db8 00       		.byte	0
 4048 0db9 00       		.byte	0
 4049 0dba 00       		.byte	0
 4050 0dbb 41       		.uleb128 0x41
 4051 0dbc 63050000 		.4byte	.LASF134
 4052 0dc0 01       		.byte	0x1
 4053 0dc1 D2       		.byte	0xd2
 4054 0dc2 00000000 		.4byte	.LFB231
 4055 0dc6 1C000000 		.4byte	.LFE231-.LFB231
 4056 0dca 01       		.uleb128 0x1
 4057 0dcb 9C       		.byte	0x9c
 4058 0dcc DE0D0000 		.4byte	0xdde
 4059 0dd0 42       		.uleb128 0x42
 4060 0dd1 EB030000 		.4byte	.LASF133
 4061 0dd5 01       		.byte	0x1
 4062 0dd6 D2       		.byte	0xd2
 4063 0dd7 C6060000 		.4byte	0x6c6
 4064 0ddb 01       		.uleb128 0x1
 4065 0ddc 50       		.byte	0x50
ARM GAS  /tmp/ccBs6P4c.s 			page 136


 4066 0ddd 00       		.byte	0
 4067 0dde 43       		.uleb128 0x43
 4068 0ddf D6060000 		.4byte	.LASF135
 4069 0de3 01       		.byte	0x1
 4070 0de4 4D       		.byte	0x4d
 4071 0de5 01       		.byte	0x1
 4072 0de6 F60D0000 		.4byte	0xdf6
 4073 0dea 25       		.uleb128 0x25
 4074 0deb 74637000 		.ascii	"tcp\000"
 4075 0def 01       		.byte	0x1
 4076 0df0 4D       		.byte	0x4d
 4077 0df1 F60D0000 		.4byte	0xdf6
 4078 0df5 00       		.byte	0
 4079 0df6 0A       		.uleb128 0xa
 4080 0df7 04       		.byte	0x4
 4081 0df8 FC0D0000 		.4byte	0xdfc
 4082 0dfc 17       		.uleb128 0x17
 4083 0dfd 1C080000 		.4byte	0x81c
 4084 0e01 43       		.uleb128 0x43
 4085 0e02 AC010000 		.4byte	.LASF136
 4086 0e06 01       		.byte	0x1
 4087 0e07 46       		.byte	0x46
 4088 0e08 01       		.byte	0x1
 4089 0e09 180E0000 		.4byte	0xe18
 4090 0e0d 28       		.uleb128 0x28
 4091 0e0e 637000   		.ascii	"cp\000"
 4092 0e11 01       		.byte	0x1
 4093 0e12 47       		.byte	0x47
 4094 0e13 AF090000 		.4byte	0x9af
 4095 0e17 00       		.byte	0
 4096 0e18 44       		.uleb128 0x44
 4097 0e19 ED000000 		.4byte	.LASF137
 4098 0e1d 01       		.byte	0x1
 4099 0e1e E3       		.byte	0xe3
 4100 0e1f D9000000 		.4byte	0xd9
 4101 0e23 00000000 		.4byte	.LFB232
 4102 0e27 FC020000 		.4byte	.LFE232-.LFB232
 4103 0e2b 01       		.uleb128 0x1
 4104 0e2c 9C       		.byte	0x9c
 4105 0e2d BF110000 		.4byte	0x11bf
 4106 0e31 33       		.uleb128 0x33
 4107 0e32 54000000 		.4byte	.LASF138
 4108 0e36 01       		.byte	0x1
 4109 0e37 E3       		.byte	0xe3
 4110 0e38 BF110000 		.4byte	0x11bf
 4111 0e3c 2F030000 		.4byte	.LLST21
 4112 0e40 2A       		.uleb128 0x2a
 4113 0e41 6900     		.ascii	"i\000"
 4114 0e43 01       		.byte	0x1
 4115 0e44 E4       		.byte	0xe4
 4116 0e45 25000000 		.4byte	0x25
 4117 0e49 5F030000 		.4byte	.LLST22
 4118 0e4d 2A       		.uleb128 0x2a
 4119 0e4e 6A00     		.ascii	"j\000"
 4120 0e50 01       		.byte	0x1
 4121 0e51 E4       		.byte	0xe4
 4122 0e52 25000000 		.4byte	0x25
ARM GAS  /tmp/ccBs6P4c.s 			page 137


 4123 0e56 B8030000 		.4byte	.LLST23
 4124 0e5a 37       		.uleb128 0x37
 4125 0e5b B5090000 		.4byte	0x9b5
 4126 0e5f 3C000000 		.4byte	.LBB171
 4127 0e63 12000000 		.4byte	.LBE171-.LBB171
 4128 0e67 01       		.byte	0x1
 4129 0e68 EE       		.byte	0xee
 4130 0e69 770E0000 		.4byte	0xe77
 4131 0e6d 2F       		.uleb128 0x2f
 4132 0e6e C1090000 		.4byte	0x9c1
 4133 0e72 F0030000 		.4byte	.LLST24
 4134 0e76 00       		.byte	0
 4135 0e77 37       		.uleb128 0x37
 4136 0e78 B5090000 		.4byte	0x9b5
 4137 0e7c 62000000 		.4byte	.LBB173
 4138 0e80 12000000 		.4byte	.LBE173-.LBB173
 4139 0e84 01       		.byte	0x1
 4140 0e85 F1       		.byte	0xf1
 4141 0e86 940E0000 		.4byte	0xe94
 4142 0e8a 2F       		.uleb128 0x2f
 4143 0e8b C1090000 		.4byte	0x9c1
 4144 0e8f 2B040000 		.4byte	.LLST25
 4145 0e93 00       		.byte	0
 4146 0e94 37       		.uleb128 0x37
 4147 0e95 B5090000 		.4byte	0x9b5
 4148 0e99 88000000 		.4byte	.LBB175
 4149 0e9d 12000000 		.4byte	.LBE175-.LBB175
 4150 0ea1 01       		.byte	0x1
 4151 0ea2 F5       		.byte	0xf5
 4152 0ea3 B10E0000 		.4byte	0xeb1
 4153 0ea7 2F       		.uleb128 0x2f
 4154 0ea8 C1090000 		.4byte	0x9c1
 4155 0eac 66040000 		.4byte	.LLST26
 4156 0eb0 00       		.byte	0
 4157 0eb1 45       		.uleb128 0x45
 4158 0eb2 DE0D0000 		.4byte	0xdde
 4159 0eb6 D6000000 		.4byte	.LBB177
 4160 0eba 18000000 		.4byte	.Ldebug_ranges0+0x18
 4161 0ebe 01       		.byte	0x1
 4162 0ebf 0D01     		.2byte	0x10d
 4163 0ec1 DE0E0000 		.4byte	0xede
 4164 0ec5 2F       		.uleb128 0x2f
 4165 0ec6 EA0D0000 		.4byte	0xdea
 4166 0eca A1040000 		.4byte	.LLST27
 4167 0ece 46       		.uleb128 0x46
 4168 0ecf E7080000 		.4byte	0x8e7
 4169 0ed3 D6000000 		.4byte	.LBB179
 4170 0ed7 40000000 		.4byte	.Ldebug_ranges0+0x40
 4171 0edb 01       		.byte	0x1
 4172 0edc 50       		.byte	0x50
 4173 0edd 00       		.byte	0
 4174 0ede 45       		.uleb128 0x45
 4175 0edf B5090000 		.4byte	0x9b5
 4176 0ee3 EC000000 		.4byte	.LBB189
 4177 0ee7 60000000 		.4byte	.Ldebug_ranges0+0x60
 4178 0eeb 01       		.byte	0x1
 4179 0eec 1101     		.2byte	0x111
ARM GAS  /tmp/ccBs6P4c.s 			page 138


 4180 0eee FC0E0000 		.4byte	0xefc
 4181 0ef2 2F       		.uleb128 0x2f
 4182 0ef3 C1090000 		.4byte	0x9c1
 4183 0ef7 BF040000 		.4byte	.LLST28
 4184 0efb 00       		.byte	0
 4185 0efc 47       		.uleb128 0x47
 4186 0efd B5090000 		.4byte	0x9b5
 4187 0f01 0C010000 		.4byte	.LBB193
 4188 0f05 1A000000 		.4byte	.LBE193-.LBB193
 4189 0f09 01       		.byte	0x1
 4190 0f0a 0301     		.2byte	0x103
 4191 0f0c 1A0F0000 		.4byte	0xf1a
 4192 0f10 2F       		.uleb128 0x2f
 4193 0f11 C1090000 		.4byte	0x9c1
 4194 0f15 FA040000 		.4byte	.LLST29
 4195 0f19 00       		.byte	0
 4196 0f1a 45       		.uleb128 0x45
 4197 0f1b B5090000 		.4byte	0x9b5
 4198 0f1f 2C010000 		.4byte	.LBB195
 4199 0f23 80000000 		.4byte	.Ldebug_ranges0+0x80
 4200 0f27 01       		.byte	0x1
 4201 0f28 0501     		.2byte	0x105
 4202 0f2a 400F0000 		.4byte	0xf40
 4203 0f2e 48       		.uleb128 0x48
 4204 0f2f C1090000 		.4byte	0x9c1
 4205 0f33 2D       		.uleb128 0x2d
 4206 0f34 3A010000 		.4byte	.LVL94
 4207 0f38 2C       		.uleb128 0x2c
 4208 0f39 01       		.uleb128 0x1
 4209 0f3a 51       		.byte	0x51
 4210 0f3b 02       		.uleb128 0x2
 4211 0f3c 08       		.byte	0x8
 4212 0f3d 2E       		.byte	0x2e
 4213 0f3e 00       		.byte	0
 4214 0f3f 00       		.byte	0
 4215 0f40 47       		.uleb128 0x47
 4216 0f41 B5090000 		.4byte	0x9b5
 4217 0f45 48010000 		.4byte	.LBB199
 4218 0f49 12000000 		.4byte	.LBE199-.LBB199
 4219 0f4d 01       		.byte	0x1
 4220 0f4e 0701     		.2byte	0x107
 4221 0f50 5E0F0000 		.4byte	0xf5e
 4222 0f54 2F       		.uleb128 0x2f
 4223 0f55 C1090000 		.4byte	0x9c1
 4224 0f59 40050000 		.4byte	.LLST31
 4225 0f5d 00       		.byte	0
 4226 0f5e 47       		.uleb128 0x47
 4227 0f5f B5090000 		.4byte	0x9b5
 4228 0f63 64010000 		.4byte	.LBB201
 4229 0f67 16000000 		.4byte	.LBE201-.LBB201
 4230 0f6b 01       		.byte	0x1
 4231 0f6c 0801     		.2byte	0x108
 4232 0f6e 7C0F0000 		.4byte	0xf7c
 4233 0f72 2F       		.uleb128 0x2f
 4234 0f73 C1090000 		.4byte	0x9c1
 4235 0f77 7B050000 		.4byte	.LLST32
 4236 0f7b 00       		.byte	0
ARM GAS  /tmp/ccBs6P4c.s 			page 139


 4237 0f7c 47       		.uleb128 0x47
 4238 0f7d DF090000 		.4byte	0x9df
 4239 0f81 86010000 		.4byte	.LBB203
 4240 0f85 06000000 		.4byte	.LBE203-.LBB203
 4241 0f89 01       		.byte	0x1
 4242 0f8a 0B01     		.2byte	0x10b
 4243 0f8c AA0F0000 		.4byte	0xfaa
 4244 0f90 2F       		.uleb128 0x2f
 4245 0f91 EC090000 		.4byte	0x9ec
 4246 0f95 B1050000 		.4byte	.LLST33
 4247 0f99 49       		.uleb128 0x49
 4248 0f9a 8C010000 		.4byte	.LVL108
 4249 0f9e 79120000 		.4byte	0x1279
 4250 0fa2 2C       		.uleb128 0x2c
 4251 0fa3 01       		.uleb128 0x1
 4252 0fa4 50       		.byte	0x50
 4253 0fa5 02       		.uleb128 0x2
 4254 0fa6 08       		.byte	0x8
 4255 0fa7 C8       		.byte	0xc8
 4256 0fa8 00       		.byte	0
 4257 0fa9 00       		.byte	0
 4258 0faa 47       		.uleb128 0x47
 4259 0fab B5090000 		.4byte	0x9b5
 4260 0faf CE010000 		.4byte	.LBB207
 4261 0fb3 12000000 		.4byte	.LBE207-.LBB207
 4262 0fb7 01       		.byte	0x1
 4263 0fb8 0F01     		.2byte	0x10f
 4264 0fba C80F0000 		.4byte	0xfc8
 4265 0fbe 2F       		.uleb128 0x2f
 4266 0fbf C1090000 		.4byte	0x9c1
 4267 0fc3 D3050000 		.4byte	.LLST34
 4268 0fc7 00       		.byte	0
 4269 0fc8 47       		.uleb128 0x47
 4270 0fc9 010E0000 		.4byte	0xe01
 4271 0fcd 08020000 		.4byte	.LBB210
 4272 0fd1 2A000000 		.4byte	.LBE210-.LBB210
 4273 0fd5 01       		.byte	0x1
 4274 0fd6 1201     		.2byte	0x112
 4275 0fd8 F00F0000 		.4byte	0xff0
 4276 0fdc 3D       		.uleb128 0x3d
 4277 0fdd 08020000 		.4byte	.LBB211
 4278 0fe1 2A000000 		.4byte	.LBE211-.LBB211
 4279 0fe5 3C       		.uleb128 0x3c
 4280 0fe6 0D0E0000 		.4byte	0xe0d
 4281 0fea FE050000 		.4byte	.LLST35
 4282 0fee 00       		.byte	0
 4283 0fef 00       		.byte	0
 4284 0ff0 47       		.uleb128 0x47
 4285 0ff1 B5090000 		.4byte	0x9b5
 4286 0ff5 34020000 		.4byte	.LBB213
 4287 0ff9 10000000 		.4byte	.LBE213-.LBB213
 4288 0ffd 01       		.byte	0x1
 4289 0ffe 1301     		.2byte	0x113
 4290 1000 0E100000 		.4byte	0x100e
 4291 1004 2F       		.uleb128 0x2f
 4292 1005 C1090000 		.4byte	0x9c1
 4293 1009 3B060000 		.4byte	.LLST36
ARM GAS  /tmp/ccBs6P4c.s 			page 140


 4294 100d 00       		.byte	0
 4295 100e 47       		.uleb128 0x47
 4296 100f B5090000 		.4byte	0x9b5
 4297 1013 4E020000 		.4byte	.LBB215
 4298 1017 16000000 		.4byte	.LBE215-.LBB215
 4299 101b 01       		.byte	0x1
 4300 101c 1401     		.2byte	0x114
 4301 101e 2C100000 		.4byte	0x102c
 4302 1022 2F       		.uleb128 0x2f
 4303 1023 C1090000 		.4byte	0x9c1
 4304 1027 66060000 		.4byte	.LLST37
 4305 102b 00       		.byte	0
 4306 102c 47       		.uleb128 0x47
 4307 102d B5090000 		.4byte	0x9b5
 4308 1031 A4020000 		.4byte	.LBB217
 4309 1035 12000000 		.4byte	.LBE217-.LBB217
 4310 1039 01       		.byte	0x1
 4311 103a 1F01     		.2byte	0x11f
 4312 103c 4A100000 		.4byte	0x104a
 4313 1040 2F       		.uleb128 0x2f
 4314 1041 C1090000 		.4byte	0x9c1
 4315 1045 9C060000 		.4byte	.LLST38
 4316 1049 00       		.byte	0
 4317 104a 4A       		.uleb128 0x4a
 4318 104b 1C000000 		.4byte	.LVL58
 4319 104f 9D0C0000 		.4byte	0xc9d
 4320 1053 61100000 		.4byte	0x1061
 4321 1057 2C       		.uleb128 0x2c
 4322 1058 01       		.uleb128 0x1
 4323 1059 50       		.byte	0x50
 4324 105a 05       		.uleb128 0x5
 4325 105b 03       		.byte	0x3
 4326 105c 04000000 		.4byte	.LC1
 4327 1060 00       		.byte	0
 4328 1061 4A       		.uleb128 0x4a
 4329 1062 28000000 		.4byte	.LVL59
 4330 1066 9D0C0000 		.4byte	0xc9d
 4331 106a 78100000 		.4byte	0x1078
 4332 106e 2C       		.uleb128 0x2c
 4333 106f 01       		.uleb128 0x1
 4334 1070 50       		.byte	0x50
 4335 1071 05       		.uleb128 0x5
 4336 1072 03       		.byte	0x3
 4337 1073 08000000 		.4byte	.LC2
 4338 1077 00       		.byte	0
 4339 1078 4A       		.uleb128 0x4a
 4340 1079 38000000 		.4byte	.LVL60
 4341 107d 9D0C0000 		.4byte	0xc9d
 4342 1081 8F100000 		.4byte	0x108f
 4343 1085 2C       		.uleb128 0x2c
 4344 1086 01       		.uleb128 0x1
 4345 1087 50       		.byte	0x50
 4346 1088 05       		.uleb128 0x5
 4347 1089 03       		.byte	0x3
 4348 108a 24000000 		.4byte	.LC3
 4349 108e 00       		.byte	0
 4350 108f 4A       		.uleb128 0x4a
ARM GAS  /tmp/ccBs6P4c.s 			page 141


 4351 1090 5E000000 		.4byte	.LVL66
 4352 1094 9D0C0000 		.4byte	0xc9d
 4353 1098 A6100000 		.4byte	0x10a6
 4354 109c 2C       		.uleb128 0x2c
 4355 109d 01       		.uleb128 0x1
 4356 109e 50       		.byte	0x50
 4357 109f 05       		.uleb128 0x5
 4358 10a0 03       		.byte	0x3
 4359 10a1 AC000000 		.4byte	.LC14
 4360 10a5 00       		.byte	0
 4361 10a6 4A       		.uleb128 0x4a
 4362 10a7 84000000 		.4byte	.LVL72
 4363 10ab 9D0C0000 		.4byte	0xc9d
 4364 10af BD100000 		.4byte	0x10bd
 4365 10b3 2C       		.uleb128 0x2c
 4366 10b4 01       		.uleb128 0x1
 4367 10b5 50       		.byte	0x50
 4368 10b6 05       		.uleb128 0x5
 4369 10b7 03       		.byte	0x3
 4370 10b8 D8000000 		.4byte	.LC16
 4371 10bc 00       		.byte	0
 4372 10bd 4A       		.uleb128 0x4a
 4373 10be AC000000 		.4byte	.LVL77
 4374 10c2 9D0C0000 		.4byte	0xc9d
 4375 10c6 D4100000 		.4byte	0x10d4
 4376 10ca 2C       		.uleb128 0x2c
 4377 10cb 01       		.uleb128 0x1
 4378 10cc 50       		.byte	0x50
 4379 10cd 05       		.uleb128 0x5
 4380 10ce 03       		.byte	0x3
 4381 10cf 3C000000 		.4byte	.LC5
 4382 10d3 00       		.byte	0
 4383 10d4 4B       		.uleb128 0x4b
 4384 10d5 B0000000 		.4byte	.LVL78
 4385 10d9 8B120000 		.4byte	0x128b
 4386 10dd 4A       		.uleb128 0x4a
 4387 10de C0000000 		.4byte	.LVL79
 4388 10e2 9D0C0000 		.4byte	0xc9d
 4389 10e6 F4100000 		.4byte	0x10f4
 4390 10ea 2C       		.uleb128 0x2c
 4391 10eb 01       		.uleb128 0x1
 4392 10ec 50       		.byte	0x50
 4393 10ed 05       		.uleb128 0x5
 4394 10ee 03       		.byte	0x3
 4395 10ef 04000000 		.4byte	.LC1
 4396 10f3 00       		.byte	0
 4397 10f4 4B       		.uleb128 0x4b
 4398 10f5 08010000 		.4byte	.LVL86
 4399 10f9 F9090000 		.4byte	0x9f9
 4400 10fd 4A       		.uleb128 0x4a
 4401 10fe 2C010000 		.4byte	.LVL91
 4402 1102 75090000 		.4byte	0x975
 4403 1106 12110000 		.4byte	0x1112
 4404 110a 2C       		.uleb128 0x2c
 4405 110b 01       		.uleb128 0x1
 4406 110c 50       		.byte	0x50
 4407 110d 03       		.uleb128 0x3
ARM GAS  /tmp/ccBs6P4c.s 			page 142


 4408 110e 91       		.byte	0x91
 4409 110f 50       		.sleb128 -48
 4410 1110 06       		.byte	0x6
 4411 1111 00       		.byte	0
 4412 1112 4A       		.uleb128 0x4a
 4413 1113 44010000 		.4byte	.LVL95
 4414 1117 75090000 		.4byte	0x975
 4415 111b 26110000 		.4byte	0x1126
 4416 111f 2C       		.uleb128 0x2c
 4417 1120 01       		.uleb128 0x1
 4418 1121 50       		.byte	0x50
 4419 1122 02       		.uleb128 0x2
 4420 1123 76       		.byte	0x76
 4421 1124 00       		.sleb128 0
 4422 1125 00       		.byte	0
 4423 1126 4A       		.uleb128 0x4a
 4424 1127 86010000 		.4byte	.LVL107
 4425 112b 9D0C0000 		.4byte	0xc9d
 4426 112f 3D110000 		.4byte	0x113d
 4427 1133 2C       		.uleb128 0x2c
 4428 1134 01       		.uleb128 0x1
 4429 1135 50       		.byte	0x50
 4430 1136 05       		.uleb128 0x5
 4431 1137 03       		.byte	0x3
 4432 1138 64000000 		.4byte	.LC7
 4433 113c 00       		.byte	0
 4434 113d 4B       		.uleb128 0x4b
 4435 113e F2010000 		.4byte	.LVL119
 4436 1142 75090000 		.4byte	0x975
 4437 1146 4A       		.uleb128 0x4a
 4438 1147 70020000 		.4byte	.LVL142
 4439 114b 9D0C0000 		.4byte	0xc9d
 4440 114f 5D110000 		.4byte	0x115d
 4441 1153 2C       		.uleb128 0x2c
 4442 1154 01       		.uleb128 0x1
 4443 1155 50       		.byte	0x50
 4444 1156 05       		.uleb128 0x5
 4445 1157 03       		.byte	0x3
 4446 1158 84000000 		.4byte	.LC10
 4447 115c 00       		.byte	0
 4448 115d 4B       		.uleb128 0x4b
 4449 115e 90020000 		.4byte	.LVL146
 4450 1162 F9090000 		.4byte	0x9f9
 4451 1166 4A       		.uleb128 0x4a
 4452 1167 A0020000 		.4byte	.LVL147
 4453 116b 9D0C0000 		.4byte	0xc9d
 4454 116f 7D110000 		.4byte	0x117d
 4455 1173 2C       		.uleb128 0x2c
 4456 1174 01       		.uleb128 0x1
 4457 1175 50       		.byte	0x50
 4458 1176 05       		.uleb128 0x5
 4459 1177 03       		.byte	0x3
 4460 1178 04000000 		.4byte	.LC1
 4461 117c 00       		.byte	0
 4462 117d 4A       		.uleb128 0x4a
 4463 117e C8020000 		.4byte	.LVL152
 4464 1182 9D0C0000 		.4byte	0xc9d
ARM GAS  /tmp/ccBs6P4c.s 			page 143


 4465 1186 94110000 		.4byte	0x1194
 4466 118a 2C       		.uleb128 0x2c
 4467 118b 01       		.uleb128 0x1
 4468 118c 50       		.byte	0x50
 4469 118d 05       		.uleb128 0x5
 4470 118e 03       		.byte	0x3
 4471 118f A4000000 		.4byte	.LC13
 4472 1193 00       		.byte	0
 4473 1194 4A       		.uleb128 0x4a
 4474 1195 DE020000 		.4byte	.LVL154
 4475 1199 9D0C0000 		.4byte	0xc9d
 4476 119d AB110000 		.4byte	0x11ab
 4477 11a1 2C       		.uleb128 0x2c
 4478 11a2 01       		.uleb128 0x1
 4479 11a3 50       		.byte	0x50
 4480 11a4 05       		.uleb128 0x5
 4481 11a5 03       		.byte	0x3
 4482 11a6 88000000 		.4byte	.LC11
 4483 11aa 00       		.byte	0
 4484 11ab 49       		.uleb128 0x49
 4485 11ac EC020000 		.4byte	.LVL156
 4486 11b0 9D0C0000 		.4byte	0xc9d
 4487 11b4 2C       		.uleb128 0x2c
 4488 11b5 01       		.uleb128 0x1
 4489 11b6 50       		.byte	0x50
 4490 11b7 05       		.uleb128 0x5
 4491 11b8 03       		.byte	0x3
 4492 11b9 9C000000 		.4byte	.LC12
 4493 11bd 00       		.byte	0
 4494 11be 00       		.byte	0
 4495 11bf 0A       		.uleb128 0xa
 4496 11c0 04       		.byte	0x4
 4497 11c1 D1070000 		.4byte	0x7d1
 4498 11c5 4C       		.uleb128 0x4c
 4499 11c6 E1050000 		.4byte	.LASF139
 4500 11ca 01       		.byte	0x1
 4501 11cb 37       		.byte	0x37
 4502 11cc EF060000 		.4byte	0x6ef
 4503 11d0 05       		.uleb128 0x5
 4504 11d1 03       		.byte	0x3
 4505 11d2 00000000 		.4byte	test_local_fail
 4506 11d6 4C       		.uleb128 0x4c
 4507 11d7 F1060000 		.4byte	.LASF140
 4508 11db 01       		.byte	0x1
 4509 11dc 38       		.byte	0x38
 4510 11dd BB060000 		.4byte	0x6bb
 4511 11e1 05       		.uleb128 0x5
 4512 11e2 03       		.byte	0x3
 4513 11e3 00000000 		.4byte	test_failure_message
 4514 11e7 4C       		.uleb128 0x4c
 4515 11e8 99000000 		.4byte	.LASF141
 4516 11ec 01       		.byte	0x1
 4517 11ed 39       		.byte	0x39
 4518 11ee 9F090000 		.4byte	0x99f
 4519 11f2 05       		.uleb128 0x5
 4520 11f3 03       		.byte	0x3
 4521 11f4 00000000 		.4byte	test_tokens_buffer
ARM GAS  /tmp/ccBs6P4c.s 			page 144


 4522 11f8 4C       		.uleb128 0x4c
 4523 11f9 7C000000 		.4byte	.LASF142
 4524 11fd 01       		.byte	0x1
 4525 11fe 3A       		.byte	0x3a
 4526 11ff AF090000 		.4byte	0x9af
 4527 1203 05       		.uleb128 0x5
 4528 1204 03       		.byte	0x3
 4529 1205 00000000 		.4byte	test_tokp
 4530 1209 4C       		.uleb128 0x4c
 4531 120a D8050000 		.4byte	.LASF143
 4532 120e 01       		.byte	0x1
 4533 120f 3B       		.byte	0x3b
 4534 1210 BF110000 		.4byte	0x11bf
 4535 1214 05       		.uleb128 0x5
 4536 1215 03       		.byte	0x3
 4537 1216 00000000 		.4byte	test_chp
 4538 121a 4D       		.uleb128 0x4d
 4539 121b CA000000 		.4byte	.LASF144
 4540 121f 14       		.byte	0x14
 4541 1220 9606     		.2byte	0x696
 4542 1222 26120000 		.4byte	0x1226
 4543 1226 0F       		.uleb128 0xf
 4544 1227 70000000 		.4byte	0x70
 4545 122b 4E       		.uleb128 0x4e
 4546 122c 636800   		.ascii	"ch\000"
 4547 122f 0A       		.byte	0xa
 4548 1230 D201     		.2byte	0x1d2
 4549 1232 A5030000 		.4byte	0x3a5
 4550 1236 4F       		.uleb128 0x4f
 4551 1237 92030000 		.4byte	.LASF145
 4552 123b 01       		.byte	0x1
 4553 123c 28       		.byte	0x28
 4554 123d 37000000 		.4byte	0x37
 4555 1241 05       		.uleb128 0x5
 4556 1242 03       		.byte	0x3
 4557 1243 00000000 		.4byte	test_step
 4558 1247 4F       		.uleb128 0x4f
 4559 1248 A0050000 		.4byte	.LASF146
 4560 124c 01       		.byte	0x1
 4561 124d 2D       		.byte	0x2d
 4562 124e EF060000 		.4byte	0x6ef
 4563 1252 05       		.uleb128 0x5
 4564 1253 03       		.byte	0x3
 4565 1254 00000000 		.4byte	test_global_fail
 4566 1258 10       		.uleb128 0x10
 4567 1259 63120000 		.4byte	0x1263
 4568 125d 63120000 		.4byte	0x1263
 4569 1261 50       		.uleb128 0x50
 4570 1262 00       		.byte	0
 4571 1263 0A       		.uleb128 0xa
 4572 1264 04       		.byte	0x4
 4573 1265 69120000 		.4byte	0x1269
 4574 1269 17       		.uleb128 0x17
 4575 126a F60D0000 		.4byte	0xdf6
 4576 126e 51       		.uleb128 0x51
 4577 126f 58050000 		.4byte	.LASF147
 4578 1273 15       		.byte	0x15
ARM GAS  /tmp/ccBs6P4c.s 			page 145


 4579 1274 2D       		.byte	0x2d
 4580 1275 58120000 		.4byte	0x1258
 4581 1279 52       		.uleb128 0x52
 4582 127a C1040000 		.4byte	.LASF148
 4583 127e 16       		.byte	0x16
 4584 127f 0901     		.2byte	0x109
 4585 1281 8B120000 		.4byte	0x128b
 4586 1285 0D       		.uleb128 0xd
 4587 1286 FA000000 		.4byte	0xfa
 4588 128a 00       		.byte	0
 4589 128b 53       		.uleb128 0x53
 4590 128c 05060000 		.4byte	.LASF153
 4591 1290 15       		.byte	0x15
 4592 1291 5F       		.byte	0x5f
 4593 1292 00       		.byte	0
 4594              		.section	.debug_abbrev,"",%progbits
 4595              	.Ldebug_abbrev0:
 4596 0000 01       		.uleb128 0x1
 4597 0001 11       		.uleb128 0x11
 4598 0002 01       		.byte	0x1
 4599 0003 25       		.uleb128 0x25
 4600 0004 0E       		.uleb128 0xe
 4601 0005 13       		.uleb128 0x13
 4602 0006 0B       		.uleb128 0xb
 4603 0007 03       		.uleb128 0x3
 4604 0008 0E       		.uleb128 0xe
 4605 0009 1B       		.uleb128 0x1b
 4606 000a 0E       		.uleb128 0xe
 4607 000b 55       		.uleb128 0x55
 4608 000c 17       		.uleb128 0x17
 4609 000d 11       		.uleb128 0x11
 4610 000e 01       		.uleb128 0x1
 4611 000f 10       		.uleb128 0x10
 4612 0010 17       		.uleb128 0x17
 4613 0011 00       		.byte	0
 4614 0012 00       		.byte	0
 4615 0013 02       		.uleb128 0x2
 4616 0014 24       		.uleb128 0x24
 4617 0015 00       		.byte	0
 4618 0016 0B       		.uleb128 0xb
 4619 0017 0B       		.uleb128 0xb
 4620 0018 3E       		.uleb128 0x3e
 4621 0019 0B       		.uleb128 0xb
 4622 001a 03       		.uleb128 0x3
 4623 001b 08       		.uleb128 0x8
 4624 001c 00       		.byte	0
 4625 001d 00       		.byte	0
 4626 001e 03       		.uleb128 0x3
 4627 001f 16       		.uleb128 0x16
 4628 0020 00       		.byte	0
 4629 0021 03       		.uleb128 0x3
 4630 0022 0E       		.uleb128 0xe
 4631 0023 3A       		.uleb128 0x3a
 4632 0024 0B       		.uleb128 0xb
 4633 0025 3B       		.uleb128 0x3b
 4634 0026 0B       		.uleb128 0xb
 4635 0027 49       		.uleb128 0x49
ARM GAS  /tmp/ccBs6P4c.s 			page 146


 4636 0028 13       		.uleb128 0x13
 4637 0029 00       		.byte	0
 4638 002a 00       		.byte	0
 4639 002b 04       		.uleb128 0x4
 4640 002c 24       		.uleb128 0x24
 4641 002d 00       		.byte	0
 4642 002e 0B       		.uleb128 0xb
 4643 002f 0B       		.uleb128 0xb
 4644 0030 3E       		.uleb128 0x3e
 4645 0031 0B       		.uleb128 0xb
 4646 0032 03       		.uleb128 0x3
 4647 0033 0E       		.uleb128 0xe
 4648 0034 00       		.byte	0
 4649 0035 00       		.byte	0
 4650 0036 05       		.uleb128 0x5
 4651 0037 13       		.uleb128 0x13
 4652 0038 01       		.byte	0x1
 4653 0039 03       		.uleb128 0x3
 4654 003a 0E       		.uleb128 0xe
 4655 003b 0B       		.uleb128 0xb
 4656 003c 0B       		.uleb128 0xb
 4657 003d 3A       		.uleb128 0x3a
 4658 003e 0B       		.uleb128 0xb
 4659 003f 3B       		.uleb128 0x3b
 4660 0040 0B       		.uleb128 0xb
 4661 0041 01       		.uleb128 0x1
 4662 0042 13       		.uleb128 0x13
 4663 0043 00       		.byte	0
 4664 0044 00       		.byte	0
 4665 0045 06       		.uleb128 0x6
 4666 0046 0D       		.uleb128 0xd
 4667 0047 00       		.byte	0
 4668 0048 03       		.uleb128 0x3
 4669 0049 0E       		.uleb128 0xe
 4670 004a 3A       		.uleb128 0x3a
 4671 004b 0B       		.uleb128 0xb
 4672 004c 3B       		.uleb128 0x3b
 4673 004d 0B       		.uleb128 0xb
 4674 004e 49       		.uleb128 0x49
 4675 004f 13       		.uleb128 0x13
 4676 0050 38       		.uleb128 0x38
 4677 0051 0B       		.uleb128 0xb
 4678 0052 00       		.byte	0
 4679 0053 00       		.byte	0
 4680 0054 07       		.uleb128 0x7
 4681 0055 0D       		.uleb128 0xd
 4682 0056 00       		.byte	0
 4683 0057 03       		.uleb128 0x3
 4684 0058 08       		.uleb128 0x8
 4685 0059 3A       		.uleb128 0x3a
 4686 005a 0B       		.uleb128 0xb
 4687 005b 3B       		.uleb128 0x3b
 4688 005c 0B       		.uleb128 0xb
 4689 005d 49       		.uleb128 0x49
 4690 005e 13       		.uleb128 0x13
 4691 005f 38       		.uleb128 0x38
 4692 0060 0B       		.uleb128 0xb
ARM GAS  /tmp/ccBs6P4c.s 			page 147


 4693 0061 00       		.byte	0
 4694 0062 00       		.byte	0
 4695 0063 08       		.uleb128 0x8
 4696 0064 0D       		.uleb128 0xd
 4697 0065 00       		.byte	0
 4698 0066 03       		.uleb128 0x3
 4699 0067 08       		.uleb128 0x8
 4700 0068 3A       		.uleb128 0x3a
 4701 0069 0B       		.uleb128 0xb
 4702 006a 3B       		.uleb128 0x3b
 4703 006b 05       		.uleb128 0x5
 4704 006c 49       		.uleb128 0x49
 4705 006d 13       		.uleb128 0x13
 4706 006e 38       		.uleb128 0x38
 4707 006f 0B       		.uleb128 0xb
 4708 0070 00       		.byte	0
 4709 0071 00       		.byte	0
 4710 0072 09       		.uleb128 0x9
 4711 0073 0D       		.uleb128 0xd
 4712 0074 00       		.byte	0
 4713 0075 03       		.uleb128 0x3
 4714 0076 0E       		.uleb128 0xe
 4715 0077 3A       		.uleb128 0x3a
 4716 0078 0B       		.uleb128 0xb
 4717 0079 3B       		.uleb128 0x3b
 4718 007a 05       		.uleb128 0x5
 4719 007b 49       		.uleb128 0x49
 4720 007c 13       		.uleb128 0x13
 4721 007d 38       		.uleb128 0x38
 4722 007e 0B       		.uleb128 0xb
 4723 007f 00       		.byte	0
 4724 0080 00       		.byte	0
 4725 0081 0A       		.uleb128 0xa
 4726 0082 0F       		.uleb128 0xf
 4727 0083 00       		.byte	0
 4728 0084 0B       		.uleb128 0xb
 4729 0085 0B       		.uleb128 0xb
 4730 0086 49       		.uleb128 0x49
 4731 0087 13       		.uleb128 0x13
 4732 0088 00       		.byte	0
 4733 0089 00       		.byte	0
 4734 008a 0B       		.uleb128 0xb
 4735 008b 13       		.uleb128 0x13
 4736 008c 01       		.byte	0x1
 4737 008d 03       		.uleb128 0x3
 4738 008e 0E       		.uleb128 0xe
 4739 008f 0B       		.uleb128 0xb
 4740 0090 0B       		.uleb128 0xb
 4741 0091 3A       		.uleb128 0x3a
 4742 0092 0B       		.uleb128 0xb
 4743 0093 3B       		.uleb128 0x3b
 4744 0094 05       		.uleb128 0x5
 4745 0095 01       		.uleb128 0x1
 4746 0096 13       		.uleb128 0x13
 4747 0097 00       		.byte	0
 4748 0098 00       		.byte	0
 4749 0099 0C       		.uleb128 0xc
ARM GAS  /tmp/ccBs6P4c.s 			page 148


 4750 009a 15       		.uleb128 0x15
 4751 009b 01       		.byte	0x1
 4752 009c 27       		.uleb128 0x27
 4753 009d 19       		.uleb128 0x19
 4754 009e 01       		.uleb128 0x1
 4755 009f 13       		.uleb128 0x13
 4756 00a0 00       		.byte	0
 4757 00a1 00       		.byte	0
 4758 00a2 0D       		.uleb128 0xd
 4759 00a3 05       		.uleb128 0x5
 4760 00a4 00       		.byte	0
 4761 00a5 49       		.uleb128 0x49
 4762 00a6 13       		.uleb128 0x13
 4763 00a7 00       		.byte	0
 4764 00a8 00       		.byte	0
 4765 00a9 0E       		.uleb128 0xe
 4766 00aa 0F       		.uleb128 0xf
 4767 00ab 00       		.byte	0
 4768 00ac 0B       		.uleb128 0xb
 4769 00ad 0B       		.uleb128 0xb
 4770 00ae 00       		.byte	0
 4771 00af 00       		.byte	0
 4772 00b0 0F       		.uleb128 0xf
 4773 00b1 35       		.uleb128 0x35
 4774 00b2 00       		.byte	0
 4775 00b3 49       		.uleb128 0x49
 4776 00b4 13       		.uleb128 0x13
 4777 00b5 00       		.byte	0
 4778 00b6 00       		.byte	0
 4779 00b7 10       		.uleb128 0x10
 4780 00b8 01       		.uleb128 0x1
 4781 00b9 01       		.byte	0x1
 4782 00ba 49       		.uleb128 0x49
 4783 00bb 13       		.uleb128 0x13
 4784 00bc 01       		.uleb128 0x1
 4785 00bd 13       		.uleb128 0x13
 4786 00be 00       		.byte	0
 4787 00bf 00       		.byte	0
 4788 00c0 11       		.uleb128 0x11
 4789 00c1 21       		.uleb128 0x21
 4790 00c2 00       		.byte	0
 4791 00c3 49       		.uleb128 0x49
 4792 00c4 13       		.uleb128 0x13
 4793 00c5 2F       		.uleb128 0x2f
 4794 00c6 0B       		.uleb128 0xb
 4795 00c7 00       		.byte	0
 4796 00c8 00       		.byte	0
 4797 00c9 12       		.uleb128 0x12
 4798 00ca 13       		.uleb128 0x13
 4799 00cb 01       		.byte	0x1
 4800 00cc 0B       		.uleb128 0xb
 4801 00cd 0B       		.uleb128 0xb
 4802 00ce 3A       		.uleb128 0x3a
 4803 00cf 0B       		.uleb128 0xb
 4804 00d0 3B       		.uleb128 0x3b
 4805 00d1 05       		.uleb128 0x5
 4806 00d2 01       		.uleb128 0x1
ARM GAS  /tmp/ccBs6P4c.s 			page 149


 4807 00d3 13       		.uleb128 0x13
 4808 00d4 00       		.byte	0
 4809 00d5 00       		.byte	0
 4810 00d6 13       		.uleb128 0x13
 4811 00d7 16       		.uleb128 0x16
 4812 00d8 00       		.byte	0
 4813 00d9 03       		.uleb128 0x3
 4814 00da 0E       		.uleb128 0xe
 4815 00db 3A       		.uleb128 0x3a
 4816 00dc 0B       		.uleb128 0xb
 4817 00dd 3B       		.uleb128 0x3b
 4818 00de 05       		.uleb128 0x5
 4819 00df 49       		.uleb128 0x49
 4820 00e0 13       		.uleb128 0x13
 4821 00e1 00       		.byte	0
 4822 00e2 00       		.byte	0
 4823 00e3 14       		.uleb128 0x14
 4824 00e4 17       		.uleb128 0x17
 4825 00e5 01       		.byte	0x1
 4826 00e6 0B       		.uleb128 0xb
 4827 00e7 0B       		.uleb128 0xb
 4828 00e8 3A       		.uleb128 0x3a
 4829 00e9 0B       		.uleb128 0xb
 4830 00ea 3B       		.uleb128 0x3b
 4831 00eb 0B       		.uleb128 0xb
 4832 00ec 01       		.uleb128 0x1
 4833 00ed 13       		.uleb128 0x13
 4834 00ee 00       		.byte	0
 4835 00ef 00       		.byte	0
 4836 00f0 15       		.uleb128 0x15
 4837 00f1 0D       		.uleb128 0xd
 4838 00f2 00       		.byte	0
 4839 00f3 03       		.uleb128 0x3
 4840 00f4 0E       		.uleb128 0xe
 4841 00f5 3A       		.uleb128 0x3a
 4842 00f6 0B       		.uleb128 0xb
 4843 00f7 3B       		.uleb128 0x3b
 4844 00f8 0B       		.uleb128 0xb
 4845 00f9 49       		.uleb128 0x49
 4846 00fa 13       		.uleb128 0x13
 4847 00fb 00       		.byte	0
 4848 00fc 00       		.byte	0
 4849 00fd 16       		.uleb128 0x16
 4850 00fe 0D       		.uleb128 0xd
 4851 00ff 00       		.byte	0
 4852 0100 03       		.uleb128 0x3
 4853 0101 0E       		.uleb128 0xe
 4854 0102 3A       		.uleb128 0x3a
 4855 0103 0B       		.uleb128 0xb
 4856 0104 3B       		.uleb128 0x3b
 4857 0105 05       		.uleb128 0x5
 4858 0106 49       		.uleb128 0x49
 4859 0107 13       		.uleb128 0x13
 4860 0108 00       		.byte	0
 4861 0109 00       		.byte	0
 4862 010a 17       		.uleb128 0x17
 4863 010b 26       		.uleb128 0x26
ARM GAS  /tmp/ccBs6P4c.s 			page 150


 4864 010c 00       		.byte	0
 4865 010d 49       		.uleb128 0x49
 4866 010e 13       		.uleb128 0x13
 4867 010f 00       		.byte	0
 4868 0110 00       		.byte	0
 4869 0111 18       		.uleb128 0x18
 4870 0112 15       		.uleb128 0x15
 4871 0113 01       		.byte	0x1
 4872 0114 27       		.uleb128 0x27
 4873 0115 19       		.uleb128 0x19
 4874 0116 49       		.uleb128 0x49
 4875 0117 13       		.uleb128 0x13
 4876 0118 01       		.uleb128 0x1
 4877 0119 13       		.uleb128 0x13
 4878 011a 00       		.byte	0
 4879 011b 00       		.byte	0
 4880 011c 19       		.uleb128 0x19
 4881 011d 13       		.uleb128 0x13
 4882 011e 01       		.byte	0x1
 4883 011f 0B       		.uleb128 0xb
 4884 0120 0B       		.uleb128 0xb
 4885 0121 3A       		.uleb128 0x3a
 4886 0122 0B       		.uleb128 0xb
 4887 0123 3B       		.uleb128 0x3b
 4888 0124 0B       		.uleb128 0xb
 4889 0125 01       		.uleb128 0x1
 4890 0126 13       		.uleb128 0x13
 4891 0127 00       		.byte	0
 4892 0128 00       		.byte	0
 4893 0129 1A       		.uleb128 0x1a
 4894 012a 15       		.uleb128 0x15
 4895 012b 00       		.byte	0
 4896 012c 27       		.uleb128 0x27
 4897 012d 19       		.uleb128 0x19
 4898 012e 00       		.byte	0
 4899 012f 00       		.byte	0
 4900 0130 1B       		.uleb128 0x1b
 4901 0131 2E       		.uleb128 0x2e
 4902 0132 01       		.byte	0x1
 4903 0133 03       		.uleb128 0x3
 4904 0134 0E       		.uleb128 0xe
 4905 0135 3A       		.uleb128 0x3a
 4906 0136 0B       		.uleb128 0xb
 4907 0137 3B       		.uleb128 0x3b
 4908 0138 05       		.uleb128 0x5
 4909 0139 27       		.uleb128 0x27
 4910 013a 19       		.uleb128 0x19
 4911 013b 20       		.uleb128 0x20
 4912 013c 0B       		.uleb128 0xb
 4913 013d 01       		.uleb128 0x1
 4914 013e 13       		.uleb128 0x13
 4915 013f 00       		.byte	0
 4916 0140 00       		.byte	0
 4917 0141 1C       		.uleb128 0x1c
 4918 0142 05       		.uleb128 0x5
 4919 0143 00       		.byte	0
 4920 0144 03       		.uleb128 0x3
ARM GAS  /tmp/ccBs6P4c.s 			page 151


 4921 0145 0E       		.uleb128 0xe
 4922 0146 3A       		.uleb128 0x3a
 4923 0147 0B       		.uleb128 0xb
 4924 0148 3B       		.uleb128 0x3b
 4925 0149 05       		.uleb128 0x5
 4926 014a 49       		.uleb128 0x49
 4927 014b 13       		.uleb128 0x13
 4928 014c 00       		.byte	0
 4929 014d 00       		.byte	0
 4930 014e 1D       		.uleb128 0x1d
 4931 014f 2E       		.uleb128 0x2e
 4932 0150 00       		.byte	0
 4933 0151 03       		.uleb128 0x3
 4934 0152 0E       		.uleb128 0xe
 4935 0153 3A       		.uleb128 0x3a
 4936 0154 0B       		.uleb128 0xb
 4937 0155 3B       		.uleb128 0x3b
 4938 0156 0B       		.uleb128 0xb
 4939 0157 27       		.uleb128 0x27
 4940 0158 19       		.uleb128 0x19
 4941 0159 49       		.uleb128 0x49
 4942 015a 13       		.uleb128 0x13
 4943 015b 20       		.uleb128 0x20
 4944 015c 0B       		.uleb128 0xb
 4945 015d 00       		.byte	0
 4946 015e 00       		.byte	0
 4947 015f 1E       		.uleb128 0x1e
 4948 0160 2E       		.uleb128 0x2e
 4949 0161 00       		.byte	0
 4950 0162 03       		.uleb128 0x3
 4951 0163 0E       		.uleb128 0xe
 4952 0164 3A       		.uleb128 0x3a
 4953 0165 0B       		.uleb128 0xb
 4954 0166 3B       		.uleb128 0x3b
 4955 0167 05       		.uleb128 0x5
 4956 0168 27       		.uleb128 0x27
 4957 0169 19       		.uleb128 0x19
 4958 016a 20       		.uleb128 0x20
 4959 016b 0B       		.uleb128 0xb
 4960 016c 00       		.byte	0
 4961 016d 00       		.byte	0
 4962 016e 1F       		.uleb128 0x1f
 4963 016f 34       		.uleb128 0x34
 4964 0170 00       		.byte	0
 4965 0171 03       		.uleb128 0x3
 4966 0172 0E       		.uleb128 0xe
 4967 0173 49       		.uleb128 0x49
 4968 0174 13       		.uleb128 0x13
 4969 0175 34       		.uleb128 0x34
 4970 0176 19       		.uleb128 0x19
 4971 0177 1C       		.uleb128 0x1c
 4972 0178 0E       		.uleb128 0xe
 4973 0179 00       		.byte	0
 4974 017a 00       		.byte	0
 4975 017b 20       		.uleb128 0x20
 4976 017c 2E       		.uleb128 0x2e
 4977 017d 00       		.byte	0
ARM GAS  /tmp/ccBs6P4c.s 			page 152


 4978 017e 03       		.uleb128 0x3
 4979 017f 0E       		.uleb128 0xe
 4980 0180 3A       		.uleb128 0x3a
 4981 0181 0B       		.uleb128 0xb
 4982 0182 3B       		.uleb128 0x3b
 4983 0183 05       		.uleb128 0x5
 4984 0184 27       		.uleb128 0x27
 4985 0185 19       		.uleb128 0x19
 4986 0186 49       		.uleb128 0x49
 4987 0187 13       		.uleb128 0x13
 4988 0188 20       		.uleb128 0x20
 4989 0189 0B       		.uleb128 0xb
 4990 018a 00       		.byte	0
 4991 018b 00       		.byte	0
 4992 018c 21       		.uleb128 0x21
 4993 018d 2E       		.uleb128 0x2e
 4994 018e 01       		.byte	0x1
 4995 018f 03       		.uleb128 0x3
 4996 0190 0E       		.uleb128 0xe
 4997 0191 3A       		.uleb128 0x3a
 4998 0192 0B       		.uleb128 0xb
 4999 0193 3B       		.uleb128 0x3b
 5000 0194 05       		.uleb128 0x5
 5001 0195 27       		.uleb128 0x27
 5002 0196 19       		.uleb128 0x19
 5003 0197 49       		.uleb128 0x49
 5004 0198 13       		.uleb128 0x13
 5005 0199 20       		.uleb128 0x20
 5006 019a 0B       		.uleb128 0xb
 5007 019b 01       		.uleb128 0x1
 5008 019c 13       		.uleb128 0x13
 5009 019d 00       		.byte	0
 5010 019e 00       		.byte	0
 5011 019f 22       		.uleb128 0x22
 5012 01a0 05       		.uleb128 0x5
 5013 01a1 00       		.byte	0
 5014 01a2 03       		.uleb128 0x3
 5015 01a3 08       		.uleb128 0x8
 5016 01a4 3A       		.uleb128 0x3a
 5017 01a5 0B       		.uleb128 0xb
 5018 01a6 3B       		.uleb128 0x3b
 5019 01a7 05       		.uleb128 0x5
 5020 01a8 49       		.uleb128 0x49
 5021 01a9 13       		.uleb128 0x13
 5022 01aa 00       		.byte	0
 5023 01ab 00       		.byte	0
 5024 01ac 23       		.uleb128 0x23
 5025 01ad 2E       		.uleb128 0x2e
 5026 01ae 00       		.byte	0
 5027 01af 03       		.uleb128 0x3
 5028 01b0 0E       		.uleb128 0xe
 5029 01b1 3A       		.uleb128 0x3a
 5030 01b2 0B       		.uleb128 0xb
 5031 01b3 3B       		.uleb128 0x3b
 5032 01b4 0B       		.uleb128 0xb
 5033 01b5 27       		.uleb128 0x27
 5034 01b6 19       		.uleb128 0x19
ARM GAS  /tmp/ccBs6P4c.s 			page 153


 5035 01b7 20       		.uleb128 0x20
 5036 01b8 0B       		.uleb128 0xb
 5037 01b9 00       		.byte	0
 5038 01ba 00       		.byte	0
 5039 01bb 24       		.uleb128 0x24
 5040 01bc 2E       		.uleb128 0x2e
 5041 01bd 01       		.byte	0x1
 5042 01be 3F       		.uleb128 0x3f
 5043 01bf 19       		.uleb128 0x19
 5044 01c0 03       		.uleb128 0x3
 5045 01c1 0E       		.uleb128 0xe
 5046 01c2 3A       		.uleb128 0x3a
 5047 01c3 0B       		.uleb128 0xb
 5048 01c4 3B       		.uleb128 0x3b
 5049 01c5 0B       		.uleb128 0xb
 5050 01c6 27       		.uleb128 0x27
 5051 01c7 19       		.uleb128 0x19
 5052 01c8 49       		.uleb128 0x49
 5053 01c9 13       		.uleb128 0x13
 5054 01ca 20       		.uleb128 0x20
 5055 01cb 0B       		.uleb128 0xb
 5056 01cc 01       		.uleb128 0x1
 5057 01cd 13       		.uleb128 0x13
 5058 01ce 00       		.byte	0
 5059 01cf 00       		.byte	0
 5060 01d0 25       		.uleb128 0x25
 5061 01d1 05       		.uleb128 0x5
 5062 01d2 00       		.byte	0
 5063 01d3 03       		.uleb128 0x3
 5064 01d4 08       		.uleb128 0x8
 5065 01d5 3A       		.uleb128 0x3a
 5066 01d6 0B       		.uleb128 0xb
 5067 01d7 3B       		.uleb128 0x3b
 5068 01d8 0B       		.uleb128 0xb
 5069 01d9 49       		.uleb128 0x49
 5070 01da 13       		.uleb128 0x13
 5071 01db 00       		.byte	0
 5072 01dc 00       		.byte	0
 5073 01dd 26       		.uleb128 0x26
 5074 01de 05       		.uleb128 0x5
 5075 01df 00       		.byte	0
 5076 01e0 03       		.uleb128 0x3
 5077 01e1 0E       		.uleb128 0xe
 5078 01e2 3A       		.uleb128 0x3a
 5079 01e3 0B       		.uleb128 0xb
 5080 01e4 3B       		.uleb128 0x3b
 5081 01e5 0B       		.uleb128 0xb
 5082 01e6 49       		.uleb128 0x49
 5083 01e7 13       		.uleb128 0x13
 5084 01e8 00       		.byte	0
 5085 01e9 00       		.byte	0
 5086 01ea 27       		.uleb128 0x27
 5087 01eb 2E       		.uleb128 0x2e
 5088 01ec 01       		.byte	0x1
 5089 01ed 3F       		.uleb128 0x3f
 5090 01ee 19       		.uleb128 0x19
 5091 01ef 03       		.uleb128 0x3
ARM GAS  /tmp/ccBs6P4c.s 			page 154


 5092 01f0 0E       		.uleb128 0xe
 5093 01f1 3A       		.uleb128 0x3a
 5094 01f2 0B       		.uleb128 0xb
 5095 01f3 3B       		.uleb128 0x3b
 5096 01f4 0B       		.uleb128 0xb
 5097 01f5 27       		.uleb128 0x27
 5098 01f6 19       		.uleb128 0x19
 5099 01f7 20       		.uleb128 0x20
 5100 01f8 0B       		.uleb128 0xb
 5101 01f9 01       		.uleb128 0x1
 5102 01fa 13       		.uleb128 0x13
 5103 01fb 00       		.byte	0
 5104 01fc 00       		.byte	0
 5105 01fd 28       		.uleb128 0x28
 5106 01fe 34       		.uleb128 0x34
 5107 01ff 00       		.byte	0
 5108 0200 03       		.uleb128 0x3
 5109 0201 08       		.uleb128 0x8
 5110 0202 3A       		.uleb128 0x3a
 5111 0203 0B       		.uleb128 0xb
 5112 0204 3B       		.uleb128 0x3b
 5113 0205 0B       		.uleb128 0xb
 5114 0206 49       		.uleb128 0x49
 5115 0207 13       		.uleb128 0x13
 5116 0208 00       		.byte	0
 5117 0209 00       		.byte	0
 5118 020a 29       		.uleb128 0x29
 5119 020b 2E       		.uleb128 0x2e
 5120 020c 01       		.byte	0x1
 5121 020d 03       		.uleb128 0x3
 5122 020e 0E       		.uleb128 0xe
 5123 020f 3A       		.uleb128 0x3a
 5124 0210 0B       		.uleb128 0xb
 5125 0211 3B       		.uleb128 0x3b
 5126 0212 0B       		.uleb128 0xb
 5127 0213 27       		.uleb128 0x27
 5128 0214 19       		.uleb128 0x19
 5129 0215 11       		.uleb128 0x11
 5130 0216 01       		.uleb128 0x1
 5131 0217 12       		.uleb128 0x12
 5132 0218 06       		.uleb128 0x6
 5133 0219 40       		.uleb128 0x40
 5134 021a 18       		.uleb128 0x18
 5135 021b 9742     		.uleb128 0x2117
 5136 021d 19       		.uleb128 0x19
 5137 021e 01       		.uleb128 0x1
 5138 021f 13       		.uleb128 0x13
 5139 0220 00       		.byte	0
 5140 0221 00       		.byte	0
 5141 0222 2A       		.uleb128 0x2a
 5142 0223 34       		.uleb128 0x34
 5143 0224 00       		.byte	0
 5144 0225 03       		.uleb128 0x3
 5145 0226 08       		.uleb128 0x8
 5146 0227 3A       		.uleb128 0x3a
 5147 0228 0B       		.uleb128 0xb
 5148 0229 3B       		.uleb128 0x3b
ARM GAS  /tmp/ccBs6P4c.s 			page 155


 5149 022a 0B       		.uleb128 0xb
 5150 022b 49       		.uleb128 0x49
 5151 022c 13       		.uleb128 0x13
 5152 022d 02       		.uleb128 0x2
 5153 022e 17       		.uleb128 0x17
 5154 022f 00       		.byte	0
 5155 0230 00       		.byte	0
 5156 0231 2B       		.uleb128 0x2b
 5157 0232 898201   		.uleb128 0x4109
 5158 0235 01       		.byte	0x1
 5159 0236 11       		.uleb128 0x11
 5160 0237 01       		.uleb128 0x1
 5161 0238 01       		.uleb128 0x1
 5162 0239 13       		.uleb128 0x13
 5163 023a 00       		.byte	0
 5164 023b 00       		.byte	0
 5165 023c 2C       		.uleb128 0x2c
 5166 023d 8A8201   		.uleb128 0x410a
 5167 0240 00       		.byte	0
 5168 0241 02       		.uleb128 0x2
 5169 0242 18       		.uleb128 0x18
 5170 0243 9142     		.uleb128 0x2111
 5171 0245 18       		.uleb128 0x18
 5172 0246 00       		.byte	0
 5173 0247 00       		.byte	0
 5174 0248 2D       		.uleb128 0x2d
 5175 0249 898201   		.uleb128 0x4109
 5176 024c 01       		.byte	0x1
 5177 024d 11       		.uleb128 0x11
 5178 024e 01       		.uleb128 0x1
 5179 024f 00       		.byte	0
 5180 0250 00       		.byte	0
 5181 0251 2E       		.uleb128 0x2e
 5182 0252 2E       		.uleb128 0x2e
 5183 0253 01       		.byte	0x1
 5184 0254 31       		.uleb128 0x31
 5185 0255 13       		.uleb128 0x13
 5186 0256 11       		.uleb128 0x11
 5187 0257 01       		.uleb128 0x1
 5188 0258 12       		.uleb128 0x12
 5189 0259 06       		.uleb128 0x6
 5190 025a 40       		.uleb128 0x40
 5191 025b 18       		.uleb128 0x18
 5192 025c 9742     		.uleb128 0x2117
 5193 025e 19       		.uleb128 0x19
 5194 025f 01       		.uleb128 0x1
 5195 0260 13       		.uleb128 0x13
 5196 0261 00       		.byte	0
 5197 0262 00       		.byte	0
 5198 0263 2F       		.uleb128 0x2f
 5199 0264 05       		.uleb128 0x5
 5200 0265 00       		.byte	0
 5201 0266 31       		.uleb128 0x31
 5202 0267 13       		.uleb128 0x13
 5203 0268 02       		.uleb128 0x2
 5204 0269 17       		.uleb128 0x17
 5205 026a 00       		.byte	0
ARM GAS  /tmp/ccBs6P4c.s 			page 156


 5206 026b 00       		.byte	0
 5207 026c 30       		.uleb128 0x30
 5208 026d 05       		.uleb128 0x5
 5209 026e 00       		.byte	0
 5210 026f 31       		.uleb128 0x31
 5211 0270 13       		.uleb128 0x13
 5212 0271 02       		.uleb128 0x2
 5213 0272 18       		.uleb128 0x18
 5214 0273 00       		.byte	0
 5215 0274 00       		.byte	0
 5216 0275 31       		.uleb128 0x31
 5217 0276 1D       		.uleb128 0x1d
 5218 0277 01       		.byte	0x1
 5219 0278 31       		.uleb128 0x31
 5220 0279 13       		.uleb128 0x13
 5221 027a 11       		.uleb128 0x11
 5222 027b 01       		.uleb128 0x1
 5223 027c 12       		.uleb128 0x12
 5224 027d 06       		.uleb128 0x6
 5225 027e 58       		.uleb128 0x58
 5226 027f 0B       		.uleb128 0xb
 5227 0280 59       		.uleb128 0x59
 5228 0281 0B       		.uleb128 0xb
 5229 0282 00       		.byte	0
 5230 0283 00       		.byte	0
 5231 0284 32       		.uleb128 0x32
 5232 0285 2E       		.uleb128 0x2e
 5233 0286 01       		.byte	0x1
 5234 0287 3F       		.uleb128 0x3f
 5235 0288 19       		.uleb128 0x19
 5236 0289 03       		.uleb128 0x3
 5237 028a 0E       		.uleb128 0xe
 5238 028b 3A       		.uleb128 0x3a
 5239 028c 0B       		.uleb128 0xb
 5240 028d 3B       		.uleb128 0x3b
 5241 028e 0B       		.uleb128 0xb
 5242 028f 27       		.uleb128 0x27
 5243 0290 19       		.uleb128 0x19
 5244 0291 49       		.uleb128 0x49
 5245 0292 13       		.uleb128 0x13
 5246 0293 11       		.uleb128 0x11
 5247 0294 01       		.uleb128 0x1
 5248 0295 12       		.uleb128 0x12
 5249 0296 06       		.uleb128 0x6
 5250 0297 40       		.uleb128 0x40
 5251 0298 18       		.uleb128 0x18
 5252 0299 9742     		.uleb128 0x2117
 5253 029b 19       		.uleb128 0x19
 5254 029c 01       		.uleb128 0x1
 5255 029d 13       		.uleb128 0x13
 5256 029e 00       		.byte	0
 5257 029f 00       		.byte	0
 5258 02a0 33       		.uleb128 0x33
 5259 02a1 05       		.uleb128 0x5
 5260 02a2 00       		.byte	0
 5261 02a3 03       		.uleb128 0x3
 5262 02a4 0E       		.uleb128 0xe
ARM GAS  /tmp/ccBs6P4c.s 			page 157


 5263 02a5 3A       		.uleb128 0x3a
 5264 02a6 0B       		.uleb128 0xb
 5265 02a7 3B       		.uleb128 0x3b
 5266 02a8 0B       		.uleb128 0xb
 5267 02a9 49       		.uleb128 0x49
 5268 02aa 13       		.uleb128 0x13
 5269 02ab 02       		.uleb128 0x2
 5270 02ac 17       		.uleb128 0x17
 5271 02ad 00       		.byte	0
 5272 02ae 00       		.byte	0
 5273 02af 34       		.uleb128 0x34
 5274 02b0 05       		.uleb128 0x5
 5275 02b1 00       		.byte	0
 5276 02b2 03       		.uleb128 0x3
 5277 02b3 08       		.uleb128 0x8
 5278 02b4 3A       		.uleb128 0x3a
 5279 02b5 0B       		.uleb128 0xb
 5280 02b6 3B       		.uleb128 0x3b
 5281 02b7 0B       		.uleb128 0xb
 5282 02b8 49       		.uleb128 0x49
 5283 02b9 13       		.uleb128 0x13
 5284 02ba 02       		.uleb128 0x2
 5285 02bb 18       		.uleb128 0x18
 5286 02bc 00       		.byte	0
 5287 02bd 00       		.byte	0
 5288 02be 35       		.uleb128 0x35
 5289 02bf 1D       		.uleb128 0x1d
 5290 02c0 00       		.byte	0
 5291 02c1 31       		.uleb128 0x31
 5292 02c2 13       		.uleb128 0x13
 5293 02c3 11       		.uleb128 0x11
 5294 02c4 01       		.uleb128 0x1
 5295 02c5 12       		.uleb128 0x12
 5296 02c6 06       		.uleb128 0x6
 5297 02c7 58       		.uleb128 0x58
 5298 02c8 0B       		.uleb128 0xb
 5299 02c9 59       		.uleb128 0x59
 5300 02ca 0B       		.uleb128 0xb
 5301 02cb 00       		.byte	0
 5302 02cc 00       		.byte	0
 5303 02cd 36       		.uleb128 0x36
 5304 02ce 05       		.uleb128 0x5
 5305 02cf 00       		.byte	0
 5306 02d0 03       		.uleb128 0x3
 5307 02d1 08       		.uleb128 0x8
 5308 02d2 3A       		.uleb128 0x3a
 5309 02d3 0B       		.uleb128 0xb
 5310 02d4 3B       		.uleb128 0x3b
 5311 02d5 0B       		.uleb128 0xb
 5312 02d6 49       		.uleb128 0x49
 5313 02d7 13       		.uleb128 0x13
 5314 02d8 02       		.uleb128 0x2
 5315 02d9 17       		.uleb128 0x17
 5316 02da 00       		.byte	0
 5317 02db 00       		.byte	0
 5318 02dc 37       		.uleb128 0x37
 5319 02dd 1D       		.uleb128 0x1d
ARM GAS  /tmp/ccBs6P4c.s 			page 158


 5320 02de 01       		.byte	0x1
 5321 02df 31       		.uleb128 0x31
 5322 02e0 13       		.uleb128 0x13
 5323 02e1 11       		.uleb128 0x11
 5324 02e2 01       		.uleb128 0x1
 5325 02e3 12       		.uleb128 0x12
 5326 02e4 06       		.uleb128 0x6
 5327 02e5 58       		.uleb128 0x58
 5328 02e6 0B       		.uleb128 0xb
 5329 02e7 59       		.uleb128 0x59
 5330 02e8 0B       		.uleb128 0xb
 5331 02e9 01       		.uleb128 0x1
 5332 02ea 13       		.uleb128 0x13
 5333 02eb 00       		.byte	0
 5334 02ec 00       		.byte	0
 5335 02ed 38       		.uleb128 0x38
 5336 02ee 1D       		.uleb128 0x1d
 5337 02ef 01       		.byte	0x1
 5338 02f0 31       		.uleb128 0x31
 5339 02f1 13       		.uleb128 0x13
 5340 02f2 11       		.uleb128 0x11
 5341 02f3 01       		.uleb128 0x1
 5342 02f4 12       		.uleb128 0x12
 5343 02f5 06       		.uleb128 0x6
 5344 02f6 58       		.uleb128 0x58
 5345 02f7 0B       		.uleb128 0xb
 5346 02f8 59       		.uleb128 0x59
 5347 02f9 05       		.uleb128 0x5
 5348 02fa 00       		.byte	0
 5349 02fb 00       		.byte	0
 5350 02fc 39       		.uleb128 0x39
 5351 02fd 1D       		.uleb128 0x1d
 5352 02fe 01       		.byte	0x1
 5353 02ff 31       		.uleb128 0x31
 5354 0300 13       		.uleb128 0x13
 5355 0301 52       		.uleb128 0x52
 5356 0302 01       		.uleb128 0x1
 5357 0303 55       		.uleb128 0x55
 5358 0304 17       		.uleb128 0x17
 5359 0305 58       		.uleb128 0x58
 5360 0306 0B       		.uleb128 0xb
 5361 0307 59       		.uleb128 0x59
 5362 0308 0B       		.uleb128 0xb
 5363 0309 00       		.byte	0
 5364 030a 00       		.byte	0
 5365 030b 3A       		.uleb128 0x3a
 5366 030c 2E       		.uleb128 0x2e
 5367 030d 01       		.byte	0x1
 5368 030e 31       		.uleb128 0x31
 5369 030f 13       		.uleb128 0x13
 5370 0310 11       		.uleb128 0x11
 5371 0311 01       		.uleb128 0x1
 5372 0312 12       		.uleb128 0x12
 5373 0313 06       		.uleb128 0x6
 5374 0314 40       		.uleb128 0x40
 5375 0315 18       		.uleb128 0x18
 5376 0316 9642     		.uleb128 0x2116
ARM GAS  /tmp/ccBs6P4c.s 			page 159


 5377 0318 19       		.uleb128 0x19
 5378 0319 01       		.uleb128 0x1
 5379 031a 13       		.uleb128 0x13
 5380 031b 00       		.byte	0
 5381 031c 00       		.byte	0
 5382 031d 3B       		.uleb128 0x3b
 5383 031e 34       		.uleb128 0x34
 5384 031f 00       		.byte	0
 5385 0320 31       		.uleb128 0x31
 5386 0321 13       		.uleb128 0x13
 5387 0322 02       		.uleb128 0x2
 5388 0323 18       		.uleb128 0x18
 5389 0324 00       		.byte	0
 5390 0325 00       		.byte	0
 5391 0326 3C       		.uleb128 0x3c
 5392 0327 34       		.uleb128 0x34
 5393 0328 00       		.byte	0
 5394 0329 31       		.uleb128 0x31
 5395 032a 13       		.uleb128 0x13
 5396 032b 02       		.uleb128 0x2
 5397 032c 17       		.uleb128 0x17
 5398 032d 00       		.byte	0
 5399 032e 00       		.byte	0
 5400 032f 3D       		.uleb128 0x3d
 5401 0330 0B       		.uleb128 0xb
 5402 0331 01       		.byte	0x1
 5403 0332 11       		.uleb128 0x11
 5404 0333 01       		.uleb128 0x1
 5405 0334 12       		.uleb128 0x12
 5406 0335 06       		.uleb128 0x6
 5407 0336 00       		.byte	0
 5408 0337 00       		.byte	0
 5409 0338 3E       		.uleb128 0x3e
 5410 0339 05       		.uleb128 0x5
 5411 033a 00       		.byte	0
 5412 033b 31       		.uleb128 0x31
 5413 033c 13       		.uleb128 0x13
 5414 033d 1C       		.uleb128 0x1c
 5415 033e 0B       		.uleb128 0xb
 5416 033f 00       		.byte	0
 5417 0340 00       		.byte	0
 5418 0341 3F       		.uleb128 0x3f
 5419 0342 34       		.uleb128 0x34
 5420 0343 00       		.byte	0
 5421 0344 31       		.uleb128 0x31
 5422 0345 13       		.uleb128 0x13
 5423 0346 00       		.byte	0
 5424 0347 00       		.byte	0
 5425 0348 40       		.uleb128 0x40
 5426 0349 2E       		.uleb128 0x2e
 5427 034a 01       		.byte	0x1
 5428 034b 3F       		.uleb128 0x3f
 5429 034c 19       		.uleb128 0x19
 5430 034d 03       		.uleb128 0x3
 5431 034e 0E       		.uleb128 0xe
 5432 034f 3A       		.uleb128 0x3a
 5433 0350 0B       		.uleb128 0xb
ARM GAS  /tmp/ccBs6P4c.s 			page 160


 5434 0351 3B       		.uleb128 0x3b
 5435 0352 0B       		.uleb128 0xb
 5436 0353 27       		.uleb128 0x27
 5437 0354 19       		.uleb128 0x19
 5438 0355 11       		.uleb128 0x11
 5439 0356 01       		.uleb128 0x1
 5440 0357 12       		.uleb128 0x12
 5441 0358 06       		.uleb128 0x6
 5442 0359 40       		.uleb128 0x40
 5443 035a 18       		.uleb128 0x18
 5444 035b 9642     		.uleb128 0x2116
 5445 035d 19       		.uleb128 0x19
 5446 035e 01       		.uleb128 0x1
 5447 035f 13       		.uleb128 0x13
 5448 0360 00       		.byte	0
 5449 0361 00       		.byte	0
 5450 0362 41       		.uleb128 0x41
 5451 0363 2E       		.uleb128 0x2e
 5452 0364 01       		.byte	0x1
 5453 0365 3F       		.uleb128 0x3f
 5454 0366 19       		.uleb128 0x19
 5455 0367 03       		.uleb128 0x3
 5456 0368 0E       		.uleb128 0xe
 5457 0369 3A       		.uleb128 0x3a
 5458 036a 0B       		.uleb128 0xb
 5459 036b 3B       		.uleb128 0x3b
 5460 036c 0B       		.uleb128 0xb
 5461 036d 27       		.uleb128 0x27
 5462 036e 19       		.uleb128 0x19
 5463 036f 11       		.uleb128 0x11
 5464 0370 01       		.uleb128 0x1
 5465 0371 12       		.uleb128 0x12
 5466 0372 06       		.uleb128 0x6
 5467 0373 40       		.uleb128 0x40
 5468 0374 18       		.uleb128 0x18
 5469 0375 9742     		.uleb128 0x2117
 5470 0377 19       		.uleb128 0x19
 5471 0378 01       		.uleb128 0x1
 5472 0379 13       		.uleb128 0x13
 5473 037a 00       		.byte	0
 5474 037b 00       		.byte	0
 5475 037c 42       		.uleb128 0x42
 5476 037d 05       		.uleb128 0x5
 5477 037e 00       		.byte	0
 5478 037f 03       		.uleb128 0x3
 5479 0380 0E       		.uleb128 0xe
 5480 0381 3A       		.uleb128 0x3a
 5481 0382 0B       		.uleb128 0xb
 5482 0383 3B       		.uleb128 0x3b
 5483 0384 0B       		.uleb128 0xb
 5484 0385 49       		.uleb128 0x49
 5485 0386 13       		.uleb128 0x13
 5486 0387 02       		.uleb128 0x2
 5487 0388 18       		.uleb128 0x18
 5488 0389 00       		.byte	0
 5489 038a 00       		.byte	0
 5490 038b 43       		.uleb128 0x43
ARM GAS  /tmp/ccBs6P4c.s 			page 161


 5491 038c 2E       		.uleb128 0x2e
 5492 038d 01       		.byte	0x1
 5493 038e 03       		.uleb128 0x3
 5494 038f 0E       		.uleb128 0xe
 5495 0390 3A       		.uleb128 0x3a
 5496 0391 0B       		.uleb128 0xb
 5497 0392 3B       		.uleb128 0x3b
 5498 0393 0B       		.uleb128 0xb
 5499 0394 27       		.uleb128 0x27
 5500 0395 19       		.uleb128 0x19
 5501 0396 20       		.uleb128 0x20
 5502 0397 0B       		.uleb128 0xb
 5503 0398 01       		.uleb128 0x1
 5504 0399 13       		.uleb128 0x13
 5505 039a 00       		.byte	0
 5506 039b 00       		.byte	0
 5507 039c 44       		.uleb128 0x44
 5508 039d 2E       		.uleb128 0x2e
 5509 039e 01       		.byte	0x1
 5510 039f 3F       		.uleb128 0x3f
 5511 03a0 19       		.uleb128 0x19
 5512 03a1 03       		.uleb128 0x3
 5513 03a2 0E       		.uleb128 0xe
 5514 03a3 3A       		.uleb128 0x3a
 5515 03a4 0B       		.uleb128 0xb
 5516 03a5 3B       		.uleb128 0x3b
 5517 03a6 0B       		.uleb128 0xb
 5518 03a7 27       		.uleb128 0x27
 5519 03a8 19       		.uleb128 0x19
 5520 03a9 49       		.uleb128 0x49
 5521 03aa 13       		.uleb128 0x13
 5522 03ab 11       		.uleb128 0x11
 5523 03ac 01       		.uleb128 0x1
 5524 03ad 12       		.uleb128 0x12
 5525 03ae 06       		.uleb128 0x6
 5526 03af 40       		.uleb128 0x40
 5527 03b0 18       		.uleb128 0x18
 5528 03b1 9642     		.uleb128 0x2116
 5529 03b3 19       		.uleb128 0x19
 5530 03b4 01       		.uleb128 0x1
 5531 03b5 13       		.uleb128 0x13
 5532 03b6 00       		.byte	0
 5533 03b7 00       		.byte	0
 5534 03b8 45       		.uleb128 0x45
 5535 03b9 1D       		.uleb128 0x1d
 5536 03ba 01       		.byte	0x1
 5537 03bb 31       		.uleb128 0x31
 5538 03bc 13       		.uleb128 0x13
 5539 03bd 52       		.uleb128 0x52
 5540 03be 01       		.uleb128 0x1
 5541 03bf 55       		.uleb128 0x55
 5542 03c0 17       		.uleb128 0x17
 5543 03c1 58       		.uleb128 0x58
 5544 03c2 0B       		.uleb128 0xb
 5545 03c3 59       		.uleb128 0x59
 5546 03c4 05       		.uleb128 0x5
 5547 03c5 01       		.uleb128 0x1
ARM GAS  /tmp/ccBs6P4c.s 			page 162


 5548 03c6 13       		.uleb128 0x13
 5549 03c7 00       		.byte	0
 5550 03c8 00       		.byte	0
 5551 03c9 46       		.uleb128 0x46
 5552 03ca 1D       		.uleb128 0x1d
 5553 03cb 00       		.byte	0
 5554 03cc 31       		.uleb128 0x31
 5555 03cd 13       		.uleb128 0x13
 5556 03ce 52       		.uleb128 0x52
 5557 03cf 01       		.uleb128 0x1
 5558 03d0 55       		.uleb128 0x55
 5559 03d1 17       		.uleb128 0x17
 5560 03d2 58       		.uleb128 0x58
 5561 03d3 0B       		.uleb128 0xb
 5562 03d4 59       		.uleb128 0x59
 5563 03d5 0B       		.uleb128 0xb
 5564 03d6 00       		.byte	0
 5565 03d7 00       		.byte	0
 5566 03d8 47       		.uleb128 0x47
 5567 03d9 1D       		.uleb128 0x1d
 5568 03da 01       		.byte	0x1
 5569 03db 31       		.uleb128 0x31
 5570 03dc 13       		.uleb128 0x13
 5571 03dd 11       		.uleb128 0x11
 5572 03de 01       		.uleb128 0x1
 5573 03df 12       		.uleb128 0x12
 5574 03e0 06       		.uleb128 0x6
 5575 03e1 58       		.uleb128 0x58
 5576 03e2 0B       		.uleb128 0xb
 5577 03e3 59       		.uleb128 0x59
 5578 03e4 05       		.uleb128 0x5
 5579 03e5 01       		.uleb128 0x1
 5580 03e6 13       		.uleb128 0x13
 5581 03e7 00       		.byte	0
 5582 03e8 00       		.byte	0
 5583 03e9 48       		.uleb128 0x48
 5584 03ea 05       		.uleb128 0x5
 5585 03eb 00       		.byte	0
 5586 03ec 31       		.uleb128 0x31
 5587 03ed 13       		.uleb128 0x13
 5588 03ee 00       		.byte	0
 5589 03ef 00       		.byte	0
 5590 03f0 49       		.uleb128 0x49
 5591 03f1 898201   		.uleb128 0x4109
 5592 03f4 01       		.byte	0x1
 5593 03f5 11       		.uleb128 0x11
 5594 03f6 01       		.uleb128 0x1
 5595 03f7 31       		.uleb128 0x31
 5596 03f8 13       		.uleb128 0x13
 5597 03f9 00       		.byte	0
 5598 03fa 00       		.byte	0
 5599 03fb 4A       		.uleb128 0x4a
 5600 03fc 898201   		.uleb128 0x4109
 5601 03ff 01       		.byte	0x1
 5602 0400 11       		.uleb128 0x11
 5603 0401 01       		.uleb128 0x1
 5604 0402 31       		.uleb128 0x31
ARM GAS  /tmp/ccBs6P4c.s 			page 163


 5605 0403 13       		.uleb128 0x13
 5606 0404 01       		.uleb128 0x1
 5607 0405 13       		.uleb128 0x13
 5608 0406 00       		.byte	0
 5609 0407 00       		.byte	0
 5610 0408 4B       		.uleb128 0x4b
 5611 0409 898201   		.uleb128 0x4109
 5612 040c 00       		.byte	0
 5613 040d 11       		.uleb128 0x11
 5614 040e 01       		.uleb128 0x1
 5615 040f 31       		.uleb128 0x31
 5616 0410 13       		.uleb128 0x13
 5617 0411 00       		.byte	0
 5618 0412 00       		.byte	0
 5619 0413 4C       		.uleb128 0x4c
 5620 0414 34       		.uleb128 0x34
 5621 0415 00       		.byte	0
 5622 0416 03       		.uleb128 0x3
 5623 0417 0E       		.uleb128 0xe
 5624 0418 3A       		.uleb128 0x3a
 5625 0419 0B       		.uleb128 0xb
 5626 041a 3B       		.uleb128 0x3b
 5627 041b 0B       		.uleb128 0xb
 5628 041c 49       		.uleb128 0x49
 5629 041d 13       		.uleb128 0x13
 5630 041e 02       		.uleb128 0x2
 5631 041f 18       		.uleb128 0x18
 5632 0420 00       		.byte	0
 5633 0421 00       		.byte	0
 5634 0422 4D       		.uleb128 0x4d
 5635 0423 34       		.uleb128 0x34
 5636 0424 00       		.byte	0
 5637 0425 03       		.uleb128 0x3
 5638 0426 0E       		.uleb128 0xe
 5639 0427 3A       		.uleb128 0x3a
 5640 0428 0B       		.uleb128 0xb
 5641 0429 3B       		.uleb128 0x3b
 5642 042a 05       		.uleb128 0x5
 5643 042b 49       		.uleb128 0x49
 5644 042c 13       		.uleb128 0x13
 5645 042d 3F       		.uleb128 0x3f
 5646 042e 19       		.uleb128 0x19
 5647 042f 3C       		.uleb128 0x3c
 5648 0430 19       		.uleb128 0x19
 5649 0431 00       		.byte	0
 5650 0432 00       		.byte	0
 5651 0433 4E       		.uleb128 0x4e
 5652 0434 34       		.uleb128 0x34
 5653 0435 00       		.byte	0
 5654 0436 03       		.uleb128 0x3
 5655 0437 08       		.uleb128 0x8
 5656 0438 3A       		.uleb128 0x3a
 5657 0439 0B       		.uleb128 0xb
 5658 043a 3B       		.uleb128 0x3b
 5659 043b 05       		.uleb128 0x5
 5660 043c 49       		.uleb128 0x49
 5661 043d 13       		.uleb128 0x13
ARM GAS  /tmp/ccBs6P4c.s 			page 164


 5662 043e 3F       		.uleb128 0x3f
 5663 043f 19       		.uleb128 0x19
 5664 0440 3C       		.uleb128 0x3c
 5665 0441 19       		.uleb128 0x19
 5666 0442 00       		.byte	0
 5667 0443 00       		.byte	0
 5668 0444 4F       		.uleb128 0x4f
 5669 0445 34       		.uleb128 0x34
 5670 0446 00       		.byte	0
 5671 0447 03       		.uleb128 0x3
 5672 0448 0E       		.uleb128 0xe
 5673 0449 3A       		.uleb128 0x3a
 5674 044a 0B       		.uleb128 0xb
 5675 044b 3B       		.uleb128 0x3b
 5676 044c 0B       		.uleb128 0xb
 5677 044d 49       		.uleb128 0x49
 5678 044e 13       		.uleb128 0x13
 5679 044f 3F       		.uleb128 0x3f
 5680 0450 19       		.uleb128 0x19
 5681 0451 02       		.uleb128 0x2
 5682 0452 18       		.uleb128 0x18
 5683 0453 00       		.byte	0
 5684 0454 00       		.byte	0
 5685 0455 50       		.uleb128 0x50
 5686 0456 21       		.uleb128 0x21
 5687 0457 00       		.byte	0
 5688 0458 00       		.byte	0
 5689 0459 00       		.byte	0
 5690 045a 51       		.uleb128 0x51
 5691 045b 34       		.uleb128 0x34
 5692 045c 00       		.byte	0
 5693 045d 03       		.uleb128 0x3
 5694 045e 0E       		.uleb128 0xe
 5695 045f 3A       		.uleb128 0x3a
 5696 0460 0B       		.uleb128 0xb
 5697 0461 3B       		.uleb128 0x3b
 5698 0462 0B       		.uleb128 0xb
 5699 0463 49       		.uleb128 0x49
 5700 0464 13       		.uleb128 0x13
 5701 0465 3F       		.uleb128 0x3f
 5702 0466 19       		.uleb128 0x19
 5703 0467 3C       		.uleb128 0x3c
 5704 0468 19       		.uleb128 0x19
 5705 0469 00       		.byte	0
 5706 046a 00       		.byte	0
 5707 046b 52       		.uleb128 0x52
 5708 046c 2E       		.uleb128 0x2e
 5709 046d 01       		.byte	0x1
 5710 046e 3F       		.uleb128 0x3f
 5711 046f 19       		.uleb128 0x19
 5712 0470 03       		.uleb128 0x3
 5713 0471 0E       		.uleb128 0xe
 5714 0472 3A       		.uleb128 0x3a
 5715 0473 0B       		.uleb128 0xb
 5716 0474 3B       		.uleb128 0x3b
 5717 0475 05       		.uleb128 0x5
 5718 0476 27       		.uleb128 0x27
ARM GAS  /tmp/ccBs6P4c.s 			page 165


 5719 0477 19       		.uleb128 0x19
 5720 0478 3C       		.uleb128 0x3c
 5721 0479 19       		.uleb128 0x19
 5722 047a 01       		.uleb128 0x1
 5723 047b 13       		.uleb128 0x13
 5724 047c 00       		.byte	0
 5725 047d 00       		.byte	0
 5726 047e 53       		.uleb128 0x53
 5727 047f 2E       		.uleb128 0x2e
 5728 0480 00       		.byte	0
 5729 0481 3F       		.uleb128 0x3f
 5730 0482 19       		.uleb128 0x19
 5731 0483 03       		.uleb128 0x3
 5732 0484 0E       		.uleb128 0xe
 5733 0485 3A       		.uleb128 0x3a
 5734 0486 0B       		.uleb128 0xb
 5735 0487 3B       		.uleb128 0x3b
 5736 0488 0B       		.uleb128 0xb
 5737 0489 27       		.uleb128 0x27
 5738 048a 19       		.uleb128 0x19
 5739 048b 3C       		.uleb128 0x3c
 5740 048c 19       		.uleb128 0x19
 5741 048d 00       		.byte	0
 5742 048e 00       		.byte	0
 5743 048f 00       		.byte	0
 5744              		.section	.debug_loc,"",%progbits
 5745              	.Ldebug_loc0:
 5746              	.LLST0:
 5747 0000 00000000 		.4byte	.LVL0
 5748 0004 0C000000 		.4byte	.LVL1
 5749 0008 0200     		.2byte	0x2
 5750 000a 30       		.byte	0x30
 5751 000b 9F       		.byte	0x9f
 5752 000c 0C000000 		.4byte	.LVL1
 5753 0010 1A000000 		.4byte	.LVL2
 5754 0014 0600     		.2byte	0x6
 5755 0016 08       		.byte	0x8
 5756 0017 4C       		.byte	0x4c
 5757 0018 75       		.byte	0x75
 5758 0019 00       		.sleb128 0
 5759 001a 1C       		.byte	0x1c
 5760 001b 9F       		.byte	0x9f
 5761 001c 1A000000 		.4byte	.LVL2
 5762 0020 1C000000 		.4byte	.LVL3
 5763 0024 0600     		.2byte	0x6
 5764 0026 08       		.byte	0x8
 5765 0027 4D       		.byte	0x4d
 5766 0028 75       		.byte	0x75
 5767 0029 00       		.sleb128 0
 5768 002a 1C       		.byte	0x1c
 5769 002b 9F       		.byte	0x9f
 5770 002c 1C000000 		.4byte	.LVL3
 5771 0030 36000000 		.4byte	.LFE222
 5772 0034 0600     		.2byte	0x6
 5773 0036 08       		.byte	0x8
 5774 0037 4C       		.byte	0x4c
 5775 0038 75       		.byte	0x75
ARM GAS  /tmp/ccBs6P4c.s 			page 166


 5776 0039 00       		.sleb128 0
 5777 003a 1C       		.byte	0x1c
 5778 003b 9F       		.byte	0x9f
 5779 003c 00000000 		.4byte	0
 5780 0040 00000000 		.4byte	0
 5781              	.LLST1:
 5782 0044 00000000 		.4byte	.LVL5
 5783 0048 22000000 		.4byte	.LVL6
 5784 004c 0100     		.2byte	0x1
 5785 004e 50       		.byte	0x50
 5786 004f 22000000 		.4byte	.LVL6
 5787 0053 2A000000 		.4byte	.LFE223
 5788 0057 0500     		.2byte	0x5
 5789 0059 03       		.byte	0x3
 5790 005a 00000000 		.4byte	test_failure_message
 5791 005e 00000000 		.4byte	0
 5792 0062 00000000 		.4byte	0
 5793              	.LLST2:
 5794 0066 00000000 		.4byte	.LVL7
 5795 006a 12000000 		.4byte	.LVL9
 5796 006e 0100     		.2byte	0x1
 5797 0070 50       		.byte	0x50
 5798 0071 12000000 		.4byte	.LVL9
 5799 0075 2A000000 		.4byte	.LVL10
 5800 0079 0400     		.2byte	0x4
 5801 007b F3       		.byte	0xf3
 5802 007c 01       		.uleb128 0x1
 5803 007d 50       		.byte	0x50
 5804 007e 9F       		.byte	0x9f
 5805 007f 2A000000 		.4byte	.LVL10
 5806 0083 2C000000 		.4byte	.LVL11
 5807 0087 0100     		.2byte	0x1
 5808 0089 50       		.byte	0x50
 5809 008a 2C000000 		.4byte	.LVL11
 5810 008e 32000000 		.4byte	.LFE224
 5811 0092 0400     		.2byte	0x4
 5812 0094 F3       		.byte	0xf3
 5813 0095 01       		.uleb128 0x1
 5814 0096 50       		.byte	0x50
 5815 0097 9F       		.byte	0x9f
 5816 0098 00000000 		.4byte	0
 5817 009c 00000000 		.4byte	0
 5818              	.LLST3:
 5819 00a0 04000000 		.4byte	.LVL8
 5820 00a4 2A000000 		.4byte	.LVL10
 5821 00a8 0100     		.2byte	0x1
 5822 00aa 51       		.byte	0x51
 5823 00ab 00000000 		.4byte	0
 5824 00af 00000000 		.4byte	0
 5825              	.LLST4:
 5826 00b3 00000000 		.4byte	.LVL12
 5827 00b7 20000000 		.4byte	.LVL15
 5828 00bb 0100     		.2byte	0x1
 5829 00bd 50       		.byte	0x50
 5830 00be 20000000 		.4byte	.LVL15
 5831 00c2 24000000 		.4byte	.LVL16
 5832 00c6 0300     		.2byte	0x3
ARM GAS  /tmp/ccBs6P4c.s 			page 167


 5833 00c8 70       		.byte	0x70
 5834 00c9 7F       		.sleb128 -1
 5835 00ca 9F       		.byte	0x9f
 5836 00cb 24000000 		.4byte	.LVL16
 5837 00cf 2A000000 		.4byte	.LVL17
 5838 00d3 0100     		.2byte	0x1
 5839 00d5 50       		.byte	0x50
 5840 00d6 00000000 		.4byte	0
 5841 00da 00000000 		.4byte	0
 5842              	.LLST5:
 5843 00de 00000000 		.4byte	.LVL12
 5844 00e2 18000000 		.4byte	.LVL13
 5845 00e6 0600     		.2byte	0x6
 5846 00e8 03       		.byte	0x3
 5847 00e9 00000000 		.4byte	test_tokens_buffer
 5848 00ed 9F       		.byte	0x9f
 5849 00ee 18000000 		.4byte	.LVL13
 5850 00f2 1C000000 		.4byte	.LVL14
 5851 00f6 0100     		.2byte	0x1
 5852 00f8 53       		.byte	0x53
 5853 00f9 1C000000 		.4byte	.LVL14
 5854 00fd 24000000 		.4byte	.LVL16
 5855 0101 0300     		.2byte	0x3
 5856 0103 73       		.byte	0x73
 5857 0104 7F       		.sleb128 -1
 5858 0105 9F       		.byte	0x9f
 5859 0106 24000000 		.4byte	.LVL16
 5860 010a 32000000 		.4byte	.LVL18
 5861 010e 0100     		.2byte	0x1
 5862 0110 53       		.byte	0x53
 5863 0111 00000000 		.4byte	0
 5864 0115 00000000 		.4byte	0
 5865              	.LLST6:
 5866 0119 00000000 		.4byte	.LVL19
 5867 011d 16000000 		.4byte	.LVL24
 5868 0121 0100     		.2byte	0x1
 5869 0123 50       		.byte	0x50
 5870 0124 16000000 		.4byte	.LVL24
 5871 0128 3E000000 		.4byte	.LFE226
 5872 012c 0400     		.2byte	0x4
 5873 012e F3       		.byte	0xf3
 5874 012f 01       		.uleb128 0x1
 5875 0130 50       		.byte	0x50
 5876 0131 9F       		.byte	0x9f
 5877 0132 00000000 		.4byte	0
 5878 0136 00000000 		.4byte	0
 5879              	.LLST7:
 5880 013a 00000000 		.4byte	.LVL19
 5881 013e 08000000 		.4byte	.LVL21
 5882 0142 0100     		.2byte	0x1
 5883 0144 51       		.byte	0x51
 5884 0145 08000000 		.4byte	.LVL21
 5885 0149 3E000000 		.4byte	.LFE226
 5886 014d 0400     		.2byte	0x4
 5887 014f F3       		.byte	0xf3
 5888 0150 01       		.uleb128 0x1
 5889 0151 51       		.byte	0x51
ARM GAS  /tmp/ccBs6P4c.s 			page 168


 5890 0152 9F       		.byte	0x9f
 5891 0153 00000000 		.4byte	0
 5892 0157 00000000 		.4byte	0
 5893              	.LLST8:
 5894 015b 06000000 		.4byte	.LVL20
 5895 015f 08000000 		.4byte	.LVL21
 5896 0163 0100     		.2byte	0x1
 5897 0165 51       		.byte	0x51
 5898 0166 08000000 		.4byte	.LVL21
 5899 016a 3E000000 		.4byte	.LFE226
 5900 016e 0400     		.2byte	0x4
 5901 0170 F3       		.byte	0xf3
 5902 0171 01       		.uleb128 0x1
 5903 0172 51       		.byte	0x51
 5904 0173 9F       		.byte	0x9f
 5905 0174 00000000 		.4byte	0
 5906 0178 00000000 		.4byte	0
 5907              	.LLST9:
 5908 017c 06000000 		.4byte	.LVL20
 5909 0180 16000000 		.4byte	.LVL24
 5910 0184 0100     		.2byte	0x1
 5911 0186 50       		.byte	0x50
 5912 0187 00000000 		.4byte	0
 5913 018b 00000000 		.4byte	0
 5914              	.LLST10:
 5915 018f 06000000 		.4byte	.LVL20
 5916 0193 0A000000 		.4byte	.LVL22
 5917 0197 0100     		.2byte	0x1
 5918 0199 53       		.byte	0x53
 5919 019a 00000000 		.4byte	0
 5920 019e 00000000 		.4byte	0
 5921              	.LLST14:
 5922 01a2 06000000 		.4byte	.LVL20
 5923 01a6 08000000 		.4byte	.LVL21
 5924 01aa 1400     		.2byte	0x14
 5925 01ac 73       		.byte	0x73
 5926 01ad 00       		.sleb128 0
 5927 01ae 70       		.byte	0x70
 5928 01af 00       		.sleb128 0
 5929 01b0 1C       		.byte	0x1c
 5930 01b1 0A       		.byte	0xa
 5931 01b2 FFFF     		.2byte	0xffff
 5932 01b4 1A       		.byte	0x1a
 5933 01b5 71       		.byte	0x71
 5934 01b6 00       		.sleb128 0
 5935 01b7 70       		.byte	0x70
 5936 01b8 00       		.sleb128 0
 5937 01b9 1C       		.byte	0x1c
 5938 01ba 0A       		.byte	0xa
 5939 01bb FFFF     		.2byte	0xffff
 5940 01bd 1A       		.byte	0x1a
 5941 01be 2D       		.byte	0x2d
 5942 01bf 9F       		.byte	0x9f
 5943 01c0 08000000 		.4byte	.LVL21
 5944 01c4 0A000000 		.4byte	.LVL22
 5945 01c8 1500     		.2byte	0x15
 5946 01ca 73       		.byte	0x73
ARM GAS  /tmp/ccBs6P4c.s 			page 169


 5947 01cb 00       		.sleb128 0
 5948 01cc 70       		.byte	0x70
 5949 01cd 00       		.sleb128 0
 5950 01ce 1C       		.byte	0x1c
 5951 01cf 0A       		.byte	0xa
 5952 01d0 FFFF     		.2byte	0xffff
 5953 01d2 1A       		.byte	0x1a
 5954 01d3 F3       		.byte	0xf3
 5955 01d4 01       		.uleb128 0x1
 5956 01d5 51       		.byte	0x51
 5957 01d6 70       		.byte	0x70
 5958 01d7 00       		.sleb128 0
 5959 01d8 1C       		.byte	0x1c
 5960 01d9 0A       		.byte	0xa
 5961 01da FFFF     		.2byte	0xffff
 5962 01dc 1A       		.byte	0x1a
 5963 01dd 2D       		.byte	0x2d
 5964 01de 9F       		.byte	0x9f
 5965 01df 00000000 		.4byte	0
 5966 01e3 00000000 		.4byte	0
 5967              	.LLST15:
 5968 01e7 18000000 		.4byte	.LVL25
 5969 01eb 38000000 		.4byte	.LVL26
 5970 01ef 0100     		.2byte	0x1
 5971 01f1 52       		.byte	0x52
 5972 01f2 00000000 		.4byte	0
 5973 01f6 00000000 		.4byte	0
 5974              	.LLST16:
 5975 01fa 00000000 		.4byte	.LVL27
 5976 01fe 14000000 		.4byte	.LVL28
 5977 0202 0100     		.2byte	0x1
 5978 0204 50       		.byte	0x50
 5979 0205 14000000 		.4byte	.LVL28
 5980 0209 2C000000 		.4byte	.LVL29
 5981 020d 0100     		.2byte	0x1
 5982 020f 50       		.byte	0x50
 5983 0210 2C000000 		.4byte	.LVL29
 5984 0214 44000000 		.4byte	.LVL31
 5985 0218 0100     		.2byte	0x1
 5986 021a 52       		.byte	0x52
 5987 021b 5A000000 		.4byte	.LVL36
 5988 021f 64000000 		.4byte	.LVL37
 5989 0223 0100     		.2byte	0x1
 5990 0225 50       		.byte	0x50
 5991 0226 64000000 		.4byte	.LVL37
 5992 022a 70000000 		.4byte	.LFE227
 5993 022e 0400     		.2byte	0x4
 5994 0230 F3       		.byte	0xf3
 5995 0231 01       		.uleb128 0x1
 5996 0232 50       		.byte	0x50
 5997 0233 9F       		.byte	0x9f
 5998 0234 00000000 		.4byte	0
 5999 0238 00000000 		.4byte	0
 6000              	.LLST17:
 6001 023c 14000000 		.4byte	.LVL28
 6002 0240 2C000000 		.4byte	.LVL29
 6003 0244 0300     		.2byte	0x3
ARM GAS  /tmp/ccBs6P4c.s 			page 170


 6004 0246 73       		.byte	0x73
 6005 0247 7F       		.sleb128 -1
 6006 0248 9F       		.byte	0x9f
 6007 0249 2C000000 		.4byte	.LVL29
 6008 024d 30000000 		.4byte	.LVL30
 6009 0251 0100     		.2byte	0x1
 6010 0253 53       		.byte	0x53
 6011 0254 30000000 		.4byte	.LVL30
 6012 0258 44000000 		.4byte	.LVL31
 6013 025c 0100     		.2byte	0x1
 6014 025e 54       		.byte	0x54
 6015 025f 44000000 		.4byte	.LVL31
 6016 0263 4A000000 		.4byte	.LVL32
 6017 0267 0300     		.2byte	0x3
 6018 0269 74       		.byte	0x74
 6019 026a 7F       		.sleb128 -1
 6020 026b 9F       		.byte	0x9f
 6021 026c 4A000000 		.4byte	.LVL32
 6022 0270 4C000000 		.4byte	.LVL33
 6023 0274 0100     		.2byte	0x1
 6024 0276 54       		.byte	0x54
 6025 0277 4C000000 		.4byte	.LVL33
 6026 027b 56000000 		.4byte	.LVL35
 6027 027f 0300     		.2byte	0x3
 6028 0281 74       		.byte	0x74
 6029 0282 7F       		.sleb128 -1
 6030 0283 9F       		.byte	0x9f
 6031 0284 00000000 		.4byte	0
 6032 0288 00000000 		.4byte	0
 6033              	.LLST18:
 6034 028c 00000000 		.4byte	.LVL39
 6035 0290 10000000 		.4byte	.LVL40
 6036 0294 0100     		.2byte	0x1
 6037 0296 50       		.byte	0x50
 6038 0297 10000000 		.4byte	.LVL40
 6039 029b 12000000 		.4byte	.LVL41
 6040 029f 0100     		.2byte	0x1
 6041 02a1 54       		.byte	0x54
 6042 02a2 12000000 		.4byte	.LVL41
 6043 02a6 1C000000 		.4byte	.LVL43
 6044 02aa 0300     		.2byte	0x3
 6045 02ac 74       		.byte	0x74
 6046 02ad 01       		.sleb128 1
 6047 02ae 9F       		.byte	0x9f
 6048 02af 1C000000 		.4byte	.LVL43
 6049 02b3 20000000 		.4byte	.LVL44
 6050 02b7 0100     		.2byte	0x1
 6051 02b9 54       		.byte	0x54
 6052 02ba 00000000 		.4byte	0
 6053 02be 00000000 		.4byte	0
 6054              	.LLST19:
 6055 02c2 00000000 		.4byte	.LVL45
 6056 02c6 10000000 		.4byte	.LVL46
 6057 02ca 0100     		.2byte	0x1
 6058 02cc 50       		.byte	0x50
 6059 02cd 10000000 		.4byte	.LVL46
 6060 02d1 34000000 		.4byte	.LVL52
ARM GAS  /tmp/ccBs6P4c.s 			page 171


 6061 02d5 0400     		.2byte	0x4
 6062 02d7 F3       		.byte	0xf3
 6063 02d8 01       		.uleb128 0x1
 6064 02d9 50       		.byte	0x50
 6065 02da 9F       		.byte	0x9f
 6066 02db 34000000 		.4byte	.LVL52
 6067 02df 3A000000 		.4byte	.LFE229
 6068 02e3 0100     		.2byte	0x1
 6069 02e5 50       		.byte	0x50
 6070 02e6 00000000 		.4byte	0
 6071 02ea 00000000 		.4byte	0
 6072              	.LLST20:
 6073 02ee 00000000 		.4byte	.LVL45
 6074 02f2 10000000 		.4byte	.LVL46
 6075 02f6 0100     		.2byte	0x1
 6076 02f8 50       		.byte	0x50
 6077 02f9 10000000 		.4byte	.LVL46
 6078 02fd 12000000 		.4byte	.LVL47
 6079 0301 0100     		.2byte	0x1
 6080 0303 54       		.byte	0x54
 6081 0304 12000000 		.4byte	.LVL47
 6082 0308 1C000000 		.4byte	.LVL49
 6083 030c 0300     		.2byte	0x3
 6084 030e 74       		.byte	0x74
 6085 030f 01       		.sleb128 1
 6086 0310 9F       		.byte	0x9f
 6087 0311 1C000000 		.4byte	.LVL49
 6088 0315 20000000 		.4byte	.LVL50
 6089 0319 0100     		.2byte	0x1
 6090 031b 54       		.byte	0x54
 6091 031c 34000000 		.4byte	.LVL52
 6092 0320 3A000000 		.4byte	.LFE229
 6093 0324 0100     		.2byte	0x1
 6094 0326 50       		.byte	0x50
 6095 0327 00000000 		.4byte	0
 6096 032b 00000000 		.4byte	0
 6097              	.LLST21:
 6098 032f 00000000 		.4byte	.LVL56
 6099 0333 12000000 		.4byte	.LVL57
 6100 0337 0100     		.2byte	0x1
 6101 0339 50       		.byte	0x50
 6102 033a 12000000 		.4byte	.LVL57
 6103 033e 1B000000 		.4byte	.LVL58-1
 6104 0342 0500     		.2byte	0x5
 6105 0344 03       		.byte	0x3
 6106 0345 00000000 		.4byte	test_chp
 6107 0349 1B000000 		.4byte	.LVL58-1
 6108 034d FC020000 		.4byte	.LFE232
 6109 0351 0400     		.2byte	0x4
 6110 0353 F3       		.byte	0xf3
 6111 0354 01       		.uleb128 0x1
 6112 0355 50       		.byte	0x50
 6113 0356 9F       		.byte	0x9f
 6114 0357 00000000 		.4byte	0
 6115 035b 00000000 		.4byte	0
 6116              	.LLST22:
 6117 035f D0000000 		.4byte	.LVL80
ARM GAS  /tmp/ccBs6P4c.s 			page 172


 6118 0363 EA000000 		.4byte	.LVL82
 6119 0367 0200     		.2byte	0x2
 6120 0369 30       		.byte	0x30
 6121 036a 9F       		.byte	0x9f
 6122 036b EA000000 		.4byte	.LVL82
 6123 036f F6000000 		.4byte	.LVL84
 6124 0373 0200     		.2byte	0x2
 6125 0375 91       		.byte	0x91
 6126 0376 50       		.sleb128 -48
 6127 0377 F6000000 		.4byte	.LVL84
 6128 037b 00010000 		.4byte	.LVL85
 6129 037f 0300     		.2byte	0x3
 6130 0381 72       		.byte	0x72
 6131 0382 7F       		.sleb128 -1
 6132 0383 9F       		.byte	0x9f
 6133 0384 00010000 		.4byte	.LVL85
 6134 0388 82020000 		.4byte	.LVL144
 6135 038c 0600     		.2byte	0x6
 6136 038e 91       		.byte	0x91
 6137 038f 50       		.sleb128 -48
 6138 0390 06       		.byte	0x6
 6139 0391 31       		.byte	0x31
 6140 0392 1C       		.byte	0x1c
 6141 0393 9F       		.byte	0x9f
 6142 0394 82020000 		.4byte	.LVL144
 6143 0398 8C020000 		.4byte	.LVL145
 6144 039c 0200     		.2byte	0x2
 6145 039e 91       		.byte	0x91
 6146 039f 50       		.sleb128 -48
 6147 03a0 D2020000 		.4byte	.LVL153
 6148 03a4 E0020000 		.4byte	.LVL155
 6149 03a8 0600     		.2byte	0x6
 6150 03aa 91       		.byte	0x91
 6151 03ab 50       		.sleb128 -48
 6152 03ac 06       		.byte	0x6
 6153 03ad 31       		.byte	0x31
 6154 03ae 1C       		.byte	0x1c
 6155 03af 9F       		.byte	0x9f
 6156 03b0 00000000 		.4byte	0
 6157 03b4 00000000 		.4byte	0
 6158              	.LLST23:
 6159 03b8 EE000000 		.4byte	.LVL83
 6160 03bc 36010000 		.4byte	.LVL93
 6161 03c0 0100     		.2byte	0x1
 6162 03c2 56       		.byte	0x56
 6163 03c3 36010000 		.4byte	.LVL93
 6164 03c7 74020000 		.4byte	.LVL143
 6165 03cb 0300     		.2byte	0x3
 6166 03cd 76       		.byte	0x76
 6167 03ce 7F       		.sleb128 -1
 6168 03cf 9F       		.byte	0x9f
 6169 03d0 74020000 		.4byte	.LVL143
 6170 03d4 8C020000 		.4byte	.LVL145
 6171 03d8 0100     		.2byte	0x1
 6172 03da 56       		.byte	0x56
 6173 03db D2020000 		.4byte	.LVL153
 6174 03df E0020000 		.4byte	.LVL155
ARM GAS  /tmp/ccBs6P4c.s 			page 173


 6175 03e3 0300     		.2byte	0x3
 6176 03e5 76       		.byte	0x76
 6177 03e6 7F       		.sleb128 -1
 6178 03e7 9F       		.byte	0x9f
 6179 03e8 00000000 		.4byte	0
 6180 03ec 00000000 		.4byte	0
 6181              	.LLST24:
 6182 03f0 38000000 		.4byte	.LVL60
 6183 03f4 3E000000 		.4byte	.LVL61
 6184 03f8 0600     		.2byte	0x6
 6185 03fa 03       		.byte	0x3
 6186 03fb 28000000 		.4byte	.LC4
 6187 03ff 9F       		.byte	0x9f
 6188 0400 3E000000 		.4byte	.LVL61
 6189 0404 40000000 		.4byte	.LVL62
 6190 0408 0100     		.2byte	0x1
 6191 040a 55       		.byte	0x55
 6192 040b 40000000 		.4byte	.LVL62
 6193 040f 4A000000 		.4byte	.LVL64
 6194 0413 0300     		.2byte	0x3
 6195 0415 75       		.byte	0x75
 6196 0416 01       		.sleb128 1
 6197 0417 9F       		.byte	0x9f
 6198 0418 4A000000 		.4byte	.LVL64
 6199 041c 5A000000 		.4byte	.LVL65
 6200 0420 0100     		.2byte	0x1
 6201 0422 55       		.byte	0x55
 6202 0423 00000000 		.4byte	0
 6203 0427 00000000 		.4byte	0
 6204              	.LLST25:
 6205 042b 5E000000 		.4byte	.LVL66
 6206 042f 64000000 		.4byte	.LVL67
 6207 0433 0600     		.2byte	0x6
 6208 0435 03       		.byte	0x3
 6209 0436 C4000000 		.4byte	.LC15
 6210 043a 9F       		.byte	0x9f
 6211 043b 64000000 		.4byte	.LVL67
 6212 043f 66000000 		.4byte	.LVL68
 6213 0443 0100     		.2byte	0x1
 6214 0445 55       		.byte	0x55
 6215 0446 66000000 		.4byte	.LVL68
 6216 044a 70000000 		.4byte	.LVL70
 6217 044e 0300     		.2byte	0x3
 6218 0450 75       		.byte	0x75
 6219 0451 01       		.sleb128 1
 6220 0452 9F       		.byte	0x9f
 6221 0453 70000000 		.4byte	.LVL70
 6222 0457 80000000 		.4byte	.LVL71
 6223 045b 0100     		.2byte	0x1
 6224 045d 55       		.byte	0x55
 6225 045e 00000000 		.4byte	0
 6226 0462 00000000 		.4byte	0
 6227              	.LLST26:
 6228 0466 84000000 		.4byte	.LVL72
 6229 046a 8A000000 		.4byte	.LVL73
 6230 046e 0600     		.2byte	0x6
 6231 0470 03       		.byte	0x3
ARM GAS  /tmp/ccBs6P4c.s 			page 174


 6232 0471 FC000000 		.4byte	.LC17
 6233 0475 9F       		.byte	0x9f
 6234 0476 8A000000 		.4byte	.LVL73
 6235 047a 8C000000 		.4byte	.LVL74
 6236 047e 0100     		.2byte	0x1
 6237 0480 55       		.byte	0x55
 6238 0481 8C000000 		.4byte	.LVL74
 6239 0485 96000000 		.4byte	.LVL76
 6240 0489 0300     		.2byte	0x3
 6241 048b 75       		.byte	0x75
 6242 048c 01       		.sleb128 1
 6243 048d 9F       		.byte	0x9f
 6244 048e 96000000 		.4byte	.LVL76
 6245 0492 DA000000 		.4byte	.LVL81
 6246 0496 0100     		.2byte	0x1
 6247 0498 55       		.byte	0x55
 6248 0499 00000000 		.4byte	0
 6249 049d 00000000 		.4byte	0
 6250              	.LLST27:
 6251 04a1 98010000 		.4byte	.LVL109
 6252 04a5 CA010000 		.4byte	.LVL113
 6253 04a9 0100     		.2byte	0x1
 6254 04ab 58       		.byte	0x58
 6255 04ac D2020000 		.4byte	.LVL153
 6256 04b0 E0020000 		.4byte	.LVL155
 6257 04b4 0100     		.2byte	0x1
 6258 04b6 58       		.byte	0x58
 6259 04b7 00000000 		.4byte	0
 6260 04bb 00000000 		.4byte	0
 6261              	.LLST28:
 6262 04bf F2010000 		.4byte	.LVL119
 6263 04c3 F8010000 		.4byte	.LVL120
 6264 04c7 0600     		.2byte	0x6
 6265 04c9 03       		.byte	0x3
 6266 04ca 14010000 		.4byte	.LC19
 6267 04ce 9F       		.byte	0x9f
 6268 04cf F8010000 		.4byte	.LVL120
 6269 04d3 FA010000 		.4byte	.LVL121
 6270 04d7 0100     		.2byte	0x1
 6271 04d9 58       		.byte	0x58
 6272 04da FA010000 		.4byte	.LVL121
 6273 04de 04020000 		.4byte	.LVL123
 6274 04e2 0300     		.2byte	0x3
 6275 04e4 78       		.byte	0x78
 6276 04e5 01       		.sleb128 1
 6277 04e6 9F       		.byte	0x9f
 6278 04e7 04020000 		.4byte	.LVL123
 6279 04eb 12020000 		.4byte	.LVL125
 6280 04ef 0100     		.2byte	0x1
 6281 04f1 58       		.byte	0x58
 6282 04f2 00000000 		.4byte	0
 6283 04f6 00000000 		.4byte	0
 6284              	.LLST29:
 6285 04fa 08010000 		.4byte	.LVL86
 6286 04fe 0E010000 		.4byte	.LVL87
 6287 0502 0600     		.2byte	0x6
 6288 0504 03       		.byte	0x3
ARM GAS  /tmp/ccBs6P4c.s 			page 175


 6289 0505 54000000 		.4byte	.LC6
 6290 0509 9F       		.byte	0x9f
 6291 050a 0E010000 		.4byte	.LVL87
 6292 050e 10010000 		.4byte	.LVL88
 6293 0512 0100     		.2byte	0x1
 6294 0514 5A       		.byte	0x5a
 6295 0515 10010000 		.4byte	.LVL88
 6296 0519 22010000 		.4byte	.LVL90
 6297 051d 0300     		.2byte	0x3
 6298 051f 7A       		.byte	0x7a
 6299 0520 01       		.sleb128 1
 6300 0521 9F       		.byte	0x9f
 6301 0522 22010000 		.4byte	.LVL90
 6302 0526 82020000 		.4byte	.LVL144
 6303 052a 0100     		.2byte	0x1
 6304 052c 5A       		.byte	0x5a
 6305 052d D2020000 		.4byte	.LVL153
 6306 0531 E0020000 		.4byte	.LVL155
 6307 0535 0100     		.2byte	0x1
 6308 0537 5A       		.byte	0x5a
 6309 0538 00000000 		.4byte	0
 6310 053c 00000000 		.4byte	0
 6311              	.LLST31:
 6312 0540 44010000 		.4byte	.LVL95
 6313 0544 4A010000 		.4byte	.LVL96
 6314 0548 0600     		.2byte	0x6
 6315 054a 03       		.byte	0x3
 6316 054b 10010000 		.4byte	.LC18
 6317 054f 9F       		.byte	0x9f
 6318 0550 4A010000 		.4byte	.LVL96
 6319 0554 4C010000 		.4byte	.LVL97
 6320 0558 0100     		.2byte	0x1
 6321 055a 5B       		.byte	0x5b
 6322 055b 4C010000 		.4byte	.LVL97
 6323 055f 56010000 		.4byte	.LVL99
 6324 0563 0300     		.2byte	0x3
 6325 0565 7B       		.byte	0x7b
 6326 0566 01       		.sleb128 1
 6327 0567 9F       		.byte	0x9f
 6328 0568 56010000 		.4byte	.LVL99
 6329 056c 68010000 		.4byte	.LVL101
 6330 0570 0100     		.2byte	0x1
 6331 0572 5B       		.byte	0x5b
 6332 0573 00000000 		.4byte	0
 6333 0577 00000000 		.4byte	0
 6334              	.LLST32:
 6335 057b 64010000 		.4byte	.LVL100
 6336 057f 6A010000 		.4byte	.LVL102
 6337 0583 0100     		.2byte	0x1
 6338 0585 53       		.byte	0x53
 6339 0586 6A010000 		.4byte	.LVL102
 6340 058a 6C010000 		.4byte	.LVL103
 6341 058e 0100     		.2byte	0x1
 6342 0590 5B       		.byte	0x5b
 6343 0591 6C010000 		.4byte	.LVL103
 6344 0595 76010000 		.4byte	.LVL105
 6345 0599 0300     		.2byte	0x3
ARM GAS  /tmp/ccBs6P4c.s 			page 176


 6346 059b 7B       		.byte	0x7b
 6347 059c 01       		.sleb128 1
 6348 059d 9F       		.byte	0x9f
 6349 059e 76010000 		.4byte	.LVL105
 6350 05a2 7A010000 		.4byte	.LVL106
 6351 05a6 0100     		.2byte	0x1
 6352 05a8 5B       		.byte	0x5b
 6353 05a9 00000000 		.4byte	0
 6354 05ad 00000000 		.4byte	0
 6355              	.LLST33:
 6356 05b1 86010000 		.4byte	.LVL107
 6357 05b5 82020000 		.4byte	.LVL144
 6358 05b9 0300     		.2byte	0x3
 6359 05bb 08       		.byte	0x8
 6360 05bc C8       		.byte	0xc8
 6361 05bd 9F       		.byte	0x9f
 6362 05be D2020000 		.4byte	.LVL153
 6363 05c2 E0020000 		.4byte	.LVL155
 6364 05c6 0300     		.2byte	0x3
 6365 05c8 08       		.byte	0x8
 6366 05c9 C8       		.byte	0xc8
 6367 05ca 9F       		.byte	0x9f
 6368 05cb 00000000 		.4byte	0
 6369 05cf 00000000 		.4byte	0
 6370              	.LLST34:
 6371 05d3 D0010000 		.4byte	.LVL114
 6372 05d7 D2010000 		.4byte	.LVL115
 6373 05db 0100     		.2byte	0x1
 6374 05dd 58       		.byte	0x58
 6375 05de D2010000 		.4byte	.LVL115
 6376 05e2 DC010000 		.4byte	.LVL117
 6377 05e6 0300     		.2byte	0x3
 6378 05e8 78       		.byte	0x78
 6379 05e9 01       		.sleb128 1
 6380 05ea 9F       		.byte	0x9f
 6381 05eb DC010000 		.4byte	.LVL117
 6382 05ef EE010000 		.4byte	.LVL118
 6383 05f3 0100     		.2byte	0x1
 6384 05f5 58       		.byte	0x58
 6385 05f6 00000000 		.4byte	0
 6386 05fa 00000000 		.4byte	0
 6387              	.LLST35:
 6388 05fe 08020000 		.4byte	.LVL124
 6389 0602 14020000 		.4byte	.LVL126
 6390 0606 0600     		.2byte	0x6
 6391 0608 03       		.byte	0x3
 6392 0609 00000000 		.4byte	test_tokens_buffer
 6393 060d 9F       		.byte	0x9f
 6394 060e 14020000 		.4byte	.LVL126
 6395 0612 22020000 		.4byte	.LVL128
 6396 0616 0300     		.2byte	0x3
 6397 0618 78       		.byte	0x78
 6398 0619 7F       		.sleb128 -1
 6399 061a 9F       		.byte	0x9f
 6400 061b 22020000 		.4byte	.LVL128
 6401 061f 28020000 		.4byte	.LVL129
 6402 0623 0100     		.2byte	0x1
ARM GAS  /tmp/ccBs6P4c.s 			page 177


 6403 0625 58       		.byte	0x58
 6404 0626 28020000 		.4byte	.LVL129
 6405 062a 2A020000 		.4byte	.LVL130
 6406 062e 0300     		.2byte	0x3
 6407 0630 78       		.byte	0x78
 6408 0631 7F       		.sleb128 -1
 6409 0632 9F       		.byte	0x9f
 6410 0633 00000000 		.4byte	0
 6411 0637 00000000 		.4byte	0
 6412              	.LLST36:
 6413 063b 34020000 		.4byte	.LVL131
 6414 063f 36020000 		.4byte	.LVL132
 6415 0643 0100     		.2byte	0x1
 6416 0645 58       		.byte	0x58
 6417 0646 36020000 		.4byte	.LVL132
 6418 064a 40020000 		.4byte	.LVL134
 6419 064e 0300     		.2byte	0x3
 6420 0650 78       		.byte	0x78
 6421 0651 01       		.sleb128 1
 6422 0652 9F       		.byte	0x9f
 6423 0653 40020000 		.4byte	.LVL134
 6424 0657 52020000 		.4byte	.LVL136
 6425 065b 0100     		.2byte	0x1
 6426 065d 58       		.byte	0x58
 6427 065e 00000000 		.4byte	0
 6428 0662 00000000 		.4byte	0
 6429              	.LLST37:
 6430 0666 4E020000 		.4byte	.LVL135
 6431 066a 54020000 		.4byte	.LVL137
 6432 066e 0100     		.2byte	0x1
 6433 0670 53       		.byte	0x53
 6434 0671 54020000 		.4byte	.LVL137
 6435 0675 56020000 		.4byte	.LVL138
 6436 0679 0100     		.2byte	0x1
 6437 067b 58       		.byte	0x58
 6438 067c 56020000 		.4byte	.LVL138
 6439 0680 60020000 		.4byte	.LVL140
 6440 0684 0300     		.2byte	0x3
 6441 0686 78       		.byte	0x78
 6442 0687 01       		.sleb128 1
 6443 0688 9F       		.byte	0x9f
 6444 0689 60020000 		.4byte	.LVL140
 6445 068d 64020000 		.4byte	.LVL141
 6446 0691 0100     		.2byte	0x1
 6447 0693 58       		.byte	0x58
 6448 0694 00000000 		.4byte	0
 6449 0698 00000000 		.4byte	0
 6450              	.LLST38:
 6451 069c A0020000 		.4byte	.LVL147
 6452 06a0 A6020000 		.4byte	.LVL148
 6453 06a4 0600     		.2byte	0x6
 6454 06a6 03       		.byte	0x3
 6455 06a7 18010000 		.4byte	.LC20
 6456 06ab 9F       		.byte	0x9f
 6457 06ac A6020000 		.4byte	.LVL148
 6458 06b0 A8020000 		.4byte	.LVL149
 6459 06b4 0100     		.2byte	0x1
ARM GAS  /tmp/ccBs6P4c.s 			page 178


 6460 06b6 55       		.byte	0x55
 6461 06b7 A8020000 		.4byte	.LVL149
 6462 06bb B2020000 		.4byte	.LVL151
 6463 06bf 0300     		.2byte	0x3
 6464 06c1 75       		.byte	0x75
 6465 06c2 01       		.sleb128 1
 6466 06c3 9F       		.byte	0x9f
 6467 06c4 B2020000 		.4byte	.LVL151
 6468 06c8 D2020000 		.4byte	.LVL153
 6469 06cc 0100     		.2byte	0x1
 6470 06ce 55       		.byte	0x55
 6471 06cf E0020000 		.4byte	.LVL155
 6472 06d3 F6020000 		.4byte	.LVL157
 6473 06d7 0100     		.2byte	0x1
 6474 06d9 55       		.byte	0x55
 6475 06da 00000000 		.4byte	0
 6476 06de 00000000 		.4byte	0
 6477              		.section	.debug_aranges,"",%progbits
 6478 0000 6C000000 		.4byte	0x6c
 6479 0004 0200     		.2byte	0x2
 6480 0006 00000000 		.4byte	.Ldebug_info0
 6481 000a 04       		.byte	0x4
 6482 000b 00       		.byte	0
 6483 000c 0000     		.2byte	0
 6484 000e 0000     		.2byte	0
 6485 0010 00000000 		.4byte	.LFB222
 6486 0014 36000000 		.4byte	.LFE222-.LFB222
 6487 0018 00000000 		.4byte	.LFB223
 6488 001c 2A000000 		.4byte	.LFE223-.LFB223
 6489 0020 00000000 		.4byte	.LFB224
 6490 0024 32000000 		.4byte	.LFE224-.LFB224
 6491 0028 00000000 		.4byte	.LFB225
 6492 002c 56000000 		.4byte	.LFE225-.LFB225
 6493 0030 00000000 		.4byte	.LFB226
 6494 0034 3E000000 		.4byte	.LFE226-.LFB226
 6495 0038 00000000 		.4byte	.LFB227
 6496 003c 70000000 		.4byte	.LFE227-.LFB227
 6497 0040 00000000 		.4byte	.LFB228
 6498 0044 22000000 		.4byte	.LFE228-.LFB228
 6499 0048 00000000 		.4byte	.LFB229
 6500 004c 3A000000 		.4byte	.LFE229-.LFB229
 6501 0050 00000000 		.4byte	.LFB230
 6502 0054 28000000 		.4byte	.LFE230-.LFB230
 6503 0058 00000000 		.4byte	.LFB231
 6504 005c 1C000000 		.4byte	.LFE231-.LFB231
 6505 0060 00000000 		.4byte	.LFB232
 6506 0064 FC020000 		.4byte	.LFE232-.LFB232
 6507 0068 00000000 		.4byte	0
 6508 006c 00000000 		.4byte	0
 6509              		.section	.debug_ranges,"",%progbits
 6510              	.Ldebug_ranges0:
 6511 0000 0A000000 		.4byte	.LBB116
 6512 0004 10000000 		.4byte	.LBE116
 6513 0008 12000000 		.4byte	.LBB121
 6514 000c 38000000 		.4byte	.LBE121
 6515 0010 00000000 		.4byte	0
 6516 0014 00000000 		.4byte	0
ARM GAS  /tmp/ccBs6P4c.s 			page 179


 6517 0018 D6000000 		.4byte	.LBB177
 6518 001c E0000000 		.4byte	.LBE177
 6519 0020 E2000000 		.4byte	.LBB188
 6520 0024 EC000000 		.4byte	.LBE188
 6521 0028 90010000 		.4byte	.LBB205
 6522 002c 94010000 		.4byte	.LBE205
 6523 0030 98010000 		.4byte	.LBB206
 6524 0034 BC010000 		.4byte	.LBE206
 6525 0038 00000000 		.4byte	0
 6526 003c 00000000 		.4byte	0
 6527 0040 D6000000 		.4byte	.LBB179
 6528 0044 E0000000 		.4byte	.LBE179
 6529 0048 E2000000 		.4byte	.LBB183
 6530 004c EC000000 		.4byte	.LBE183
 6531 0050 A2010000 		.4byte	.LBB184
 6532 0054 A6010000 		.4byte	.LBE184
 6533 0058 00000000 		.4byte	0
 6534 005c 00000000 		.4byte	0
 6535 0060 EC000000 		.4byte	.LBB189
 6536 0064 EE000000 		.4byte	.LBE189
 6537 0068 F6010000 		.4byte	.LBB209
 6538 006c 08020000 		.4byte	.LBE209
 6539 0070 32020000 		.4byte	.LBB212
 6540 0074 34020000 		.4byte	.LBE212
 6541 0078 00000000 		.4byte	0
 6542 007c 00000000 		.4byte	0
 6543 0080 2C010000 		.4byte	.LBB195
 6544 0084 34010000 		.4byte	.LBE195
 6545 0088 36010000 		.4byte	.LBB198
 6546 008c 3E010000 		.4byte	.LBE198
 6547 0090 00000000 		.4byte	0
 6548 0094 00000000 		.4byte	0
 6549 0098 00000000 		.4byte	.LFB222
 6550 009c 36000000 		.4byte	.LFE222
 6551 00a0 00000000 		.4byte	.LFB223
 6552 00a4 2A000000 		.4byte	.LFE223
 6553 00a8 00000000 		.4byte	.LFB224
 6554 00ac 32000000 		.4byte	.LFE224
 6555 00b0 00000000 		.4byte	.LFB225
 6556 00b4 56000000 		.4byte	.LFE225
 6557 00b8 00000000 		.4byte	.LFB226
 6558 00bc 3E000000 		.4byte	.LFE226
 6559 00c0 00000000 		.4byte	.LFB227
 6560 00c4 70000000 		.4byte	.LFE227
 6561 00c8 00000000 		.4byte	.LFB228
 6562 00cc 22000000 		.4byte	.LFE228
 6563 00d0 00000000 		.4byte	.LFB229
 6564 00d4 3A000000 		.4byte	.LFE229
 6565 00d8 00000000 		.4byte	.LFB230
 6566 00dc 28000000 		.4byte	.LFE230
 6567 00e0 00000000 		.4byte	.LFB231
 6568 00e4 1C000000 		.4byte	.LFE231
 6569 00e8 00000000 		.4byte	.LFB232
 6570 00ec FC020000 		.4byte	.LFE232
 6571 00f0 00000000 		.4byte	0
 6572 00f4 00000000 		.4byte	0
 6573              		.section	.debug_line,"",%progbits
ARM GAS  /tmp/ccBs6P4c.s 			page 180


 6574              	.Ldebug_line0:
 6575 0000 4E050000 		.section	.debug_str,"MS",%progbits,1
 6575      02000303 
 6575      00000201 
 6575      FB0E0D00 
 6575      01010101 
 6576              	.LASF47:
 6577 0000 72656164 		.ascii	"ready_list_t\000"
 6577      795F6C69 
 6577      73745F74 
 6577      00
 6578              	.LASF72:
 6579 000d 44494552 		.ascii	"DIER\000"
 6579      00
 6580              	.LASF2:
 6581 0012 73697A65 		.ascii	"size_t\000"
 6581      5F7400
 6582              	.LASF43:
 6583 0019 6E657874 		.ascii	"next\000"
 6583      00
 6584              	.LASF53:
 6585 001e 64656C74 		.ascii	"delta\000"
 6585      6100
 6586              	.LASF81:
 6587 0024 7264796D 		.ascii	"rdymsg\000"
 6587      736700
 6588              	.LASF13:
 6589 002b 75696E74 		.ascii	"uint64_t\000"
 6589      36345F74 
 6589      00
 6590              	.LASF46:
 6591 0034 70726576 		.ascii	"prev\000"
 6591      00
 6592              	.LASF70:
 6593 0039 706F7274 		.ascii	"port_intctx\000"
 6593      5F696E74 
 6593      63747800 
 6594              	.LASF58:
 6595 0045 73797374 		.ascii	"system_debug_t\000"
 6595      656D5F64 
 6595      65627567 
 6595      5F7400
 6596              	.LASF138:
 6597 0054 73747265 		.ascii	"stream\000"
 6597      616D00
 6598              	.LASF103:
 6599 005b 706F7274 		.ascii	"port_lock\000"
 6599      5F6C6F63 
 6599      6B00
 6600              	.LASF14:
 6601 0065 6C6F6E67 		.ascii	"long long unsigned int\000"
 6601      206C6F6E 
 6601      6720756E 
 6601      7369676E 
 6601      65642069 
 6602              	.LASF142:
 6603 007c 74657374 		.ascii	"test_tokp\000"
ARM GAS  /tmp/ccBs6P4c.s 			page 181


 6603      5F746F6B 
 6603      7000
 6604              	.LASF120:
 6605 0086 636F6E64 		.ascii	"condition\000"
 6605      6974696F 
 6605      6E00
 6606              	.LASF82:
 6607 0090 65786974 		.ascii	"exitcode\000"
 6607      636F6465 
 6607      00
 6608              	.LASF141:
 6609 0099 74657374 		.ascii	"test_tokens_buffer\000"
 6609      5F746F6B 
 6609      656E735F 
 6609      62756666 
 6609      657200
 6610              	.LASF85:
 6611 00ac 73656E74 		.ascii	"sentmsg\000"
 6611      6D736700 
 6612              	.LASF55:
 6613 00b4 76697274 		.ascii	"virtual_timers_list_t\000"
 6613      75616C5F 
 6613      74696D65 
 6613      72735F6C 
 6613      6973745F 
 6614              	.LASF144:
 6615 00ca 49544D5F 		.ascii	"ITM_RxBuffer\000"
 6615      52784275 
 6615      66666572 
 6615      00
 6616              	.LASF76:
 6617 00d7 42445452 		.ascii	"BDTR\000"
 6617      00
 6618              	.LASF45:
 6619 00dc 63685F74 		.ascii	"ch_threads_queue\000"
 6619      68726561 
 6619      64735F71 
 6619      75657565 
 6619      00
 6620              	.LASF137:
 6621 00ed 74657374 		.ascii	"test_execute\000"
 6621      5F657865 
 6621      63757465 
 6621      00
 6622              	.LASF100:
 6623 00fa 74656172 		.ascii	"teardown\000"
 6623      646F776E 
 6623      00
 6624              	.LASF73:
 6625 0103 43434D52 		.ascii	"CCMR1\000"
 6625      3100
 6626              	.LASF74:
 6627 0109 43434D52 		.ascii	"CCMR2\000"
 6627      3200
 6628              	.LASF78:
 6629 010f 43434D52 		.ascii	"CCMR3\000"
 6629      3300
ARM GAS  /tmp/ccBs6P4c.s 			page 182


 6630              	.LASF1:
 6631 0115 7369676E 		.ascii	"signed char\000"
 6631      65642063 
 6631      68617200 
 6632              	.LASF132:
 6633 0121 74657374 		.ascii	"test_emit_token\000"
 6633      5F656D69 
 6633      745F746F 
 6633      6B656E00 
 6634              	.LASF131:
 6635 0131 74657374 		.ascii	"test_println\000"
 6635      5F707269 
 6635      6E746C6E 
 6635      00
 6636              	.LASF64:
 6637 013e 76746C69 		.ascii	"vtlist\000"
 6637      737400
 6638              	.LASF104:
 6639 0145 706F7274 		.ascii	"port_unlock\000"
 6639      5F756E6C 
 6639      6F636B00 
 6640              	.LASF34:
 6641 0151 6D736771 		.ascii	"msgqueue\000"
 6641      75657565 
 6641      00
 6642              	.LASF30:
 6643 015a 73746174 		.ascii	"state\000"
 6643      6500
 6644              	.LASF9:
 6645 0160 6C6F6E67 		.ascii	"long int\000"
 6645      20696E74 
 6645      00
 6646              	.LASF16:
 6647 0169 74737461 		.ascii	"tstate_t\000"
 6647      74655F74 
 6647      00
 6648              	.LASF130:
 6649 0172 5F746573 		.ascii	"_test_assert_time_window\000"
 6649      745F6173 
 6649      73657274 
 6649      5F74696D 
 6649      655F7769 
 6650              	.LASF54:
 6651 018b 66756E63 		.ascii	"func\000"
 6651      00
 6652              	.LASF75:
 6653 0190 43434552 		.ascii	"CCER\000"
 6653      00
 6654              	.LASF12:
 6655 0195 6C6F6E67 		.ascii	"long long int\000"
 6655      206C6F6E 
 6655      6720696E 
 6655      7400
 6656              	.LASF6:
 6657 01a3 75696E74 		.ascii	"uint16_t\000"
 6657      31365F74 
 6657      00
ARM GAS  /tmp/ccBs6P4c.s 			page 183


 6658              	.LASF136:
 6659 01ac 7072696E 		.ascii	"print_tokens\000"
 6659      745F746F 
 6659      6B656E73 
 6659      00
 6660              	.LASF67:
 6661 01b9 72656761 		.ascii	"regarm_t\000"
 6661      726D5F74 
 6661      00
 6662              	.LASF115:
 6663 01c2 6F73616C 		.ascii	"osalOsGetSystemTimeX\000"
 6663      4F734765 
 6663      74537973 
 6663      74656D54 
 6663      696D6558 
 6664              	.LASF33:
 6665 01d7 77616974 		.ascii	"waiting\000"
 6665      696E6700 
 6666              	.LASF125:
 6667 01df 6F73616C 		.ascii	"osalSysLock\000"
 6667      5379734C 
 6667      6F636B00 
 6668              	.LASF151:
 6669 01eb 2F686F6D 		.ascii	"/home/otto/Escritorio/Semestre12/Embebidos/ChibiOS_"
 6669      652F6F74 
 6669      746F2F45 
 6669      73637269 
 6669      746F7269 
 6670 021e 31372E36 		.ascii	"17.6.2/demos/STM32/NIL-STM32F100-DISCOVERY\000"
 6670      2E322F64 
 6670      656D6F73 
 6670      2F53544D 
 6670      33322F4E 
 6671              	.LASF93:
 6672 0249 6D757465 		.ascii	"mutex_t\000"
 6672      785F7400 
 6673              	.LASF111:
 6674 0251 76616C75 		.ascii	"value\000"
 6674      6500
 6675              	.LASF98:
 6676 0257 42617365 		.ascii	"BaseSequentialStream\000"
 6676      53657175 
 6676      656E7469 
 6676      616C5374 
 6676      7265616D 
 6677              	.LASF21:
 6678 026c 636E745F 		.ascii	"cnt_t\000"
 6678      7400
 6679              	.LASF110:
 6680 0272 63685654 		.ascii	"chVTGetSystemTimeX\000"
 6680      47657453 
 6680      79737465 
 6680      6D54696D 
 6680      655800
 6681              	.LASF0:
 6682 0285 756E7369 		.ascii	"unsigned int\000"
 6682      676E6564 
ARM GAS  /tmp/ccBs6P4c.s 			page 184


 6682      20696E74 
 6682      00
 6683              	.LASF86:
 6684 0292 77747365 		.ascii	"wtsemp\000"
 6684      6D7000
 6685              	.LASF152:
 6686 0299 7072696E 		.ascii	"print_line\000"
 6686      745F6C69 
 6686      6E6500
 6687              	.LASF84:
 6688 02a4 77747472 		.ascii	"wttrp\000"
 6688      7000
 6689              	.LASF128:
 6690 02aa 65787065 		.ascii	"expected\000"
 6690      63746564 
 6690      00
 6691              	.LASF28:
 6692 02b3 6E616D65 		.ascii	"name\000"
 6692      00
 6693              	.LASF24:
 6694 02b8 71756575 		.ascii	"queue\000"
 6694      6500
 6695              	.LASF38:
 6696 02be 6D706F6F 		.ascii	"mpool\000"
 6696      6C00
 6697              	.LASF71:
 6698 02c4 534D4352 		.ascii	"SMCR\000"
 6698      00
 6699              	.LASF41:
 6700 02c9 63685F74 		.ascii	"ch_thread\000"
 6700      68726561 
 6700      6400
 6701              	.LASF65:
 6702 02d3 6D61696E 		.ascii	"mainthread\000"
 6702      74687265 
 6702      616400
 6703              	.LASF19:
 6704 02de 6D73675F 		.ascii	"msg_t\000"
 6704      7400
 6705              	.LASF35:
 6706 02e4 6570656E 		.ascii	"epending\000"
 6706      64696E67 
 6706      00
 6707              	.LASF61:
 6708 02ed 63685F73 		.ascii	"ch_system_t\000"
 6708      79737465 
 6708      6D5F7400 
 6709              	.LASF118:
 6710 02f9 5F746573 		.ascii	"_test_fail\000"
 6710      745F6661 
 6710      696C00
 6711              	.LASF80:
 6712 0304 73746D33 		.ascii	"stm32_tim_t\000"
 6712      325F7469 
 6712      6D5F7400 
 6713              	.LASF48:
 6714 0310 63685F72 		.ascii	"ch_ready_list\000"
ARM GAS  /tmp/ccBs6P4c.s 			page 185


 6714      65616479 
 6714      5F6C6973 
 6714      7400
 6715              	.LASF20:
 6716 031e 6576656E 		.ascii	"eventmask_t\000"
 6716      746D6173 
 6716      6B5F7400 
 6717              	.LASF124:
 6718 032a 6D736770 		.ascii	"msgp\000"
 6718      00
 6719              	.LASF68:
 6720 032f 73746B61 		.ascii	"stkalign_t\000"
 6720      6C69676E 
 6720      5F7400
 6721              	.LASF102:
 6722 033a 74657374 		.ascii	"testcase_t\000"
 6722      63617365 
 6722      5F7400
 6723              	.LASF123:
 6724 0345 74657374 		.ascii	"test_print\000"
 6724      5F707269 
 6724      6E7400
 6725              	.LASF96:
 6726 0350 77726974 		.ascii	"write\000"
 6726      6500
 6727              	.LASF37:
 6728 0356 7265616C 		.ascii	"realprio\000"
 6728      7072696F 
 6728      00
 6729              	.LASF66:
 6730 035f 73697A65 		.ascii	"sizetype\000"
 6730      74797065 
 6730      00
 6731              	.LASF39:
 6732 0368 74687265 		.ascii	"thread_reference_t\000"
 6732      61645F72 
 6732      65666572 
 6732      656E6365 
 6732      5F7400
 6733              	.LASF56:
 6734 037b 63685F76 		.ascii	"ch_virtual_timers_list\000"
 6734      69727475 
 6734      616C5F74 
 6734      696D6572 
 6734      735F6C69 
 6735              	.LASF145:
 6736 0392 74657374 		.ascii	"test_step\000"
 6736      5F737465 
 6736      7000
 6737              	.LASF69:
 6738 039c 706F7274 		.ascii	"port_context\000"
 6738      5F636F6E 
 6738      74657874 
 6738      00
 6739              	.LASF99:
 6740 03a9 73657475 		.ascii	"setup\000"
 6740      7000
ARM GAS  /tmp/ccBs6P4c.s 			page 186


 6741              	.LASF129:
 6742 03af 5F746573 		.ascii	"_test_assert_sequence\000"
 6742      745F6173 
 6742      73657274 
 6742      5F736571 
 6742      75656E63 
 6743              	.LASF112:
 6744 03c5 74696D65 		.ascii	"time\000"
 6744      00
 6745              	.LASF25:
 6746 03ca 7072696F 		.ascii	"prio\000"
 6746      00
 6747              	.LASF49:
 6748 03cf 63757272 		.ascii	"current\000"
 6748      656E7400 
 6749              	.LASF117:
 6750 03d7 6F73616C 		.ascii	"osalOsIsTimeWithinX\000"
 6750      4F734973 
 6750      54696D65 
 6750      57697468 
 6750      696E5800 
 6751              	.LASF133:
 6752 03eb 746F6B65 		.ascii	"token\000"
 6752      6E00
 6753              	.LASF17:
 6754 03f1 74726566 		.ascii	"trefs_t\000"
 6754      735F7400 
 6755              	.LASF32:
 6756 03f9 72656673 		.ascii	"refs\000"
 6756      00
 6757              	.LASF51:
 6758 03fe 76697274 		.ascii	"virtual_timer_t\000"
 6758      75616C5F 
 6758      74696D65 
 6758      725F7400 
 6759              	.LASF18:
 6760 040e 74707269 		.ascii	"tprio_t\000"
 6760      6F5F7400 
 6761              	.LASF59:
 6762 0416 63685F73 		.ascii	"ch_system_debug\000"
 6762      79737465 
 6762      6D5F6465 
 6762      62756700 
 6763              	.LASF94:
 6764 0426 5F426F6F 		.ascii	"_Bool\000"
 6764      6C00
 6765              	.LASF8:
 6766 042c 696E7433 		.ascii	"int32_t\000"
 6766      325F7400 
 6767              	.LASF4:
 6768 0434 756E7369 		.ascii	"unsigned char\000"
 6768      676E6564 
 6768      20636861 
 6768      7200
 6769              	.LASF101:
 6770 0442 65786563 		.ascii	"execute\000"
 6770      75746500 
ARM GAS  /tmp/ccBs6P4c.s 			page 187


 6771              	.LASF5:
 6772 044a 73686F72 		.ascii	"short int\000"
 6772      7420696E 
 6772      7400
 6773              	.LASF57:
 6774 0454 6C617374 		.ascii	"lasttime\000"
 6774      74696D65 
 6774      00
 6775              	.LASF88:
 6776 045d 65776D61 		.ascii	"ewmask\000"
 6776      736B00
 6777              	.LASF62:
 6778 0464 63685F73 		.ascii	"ch_system\000"
 6778      79737465 
 6778      6D00
 6779              	.LASF95:
 6780 046e 42617365 		.ascii	"BaseSequentialStreamVMT\000"
 6780      53657175 
 6780      656E7469 
 6780      616C5374 
 6780      7265616D 
 6781              	.LASF107:
 6782 0486 63685379 		.ascii	"chSysLock\000"
 6782      734C6F63 
 6782      6B00
 6783              	.LASF126:
 6784 0490 6F73616C 		.ascii	"osalSysUnlock\000"
 6784      53797355 
 6784      6E6C6F63 
 6784      6B00
 6785              	.LASF52:
 6786 049e 63685F76 		.ascii	"ch_virtual_timer\000"
 6786      69727475 
 6786      616C5F74 
 6786      696D6572 
 6786      00
 6787              	.LASF89:
 6788 04af 63685F73 		.ascii	"ch_semaphore\000"
 6788      656D6170 
 6788      686F7265 
 6788      00
 6789              	.LASF79:
 6790 04bc 43435852 		.ascii	"CCXR\000"
 6790      00
 6791              	.LASF148:
 6792 04c1 63685468 		.ascii	"chThdSleep\000"
 6792      64536C65 
 6792      657000
 6793              	.LASF105:
 6794 04cc 73745F6C 		.ascii	"st_lld_get_counter\000"
 6794      6C645F67 
 6794      65745F63 
 6794      6F756E74 
 6794      657200
 6795              	.LASF10:
 6796 04df 75696E74 		.ascii	"uint32_t\000"
 6796      33325F74 
ARM GAS  /tmp/ccBs6P4c.s 			page 188


 6796      00
 6797              	.LASF87:
 6798 04e8 77746D74 		.ascii	"wtmtxp\000"
 6798      787000
 6799              	.LASF122:
 6800 04ef 74657374 		.ascii	"test_printn\000"
 6800      5F707269 
 6800      6E746E00 
 6801              	.LASF42:
 6802 04fb 63685F74 		.ascii	"ch_threads_list\000"
 6802      68726561 
 6802      64735F6C 
 6802      69737400 
 6803              	.LASF91:
 6804 050b 6F776E65 		.ascii	"owner\000"
 6804      7200
 6805              	.LASF11:
 6806 0511 6C6F6E67 		.ascii	"long unsigned int\000"
 6806      20756E73 
 6806      69676E65 
 6806      6420696E 
 6806      7400
 6807              	.LASF29:
 6808 0523 77616261 		.ascii	"wabase\000"
 6808      736500
 6809              	.LASF97:
 6810 052a 72656164 		.ascii	"read\000"
 6810      00
 6811              	.LASF92:
 6812 052f 63686172 		.ascii	"char\000"
 6812      00
 6813              	.LASF27:
 6814 0534 6F6C6465 		.ascii	"older\000"
 6814      7200
 6815              	.LASF127:
 6816 053a 6F73616C 		.ascii	"osalThreadSleep\000"
 6816      54687265 
 6816      6164536C 
 6816      65657000 
 6817              	.LASF77:
 6818 054a 444D4152 		.ascii	"DMAR\000"
 6818      00
 6819              	.LASF23:
 6820 054f 74687265 		.ascii	"thread_t\000"
 6820      61645F74 
 6820      00
 6821              	.LASF147:
 6822 0558 74657374 		.ascii	"test_suite\000"
 6822      5F737569 
 6822      746500
 6823              	.LASF134:
 6824 0563 74657374 		.ascii	"test_emit_token_i\000"
 6824      5F656D69 
 6824      745F746F 
 6824      6B656E5F 
 6824      6900
 6825              	.LASF22:
ARM GAS  /tmp/ccBs6P4c.s 			page 189


 6826 0575 73797374 		.ascii	"systime_t\000"
 6826      696D655F 
 6826      7400
 6827              	.LASF50:
 6828 057f 76746675 		.ascii	"vtfunc_t\000"
 6828      6E635F74 
 6828      00
 6829              	.LASF108:
 6830 0588 5F5F7365 		.ascii	"__set_BASEPRI\000"
 6830      745F4241 
 6830      53455052 
 6830      4900
 6831              	.LASF60:
 6832 0596 70616E69 		.ascii	"panic_msg\000"
 6832      635F6D73 
 6832      6700
 6833              	.LASF146:
 6834 05a0 74657374 		.ascii	"test_global_fail\000"
 6834      5F676C6F 
 6834      62616C5F 
 6834      6661696C 
 6834      00
 6835              	.LASF7:
 6836 05b1 73686F72 		.ascii	"short unsigned int\000"
 6836      7420756E 
 6836      7369676E 
 6836      65642069 
 6836      6E7400
 6837              	.LASF106:
 6838 05c4 706F7274 		.ascii	"port_timer_get_time\000"
 6838      5F74696D 
 6838      65725F67 
 6838      65745F74 
 6838      696D6500 
 6839              	.LASF143:
 6840 05d8 74657374 		.ascii	"test_chp\000"
 6840      5F636870 
 6840      00
 6841              	.LASF139:
 6842 05e1 74657374 		.ascii	"test_local_fail\000"
 6842      5F6C6F63 
 6842      616C5F66 
 6842      61696C00 
 6843              	.LASF121:
 6844 05f1 5F5F6675 		.ascii	"__func__.5178\000"
 6844      6E635F5F 
 6844      2E353137 
 6844      3800
 6845              	.LASF26:
 6846 05ff 6E657765 		.ascii	"newer\000"
 6846      7200
 6847              	.LASF153:
 6848 0605 74657374 		.ascii	"test_print_port_info\000"
 6848      5F707269 
 6848      6E745F70 
 6848      6F72745F 
 6848      696E666F 
ARM GAS  /tmp/ccBs6P4c.s 			page 190


 6849              	.LASF149:
 6850 061a 474E5520 		.ascii	"GNU C 4.8.1 -mcpu=cortex-m3 -mno-thumb-interwork -m"
 6850      4320342E 
 6850      382E3120 
 6850      2D6D6370 
 6850      753D636F 
 6851 064d 7468756D 		.ascii	"thumb -ggdb -O2 -fomit-frame-pointer -falign-functi"
 6851      62202D67 
 6851      67646220 
 6851      2D4F3220 
 6851      2D666F6D 
 6852 0680 6F6E733D 		.ascii	"ons=16 -ffunction-sections -fdata-sections -fno-com"
 6852      3136202D 
 6852      6666756E 
 6852      6374696F 
 6852      6E2D7365 
 6853 06b3 6D6F6E20 		.ascii	"mon -flto\000"
 6853      2D666C74 
 6853      6F00
 6854              	.LASF44:
 6855 06bd 74687265 		.ascii	"threads_queue_t\000"
 6855      6164735F 
 6855      71756575 
 6855      655F7400 
 6856              	.LASF90:
 6857 06cd 63685F6D 		.ascii	"ch_mutex\000"
 6857      75746578 
 6857      00
 6858              	.LASF135:
 6859 06d6 65786563 		.ascii	"execute_test\000"
 6859      7574655F 
 6859      74657374 
 6859      00
 6860              	.LASF63:
 6861 06e3 726C6973 		.ascii	"rlist\000"
 6861      7400
 6862              	.LASF3:
 6863 06e9 75696E74 		.ascii	"uint8_t\000"
 6863      385F7400 
 6864              	.LASF140:
 6865 06f1 74657374 		.ascii	"test_failure_message\000"
 6865      5F666169 
 6865      6C757265 
 6865      5F6D6573 
 6865      73616765 
 6866              	.LASF31:
 6867 0706 666C6167 		.ascii	"flags\000"
 6867      7300
 6868              	.LASF150:
 6869 070c 2E2E2F2E 		.ascii	"../../../test/lib/ch_test.c\000"
 6869      2E2F2E2E 
 6869      2F746573 
 6869      742F6C69 
 6869      622F6368 
 6870              	.LASF114:
 6871 0728 636C6561 		.ascii	"clear_tokens\000"
 6871      725F746F 
ARM GAS  /tmp/ccBs6P4c.s 			page 191


 6871      6B656E73 
 6871      00
 6872              	.LASF83:
 6873 0735 77746F62 		.ascii	"wtobjp\000"
 6873      6A7000
 6874              	.LASF119:
 6875 073c 5F746573 		.ascii	"_test_assert\000"
 6875      745F6173 
 6875      73657274 
 6875      00
 6876              	.LASF40:
 6877 0749 74687265 		.ascii	"threads_list_t\000"
 6877      6164735F 
 6877      6C697374 
 6877      5F7400
 6878              	.LASF116:
 6879 0758 63685654 		.ascii	"chVTIsTimeWithinX\000"
 6879      49735469 
 6879      6D655769 
 6879      7468696E 
 6879      5800
 6880              	.LASF15:
 6881 076a 746D6F64 		.ascii	"tmode_t\000"
 6881      655F7400 
 6882              	.LASF109:
 6883 0772 63685379 		.ascii	"chSysUnlock\000"
 6883      73556E6C 
 6883      6F636B00 
 6884              	.LASF113:
 6885 077e 73746172 		.ascii	"start\000"
 6885      7400
 6886              	.LASF36:
 6887 0784 6D74786C 		.ascii	"mtxlist\000"
 6887      69737400 
 6888              		.comm	__gnu_lto_v1,1,1
 6889              		.ident	"GCC: (Sourcery CodeBench Lite 2013.11-24) 4.8.1"
ARM GAS  /tmp/ccBs6P4c.s 			page 192


DEFINED SYMBOLS
                            *ABS*:00000000 ch_test.c
     /tmp/ccBs6P4c.s:1020   .text.print_line:00000000 $t
     /tmp/ccBs6P4c.s:1025   .text.print_line:00000000 print_line
     /tmp/ccBs6P4c.s:2362   .bss.test_chp:00000000 .LANCHOR0
     /tmp/ccBs6P4c.s:2304   .rodata.str1.4:00000000 .LC0
     /tmp/ccBs6P4c.s:1074   .text._test_fail:00000000 $t
     /tmp/ccBs6P4c.s:1080   .text._test_fail:00000000 _test_fail
     /tmp/ccBs6P4c.s:2297   .bss.test_local_fail:00000000 .LANCHOR1
     /tmp/ccBs6P4c.s:2291   .bss.test_failure_message:00000000 .LANCHOR3
     /tmp/ccBs6P4c.s:2389   .bss.test_global_fail:00000000 .LANCHOR2
     /tmp/ccBs6P4c.s:1121   .text._test_assert:00000000 $t
     /tmp/ccBs6P4c.s:1127   .text._test_assert:00000000 _test_assert
     /tmp/ccBs6P4c.s:1180   .text._test_assert_sequence:00000000 $t
     /tmp/ccBs6P4c.s:1186   .text._test_assert_sequence:00000000 _test_assert_sequence
     /tmp/ccBs6P4c.s:2369   .bss.test_tokp:00000000 .LANCHOR5
     /tmp/ccBs6P4c.s:2383   .bss.test_tokens_buffer:00000000 .LANCHOR4
     /tmp/ccBs6P4c.s:1268   .text._test_assert_time_window:00000000 $t
     /tmp/ccBs6P4c.s:1274   .text._test_assert_time_window:00000000 _test_assert_time_window
     /tmp/ccBs6P4c.s:1365   .text.test_printn:00000000 $t
     /tmp/ccBs6P4c.s:1371   .text.test_printn:00000000 test_printn
     /tmp/ccBs6P4c.s:1463   .text.test_print:00000000 $t
     /tmp/ccBs6P4c.s:1469   .text.test_print:00000000 test_print
     /tmp/ccBs6P4c.s:1509   .text.test_println:00000000 $t
     /tmp/ccBs6P4c.s:1515   .text.test_println:00000000 test_println
     /tmp/ccBs6P4c.s:1572   .text.test_emit_token:00000000 $t
     /tmp/ccBs6P4c.s:1578   .text.test_emit_token:00000000 test_emit_token
     /tmp/ccBs6P4c.s:1631   .text.test_emit_token:00000024 $d
     /tmp/ccBs6P4c.s:1642   .text.test_emit_token_i:00000000 $t
     /tmp/ccBs6P4c.s:1648   .text.test_emit_token_i:00000000 test_emit_token_i
     /tmp/ccBs6P4c.s:1671   .text.test_emit_token_i:00000018 $d
     /tmp/ccBs6P4c.s:1676   .text.test_execute:00000000 $t
     /tmp/ccBs6P4c.s:1682   .text.test_execute:00000000 test_execute
     /tmp/ccBs6P4c.s:2307   .rodata.str1.4:00000004 .LC1
     /tmp/ccBs6P4c.s:2310   .rodata.str1.4:00000008 .LC2
     /tmp/ccBs6P4c.s:2313   .rodata.str1.4:00000024 .LC3
     /tmp/ccBs6P4c.s:2315   .rodata.str1.4:00000028 .LC4
     /tmp/ccBs6P4c.s:2341   .rodata.str1.4:000000ac .LC14
     /tmp/ccBs6P4c.s:2344   .rodata.str1.4:000000c4 .LC15
     /tmp/ccBs6P4c.s:2347   .rodata.str1.4:000000d8 .LC16
     /tmp/ccBs6P4c.s:2349   .rodata.str1.4:000000fc .LC17
     /tmp/ccBs6P4c.s:2318   .rodata.str1.4:0000003c .LC5
     /tmp/ccBs6P4c.s:2321   .rodata.str1.4:00000054 .LC6
     /tmp/ccBs6P4c.s:2352   .rodata.str1.4:00000110 .LC18
     /tmp/ccBs6P4c.s:2324   .rodata.str1.4:00000064 .LC7
     /tmp/ccBs6P4c.s:2327   .rodata.str1.4:00000068 .LC8
     /tmp/ccBs6P4c.s:2376   .bss.test_step:00000000 .LANCHOR6
     /tmp/ccBs6P4c.s:2355   .rodata.str1.4:00000114 .LC19
     /tmp/ccBs6P4c.s:2330   .rodata.str1.4:00000080 .LC9
     /tmp/ccBs6P4c.s:2332   .rodata.str1.4:00000084 .LC10
     /tmp/ccBs6P4c.s:2358   .rodata.str1.4:00000118 .LC20
     /tmp/ccBs6P4c.s:2339   .rodata.str1.4:000000a4 .LC13
     /tmp/ccBs6P4c.s:2335   .rodata.str1.4:00000088 .LC11
     /tmp/ccBs6P4c.s:2337   .rodata.str1.4:0000009c .LC12
     /tmp/ccBs6P4c.s:2283   .text.test_execute:000002f8 $d
     /tmp/ccBs6P4c.s:2392   .bss.test_global_fail:00000000 test_global_fail
     /tmp/ccBs6P4c.s:2379   .bss.test_step:00000000 test_step
ARM GAS  /tmp/ccBs6P4c.s 			page 193


     /tmp/ccBs6P4c.s:2290   .bss.test_failure_message:00000000 $d
     /tmp/ccBs6P4c.s:2294   .bss.test_failure_message:00000000 test_failure_message
     /tmp/ccBs6P4c.s:2300   .bss.test_local_fail:00000000 test_local_fail
     /tmp/ccBs6P4c.s:2301   .bss.test_local_fail:00000000 $d
     /tmp/ccBs6P4c.s:2303   .rodata.str1.4:00000000 $d
     /tmp/ccBs6P4c.s:2361   .bss.test_chp:00000000 $d
     /tmp/ccBs6P4c.s:2365   .bss.test_chp:00000000 test_chp
     /tmp/ccBs6P4c.s:2368   .bss.test_tokp:00000000 $d
     /tmp/ccBs6P4c.s:2372   .bss.test_tokp:00000000 test_tokp
     /tmp/ccBs6P4c.s:2375   .bss.test_step:00000000 $d
     /tmp/ccBs6P4c.s:2382   .bss.test_tokens_buffer:00000000 $d
     /tmp/ccBs6P4c.s:2386   .bss.test_tokens_buffer:00000000 test_tokens_buffer
     /tmp/ccBs6P4c.s:2393   .bss.test_global_fail:00000000 $d
                            *COM*:00000001 __gnu_lto_v1
                     .debug_frame:00000010 $d
     /tmp/ccBs6P4c.s:1641   .text.test_emit_token:00000028 $t
     /tmp/ccBs6P4c.s:1675   .text.test_emit_token_i:0000001c $t
     /tmp/ccBs6P4c.s:2289   .text.test_execute:000002fc $t

UNDEFINED SYMBOLS
test_suite
test_print_port_info
chThdSleep
