ARM GAS  /tmp/cc2QEgwa.s 			page 1


   1              		.syntax unified
   2              		.cpu cortex-m3
   3              		.fpu softvfp
   4              		.eabi_attribute 20, 1
   5              		.eabi_attribute 21, 1
   6              		.eabi_attribute 23, 3
   7              		.eabi_attribute 24, 1
   8              		.eabi_attribute 25, 1
   9              		.eabi_attribute 26, 1
  10              		.eabi_attribute 30, 2
  11              		.eabi_attribute 34, 1
  12              		.eabi_attribute 18, 4
  13              		.thumb
  14              		.file	"chdynamic.c"
  15              		.text
  16              	.Ltext0:
  17              		.section	.gnu.lto_.jmpfuncs.68af0241d62f2fd8,"",%progbits
  18 0000 789C6362 		.ascii	"x\234cb`b\300\006\"\2404\023\203=\023\003#c\007S\004"
  18      6062C006 
  18      22A03413 
  18      833D1303 
  18      23630753 
  19 0015 63262303 		.ascii	"c&#\003#\003\230f\004J\000133\220.cd\000R\214e\014\020"
  19      23039866 
  19      044A0031 
  19      3333902E 
  19      63640052 
  20 002d 29260E20 		.ascii	")&\016 G\036I\013\023\212\026F\250\026\006\000f\372"
  20      471E490B 
  20      138A1646 
  20      A8160600 
  20      66FA
  21 003f 0732     		.ascii	"\0072"
  22              		.text
  23              		.section	.gnu.lto_.inline.68af0241d62f2fd8,"",%progbits
  24 0000 789C6362 		.ascii	"x\234cb`b\300\006\302\2414\023\203\204\224\021#\003"
  24      6062C006 
  24      C2A13413 
  24      83849411 
  24      2303
  25 0012 93C48A2D 		.ascii	"\223\304\212-\214\014l\013\344\301\252\231y\200\022"
  25      8C0C6C0B 
  25      E4C1AA99 
  25      798012
  26 0021 13FCC034 		.ascii	"\023\374\3004#\003+\037Pd\202\037\220\317\010Q+}\355"
  26      23032B1F 
  26      5064821F 
  26      90CF0851 
  26      2B7DED
  27 0034 142303FB 		.ascii	"\024#\003\373-5,j\301$\220\007\000\372L\012\354"
  27      2D352C6A 
  27      C1249007 
  27      00FA4C0A 
  27      EC
  28              		.text
  29              		.section	.gnu.lto_.pureconst.68af0241d62f2fd8,"",%progbits
  30 0000 789C6362 		.ascii	"x\234cb`b`e\200\000&\006+F+\000\001\206\000\201"
ARM GAS  /tmp/cc2QEgwa.s 			page 2


  30      60626065 
  30      80002606 
  30      2B462B00 
  30      01860081 
  31              		.text
  32              		.section	.gnu.lto_chThdCreateFromHeap.68af0241d62f2fd8,"",%progbits
  33 0000 789C8D54 		.ascii	"x\234\215T_H\034G\030\377\276\231]\357\232\323\250m"
  33      5F481C47 
  33      18FFBE99 
  33      5DEF9AD3 
  33      A86D
  34 0012 6CFE10F4 		.ascii	"l\376\020\364\020\204\2246nK\013ym\361I\202/1B\233\027"
  34      10849436 
  34      6E4B0B79 
  34      6DF14982 
  34      2F31429B 
  35 0027 59C74317 		.ascii	"Y\307C\027r\236\334^\022%\204LO+\226\226\"B\310\037"
  35      729EDC5E 
  35      1225844C 
  35      4F2B9696 
  35      2242C81F 
  36 003b 09890413 		.ascii	"\011\211\004\023\222\006,)m\365\241d\363\0071&\032\322"
  36      92062C29 
  36      6DF5A164 
  36      F3073126 
  36      1AD2
  37 004d A7F621F4 		.ascii	"\247\366!\364\300\207\246\025\032\202\205\206$\324~"
  37      C087A615 
  37      1A828586 
  37      24D47E
  38 005c B3B3BB9E 		.ascii	"\263\263\273\236\307Q\273z3;3\277\337|\277\375}\337"
  38      C751BB7A 
  38      333B33BF 
  38      DF7CBFFD 
  38      7DDF
  39 006e 0C0306A5 		.ascii	"\014\003\006\245\317\373\364\0331\001\026\251G\023\220"
  39      CFFBF41B 
  39      310116A9 
  39      471390
  40 007d 8D2D017C 		.ascii	"\215-\001|\032g\314X\340 \267\360\271\005\000Y\311\321"
  40      1A67CC58 
  40      E020B7F0 
  40      B9050059 
  40      C9D1
  41 008f D0F306A2 		.ascii	"\320\363\006\242z\001\204\223\214\033x\362\023T\233"
  41      7A018493 
  41      8C1B78F2 
  41      13549B
  42 009e F0469894 		.ascii	"\360F\230\224r\2740\265\362\004\317Jo\370\242|\265\266"
  42      72BC30B5 
  42      F204CF4A 
  42      6FF8A27C 
  42      B5B6
  43 00b0 86E82005 		.ascii	"\206\350 \005lD\020\010\037\323\000\223~\307\214\215"
  43      6C441008 
  43      1FD30093 
  43      7EC78C8D 
ARM GAS  /tmp/cc2QEgwa.s 			page 3


  44 00c0 0A34D77B 		.ascii	"\0124\327{<\367\345Ny1?&\377!\252\203\234A\323\377a"
  44      3CF7E54E 
  44      79313F26 
  44      FF21AA83 
  44      9C41D3FF 
  45 00d5 7A63DECB 		.ascii	"zc\336\313\271\323X\3044\030\274\265\316\364t\317vl"
  45      B9D358C4 
  45      3418BCB5 
  45      CEF474CF 
  45      766C
  46 00e7 A44E33AF 		.ascii	"\244N3\257\260\266\366\340\273\231\345\025\254\335\215"
  46      B0B6F6E0 
  46      BB99E515 
  46      ACDD8D
  47 00f6 40520D4C 		.ascii	"@R\015L#\230\324`\014l\274\204\215\020\247\001K\320"
  47      2398D460 
  47      0C6CBC84 
  47      8D10A701 
  47      4BD0
  48 0108 9A59456F 		.ascii	"\232YEo\274\232\032\243\226\032\263\216\000\223\004"
  48      BC9A1AA3 
  48      961AB38E 
  48      009304
  49 0117 A0C78461 		.ascii	"\240\307\204a)\307\222z\254i6N\371k\302\367\346 \265"
  49      29C7927A 
  49      AC69364E 
  49      F96BC2F7 
  49      E620B5
  50 012a CAB20E64 		.ascii	"\312\262\016d\252\347\017a\2440\263\2146^!\273{0v\034"
  50      AAE70F61 
  50      A430B38C 
  50      365E21BB 
  50      7B30761C 
  51 013e 5EC85159 		.ascii	"^\310QY\343`\205@\237@\223F\017\232Ju,N\301\343\000"
  51      E3608540 
  51      9F409346 
  51      0F9A4A75 
  51      2C4EC1E3 
  52 0153 F78069BC 		.ascii	"\367\200i\274\016@,\200y\270\373\333\255\325\021\036"
  52      0E402C80 
  52      79B8FBDB 
  52      ADD5111E 
  53 0163 6DA408BC 		.ascii	"m\244\010\274\370\033;hH\351\343\213\220\277?\363\364"
  53      F81B3B68 
  53      48E9E38B 
  53      90BF3FF3 
  53      F4
  54 0174 79B0C5DB 		.ascii	"y\260\305\333pMJ\025\3575\255\263K\007\245\035\342\252"
  54      704D4A15 
  54      EF35ADB3 
  54      4B07A51D 
  54      E2AA
  55 0186 0AF2AD25 		.ascii	"\012\362\255%03\204\205\342b\0126\364\305\320\245\257"
  55      30338485 
  55      E2620A36 
  55      F4C5D0A5 
  55      AF
ARM GAS  /tmp/cc2QEgwa.s 			page 4


  56 0197 CC307682 		.ascii	"\3140v\202fI\262\317\277W&T\264\007\013\366H\370\320"
  56      6649B2CF 
  56      BF572654 
  56      B4070BF6 
  56      48F8D0
  57 01aa FD25B02D 		.ascii	"\375%\260-!\214\007\260\252\262\260D\0103\002XuY\030"
  57      218C07B0 
  57      AAB2B044 
  57      08330258 
  57      755918
  58 01bd 0F616600 		.ascii	"\017af\000\253UF\346\343a\305\025f\257.\336\302\361"
  58      AB5546E6 
  58      E361C515 
  58      66AF2EDE 
  58      C2F1
  59 01cf 21392F87 		.ascii	"!9/\207=\252\234\006\007+\031\034\332\254\350\324\\"
  59      3DAA9C06 
  59      072B191C 
  59      DAACE8D4 
  59      5C
  60 01e0 65925E96 		.ascii	"e\222^\226 \377l~\350\362\256\240\002\302R\360V\177"
  60      20FF6C7E 
  60      E8F2AEA0 
  60      02C252F0 
  60      567F
  61 01f2 9AE07B6C 		.ascii	"\232\340{l\234\366k \230\373\372\324\363\304\356h\364"
  61      9CF66B20 
  61      98FBFAD4 
  61      F3C4EE68 
  61      F4
  62 0203 F99FE4A5 		.ascii	"\371\237\344\245V+\310\022A\337+\364\307 \375\335\240"
  62      562BC812 
  62      41DF2BF4 
  62      C720FDDD 
  62      A0
  63 0214 21F9C4F5 		.ascii	"!\371\304\365a\255\207;x^\236\371\320Qf\024E__\237\013"
  63      61AD873B 
  63      785E9EF9 
  63      D0516614 
  63      455F5F9F 
  64 0229 D6B76A7D 		.ascii	"\326\267j}\017a\270\360\370NT_uQ}U\213\300\0115C\317"
  64      0F61B8F0 
  64      F84E545F 
  64      75517D55 
  64      8BC00935 
  65 023f 09076BB4 		.ascii	"\011\007k\264E\032K\245\246\035\362*\302b\233\364\213"
  65      451A4BA5 
  65      A61DF22A 
  65      C2629BF4 
  65      8B
  66 0250 ADCEB777 		.ascii	"\255\316\267w\346\347\277\237`\261\3052\341\340\353"
  66      E6E7BF9F 
  66      60B1C532 
  66      E1E0EB
  67 025f 13708E14 		.ascii	"\023p\216\024\275A \245L+\350\302\212\310\251m\350K"
  67      BD4120A5 
  67      4C2BE8C2 
ARM GAS  /tmp/cc2QEgwa.s 			page 5


  67      8AC8A96D 
  67      E84B
  68 0271 FAACF0EB 		.ascii	"\372\254\360\353r,\010\003\221\242:\021 \003\372\233"
  68      722C0803 
  68      91A23A11 
  68      2003FA9B 
  69 0281 4AC3F6D2 		.ascii	"J\303\366\322,\375\276T\232%\033\277\361m\3334M\360"
  69      2CFDBE54 
  69      9A251BBF 
  69      F16DDB34 
  69      4DF0
  70 0293 5F69FAE3 		.ascii	"_i\372\343\274J\323\315\215i\272PU\037\235\351\365|"
  70      BC4AD3CD 
  70      8D69BA50 
  70      551F9DE9 
  70      F57C
  71 02a5 FD5594AF 		.ascii	"\375U\224\257\030\370G;^&e6~O/Q\3440E6\316b}\361\261"
  71      18F8473B 
  71      5E266536 
  71      7E4F2F51 
  71      E4304536 
  72 02be 34FC8B60 		.ascii	"4\374\213`\021n\257D\307Z\245\341\003\370V\216\252\013"
  72      116EAF44 
  72      C75AA5E1 
  72      03F8568E 
  72      AA0B
  73 02d0 8C408FE8 		.ascii	"\214@\217\350\256U\276\370\226\376\002\030\270\313\256"
  73      AE55BEF8 
  73      96FE0218 
  73      B8CBAE
  74 02df FFB08DCC 		.ascii	"\377\260\215\314\342\327\177\254T7\013\252\215T\214"
  74      E2D77FAC 
  74      54370BAA 
  74      8D548C
  75 02ee 86E6664B 		.ascii	"\206\346fK\377g\\+\233\263\334\254\260Do\367`\237\235"
  75      FF675C2B 
  75      9BB3DCAC 
  75      B0446FF7 
  75      609F9D
  76 0301 7644B300 		.ascii	"vD\263\000\226\353\347\307\334~\226\353\336[\214\024"
  76      96EBE7C7 
  76      DC7E96EB 
  76      DE5B8C14 
  77 0311 99743AD3 		.ascii	"\231t:\323g\365g\2629\327\372\350@[K\333\000\321D&\233"
  77      67F567B2 
  77      39D7FAE8 
  77      405B4BDB 
  77      00D14426 
  78 0326 EA3CBA2F 		.ascii	"\352<\272/\335\334\013\346Q\373\360\221\324{e8\251\201"
  78      DDDC0BE6 
  78      51FBF091 
  78      D47B6538 
  78      A981
  79 0338 9CD5D2D6 		.ascii	"\234\325\322\326\336\332n9}\342\360\221\356\224%\322"
  79      DEDA6E39 
  79      7DE2F091 
  79      EE9425D2 
ARM GAS  /tmp/cc2QEgwa.s 			page 6


  80 0348 AEE376F6 		.ascii	"\256\343v\366\010A\274R=\021\246\327\035ti\275\246\255"
  80      0841BC52 
  80      3D11A6D7 
  80      1D7469BD 
  80      A6AD
  81 035a FD40B2CB 		.ascii	"\375@\262\313vS\375Y\347\235d\323\273\300\262\020K\247"
  81      7653FD59 
  81      E79D64D3 
  81      BBC0B210 
  81      4BA7
  82 036c D299EC20 		.ascii	"\322\231\354 \374\013\033\373\201\356"
  82      FC0B1BFB 
  82      81EE
  83              		.text
  84              		.section	.gnu.lto_chThdCreateFromMemoryPool.68af0241d62f2fd8,"",%progbits
  85 0000 789C8D54 		.ascii	"x\234\215T[hTG\030\376\377\231\263\2731\2334\211\032"
  85      5B685447 
  85      18FEFF99 
  85      B3BB319B 
  85      34891A
  86 0013 ABD2C625 		.ascii	"\253\322\306% \324\2529\212\202\257\026\237D\362b\024"
  86      20D4AA39 
  86      8A82AF16 
  86      9F44F262 
  86      14
  87 0024 DABEC8C9 		.ascii	"\332\276\310\311d1\007<\331\260g\275\004\021\307M\004"
  87      6431073C 
  87      D9B067BD 
  87      0411C74D 
  87      04
  88 0035 6F0F4110 		.ascii	"o\017A\020o\210\006Q\321J\245\351CS\332\207\343\225"
  88      6F880651 
  88      D14AA5E9 
  88      4353DA87 
  88      E395
  89 0047 24BA1185 		.ascii	"$\272\021\205\242\021\204}\0115-\024\252>x\303\370\317"
  89      A211847D 
  89      09352D14 
  89      AA3E78C3 
  89      F8CF
  90 0059 9C8B9B75 		.ascii	"\234\213\233uQO\2623gf\276o\376o\276\377?\303\200A\371"
  90      514FB233 
  90      6766BE6F 
  90      FE6FBEFF 
  90      3FC38041 
  91 006e B3827E4F 		.ascii	"\263\202~Oc\000\005\3521\006\310\372\307\000\366T1f"
  91      630005EA 
  91      3106C8FA 
  91      C700F654 
  91      3166
  92 0080 8C7290D5 		.ascii	"\214r\220\325\374\326(\200\254\341h\370\363\006\242"
  92      FCD62880 
  92      ACE168F8 
  92      F306A2
  93 008f 7A0184DD 		.ascii	"z\001\204\335\214\033\270\373\007T\233\360f\030\220"
  93      8C1BB8FB 
  93      07549BF0 
ARM GAS  /tmp/cc2QEgwa.s 			page 7


  93      661890
  94 009e F27071E2 		.ascii	"\362pq\342\322$\036\227^\337\031\371fj\012\321F\012"
  94      D2241E97 
  94      5EDF19F9 
  94      666A0AD1 
  94      460A
  95 00b0 D88C2010 		.ascii	"\330\214 \020\276\247\001\246t\307\214\351\012|\256"
  95      BEA701A6 
  95      74C78CE9 
  95      0A7CAE
  96 00bf 373E7A68 		.ascii	"7>zh\236<\223\357\227o\211j#g\260\360s\230^\277\367"
  96      9E3C93EF 
  96      976F896A 
  96      2367B0F0 
  96      73985EBF 
  97 00d4 7AF42896 		.ascii	"z\364(\2260\015\006\213\3363=\277gs\247S\2570\25785"
  97      300D068B 
  97      DE333DBF 
  97      6773A753 
  97      AF30AF38 
  98 00e9 75F9AF27 		.ascii	"u\371\257'\207\356\340\317\354k\004\322j\240\203\020"
  98      87EEE0CF 
  98      EC6B04D2 
  98      6AA08310 
  99 00f9 070BCF62 		.ascii	"\007\013\317b3$h\200\3254\035KR\023\257\245!\253\243"
  99      33246880 
  99      D5341D4B 
  99      5213AFA5 
  99      21ABA3
 100 010c 86375063 		.ascii	"\2067Pc4\022j\200P\364\304\240O\312\376\224?\366\271"
 100      34126A80 
 100      50F4C4A0 
 100      4FCAFE94 
 100      3FF6B9
 101 011f 0EC62C3C 		.ascii	"\016\306,<\247\227\205\366g\003\265\312\266\215\310"
 101      A79785F6 
 101      6703B5CA 
 101      B68DC8
 102 012e 54CFEF42 		.ascii	"T\317\357B_qh\002-\274@\226o\306\370Nx%\367\311z\033"
 102      5F716802 
 102      2DBC4096 
 102      6FC6F84E 
 102      7825F7C9 
 103 0144 13023581 		.ascii	"\023\0025\201&\015\033\253\000F\200\371(\177g\302\002"
 103      260D1BAB 
 103      004680F9 
 103      287F67C2 
 103      02
 104 0155 0CC38DBF 		.ascii	"\014\303\215\277\257>;\300#\272: /=\335F\032R\342x\001"
 104      AF3E3BC0 
 104      23BA3A20 
 104      2F3DDD46 
 104      1A52E278 
 105 016a F2B787AE 		.ascii	"\362\267\207\256\274\014\266X\014\227\244TQf\370\352"
 105      BC0CB658 
 105      0C97A454 
 105      5166F8EA 
ARM GAS  /tmp/cc2QEgwa.s 			page 8


 106 017a DAFD50B4 		.ascii	"\332\375P\264CB\345?\277\266\014\026\017a\241\244\270"
 106      4342E53F 
 106      BFB60C16 
 106      0F61A1A4 
 106      B8
 107 018b 863D3A36 		.ascii	"\206=:68n\204\261\253\027\303\2676V\237\204\023{\210"
 107      386E84B1 
 107      AB17C3B7 
 107      36569F84 
 107      137B88
 108 019e 749A8424 		.ascii	"t\232\204$I\272\022T\243I\355\030\226\\\001z\017\366"
 108      49BA1254 
 108      A349ED18 
 108      965C017A 
 108      0FF6
 109 01b0 CE097984 		.ascii	"\316\011y\204\212\023[o8RAb\024\233\007\261\223\032"
 109      8A135B6F 
 109      38524162 
 109      149B07B1 
 109      931A
 110 01c2 BAAE0C56 		.ascii	"\272\256\014V\033\302\214\000V[\021\366E\010\213\005"
 110      1BC28C00 
 110      565B11F6 
 110      45088B05 
 111 01d2 B0BA8A30 		.ascii	"\260\272\2120\036\302\342\001\254A% _\025\326h\361\367"
 111      1EC2E201 
 111      AC412520 
 111      5F15D668 
 111      F1F7
 112 01e4 8B85AB78 		.ascii	"\213\205\253x\270W\016\313>\217jm\201\215u\014~\374"
 112      B8570ECB 
 112      3E8F6A6D 
 112      818D750C 
 112      7EFC
 113 01f6 5499AAB9 		.ascii	"T\231\252\271\272\024\275\214A\376\377\341\336\363\363"
 113      BA14BD8C 
 113      41FEFFE1 
 113      DEF3F3
 114 0205 8392096B 		.ascii	"\203\222\011k\307{v\377$\377\306\302_t\305\004s?\035"
 114      C77B76FF 
 114      24FFC6C2 
 114      5F74C504 
 114      733F1D
 115 0218 7991FC2A 		.ascii	"y\221\374*\032\355\377\217l\364\325\012rT\220-\302?"
 115      1AEDFF8F 
 115      6CF4D50A 
 115      7254902D 
 115      C23F
 116 022a 33D2DF20 		.ascii	"3\322\337 \015i\235\373\237w\023\\\307S\362\330j\033"
 116      0D699DFB 
 116      9F77135C 
 116      C753F2D8 
 116      6A1B
 117 023c EBA7457F 		.ascii	"\353\247E\177\277~+Xo\360\365\251j||3\252\306\306\250"
 117      BF7E2B58 
 117      6FF0F5A9 
 117      6A7C7C33 
ARM GAS  /tmp/cc2QEgwa.s 			page 9


 117      AAC6C6A8 
 118 0250 1A678AC0 		.ascii	"\032g\212\30005C\317.\033g\371\026\371X\3720fk\207\274"
 118      303543CF 
 118      2E1B67F9 
 118      16F958FA 
 118      30666B87 
 119 0265 7858A403 		.ascii	"xX\244\003\272H\033\265\275C\017\177\233\304R\213e\322"
 119      BA481BB5 
 119      BD430F7F 
 119      9BC4528B 
 119      65D2
 120 0277 C6462A15 		.ascii	"\306F*\025R4\207@J\031\004U\222\210\234\372\222\351"
 120      52348740 
 120      4A190455 
 120      92889CFA 
 120      92E9
 121 0289 62C9DF7E 		.ascii	"b\311\337~Q\201\315+\263\253\302oF\035fo\361\311D\""
 121      5181CD2B 
 121      B3ABC26F 
 121      461D666F 
 121      F1C94422 
 122 029d 1008D159 		.ascii	"\020\010\321Y\346\212(\253\232:O\251\237_\236\337\311"
 122      E68A28AB 
 122      9A3A4FA9 
 122      9F5F9EDF 
 122      C9
 123 02ae B1F2FC5A 		.ascii	"\261\362\374Z8\250\015\377d\202\341c\011\376\347\224"
 123      38A80DFF 
 123      6482E163 
 123      09FEE794 
 124 02be 4AF0F5E9 		.ascii	"J\360\365\351\011>]\333\024]\037\321\364\310\363\222"
 124      093E5DDB 
 124      145D1FD1 
 124      F4C8F392 
 125 02ce 4C6B5704 		.ascii	"LkW\004\035\357\303d[8D/Q\3440\271\026\376\201M\245"
 125      1DEFC364 
 125      5B38442F 
 125      51E430B9 
 125      16FE814D 
 126 02e3 1781A12F 		.ascii	"\027\201\241/\234\002\\\3737\272HT\002W\302\257r\237"
 126      9C025CFB 
 126      37BA4854 
 126      0257C2AF 
 126      729F
 127 02f5 BA2C0974 		.ascii	"\272,\011t\217\356u\345\213\266s\0340p\226]~0\233\314"
 127      8FEE75E5 
 127      8BB6731C 
 127      3070965D 
 127      7E309BCC 
 128 0309 E27F3EAE 		.ascii	"\342\177>\256Q7\030\252\215T\214\005--\246\377\237q"
 128      513718AA 
 128      8D548C05 
 128      2D2DA6FF 
 128      9F71
 129 031b CD6CCE74 		.ascii	"\315l\316t\263\302\024\235\035=]\226c\213\026\001,\327"
 129      B3C2149D 
 129      1D3D5D96 
ARM GAS  /tmp/cc2QEgwa.s 			page 10


 129      638B1601 
 129      2CD7
 130 032d CDB7BBDD 		.ascii	"\315\267\273\335,\327\261\264\024)2\216\223\3512\273"
 130      2CD7B1B4 
 130      1429328E 
 130      93E932BB 
 131 033d 33D99C6B 		.ascii	"3\331\234k~\267\276uM\353\016\242\211L6\275i\333*\247"
 131      7EB7BE75 
 131      4DEB0EA2 
 131      894C36BD 
 131      69DB2AA7 
 132 0351 A51362DB 		.ascii	"\245\023b\333\254-[\323\313+p\322;r\346\232\326\266"
 132      AC2D5BD3 
 132      CB2B70D2 
 132      3B72E69A 
 132      D6B6
 133 0363 B56DA6DD 		.ascii	"\265m\246\335%\266l\355H\233\302qmw\323f!\210W\256'"
 133      25B66CED 
 133      489BC271 
 133      6D77D366 
 133      218857AE 
 134 0378 C274BA3D 		.ascii	"\302t\272=.\255\327\267\266\255O\265[n\272;k/I-\\\006"
 134      2EADD7B7 
 134      B6AD4FB5 
 134      5B6EBA3B 
 134      6B2F492D 
 135 038e 2C0B0927 		.ascii	",\013\011'\355d\262=\360\016\241+\232_"
 135      ED64B23D 
 135      F00EA12B 
 135      9A5F
 136              		.text
 137              		.section	.gnu.lto_.symbol_nodes.68af0241d62f2fd8,"",%progbits
 138 0000 789C45CD 		.ascii	"x\234E\315\273\015\2000\014\004\320;;\254\301\252\216"
 138      BB0D8030 
 138      0C04D03B 
 138      3BACC1AA 
 138      8E
 139 0011 940244C5 		.ascii	"\224\002D\305\0044Y\203\237\030\200\031\220\230\003"
 139      04345983 
 139      9F188019 
 139      909803
 140 0020 44F888B8 		.ascii	"D\370\210\2709\275\273\302\002A\215\357\244\247\001"
 140      39BDBBC2 
 140      02418DEF 
 140      A4A701
 141 002f ED0A9875 		.ascii	"\355\012\230u5e\2401\2233M^zON4\315\032i.k\241\025\277"
 141      3565A031 
 141      93334D5E 
 141      7A4F4E34 
 141      CD1A692E 
 142 0047 140E613B 		.ascii	"\024\016a;S*Bu\224\232^\356w\262x\373\264\304\307\202"
 142      532A4275 
 142      949A5EEE 
 142      77B278FB 
 142      B4C4C782 
 143 005b D81C252E 		.ascii	"\330\034%.\024((\275"
 143      142828BD 
ARM GAS  /tmp/cc2QEgwa.s 			page 11


 144              		.text
 145              		.section	.gnu.lto_.refs.68af0241d62f2fd8,"",%progbits
 146 0000 789C6362 		.ascii	"x\234cb`b`d\200\002\000\000F\000\006"
 146      60626064 
 146      80020000 
 146      460006
 147              		.text
 148              		.section	.gnu.lto_.decls.68af0241d62f2fd8,"",%progbits
 149 0000 789CAD1B 		.ascii	"x\234\255\033}p\024\325\375\275\335\273$G\002\242N\235"
 149      7D7014D5 
 149      FDBDDDBB 
 149      244702A2 
 149      4E9D
 150 0012 D08F31B6 		.ascii	"\320\2171\266\266\3232\225\240\265\225v\246U\244-0#"
 150      B6D33295 
 150      A0B59576 
 150      A655A42D 
 150      3023
 151 0024 1DA7D4B1 		.ascii	"\035\247\324\2613\235\361\272^\226\344J\356\243{\033"
 151      339DF1BA 
 151      5E96E44A 
 151      EEA37B1B 
 152 0034 02FDC725 		.ascii	"\002\375\307%\"\240\322\022\023\203DAC\201\012*(`E\012"
 152      22A0D212 
 152      13834441 
 152      43810A2A 
 152      2860450A 
 153 0048 C8612584 		.ascii	"\310a%\204`\371\306\230\246\302!\037*\024J\244\200|"
 153      60F9C698 
 153      A6C2211F 
 153      2A144AA4 
 153      807C
 154 005a 68FA7BBF 		.ascii	"h\372{\277\335\275\333}\267\273\267\027\272\223\367"
 154      DDBDDB7D 
 154      B7BBB717 
 154      BA93F7
 155 0069 F6EBBDDF 		.ascii	"\366\353\275\337\367\327{{\021\210@*\004B\006\340\230"
 155      F7D77B7B 
 155      1188402A 
 155      044206E0 
 155      98
 156 007a 7B17217F 		.ascii	"{\027!\177-!D$\204\374\204\350g\012\015\036\221 \321"
 156      2D214424 
 156      84FC84E8 
 156      670A0D1E 
 156      9120D1
 157 008d 0F76BD04 		.ascii	"\017v\275\004\332\002x\261\021Z\032\332\001h\377\244"
 157      DA0278B1 
 157      115A1ADA 
 157      0168FFA4 
 158 009d 24EF60E3 		.ascii	"$\357`\343*\241-\2056\014Z\005\264\273\241u\302\330"
 158      2AA12D85 
 158      360C5A05 
 158      B4BBA175 
 158      C2D8
 159 00af 53703E44 		.ascii	"Sp>Du\270\007\341|\014\316oB\233\305\340\302\3710\234"
 159      75B807E1 
ARM GAS  /tmp/cc2QEgwa.s 			page 12


 159      7C0CCE6F 
 159      429BC5E0 
 159      C2F9309C 
 160 00c3 8F403BCA 		.ascii	"\217@;\312\336A\333\012\355*<_f\320t\234\352\264l\202"
 160      DE41DB0A 
 160      ED2A3C5F 
 160      66D0749C 
 160      EAB46C82 
 161 00d7 73299C77 		.ascii	"s)\234w\300\271\033\332\273\320vA\333\015m/\264+\360"
 161      C0B91BDA 
 161      BBD07641 
 161      DB0D6D2F 
 161      B42BF0
 162 00ea 2E64D0C2 		.ascii	".d\320\302\350<\001\355$\264\323\006\355\214\207\013"
 162      E83C01ED 
 162      24B4D306 
 162      ED8C870B 
 163 00fa D02E19F0 		.ascii	"\320.\031\360\346\301\371O\320\346Ck\206\366\024\264"
 163      E6C1F94F 
 163      D0E6436B 
 163      86F614B4 
 164 010a 568E37C6 		.ascii	"V\2167\306\373W\\\370b\3740\336\256\302u\237\301\327"
 164      FB575CF8 
 164      62FC30DE 
 164      AEC2759F 
 164      C1D7
 165 011c 6FE0FC2C 		.ascii	"o\340\374,\264v:x\036C\026\036\227\273\3609\311\030"
 165      B4763A78 
 165      1E43161E 
 165      97BBF039 
 165      C918
 166 012e B7C0D047 		.ascii	"\267\300\320G!^_\207\363\033\320\3263\272\240m\200\366"
 166      215E5F87 
 166      F31BD0D6 
 166      33BAA06D 
 166      80F6
 167 0140 39C7EBCD 		.ascii	"9\307\353\315\344y\255#\223\331v\362}\332\256\245gi"
 167      E479AD23 
 167      93D976F2 
 167      7DDAAEA5 
 167      6769
 168 0152 03038F90 		.ascii	"\003\003\217\220\233H\233\006G\307lM\243j9yB\323\232"
 168      9B489B06 
 168      47C76C4D 
 168      A36A3979 
 168      42D39A
 169 0165 D8CD84AE 		.ascii	"\330\315\204\256a7\220\247\330\233\252.\020\313\257"
 169      613790A7 
 169      D89BAA2E 
 169      10CBAF
 170 0174 A9448785 		.ascii	"\251D\207\205HG\000\257*B\344\247\000\356\233d\231\246"
 170      484700AF 
 170      2A42E4A7 
 170      00EE9B64 
 170      99A6
 171 0186 3567DA3E 		.ascii	"5g\332>\337/jZ\231D\227\321\033\300\000\307S2\222\254"
 171      DF2F6A5A 
ARM GAS  /tmp/cc2QEgwa.s 			page 13


 171      994497D1 
 171      1BC000C7 
 171      533292AC 
 172 019a 8489CD00 		.ascii	"\204\211\315\000j\244\203%\221\202\200\005\362 %\022"
 172      6AA48325 
 172      91828005 
 172      F2202512 
 173 01aa 5D01F024 		.ascii	"]\001\360$\372\"\035\251c\3222\255s>h\2423\201P\375"
 173      FA221DA9 
 173      63D232AD 
 173      733E68A2 
 173      338150FD 
 174 01be 1D31DE3A 		.ascii	"\0351\336:\034\267\220\016\230\220\276\330\275\210j"
 174      1CB7900E 
 174      9890BED8 
 174      BD886A
 175 01cd 1D6F5307 		.ascii	"\035oS\007\214\367\230\010\313,\234,\371\343D\344\344"
 175      8CF79808 
 175      CB2C9C2C 
 175      F9E344E4 
 175      E4
 176 01de 15E4A489 		.ascii	"\025\344\244\211R\033\006\003J\307=n`\004\322\202S^"
 176      521B0603 
 176      4AC73D6E 
 176      6004D282 
 176      535E
 177 01f0 CD237CFB 		.ascii	"\315#|\373n\223\360W}\020\336\224\336\373\304\342\021"
 177      6E93F057 
 177      7D10DE94 
 177      DEFBC4E2 
 177      11
 178 0201 8C70892E 		.ascii	"\214p\211.\245\345\000wi\026\256\201\267\312\304\033"
 178      A5E50077 
 178      6916AE81 
 178      B7CAC41B 
 179 0211 20C4BCD4 		.ascii	" \304\274\324\017c\200\035\336\276\356\212f\311\004"
 179      0F63801D 
 179      DEBEEE8A 
 179      66C904
 180 0220 B6A26860 		.ascii	"\266\242h`UN\244\352\207\225[\211\256\241\337\204~-"
 180      554EA4EA 
 180      87955B89 
 180      AEA1DF84 
 180      7E2D
 181 0232 BD05FAD7 		.ascii	"\275\005\372\327\241\317\036\002YEM\235:\211\2560\013"
 181      A1CF1E02 
 181      59454D9D 
 181      3A89AE30 
 181      0B
 182 0243 97BA17A1 		.ascii	"\227\272\027\241HBdn\316F\211#\013\206:{\236|g/}\024"
 182      4842646E 
 182      CE468923 
 182      0B863A7B 
 182      9E7C672F 
 183 0259 A5FE264C 		.ascii	"\245\376&L\023\310\2779\205\372\007\325;\377@?mBP\033"
 183      13C8BF39 
 183      85FA07D5 
ARM GAS  /tmp/cc2QEgwa.s 			page 14


 183      3BFF403F 
 183      6D42501B 
 184 026d 11D47EC1 		.ascii	"\021\324~\301\016J\242\245!b9\360\336\034\300\340\341"
 184      0E4AA2A5 
 184      216239F0 
 184      DE1CC0E0 
 184      E1
 185 027e 6BE382C5 		.ascii	"k\343\202\305\347\353H\261\303\005\362/\201\023\241"
 185      E7EB48B1 
 185      C305F22F 
 185      8113A1
 186 028d 93E2CADC 		.ascii	"\223\342\312\334D\310\314\360P\013m}T\353\032m\232r"
 186      44C8CCF0 
 186      500B6D7D 
 186      54EB1A6D 
 186      9A72
 187 029f 891BDF02 		.ascii	"\211\033\337\0029\202\310\322\274)o\356y\3274\345\264"
 187      3982C8D2 
 187      BC296FEE 
 187      79D734E5 
 187      B4
 188 02b0 2F53FE6B 		.ascii	"/S\376k\3673\250\267\202\261E0\361\337\212\370\027\212"
 188      F733A8B7 
 188      82B14530 
 188      F1DF8AF8 
 188      178A
 189 02c2 0CFF361E 		.ascii	"\014\3776\036\177{\337\277\0363\360o\363\205\177C\317"
 189      7F7BDFBF 
 189      1E33F06F 
 189      F3857F43 
 189      CF
 190 02d3 D3F9F825 		.ascii	"\323\371\370%\372\223/y\351{s\317\211~\003\313\016\364"
 190      FA932F79 
 190      E97B73CF 
 190      897E03CB 
 190      0EF4
 191 02e5 997D22AF 		.ascii	"\231}\"\257\357\273\313\355\012\204{\313\000\201\364"
 191      EFBBCBED 
 191      0A847BCB 
 191      0081F4
 192 02f4 65E91F94 		.ascii	"e\351\037\224\313\002\243g\332h\013S\226I\303\241\242"
 192      CB02A367 
 192      DA680B53 
 192      9649C3A1 
 192      A2
 193 0305 2156D924 		.ascii	"!V\331$\261\251\007\203\200\016\354\210\037`\256\266"
 193      B1A90783 
 193      800EEC88 
 193      1F60AEB6 
 194 0315 D4947ECB 		.ascii	"\324\224~\313\012\354X\321\300\354\224\355\261\002\373"
 194      0AEC58D1 
 194      C0EC94ED 
 194      B102FB
 195 0324 C80FB0E1 		.ascii	"\310\017\260\341\356\224\355\263\002;Y40;e\007\254\300"
 195      EE94EDB3 
 195      023B5934 
 195      303B6507 
ARM GAS  /tmp/cc2QEgwa.s 			page 15


 195      ACC0
 196 0336 4EFB0156 		.ascii	"N\373\001V\351N\331{V`\375E\003\263S\366\276\025\330"
 196      E94ED97B 
 196      5660FD45 
 196      03B353F6 
 196      BE15D8
 197 0349 793FC0AA 		.ascii	"y?\300\252\034(\313\036N\363\230Y\277C\263v.\220\317"
 197      1C28CB1E 
 197      4EF39859 
 197      BF43B376 
 197      2E90CF
 198 035c 44332614 		.ascii	"D3&\024i\323$\007\343\212Xl\020\263\361\015A\354\360"
 198      69D32407 
 198      E38A586C 
 198      10B3F10D 
 198      41ECF0
 199 036f 9FF52066 		.ascii	"\237\365 f\346\263\001?\020=\014\246y\247%9>\026(\026"
 199      E6B3013F 
 199      103D0CA6 
 199      79A72539 
 199      3E162816 
 200 0383 985D2DCF 		.ascii	"\230]-\3173`\266Xcd\231\314\362t\345\302\\\270+3a\261"
 200      3360B658 
 200      636499CC 
 200      F274E5C2 
 200      5CB82B33 
 201 0399 0A498F6D 		.ascii	"\012I\217mP0\011\331\301Ze\245\363X\211\236\300$\373"
 201      503009D9 
 201      C15A65A5 
 201      F358899E 
 201      C024FB
 202 03ac 110D65A9 		.ascii	"\021\015e\251\320\257\315\253\001\312\344\374d\300\251"
 202      D0AFCDAB 
 202      01CAE4FC 
 202      64C0A9
 203 03bb F64200DE 		.ascii	"\366B\000\336S\335,\341\230\325\022\232\375\210\311"
 203      53DD2CE1 
 203      98D5129A 
 203      FD88C9
 204 03ca C315F6B8 		.ascii	"\303\025\366\270\211)=[\233Kg\256\371\252g\241\266\271"
 204      89293D5B 
 204      9B4B67AE 
 204      F9AA67A1 
 204      B6B9
 205 03dc E7CC1223 		.ascii	"\347\314\022#\035\377\033\323q[\3001\263\373\002\326"
 205      1DFF1BD3 
 205      715BC031 
 205      B3FB02D6 
 206 03ec 3BFFEA56 		.ascii	";\377\352V\243L\370\017\002\353\010\360\261>\304\345"
 206      A34CF80F 
 206      02EB08F0 
 206      B13EC4E5 
 207 03fc F6903D59 		.ascii	"\366\220=Y\207B\271\213\001\363\260K\337\367\0347\351"
 207      8742B98B 
 207      01F3B04B 
 207      DFF71C37 
 207      E9
ARM GAS  /tmp/cc2QEgwa.s 			page 16


 208 040d 9FB24A7F 		.ascii	"\237\262J\177e\321\322\347}\350B\013=\327\244-\034m"
 208      65D1D2E7 
 208      7DE8420B 
 208      3DD7A42D 
 208      1C6D
 209 041f B1374FE3 		.ascii	"\2617O\343\204jj\347[?\306\342\370\277(\244\327\234"
 209      846A6AE7 
 209      5B3FC6E2 
 209      F8BF28A4 
 209      D79C
 210 0431 25EE0350 		.ascii	"%\356\003P\357\374U\325\010\350\"\002\332\220'm\312"
 210      EFFC55D5 
 210      08E82202 
 210      DA90276D 
 210      CA
 211 0442 499BDA25 		.ascii	"I\233\332%\2275X\303^\213\031+\220\255\274\350l$zD\312"
 211      973558C3 
 211      5E8B192B 
 211      90ADBCE8 
 211      6C247A44 
 212 0457 ACE8AE16 		.ascii	"\254\350\256\026/\272'\015\321]E\216\267\347q|\261H"
 212      2FBA270D 
 212      D15D458E 
 212      B7E7717C 
 212      B148
 213 0469 9605B2BB 		.ascii	"\226\005\262\273h6\312\354l\314\031\030\004\033[t6f"
 213      6836CAEC 
 213      6CCC1918 
 213      041B5B74 
 213      3666
 214 047b 0A8C8D83 		.ascii	"\012\214\215\203\377\0076>(\232\215\341\0266pa\365\264"
 214      FF07363E 
 214      289A8DE1 
 214      16367061 
 214      F5B4
 215 048d 9E0C6E24 		.ascii	"\236\014n$-\336\025-\243g\266p\243\255\232L\037\334"
 215      2DDE152D 
 215      A367B670 
 215      A3AD9A4C 
 215      1FDC
 216 049f 45ABF4C7 		.ascii	"E\253\364\307\205\027\223\347vY\026 \232\257\005\310"
 216      851793E7 
 216      76591620 
 216      9AAF05C8 
 217 04af CEEC02E4 		.ascii	"\316\354\002\344q\024\331\207NN\343\013T\357\356\335"
 217      7114D987 
 217      4E4EE30B 
 217      54EFEEDD 
 218 04bf 7B8D8837 		.ascii	"{\215\2107\017A}\234'\375\022N\370%v\341\303-\303\365"
 218      0F417D9C 
 218      27FD124E 
 218      F82576E1 
 218      C32DC3F5 
 219 04d3 19C69947 		.ascii	"\031\306\231G\214'\354\246\224\014z\236@\316\"\031L"
 219      8C27ECA6 
 219      940C7A9E 
 219      40CE2219 
ARM GAS  /tmp/cc2QEgwa.s 			page 17


 219      4C
 220 04e4 8083A972 		.ascii	"\200\203\251r\331\222\376X\253\231\315u\031]\274&\210"
 220      D992FE58 
 220      AB99CD75 
 220      195DBC26 
 220      88
 221 04f5 4DE917E6 		.ascii	"M\351\027\346\233K\347\273Y>\327\202\327\006n\323n>"
 221      9B4BE7BB 
 221      593ED782 
 221      D7066ED3 
 221      6E3E
 222 0507 51710B89 		.ascii	"Qq\013\211e.Q\330\334SX3\357\273\3504\013\004F\316\234"
 222      652E51D8 
 222      DC535833 
 222      EFBBE834 
 222      0B0446CE 
 223 051c 20AFB6A5 		.ascii	" \257\266\245\224[H\260\007\226!n\266\334&X\022\302"
 223      945B48B0 
 223      0796216E 
 223      B6DC2658 
 223      12C2
 224 052e B3D7C425 		.ascii	"\263\327\304%\363\243\363\234\032:\256Qn\227\0145\024"
 224      F3A3F39C 
 224      1A3AAE51 
 224      6E970C35 
 224      14
 225 053f 5AF6FDD6 		.ascii	"Z\366\375\326\204U\201\214\254@\264\317\013\334\252"
 225      8455818C 
 225      AC40B4CF 
 225      0BDCAA
 226 054e AFEF5466 		.ascii	"\257\357Tf\266a\376\354]ag\355;\036\322Z*\364\235\034"
 226      B661FEEC 
 226      5D6167ED 
 226      3B1ED25A 
 226      2AF49D1C 
 227 0562 89BE4105 		.ascii	"\211\276A\005\003\252S\035PP<\351Cr\327\350b\334\276"
 227      03AA531D 
 227      50503CE9 
 227      4372D7E8 
 227      62DCBE
 228 0575 D374FBA5 		.ascii	"\323t\373\245z\244\314S:\363a\233\322\213r\272\276\254"
 228      7AA4CC53 
 228      3AF3619B 
 228      D28B72BA 
 228      BEAC
 229 0587 90FC96D0 		.ascii	"\220\374\226\320\374\341fT\213\255Fu\370\332L\000\214"
 229      FCE16654 
 229      8BAD4675 
 229      F8DA4C00 
 229      8C
 230 0598 AA73996E 		.ascii	"\252s\231nT\205\214@\243\326\312Z '\020\363K\274\025"
 230      54858C40 
 230      A3D6CA5A 
 230      202710F3 
 230      4BBC15
 231 05ab 6CF94FD7 		.ascii	"l\371O\327\034cU\376\222/+8\357`\005/\015\322\012\300"
 231      1C6355FE 
ARM GAS  /tmp/cc2QEgwa.s 			page 18


 231      922F2B38 
 231      EF60052F 
 231      0DD20AC0 
 232 05bf A43FD941 		.ascii	"\244?\331A\021\234\276R\230_B\355\340\212\\A_\225\213"
 232      119CBE52 
 232      985F42ED 
 232      E08A5C41 
 232      5F958B
 233 05d2 158C6E5F 		.ascii	"\025\214n_\351\336\343,i\255\025\330\036e[\011oZ\272"
 233      E9DEE32C 
 233      69AD15D8 
 233      1E655B09 
 233      6F5ABA
 234 05e5 642CA695 		.ascii	"d,\246\225\023#\010B`K\207U\002\333\237[\215\375k\202"
 234      13230842 
 234      604B8755 
 234      02DB9F5B 
 234      8DFD6B82 
 235 05f9 6597CECD 		.ascii	"e\227\316\315,\326\344\314B\242\353x1\372]\300\025D"
 235      2CD6E4CC 
 235      42A2EB78 
 235      31FA5DC0 
 235      1544
 236 060b B3D26A7D 		.ascii	"\263\322j}\213K\256\315\372Z\266\357\012\260]n\261\210"
 236      8B4BAECD 
 236      FA5AB6EF 
 236      0AB05D6E 
 236      B188
 237 061d 0DC39DDB 		.ascii	"\015\303\235\333L\307]\217\216\273,O\272\033\371\022"
 237      4CC75D8F 
 237      8EBB2C4F 
 237      BA1BF912 
 238 062d C7CFBEDD 		.ascii	"\307\317\276\335k\203e%{\010d}\211\217\222\277\312A"
 238      6B836525 
 238      7B08647D 
 238      898F92BF 
 238      CA41
 239 063f EAD944FB 		.ascii	"\352\331D\373\336\323>\367\376\314\314u|\336\004\314"
 239      DED33EF7 
 239      FECCCC75 
 239      7CDE04CC 
 240 064f 5C9BD1D2 		.ascii	"\\\233\321\3226p\262\360\261\205\330\205S\322\274\033"
 240      3670B2F0 
 240      B185D885 
 240      53D2BC1B 
 241 065f B7CEC96D 		.ascii	"\267\316\311m!\372p\343\246\364:\333n\270i\201io\013"
 241      21FA70E3 
 241      A6F43ADB 
 241      6EB86981 
 241      696F0B
 242 0672 F494A74D 		.ascii	"\364\224\247M\205i\213\203\274\215\016\362w\253S\010"
 242      85698B83 
 242      BC8D0EF2 
 242      77AB5308 
 243 0682 E47D3FB2 		.ascii	"\344}?\262\377\266\233)B\030\332\247\177\2060?,dxxN"
 243      FFB69B29 
 243      4218DAA7 
ARM GAS  /tmp/cc2QEgwa.s 			page 19


 243      7F86303F 
 243      2C647878 
 244 0697 81C806CF 		.ascii	"\201\310\006\317\252\313\246t\363~\334\260\320m\364"
 244      AACBA674 
 244      F37EDCB0 
 244      D06DF4
 245 06a6 133FC48D 		.ascii	"\023?\304\215v\007\366B\253)\334\225X\241|\352\007\336"
 245      7607F642 
 245      AB29DC95 
 245      58A17CEA 
 245      07DE
 246 06b8 1837669B 		.ascii	"\0307f\233\322\353\367/2\340\351\233\356\227\213\206"
 246      D2EBF72F 
 246      32E0E99B 
 246      EE978B86 
 247 06c8 67A7EF60 		.ascii	"g\247\357`\253\255\236{\264\324\007\270{|\353>\367\215"
 247      ABAD9E7B 
 247      B4D407B8 
 247      7B7CEB3E 
 247      F78D
 248 06da 09421AEE 		.ascii	"\011B\032\356\253\274\214\037/\326c\277\005\373\303"
 248      ABBC8C1F 
 248      2FD663BF 
 248      05FBC3
 249 06e9 D81FC1FE 		.ascii	"\330\037\301\376(\366'\261?\207\375\025\3545\014\246"
 249      28F627B1 
 249      3F87FD15 
 249      EC350CA6 
 250 06f9 8F61BF09 		.ascii	"\217a\277\011\373m\330o\307~\007\366;\261\377\207\237"
 250      FB6DD86F 
 250      C77E07F6 
 250      3BB1FF87 
 250      9F
 251 070a 80EBB306 		.ascii	"\200\353\263\006\3743\275\011\257D\020\014\034\216\331"
 251      FC33BD09 
 251      AF44100C 
 251      1C8ED9
 252 0719 64EED1DC 		.ascii	"d\356\321\334\256\202\226\335cg26\374|\335\345\364\210"
 252      AE8296DD 
 252      63673236 
 252      FC7CDDE5 
 252      F488
 253 072b 4D9A365C 		.ascii	"M\2326\\\242{\321\321_/utt\017@\002y\033\347\034\340"
 253      A27BD1D1 
 253      5F2F7574 
 253      740F4002 
 253      791BE71C 
 254 0740 3C3DDD3A 		.ascii	"<=\335:\247B\013\350\317\013{y\333\366E\371\025\243"
 254      A7420BE8 
 254      CF0B7B79 
 254      DBF645F9 
 254      15A3
 255 0752 EDF3249A 		.ascii	"\355\363$\232\200\233,z\005\233,\374G\375\315_d~\364"
 255      809B2C7A 
 255      059B2CFC 
 255      47FDCD5F 
 255      647EF4
ARM GAS  /tmp/cc2QEgwa.s 			page 20


 256 0765 2AF2DF87 		.ascii	"*\362\337\207\016\265\261\214\017\372A.\346\007\355"
 256      0EB5B18C 
 256      0FFA412E 
 256      E607ED
 257 0774 313F18CA 		.ascii	"1?\030\312]\0301\337 \302\234\232\275\355\323\353>\211"
 257      5D1831DF 
 257      20C29C9A 
 257      BDEDD3EB 
 257      3E89
 258 0786 3E207ADA 		.ascii	"> z\332\200\031\202\377rd\304J$\355}\364\315\263\034"
 258      801982FF 
 258      7264C44A 
 258      24ED7DF4 
 258      CDB31C
 259 0799 69DC5284 		.ascii	"i\334R\204\211\300M<\037\012\345.\032\310{'\220/\312"
 259      89C04D3C 
 259      1F0AE52E 
 259      1AC87B27 
 259      902FCA
 260 07ac 4C750E6E 		.ascii	"Lu\016n9\261\356r\346\253\033^\327\2645\2775\226\345"
 260      39B1EE72 
 260      E6AB1B5E 
 260      D7B435BF 
 260      3596E5
 261 07bf E912ABF5 		.ascii	"\351\022\253\365\330\302\235Q\324l\354\374\0323\225"
 261      D8C29D51 
 261      D46CECFC 
 261      1A3395
 262 07ce E390     		.ascii	"\343\220"
 263 07d0 24619514 		.ascii	"$a\225\024\262\363Y\030\012TB8\347\343\274\025~\247"
 263      B2F35918 
 263      0A544238 
 263      E7E3BC15 
 263      7EA7
 264 07e2 58A53F2E 		.ascii	"X\245?.l\201=\263\347\177Y\353\230Wi\356*.\311\202\034"
 264      6C813DB3 
 264      E77F59EB 
 264      985769EE 
 264      2A2EC982 
 265 07f7 DCB2E170 		.ascii	"\334\262\341p\347\020\250\027\013~6f\204\235\341]\247"
 265      E710A817 
 265      0B7E3666 
 265      849DE15D 
 265      A7
 266 0808 B7931579 		.ascii	"\267\223\025yg|yN\337l\207\265\226.K7s\350\317\257\350"
 266      677C794E 
 266      DF6C87B5 
 266      962E4B37 
 266      73E8CFAF 
 267 081d CE0C52DD 		.ascii	"\316\014R\335M\351\017:\315\220\257{\320\213(\267b\340"
 267      4DE90F3A 
 267      CD90AF7B 
 267      D08B28B7 
 267      62E0
 268 082f 55718C09 		.ascii	"Uq\214\011d\3255\312\376\242\177\331_\340e\337\217\262"
 268      64D535CA 
 268      FEA27FD9 
ARM GAS  /tmp/cc2QEgwa.s 			page 21


 268      5FE065DF 
 268      8FB2
 269 0841 BFE04BF6 		.ascii	"\277\340K\366\347f\233\351i\017\272\350Z\244\373\302"
 269      E7669BE9 
 269      690FBAE8 
 269      5AA4FBC2 
 270 0851 A065799E 		.ascii	"\240ey\236\223\345\372\242\341\345\313r\323`e\351tX"
 270      93E5FAA2 
 270      E1E5CB72 
 270      D36065E9 
 270      7458
 271 0863 7D0C3221 		.ascii	"}\0142!\326K\2470\263\235\306\376\274\275v\332\032\342"
 271      D64BA730 
 271      B39DC6FE 
 271      BCBD76DA 
 271      1AE2
 272 0875 4289136E 		.ascii	"B\211\023n\367o\326\351E\343Y\251\243/v\272xX\366\345"
 272      F76FD6E9 
 272      45E359A9 
 272      A32F76BA 
 272      7858F6E5 
 273 0889 91E5D21F 		.ascii	"\221\345\322\037#\007,\205\337{\310H\017\262p\014\373"
 273      23072C85 
 273      DF7BC848 
 273      0FB2700C 
 273      FB
 274 089a 2FFC24EA 		.ascii	"/\374$\352=9?\342\203|\366\336\370p\222\275\177\223"
 274      3D393FE2 
 274      837CF6DE 
 274      F87092BD 
 274      7F93
 275 08ac 5ADF7BA5 		.ascii	"Z\337{\245;\227\217\324\014\310c\342Mv\254\370\375\331"
 275      3B978FD4 
 275      0CC863E2 
 275      4D76ACF8 
 275      FDD9
 276 08be 5F5AD9B0 		.ascii	"_Z\331\260zk\345\012L+\263DL+!\317\264\302P\271\221"
 276      7A6BE50A 
 276      4C2BB344 
 276      4C2B21CF 
 276      B4C250B9 
 277 08d3 F1B8E89E 		.ascii	"\361\270\350\236V\362\337Y\211%\\\032\024\310g\034\031"
 277      56F2DF59 
 277      89255C1A 
 277      14C8671C 
 277      19
 278 08e4 B792A59A 		.ascii	"\267\222\245\232\326\222\331v\362l\020\026r\001\323"
 278      D692D976 
 278      F26C1016 
 278      7201D3
 279 08f3 C3E60D61 		.ascii	"\303\346\015a\303\226\320\233\035\2112T\242\317\325"
 279      C396D09B 
 279      1D893254 
 279      A2CFD5
 280 0902 2EC91374 		.ascii	".\311\023t}@\235&\010\236\323Pk\372\264tO\347*pBAW\235"
 280      7D409D26 
 280      089ED350 
ARM GAS  /tmp/cc2QEgwa.s 			page 22


 280      6BFAB474 
 280      4FE72A70 
 281 091a 443FA1DE 		.ascii	"D?\241\336SQ\301\006\306s\014\343\233\270\361\375V\201"
 281      5351C106 
 281      C6730CE3 
 281      9BB8F1FD 
 281      5681
 282 092c 69680706 		.ascii	"ih\007\006\306\336\316\027u\214\272FZ\012\360\310F\231"
 282      C6DECE17 
 282      758CBA46 
 282      5A0AF0C8 
 282      4699
 283 093e 18F7338C 		.ascii	"\030\3673\214X\033\267\025\230\245K\375[d9\326\325\235"
 283      581BB715 
 283      98A54BFD 
 283      5B6439D6 
 283      D59D
 284 0950 7F1CF104 		.ascii	"\177\034\361\004\303\250o@\272\3173\264\371\244(X\325"
 284      C3A86F40 
 284      BACF33B4 
 284      F9A42858 
 284      D5
 285 0961 ABFF960C 		.ascii	"\253\377\226\014\177X4330p3g\271\014\250\233\315<#\026"
 285      7F583433 
 285      33307033 
 285      67B90CA8 
 285      9BCD3C23 
 286 0976 AE5ADD76 		.ascii	"\256Z\335v\010\015\013>\267\266\277R_\250?+bd\030\342"
 286      080D0B3E 
 286      B7B6BF52 
 286      5FA83F2B 
 286      626418E2 
 287 098a 5CB3BA81 		.ascii	"\\\263\272\201\301\275.\221\013\373Oub\265\312\236\027"
 287      C1BD2E91 
 287      0BFB4F75 
 287      62B5CA9E 
 287      17
 288 099b 8EFBAD4E 		.ascii	"\216\373\255N9\327\307\232\370=]G<\356~\251J\177\352"
 288      39D7C79A 
 288      F83D5D47 
 288      3CEE7EA9 
 288      4A7FEA
 289 09ae 23E398DB 		.ascii	"#\343\230\333P\035bn1\314\246\016v1\354\246'\006?\253"
 289      501D626E 
 289      31CCA60E 
 289      7631ECA6 
 289      27063FAB 
 290 09c2 7E1DCDE2 		.ascii	"~\035\315\342\342\321\230\325=\227\327>D9\024\003\257"
 290      E2D198D5 
 290      3D97D73E 
 290      44391403 
 290      AF
 291 09d3 CA066F61 		.ascii	"\312\006oa'\277/\357\177\251\260\222\217\235\214$\256"
 291      27BF2FEF 
 291      7FA9B092 
 291      8F9D8C24 
 291      AE
ARM GAS  /tmp/cc2QEgwa.s 			page 23


 292 09e4 64F75FA2 		.ascii	"d\367_\242_\252\324K\364\025\350\271g\206x\306\322\225"
 292      5FAAD44B 
 292      F415E8B9 
 292      678678C6 
 292      D295
 293 09f6 1EB174B5 		.ascii	"\036\261t\265G,\345\336\301BT\360\241\017\317=`\033"
 293      472CE5DE 
 293      C14254F0 
 293      A10FCF3D 
 293      601B
 294 0a08 FC9C3348 		.ascii	"\374\2343H\364y\221\245\302\027D\226\004\227c\377\242"
 294      F47991A5 
 294      C2174496 
 294      049763FF 
 294      A2
 295 0a19 E82315B6 		.ascii	"\350#\025\266\213\371\251\320;\365\031q\254P^\2702\304"
 295      8BF9A9D0 
 295      3BF51971 
 295      AC505EB8 
 295      32C4
 296 0a2b 312F2C7F 		.ascii	"1/,\177\351H\211\236\027\332Q\362m\345l\330\002\321"
 296      E948899E 
 296      17DA51F2 
 296      6DE56CD8 
 296      02D1
 297 0a3d 2DFAB55B 		.ascii	"-\372\265[bf;X\017\265\207w\367\211\226\360\236>\330"
 297      62663B58 
 297      0FB58777 
 297      F78996F0 
 297      9E3ED8
 298 0a50 BD5A8FD3 		.ascii	"\275Z\217\323\326\020\357>\325\022\342\265\213,N\317"
 298      D610EF3E 
 298      D512E2B5 
 298      8B2C4ECF 
 299 0a60 423DB688 		.ascii	"B=\266\210\336\323\254\341\3759\235TL\357O\027\230g"
 299      DED3ACE1 
 299      FD399D54 
 299      4CEF4F17 
 299      9867
 300 0a72 0BF0FBBB 		.ascii	"\013\360\373\273\271\000\3576\317\320\337\272\374\000"
 300      B900EF36 
 300      CFD0DFBA 
 300      FC00
 301 0a80 9F69661F 		.ascii	"\237if\037\350\346\320\247\036\355\350\322\316\262\225"
 301      E8E6D0A7 
 301      1EEDE8D2 
 301      CEB295
 302 0a8f ADFF0265 		.ascii	"\255\377\002e\023\357d\214\214\354\315\343\016\013a"
 302      13EF648C 
 302      8CECCDE3 
 302      0E0B61
 303 0a9e 812C2CB7 		.ascii	"\201,,\267k\332$m\213#i\033V_\372\361\342\265\332\254"
 303      6BDA246D 
 303      8B23691B 
 303      565FFAF1 
 303      E2B5DAAC 
 304 0ab2 C7B52F06 		.ascii	"\307\265/\006\036\241E$\240\255\205\023\020\304\030"
ARM GAS  /tmp/cc2QEgwa.s 			page 24


 304      1EA14524 
 304      A0AD8513 
 304      10C418
 305 0ac1 6A09E2E9 		.ascii	"j\011\342\351l\241\311~Ua,Y?\207e\202C\242\261\217\225"
 305      6CA1C97E 
 305      55612C59 
 305      3F876582 
 305      43A2B18F 
 306 0ad6 E83670A7 		.ascii	"\3506p\247\202\303\330\300\355|RxNOH\333}\245\205u\263"
 306      82C3D8C0 
 306      ED7C5278 
 306      4E4F48DB 
 306      7DA58575 
 307 0aeb 9F3102AC 		.ascii	"\2371\002\254\325\252\267\017:`\377\255\0237\031O\341"
 307      D5AAB70F 
 307      3A60FFAD 
 307      1337194F 
 307      E1
 308 0afc B78EE5A8 		.ascii	"\267\216\345\250\230b\200U\331\200\355\263\002{\331"
 308      98628055 
 308      D980EDB3 
 308      027BD9
 309 0b0b 0F308F0F 		.ascii	"\0170\217\017'}\235\013,;\214\246\023\026\003\317N\334"
 309      277D9D0B 
 309      2C3B8CA6 
 309      131603CF 
 309      4EDC
 310 0b1d A73A717A 		.ascii	"\247:qz\345\365\232\037\342<~Lv%\253\006\213\307\026"
 310      E5F59A1F 
 310      E23C7E4C 
 310      7625AB06 
 310      8BC716
 311 0b30 03AE8A53 		.ascii	"\003\256\212S\257\031\225\2730*\357\300x\334\215\375"
 311      AF1995BB 
 311      302AEFC0 
 311      78DC8DFD 
 312 0b40 BBD8EFC2 		.ascii	"\273\330\357\302~7\366{\255qZ op\356d\232\222\005v\316"
 312      7E37F67B 
 312      AD715A20 
 312      6F70EE64 
 312      9A920576 
 313 0b55 E64871D0 		.ascii	"\346Hq\320\335|\353\357\326\242\301\346\334\335.\316"
 313      DD7CEBEF 
 313      D6A2C1E6 
 313      DCDD2ECE 
 314 0b65 BDDFD1B9 		.ascii	"\275\337\321\271\327]N\177\273\335\315\271=r\373A>\354"
 314      D75D4E7F 
 314      BBDDCDB9 
 314      3D72FB41 
 314      3EEC
 315 0b77 B0E580EB 		.ascii	"\260\345\200\353\322\314!\327\013$\343Bh\257#\241\237"
 315      D2CC21D7 
 315      0B24E342 
 315      68AF23A1 
 315      9F
 316 0b88 AE3D32B2 		.ascii	"\256=2\262]{\333\341\277)<\351\354\343\351l\027\313"
 316      5D7BDBE1 
ARM GAS  /tmp/cc2QEgwa.s 			page 25


 316      BF293CE9 
 316      ECE3E96C 
 316      17CB
 317 0b9a 7942CEB9 		.ascii	"yB\316\271\020\362\201\235\020\256\3048\350Qb\034\312"
 317      10F2819D 
 317      10AEC438 
 317      E851621C 
 317      CA
 318 0bab 69E77AD2 		.ascii	"i\347z\322\254o\215,\034\246\377\366\317\2303\334\234"
 318      AC6F8D2C 
 318      1CA6FFF6 
 318      CF9833DC 
 318      9C
 319 0bbc 2318730E 		.ascii	"#\030s\016\213\327\343\225\355\0038\216p\303\222\021"
 319      8BD7E395 
 319      ED03388E 
 319      70C39211 
 320 0bcc 73BF2FAC 		.ascii	"s\277/\254\010\345.\250\035u\025\207y\2149\256\324\200"
 320      08E52EA8 
 320      1D751587 
 320      798C39AE 
 320      D480
 321 0bde 73A468CC 		.ascii	"s\244h\314\037\272`.q\026\325V\017Q\035\315\211\212"
 321      1FBA602E 
 321      7116D556 
 321      0F511DCD 
 321      898A
 322 0bf0 9BD5E9E2 		.ascii	"\233\325\351\342\315X+\270\316\332\344\201\353xn\026"
 322      CD582BB8 
 322      CEDAE481 
 322      EB786E16 
 323 0c00 B3AAF4D9 		.ascii	"\263\252\364\331\314\300\226\376\207^Y\253ih\3763g\361"
 323      CCC096FE 
 323      875E59AB 
 323      6968FE33 
 323      67F1
 324 0c12 0EE09177 		.ascii	"\016\340\221w?2\014+gK\002y\241\2027$\254\021\340X\241"
 324      3F320C2B 
 324      674B0279 
 324      A1823724 
 324      AC11E058 
 325 0c27 89088D8D 		.ascii	"\211\010\215\215?\001\365\201\315\316>\3167x m\341s"
 325      3F01F581 
 325      CDCE3ECE 
 325      3778206D 
 325      E173
 326 0c39 074798FF 		.ascii	"\007G\230\377>t\213\216O +}a8\311c8\345\210\241\347"
 326      3E748B8E 
 326      4F202B7D 
 326      6138C963 
 326      38E588A1 
 327 0c4e 68FF844B 		.ascii	"h\377\204K9\346o\361\317\374\031\336\2536b\206\260y"
 327      39E66FF1 
 327      CFFC19DE 
 327      AB366286 
 327      B079
 328 0c60 D5711BA9 		.ascii	"\325q\033\2518\022\\\255\3020N\243\352\332\253W]\372"
ARM GAS  /tmp/cc2QEgwa.s 			page 26


 328      38125CAD 
 328      C2304EA3 
 328      EADAAB57 
 328      5DFA
 329 0c72 3F7BCC1C 		.ascii	"?{\314\034\312f\234v-\273\214\217\302\006\307\347f\336"
 329      CA669C76 
 329      2DBB8C8F 
 329      C206C7E7 
 329      66DE
 330 0c84 5F99E5F8 		.ascii	"_\231\345\3704\317\361YG\216\007\266\354\255\263\252"
 330      34CFF159 
 330      478E07B6 
 330      ECADB3AA 
 331 0c94 DB14EB9C 		.ascii	"\333\024\353\234\241~\304z\201Gr\321Eq\247\363\025\327"
 331      A17EC47A 
 331      814772D1 
 331      4571A7F3 
 331      15D7
 332 0ca6 EA0BC325 		.ascii	"\352\013\303%\036\303e\317\020\324\347a\353Ws\266\376"
 332      1EC365CF 
 332      10D4E761 
 332      EB5773B6 
 332      FE
 333 0cb7 75B244DB 		.ascii	"u\262D\333\263'\263\355\345v:7\2435\003\357\003\324"
 333      B327B3ED 
 333      E5763A37 
 333      A33503EF 
 333      03D4
 334 0cc9 1A1B8EE7 		.ascii	"\032\033\216\347b\303\236l\265\364e\234\352\022B\370"
 334      62C39E6C 
 334      B5F4659C 
 334      EA1242F8 
 335 0cd9 61121D28 		.ascii	"a\022\035(:\206h\001\347\0302\302&\000s\024\363\256"
 335      3A866801 
 335      E71832C2 
 335      26007314 
 335      F3AE
 336 0ceb A1DCC283 		.ascii	"\241\334\302\203\247B +\206Rc\336\020vq\363\250Q\325"
 336      A742202B 
 336      865263DE 
 336      107671F3 
 336      A851D5
 337 0cfe FA5F2255 		.ascii	"\372_\"U\255\250\325)%R\035\251\253\231\021\227b\321"
 337      ADA8D529 
 337      25521DA9 
 337      AB991197 
 337      62D1
 338 0d10 C8A808B9 		.ascii	"\310\250\010\271\225{\037\215G\352\033jd\030\223\232"
 338      957B1F8D 
 338      47EA1B6A 
 338      6418939A 
 339 0d20 91526724 		.ascii	"\221Rg$\345\324\250:R\246\326)\262T\023VK\306\377\342"
 339      E5D4A83A 
 339      52A6D629 
 339      B2541356 
 339      4BC6FFE2 
 340 0d34 81AA7124 		.ascii	"\201\252q$\024\251\013\353\217\252\334\247\003\026\230"
ARM GAS  /tmp/cc2QEgwa.s 			page 27


 340      14A90BEB 
 340      8FAADCA7 
 340      031698
 341 0d43 7A9D3E2E 		.ascii	"z\235>.\025\376}\203\334 \207\325\341\331\251\306\243"
 341      15FE7D83 
 341      DC2087D5 
 341      E1D9A9C6 
 341      A3
 342 0d54 405C9EAE 		.ascii	"@\\\236\256\006\222\212<-\210\367c\254\020#\211X,\021"
 342      06928A3C 
 342      2D88F763 
 342      AC102389 
 342      582C11
 343 0d67 AF4E2614 		.ascii	"\257N&\0245U=\366\227\223\306M\232\316\236%\243\365"
 343      35553DF6 
 343      9793C64D 
 343      9ACE9E25 
 343      A3F5
 344 0d79 B292AA1E 		.ascii	"\262\222\252\036?n\034 2\211,U\223J4\021V\037\252\256"
 344      3F6E1C20 
 344      32892C55 
 344      934A3411 
 344      561FAAAE 
 345 0d8d 4BC4E4EA 		.ascii	"K\304\344\352\204\252&\252'\311q5\241\214W\244d]4\222"
 345      84AA26AA 
 345      27C97135 
 345      A18C57A4 
 345      645D3492 
 346 0da1 AA9E9C68 		.ascii	"\252\236\234hP\"\2622#<.Q#\337+\307\201\226\373\242"
 346      5022B232 
 346      233C2E51 
 346      23DF2BC7 
 346      8196FBA2 
 347 0db5 AA1C9E92 		.ascii	"\252\034\236\222P\302\000=\374\263\261\367N\254\226"
 347      50C2003D 
 347      FCB3B1F7 
 347      4EAC96
 348 0dc4 94D86DF1 		.ascii	"\224\330m\361D\\\276M\226\036\216f\031J\2515\321\270"
 348      445CBE4D 
 348      961E8E66 
 348      194AA935 
 348      D1B8
 349 0dd6 CA64D100 		.ascii	"\312d\321\000\347\357\335\021f4G\023\025\214\264p$\021"
 349      E7EFDD11 
 349      66344713 
 349      158CB470 
 349      2411
 350 0de8 57818BEF 		.ascii	"W\201\213\357\024$\275.\222Pd\000R\216\323\000PD\235"
 350      1424BD2E 
 350      92506400 
 350      528ED300 
 350      50449D
 351 0dfb 7E9BBF59 		.ascii	"~\233\277Y\341iw\305\030zE\256\005\012\303\252\240\334"
 351      E16977C5 
 351      187A45AE 
 351      050AC3AA 
 351      A0DC
ARM GAS  /tmp/cc2QEgwa.s 			page 28


 352 0e0d 2928DF17 		.ascii	")(\337\027\224\037\010\312]\2022FP~(*\267\217\206v\273"
 352      941F08CA 
 352      5D823246 
 352      507E282A 
 352      B78F8676 
 353 0e22 50AF08A9 		.ascii	"P\257\010\251\244\010\240\203q\271QV\202\211\372\032"
 353      A408A083 
 353      71B95156 
 353      8289FA1A 
 354 0e32 590944EA 		.ascii	"Y\011D\352$%\000j\227\207\244\324\251R}\2646\036V\221"
 354      2425006A 
 354      9787A4D4 
 354      A9527DB4 
 354      361E5691 
 355 0e46 991FDC09 		.ascii	"\231\037\334\011\212m\224\036\226Rr\231\232R%\020\210"
 355      8A6D941E 
 355      96527299 
 355      9A522510 
 355      88
 356 0e57 5ACA5E8C 		.ascii	"Z\312^\214\011\253A\274/Uc 0\270\233R/\325\246JUE\236"
 356      09AB41BC 
 356      2F556320 
 356      30B89B52 
 356      2FD5A64A 
 357 0e6e 920201B0 		.ascii	"\222\002\001\260S0\226\252\205\341\206LJ\224\232\031"
 357      533096AA 
 357      85E1864C 
 357      4A949A19 
 358 0e7e F0A04C9E 		.ascii	"\360\240L\236\036U#0\245\244QM<\374\273\344\015\206"
 358      1E552330 
 358      A5A4514D 
 358      3CFCBBE4 
 358      0D86
 359 0e90 FDC00459 		.ascii	"\375\300\004Y\001\2613P\215\252\252$KS\240 \230P\001"
 359      01B13350 
 359      8DAAAA24 
 359      4B53A020 
 359      985001
 360 0ea3 9A48C931 		.ascii	"\232H\3111P\023p\312\233\254\305\246d&\202`$\256\206"
 360      501370CA 
 360      9BACC5A6 
 360      64268260 
 360      24AE86
 361 0eb6 55117A00 		.ascii	"U\021z\000\017\217\222e0;\326\000\032p\237\031S\247"
 361      0F8F9265 
 361      303BD600 
 361      1A709F19 
 361      53A7
 362 0ec8 B39989C6 		.ascii	"\263\231\211\306\270\254\224\342X\306\263\012\217\223"
 362      B8AC94E2 
 362      58C6B30A 
 362      8F93
 363 0ed6 E5F23446 		.ascii	"\345\3624F\204\224\232\012\217\344FvA\033\206\2316Z"
 363      84949A0A 
 363      8FE44676 
 363      411B8699 
 363      365A
ARM GAS  /tmp/cc2QEgwa.s 			page 29


 364 0ee8 1F4D01B2 		.ascii	"\037M\001\262\353,V\313\236\2246JQ5\032\257-\003\332"
 364      EB2C56CB 
 364      9E94364A 
 364      51351AAF 
 364      2D03DA
 365 0efb D16ACBE4 		.ascii	"\321j\313\344\244\034\007\013\251-\005\220l\004\350"
 365      A41C070B 
 365      A92D0590 
 365      6C04E8
 366 0f0a 49AA6716 		.ascii	"I\252g\026\022\214%\023\211\372\221\016JN\244\352\243"
 366      128C2513 
 366      89FA910E 
 366      4A4EA4EA 
 366      A3
 367 0f1b 0F5B68AC 		.ascii	"\017[h\254\223\245$\02094&\307\022`\243\3546\254\226"
 367      93A52410 
 367      393426C7 
 367      1260A3EC 
 367      36AC96
 368 0f2e 5BEEEAAF 		.ascii	"[\356\352\257\321\262\031\272\332H\204\263\360;G\215"
 368      D1B219BA 
 368      DA4884B3 
 368      F03B478D 
 369 0f3e 1975BBD5 		.ascii	"\031u\273\325\316k\344)@FI*\372\007\320\223\223u\362"
 369      CE6BE429 
 369      4046492A 
 369      FA07D093 
 369      9375F2
 370 0f51 84038986 		.ascii	"\204\003\211\206]3\332keuJC<\002\326P\226T\022\323\242"
 370      5D33DA6B 
 370      65754A43 
 370      3C02D650 
 370      965412D3 
 371 0f66 607B4391 		.ascii	"`{C\221\027\350\340\032X\262\334\005\321\020\203I\251"
 371      17E8E01A 
 371      58B2DC05 
 371      D1108349 
 371      A9
 372 0f77 564E05A6 		.ascii	"VN\005\246(\262\034`/\003\014w\240!%\327\224\350\303"
 372      28B21C60 
 372      2F030C77 
 372      A02125D7 
 372      94E8C3
 373 0f8a 4490EA37 		.ascii	"D\220\3527\\\225kh\006c\000C\035Vo\214\324\375\252\256"
 373      5C956B68 
 373      06630043 
 373      1D566F8C 
 373      D4FDAAAE 
 374 0f9e 661C     		.ascii	"f\034"
 375 0fa0 3C56E59F 		.ascii	"<V\345\237+\211\330\004\000\032d\220\223Br\212()\265"
 375      2B89D804 
 375      001A6490 
 375      9342728A 
 375      2829B5
 376 0fb3 A3FCB1C5 		.ascii	"\243\374\261\305T\227\262\350\204\335\003\003x\322)"
 376      5497B2E8 
 376      84DD0303 
ARM GAS  /tmp/cc2QEgwa.s 			page 30


 376      78D229
 377 0fc2 2B07FB96 		.ascii	"+\007\373\226#j\230Q\\\221\343>\254\216\340H\230\204"
 377      236A9851 
 377      5C91E33E 
 377      AC8EE048 
 377      9884
 378 0fd4 10EE8799 		.ascii	"\020\356\207\231B,\011\366>9R\367\2404UnHN\01662\327"
 378      422C09F6 
 378      3E3952F7 
 378      A034556E 
 378      484E0E36 
 379 0fea 0B348201 		.ascii	"\0134\202\001\005\331\334\344\215\206\273\324\310\251"
 379      05D9DCE4 
 379      8D86BBD4 
 379      C8A9
 380 0ff8 88124D82 		.ascii	"\210\022M\202\236\303\352\227"
 380      9EC3EA97 
 381 1000 2CE02637 		.ascii	",\340&7\244\230\265\3115\023o\210\3241\326\306\326\327"
 381      A498B5C9 
 381      35136F88 
 381      D431D6C6 
 381      D6D7
 382 1012 27226399 		.ascii	"'\"c\231$\345\232\362H\035C\202\217<<i\006c\013\342"
 382      24E59AF2 
 382      481D4382 
 382      8F3C3C69 
 382      06630BE2 
 383 1026 F8E419A9 		.ascii	"\370\344\031\251\373\022\221\251!\014H0e\352\355\016"
 383      FB1291A9 
 383      210C4830 
 383      65EAED0E 
 384 1036 9281D856 		.ascii	"\222\201\330V=n\322\344\211\223s\020b\251h*\014\306"
 384      3D6ED2E4 
 384      89937310 
 384      62A9682A 
 384      0CC6
 385 1048 C4841306 		.ascii	"\304\204\023\006\337U\303\367\216\235\374\263\373\177"
 385      DF55C3F7 
 385      8E9DFCB3 
 385      FB7F
 386 1056 3971A854 		.ascii	"9q\250T\337(\315HAp\253\217\306\345\3404\251\276A.G"
 386      DF28CD48 
 386      4170AB8F 
 386      C6E5E034 
 386      A9BE412E 
 387 106b 3C0FC419 		.ascii	"<\017\304\031|=\3645\340uY8\214\302\012\0175/F}\377"
 387      7C3DF435 
 387      E0755938 
 387      8CC20A0F 
 387      352F467D 
 388 1080 87777CEF 		.ascii	"\207w|\357\177\253\035\242y"
 388      7FAB1DA2 
 388      79
 389              		.text
 390              		.section	.gnu.lto_.symtab.68af0241d62f2fd8,"",%progbits
 391 0000 63685468 		.ascii	"chThdCreateFromHeap\000\000\000\000\000\000\000\000"
 391      64437265 
ARM GAS  /tmp/cc2QEgwa.s 			page 31


 391      61746546 
 391      726F6D48 
 391      65617000 
 392 001b 00000000 		.ascii	"\000\000\000\000\241\000\000\000chThdCreateFromMemo"
 392      A1000000 
 392      63685468 
 392      64437265 
 392      61746546 
 393 0036 7279506F 		.ascii	"ryPool\000\000\000\000\000\000\000\000\000\000\000\000"
 393      6F6C0000 
 393      00000000 
 393      00000000 
 393      0000
 394 0048 96010000 		.ascii	"\226\001\000\000chSchWakeupS\000\000\002\000\000\000"
 394      63685363 
 394      6857616B 
 394      65757053 
 394      00000200 
 395 005e 00000000 		.ascii	"\000\000\000\000\000\000\273\001\000\000chThdCreate"
 395      0000BB01 
 395      00006368 
 395      54686443 
 395      72656174 
 396 0073 53757370 		.ascii	"SuspendedI\000\000\002\000\000\000\000\000\000\000\000"
 396      656E6465 
 396      64490000 
 396      02000000 
 396      00000000 
 397 0088 00C00100 		.ascii	"\000\300\001\000\000chHeapAllocAligned\000\000\002\000"
 397      00636848 
 397      65617041 
 397      6C6C6F63 
 397      416C6967 
 398 00a3 00000000 		.ascii	"\000\000\000\000\000\000\000\000\324\001\000\000chP"
 398      00000000 
 398      D4010000 
 398      636850
 399 00b2 6F6F6C41 		.ascii	"oolAlloc\000\000\002\000\000\000\000\000\000\000\000"
 399      6C6C6F63 
 399      00000200 
 399      00000000 
 399      000000
 400 00c5 00DA0100 		.ascii	"\000\332\001\000\000"
 400      00
 401              		.text
 402              		.section	.gnu.lto_.opts,"",%progbits
 403 0000 272D6D63 		.ascii	"'-mcpu=cortex-m3' '-mno-thumb-interwork' '-mthumb' "
 403      70753D63 
 403      6F727465 
 403      782D6D33 
 403      2720272D 
 404 0033 272D6767 		.ascii	"'-ggdb' '-O2' '-fomit-frame-pointer' '-falign-funct"
 404      64622720 
 404      272D4F32 
 404      2720272D 
 404      666F6D69 
 405 0066 696F6E73 		.ascii	"ions=16' '-ffunction-sections' '-fdata-sections' '-"
ARM GAS  /tmp/cc2QEgwa.s 			page 32


 405      3D313627 
 405      20272D66 
 405      66756E63 
 405      74696F6E 
 406 0099 666E6F2D 		.ascii	"fno-common' '-flto'\000"
 406      636F6D6D 
 406      6F6E2720 
 406      272D666C 
 406      746F2700 
 407              		.text
 408              		.cfi_sections	.debug_frame
 409              		.section	.text.chThdCreateFromHeap,"ax",%progbits
 410              		.align	2
 411              		.p2align 4,,15
 412              		.global	chThdCreateFromHeap
 413              		.thumb
 414              		.thumb_func
 415              		.type	chThdCreateFromHeap, %function
 416              	chThdCreateFromHeap:
 417              	.LFB188:
 418              		.file 1 "../../../os/rt/src/chdynamic.c"
 419              		.loc 1 84 0
 420              		.cfi_startproc
 421              		@ args = 8, pretend = 0, frame = 24
 422              		@ frame_needed = 0, uses_anonymous_args = 0
 423              	.LVL0:
 424 0000 70B5     		push	{r4, r5, r6, lr}
 425              		.cfi_def_cfa_offset 16
 426              		.cfi_offset 4, -16
 427              		.cfi_offset 5, -12
 428              		.cfi_offset 6, -8
 429              		.cfi_offset 14, -4
 430 0002 1446     		mov	r4, r2
 431 0004 86B0     		sub	sp, sp, #24
 432              		.cfi_def_cfa_offset 40
 433              		.loc 1 88 0
 434 0006 0822     		movs	r2, #8
 435              	.LVL1:
 436              		.loc 1 84 0
 437 0008 1E46     		mov	r6, r3
 438 000a 0D46     		mov	r5, r1
 439              		.loc 1 88 0
 440 000c FFF7FEFF 		bl	chHeapAllocAligned
 441              	.LVL2:
 442              		.loc 1 89 0
 443 0010 C8B1     		cbz	r0, .L2
 444              		.loc 1 93 0
 445 0012 0A9B     		ldr	r3, [sp, #40]
 446              		.loc 1 96 0
 447 0014 0544     		add	r5, r5, r0
 448              	.LVL3:
 449              		.loc 1 93 0
 450 0016 0493     		str	r3, [sp, #16]
 451 0018 0B9B     		ldr	r3, [sp, #44]
 452 001a 0295     		str	r5, [sp, #8]
 453 001c 0593     		str	r3, [sp, #20]
 454              	.LVL4:
ARM GAS  /tmp/cc2QEgwa.s 			page 33


 455 001e 0094     		str	r4, [sp]
 456 0020 0190     		str	r0, [sp, #4]
 457 0022 0396     		str	r6, [sp, #12]
 458              	.LBB34:
 459              	.LBB35:
 460              	.LBB36:
 461              	.LBB37:
 462              		.file 2 "../../../os/common/ext/CMSIS/include/cmsis_gcc.h"
 463              		.loc 2 264 0
 464 0024 2023     		movs	r3, #32
 465              	@ 264 "../../../os/common/ext/CMSIS/include/cmsis_gcc.h" 1
 466 0026 83F31188 		MSR basepri, r3
 467              	@ 0 "" 2
 468              		.thumb
 469              	.LBE37:
 470              	.LBE36:
 471              	.LBE35:
 472              	.LBE34:
 473              		.loc 1 109 0
 474 002a 6846     		mov	r0, sp
 475              	.LVL5:
 476 002c FFF7FEFF 		bl	chThdCreateSuspendedI
 477              	.LVL6:
 478              		.loc 1 110 0
 479 0030 0123     		movs	r3, #1
 480 0032 80F82130 		strb	r3, [r0, #33]
 481              		.loc 1 111 0
 482 0036 0021     		movs	r1, #0
 483              		.loc 1 109 0
 484 0038 0446     		mov	r4, r0
 485              	.LVL7:
 486              		.loc 1 111 0
 487 003a FFF7FEFF 		bl	chSchWakeupS
 488              	.LVL8:
 489              	.LBB38:
 490              	.LBB39:
 491              	.LBB40:
 492              	.LBB41:
 493              	.LBB42:
 494              		.loc 2 264 0
 495 003e 0023     		movs	r3, #0
 496              	@ 264 "../../../os/common/ext/CMSIS/include/cmsis_gcc.h" 1
 497 0040 83F31188 		MSR basepri, r3
 498              	@ 0 "" 2
 499              		.thumb
 500              	.LBE42:
 501              	.LBE41:
 502              	.LBE40:
 503              	.LBE39:
 504              	.LBE38:
 505              		.loc 1 114 0
 506 0044 2046     		mov	r0, r4
 507              	.LVL9:
 508              	.L2:
 509              		.loc 1 115 0
 510 0046 06B0     		add	sp, sp, #24
 511              		@ sp needed
ARM GAS  /tmp/cc2QEgwa.s 			page 34


 512 0048 70BD     		pop	{r4, r5, r6, pc}
 513              		.cfi_endproc
 514              	.LFE188:
 515              		.size	chThdCreateFromHeap, .-chThdCreateFromHeap
 516 004a 00BFAFF3 		.section	.text.chThdCreateFromMemoryPool,"ax",%progbits
 516      0080
 517              		.align	2
 518              		.p2align 4,,15
 519              		.global	chThdCreateFromMemoryPool
 520              		.thumb
 521              		.thumb_func
 522              		.type	chThdCreateFromMemoryPool, %function
 523              	chThdCreateFromMemoryPool:
 524              	.LFB189:
 525              		.loc 1 146 0
 526              		.cfi_startproc
 527              		@ args = 4, pretend = 0, frame = 24
 528              		@ frame_needed = 0, uses_anonymous_args = 0
 529              	.LVL10:
 530 0000 F0B5     		push	{r4, r5, r6, r7, lr}
 531              		.cfi_def_cfa_offset 20
 532              		.cfi_offset 4, -20
 533              		.cfi_offset 5, -16
 534              		.cfi_offset 6, -12
 535              		.cfi_offset 7, -8
 536              		.cfi_offset 14, -4
 537 0002 87B0     		sub	sp, sp, #28
 538              		.cfi_def_cfa_offset 48
 539              		.loc 1 146 0
 540 0004 0F46     		mov	r7, r1
 541 0006 1646     		mov	r6, r2
 542 0008 1C46     		mov	r4, r3
 543 000a 0546     		mov	r5, r0
 544              		.loc 1 152 0
 545 000c FFF7FEFF 		bl	chPoolAlloc
 546              	.LVL11:
 547              		.loc 1 153 0
 548 0010 D0B1     		cbz	r0, .L6
 549              		.loc 1 160 0
 550 0012 6B68     		ldr	r3, [r5, #4]
 551              		.loc 1 157 0
 552 0014 0C9A     		ldr	r2, [sp, #48]
 553              		.loc 1 160 0
 554 0016 0344     		add	r3, r3, r0
 555              		.loc 1 157 0
 556 0018 0293     		str	r3, [sp, #8]
 557 001a 0097     		str	r7, [sp]
 558 001c 0190     		str	r0, [sp, #4]
 559 001e 0396     		str	r6, [sp, #12]
 560 0020 0494     		str	r4, [sp, #16]
 561 0022 0592     		str	r2, [sp, #20]
 562              	.LVL12:
 563              	.LBB43:
 564              	.LBB44:
 565              	.LBB45:
 566              	.LBB46:
 567              		.loc 2 264 0
ARM GAS  /tmp/cc2QEgwa.s 			page 35


 568 0024 2023     		movs	r3, #32
 569              	@ 264 "../../../os/common/ext/CMSIS/include/cmsis_gcc.h" 1
 570 0026 83F31188 		MSR basepri, r3
 571              	@ 0 "" 2
 572              		.thumb
 573              	.LBE46:
 574              	.LBE45:
 575              	.LBE44:
 576              	.LBE43:
 577              		.loc 1 173 0
 578 002a 6846     		mov	r0, sp
 579              	.LVL13:
 580 002c FFF7FEFF 		bl	chThdCreateSuspendedI
 581              	.LVL14:
 582              		.loc 1 174 0
 583 0030 0223     		movs	r3, #2
 584 0032 80F82130 		strb	r3, [r0, #33]
 585              		.loc 1 175 0
 586 0036 0564     		str	r5, [r0, #64]
 587              		.loc 1 176 0
 588 0038 0021     		movs	r1, #0
 589              		.loc 1 173 0
 590 003a 0446     		mov	r4, r0
 591              	.LVL15:
 592              		.loc 1 176 0
 593 003c FFF7FEFF 		bl	chSchWakeupS
 594              	.LVL16:
 595              	.LBB47:
 596              	.LBB48:
 597              	.LBB49:
 598              	.LBB50:
 599              	.LBB51:
 600              		.loc 2 264 0
 601 0040 0023     		movs	r3, #0
 602              	@ 264 "../../../os/common/ext/CMSIS/include/cmsis_gcc.h" 1
 603 0042 83F31188 		MSR basepri, r3
 604              	@ 0 "" 2
 605              		.thumb
 606              	.LBE51:
 607              	.LBE50:
 608              	.LBE49:
 609              	.LBE48:
 610              	.LBE47:
 611              		.loc 1 179 0
 612 0046 2046     		mov	r0, r4
 613              	.LVL17:
 614              	.L6:
 615              		.loc 1 180 0
 616 0048 07B0     		add	sp, sp, #28
 617              		@ sp needed
 618 004a F0BD     		pop	{r4, r5, r6, r7, pc}
 619              		.cfi_endproc
 620              	.LFE189:
 621              		.size	chThdCreateFromMemoryPool, .-chThdCreateFromMemoryPool
 622 004c AFF30080 		.text
 623              	.Letext0:
 624              		.file 3 "/home/otto/MentorGraphics/Sourcery_CodeBench_Lite_for_ARM_EABI/lib/gcc/arm-none-eabi/4.8.
ARM GAS  /tmp/cc2QEgwa.s 			page 36


 625              		.file 4 "/home/otto/MentorGraphics/Sourcery_CodeBench_Lite_for_ARM_EABI/arm-none-eabi/include/stdi
 626              		.file 5 "../../../os/common/ports/ARMCMx/compilers/GCC/chtypes.h"
 627              		.file 6 "../../../os/rt/include/chsystypes.h"
 628              		.file 7 "../../../os/rt/include/chschd.h"
 629              		.file 8 "../../../os/common/ports/ARMCMx/chcore.h"
 630              		.file 9 "../../../os/common/ports/ARMCMx/chcore_v7m.h"
 631              		.file 10 "../../../os/rt/include/chsem.h"
 632              		.file 11 "../../../os/rt/include/chmtx.h"
 633              		.file 12 "../../../os/rt/include/chthreads.h"
 634              		.file 13 "../../../os/common/oslib/include/chmemcore.h"
 635              		.file 14 "../../../os/common/oslib/include/chheap.h"
 636              		.file 15 "../../../os/common/oslib/include/chmempools.h"
 637              		.file 16 "../../../os/rt/include/chsys.h"
 638              		.file 17 "../../../os/common/ext/CMSIS/include/core_cm3.h"