ARM GAS  /tmp/ccGtGfPv.s 			page 1


   1              		.syntax unified
   2              		.cpu cortex-m3
   3              		.fpu softvfp
   4              		.eabi_attribute 20, 1
   5              		.eabi_attribute 21, 1
   6              		.eabi_attribute 23, 3
   7              		.eabi_attribute 24, 1
   8              		.eabi_attribute 25, 1
   9              		.eabi_attribute 26, 1
  10              		.eabi_attribute 30, 2
  11              		.eabi_attribute 34, 1
  12              		.eabi_attribute 18, 4
  13              		.thumb
  14              		.file	"chmemcore.c"
  15              		.text
  16              	.Ltext0:
  17              		.section	.gnu.lto_.jmpfuncs.f34daf984d137dbe,"",%progbits
  18 0000 789C6362 		.ascii	"x\234cb`b\300\006\270\2404\013\020\261\263\262\2631"
  18      6062C006 
  18      B8A0340B 
  18      10B1B3B2 
  18      B331
  19 0012 30000002 		.ascii	"0\000\000\0027\0000"
  19      370030
  20              		.text
  21              		.section	.gnu.lto_.inline.f34daf984d137dbe,"",%progbits
  22 0000 789C6362 		.ascii	"x\234cb`b\300\006*\2404\013\003\003+\013#\003\023\313"
  22      6062C006 
  22      2AA0340B 
  22      03032B0B 
  22      230313CB 
  23 0014 027906B6 		.ascii	"\002y\006\266\005\362L\0201a!F&FF\020\033D\260Hl\331"
  23      05F24C10 
  23      31612146 
  23      26464610 
  23      1B44B048 
  24 002a CA089165 		.ascii	"\312\010\221e\373\240\307\303\300t\201\237\005$\307"
  24      FBA0C7C3 
  24      C074819F 
  24      0524C7
  25 0039 CA202AC2 		.ascii	"\312 *\302\310\004V\002V\314\"s\345\012\232:\016\220"
  25      C8045602 
  25      56CC2273 
  25      E50A9A3A 
  25      0E90
  26 004b 3A360636 		.ascii	":6\0066V\240\025@1\270\025\014\000\016\301\015\204"
  26      56A01540 
  26      31B8150C 
  26      000EC10D 
  26      84
  27              		.text
  28              		.section	.gnu.lto_.pureconst.f34daf984d137dbe,"",%progbits
  29 0000 789C6362 		.ascii	"x\234cb`b\340d\200\000\026\006\011\026\011V+6\026\000"
  29      6062E064 
  29      80001606 
  29      09160956 
  29      2B361600 
ARM GAS  /tmp/ccGtGfPv.s 			page 2


  30 0014 032C008F 		.ascii	"\003,\000\217"
  31              		.text
  32              		.section	.gnu.lto__core_init.f34daf984d137dbe,"",%progbits
  33 0000 789C9D4F 		.ascii	"x\234\235O=K\304@\020\235\267\271\003\013\005[;\321"
  33      3D4BC440 
  33      109DB7B9 
  33      030B055B 
  33      3BD1
  34 0012 4A94A4D7 		.ascii	"J\224\244\327\336_p\202VK\022\003\027p/z)-2Q\221+\024"
  34      DE5F7082 
  34      564B1203 
  34      17702F7A 
  34      292D3251 
  35 0029 622182DA 		.ascii	"b!\202\332\034bc\241\376\003S\0356\012\332h\031\361"
  35      1C6263A1 
  35      FE03531D 
  35      360ADA68 
  35      19F1
  36 003b 5F5C61DC 		.ascii	"_\\a\334|x\310\3319\354\356\314\316\274y\363F\220\240"
  36      7C78C8D9 
  36      39ECEECC 
  36      CEBC79F3 
  36      4690A0
  37 004e 719BD157 		.ascii	"q\233\321W\201hU{\030\004\221<\023\305\023\002(\002"
  37      8168557B 
  37      1804913C 
  37      13C51302 
  37      2802
  38 0060 024502D1 		.ascii	"\002E\002\321\006J\354\235H\263<\277}\035\234\035\341"
  38      064AEC9D 
  38      48B33CBF 
  38      7D1D9C1D 
  38      E1
  39 0071 523474A6 		.ascii	"R4t\246I\007\314\311\354\034\3659K\322\267\303S\360"
  39      4907CCC9 
  39      EC1CF539 
  39      4BD2B7C3 
  39      53F0
  40 0083 079FF057 		.ascii	"\007\237\360W\236\303\207\236\266\004r1\232e\343\012"
  40      9EC3879E 
  40      B6047231 
  40      9A65E30A 
  41 0093 230575CF 		.ascii	"#\005u\317\373\200\031\367i\217\363<*[\226\307Z\256"
  41      FB8019F7 
  41      698FF33C 
  41      2A5B96C7 
  41      5AAE
  42 00a5 F14B7455 		.ascii	"\361KtUi\351\267P\267\246K\332\033O\2647\334\17786m"
  42      69E9B750 
  42      B7A64BDA 
  42      1B4FB437 
  42      DC7F3836 
  43 00ba F4D1A445 		.ascii	"\364\321\244E\272am+>pA\3471\363\264\017\261KC\356\025"
  43      BA616D2B 
  43      3E7041E7 
  43      31F3B40F 
  43      B14B43EE 
ARM GAS  /tmp/ccGtGfPv.s 			page 3


  44 00cf 91A14A8A 		.ascii	"\221\241J\212u\255\317()\235zX\205\340\035\037\015\205"
  44      75ADCF28 
  44      299D7A58 
  44      85E01D1F 
  44      0D85
  45 00e1 2A57F27E 		.ascii	"*W\362~\376\233\027\177y\253U^(\316\036\347+\326\037"
  45      FE9B177F 
  45      79AB555E 
  45      28CE1EE7 
  45      2BD61F
  46 00f4 6B69B8DE 		.ascii	"ki\270\336\245\000,\230\246U\235 \264\334@\251\240\243"
  46      A5002C98 
  46      A6559D20 
  46      B4DC40A9 
  46      A0A3
  47 0106 A32DDFB1 		.ascii	"\243-\337\261\302\256k\271m\345)7\350z\246KSR\266={"
  47      C2AE6BB9 
  47      6DE52937 
  47      E87AA64B 
  47      5352B63D 
  48 011b 5B3A76E8 		.ascii	"[:v\350I9Y\377\274\316\246\224\337\302\215w}"
  48      493959FF 
  48      BCCEA694 
  48      DFC28D77 
  48      7D
  49              		.text
  50              		.section	.gnu.lto_chCoreAllocAlignedWithOffsetI.f34daf984d137dbe,"",%progbits
  51 0000 789C9554 		.ascii	"x\234\225TAk\023A\024~of7\033\322\244IS\025\361Tz\323"
  51      416B1341 
  51      147E6F66 
  51      371BD2A4 
  51      495315F1 
  52 0017 4A025E3D 		.ascii	"J\002^=\364\340_0\240\307f\0151\3406\322z\020<t\322"
  52      F4E05F30 
  52      A0C7660D 
  52      31E036D2 
  52      7A103C74 
  53 002c E4505068 		.ascii	"\344PPh\021<\250\027k\025TD=\026\252\230\203HzP\314"
  53      113CA817 
  53      6B155444 
  53      3D16AA98 
  53      83487A50 
  54 0041 514F8152 		.ascii	"QO\201R\021*\202\327\"\256\337\233\315\2566\027\351"
  54      112A82D7 
  54      22AEDF9B 
  54      CDAE3617 
  54      E9
  55 0052 90BC99F9 		.ascii	"\220\274\231\371\276\367\336\274\367\355\354*R4:\316"
  55      BEF7DEBC 
  55      F7EDEC2A 
  55      52343ACE 
  56 0062 E1FF4213 		.ascii	"\341\377B\023\235\301\314)b\265\366\221\250\225V\312"
  56      9DC1CC29 
  56      62B5F691 
  56      A89556CA 
  57 0072 FDE691C9 		.ascii	"\375\346\221\311\350'\357\211LV\017\267N\264u\330\215"
  57      E827EF89 
ARM GAS  /tmp/ccGtGfPv.s 			page 4


  57      4C560FB7 
  57      4EB475D8 
  57      8D
  58 0083 DC5C6659 		.ascii	"\334\\fY\020\323\222\322\216\313K\027Y\222\252iZ7\346"
  58      10D392D2 
  58      8ECB4B17 
  58      5992AA69 
  58      5A37E6
  59 0096 F660777F 		.ascii	"\366`w\177\300wM\267\363\300\374\012C\346\006\243\200"
  59      C0774DB7 
  59      F3C0FC0A 
  59      43E606A3 
  59      80
  60 00a7 D34C3ED3 		.ascii	"\323L>\323\005lx\312N\3129XQ\024k\372\227z\246\323\015"
  60      056C78CA 
  60      4ECA3958 
  60      51146BFA 
  60      977AA6D3 
  61 00bc C3591B55 		.ascii	"\303Y\033U\372_\324K\325\035\204\341\3637\257vnq\361"
  61      FA5FD44B 
  61      D51D84E1 
  61      F337AF76 
  61      6E71F1
  62 00cf 285383B5 		.ascii	"(S\203\265\346\200\311\201a\027['%\306\023\223&`\031"
  62      E680C981 
  62      61175B27 
  62      25C61393 
  62      266019
  63 00e2 AC680CAC 		.ascii	"\254h\014\254\312\312*'\304\270\230\274\230\202\230"
  63      CACA2A27 
  63      C4B898BC 
  63      988298
  64 00f1 099AE375 		.ascii	"\011\232\343u\236\246\"\346\015\314\223\342\210\341"
  64      9EA622E6 
  64      0DCC93E2 
  64      88E1
  65 00ff 52C798B5 		.ascii	"R\307\230\265\251\210\214\250\200\241\241o\331\363\260"
  65      A9888CA8 
  65      80A1A16F 
  65      D9F3B0
  66 010e 224A8595 		.ascii	"\"J\205\225\314\372\003\265W\332;\253'\346\3701\012"
  66      CCFA03B5 
  66      57DA3BAB 
  66      27E6F831 
  66      0A
  67 011f A9B35B67 		.ascii	"\251\263[g]g\224/\204\216\321\024\010\351\313\0151\362"
  67      5D67942F 
  67      848ED114 
  67      08E9CB0D 
  67      31F2
  68 0131 24ECF2D3 		.ascii	"$\354\362\323\204\365\352\222\037\001[\355j\214\245"
  68      84F5EA92 
  68      1F015BED 
  68      6A8CA5
  69 0140 6D9047B4 		.ascii	"m\220G\264M*\302\320\025`\033\372e\363\367'\025{ff\350"
  69      4D2AC2D0 
  69      15601BFA 
ARM GAS  /tmp/ccGtGfPv.s 			page 5


  69      65F3F727 
  69      157B6666 
  70 0155 142ABF4F 		.ascii	"\024*\277O\367Z\306\024\032\234\272A\373fEV^ \205XA"
  70      F75AC614 
  70      1A9CBA41 
  70      FB664556 
  70      5E208558 
  71 016a 3D2B6395 		.ascii	"=+c\225cAq\330\315\344\374,\222\324y\314\246\376\221"
  71      634171D8 
  71      CDE4FC2C 
  71      92D479CC 
  71      A6FE91
  72 017d A0391023 		.ascii	"\2409\020#m\214[T\217\240y\020r\206\363\267\271\366"
  72      6D8C5B54 
  72      8FA07910 
  72      7286F3B7 
  72      B9F6
  73 018f 56C2166C 		.ascii	"V\302\026l\177y\233|\257},\206'\300\374\323\\\2446\340"
  73      7F799B7C 
  73      AF7D2C86 
  73      27C0FCD3 
  73      5CA436E0 
  74 01a3 A8B4F6DE 		.ascii	"\250\264\366\336\352\361\330\263h\235\323\007\2347\254"
  74      EAF1D8B3 
  74      689DD307 
  74      9C37AC
  75 01b2 73712846 		.ascii	"sq(F\330KN\233<\214\030\261\032=z\267\333\312%)l\342"
  75      D84B4E9B 
  75      3C8C18B1 
  75      1A3D7AB7 
  75      DBCA2529 
  76 01c8 7854D02E 		.ascii	"xT\320.^\013\015\237\257\255;\234\210>\342\344\320\243"
  76      5E0B0D9F 
  76      AFAD3B9C 
  76      883EE2E4 
  76      D0A3
  77 01da 59DC85E5 		.ascii	"Y\334\205\345\355\315\207?\207U\316\3203\203q\366\220"
  77      EDCD873F 
  77      8755CED0 
  77      338371F6 
  77      90
  78 01eb CF26495C 		.ascii	"\317&I\\A\016\271a}\274\211\002[\3763\261\204\340\021"
  78      410EB961 
  78      7DBC8902 
  78      5BFE33B1 
  78      84E011
  79 01fe E8EF6F8F 		.ascii	"\350\357o\217@\031\347u?;D\024\020\271\240,a\362-8Y"
  79      4019E775 
  79      3F3B4414 
  79      10B9A02C 
  79      61F22D38 
  80 0213 2A95A35F 		.ascii	"*\225\243_s\261\3547\203\2409\217\325\225F\265\274\270"
  80      73B1EC37 
  80      83A0398F 
  80      D59546B5 
  80      BCB8
  81 0225 E097FDCB 		.ascii	"\340\227\375\313A-\360\233\013\265\222O|\325\231\257"
ARM GAS  /tmp/ccGtGfPv.s 			page 6


  81      412DF09B 
  81      0BB5924F 
  81      7CD599AF 
  82 0235 5DBFF607 		.ascii	"]\277\366\007+x\345\036"
  82      2B78E51E 
  83              		.text
  84              		.section	.gnu.lto_chCoreAllocAlignedWithOffset.f34daf984d137dbe,"",%progbits
  85 0000 789C9D54 		.ascii	"x\234\235T]h\024W\024>\347\316\314f\263\233\2305?\245"
  85      5D681457 
  85      143EE7CE 
  85      CC66B39B 
  85      98353FA5 
  86 0014 4A898B50 		.ascii	"J\211\213P\260j\263\365\245}\350\203\225<\365!/\246"
  86      B06AB3F5 
  86      A57DE883 
  86      953CF521 
  86      2FA6
  87 0026 81F64926 		.ascii	"\201\366I&\343d3\220\315\206\235(j\037\274\273k\251"
  87      E3643390 
  87      CD869D28 
  87      6A1FBCBB 
  87      6BA9
  88 0038 60C12006 		.ascii	"`\301 \006D\021Mm\254Q\241\245-%\251\255\335R\221D1"
  88      44114D6D 
  88      AC51A1A5 
  88      2D25A9AD 
  88      DD529144 
  89 004d 554B1145 		.ascii	"UK\021E\351B@Z\"b\336\244-N\317\275wfv7\004\327vH\316"
  89      E942405A 
  89      2262DEA4 
  89      2D4ECFBD 
  89      77667637 
  90 0066 BDF79CF3 		.ascii	"\275\367\234\363\235\377=\014\030,\377\272\351\377v"
  90      9DFF3D0C 
  90      182CFFBA 
  90      E9FF76
  91 0075 04E0219D 		.ascii	"\004\340!\235\030\001dc\363\000\371(c\306\037\015\300"
  91      18016463 
  91      F300F928 
  91      63C61F0D 
  91      C0
  92 0086 63DAB9AB 		.ascii	"c\332\271\253\000\274I\363\237\272z\352h(5\003Q\\\000"
  92      00BC49F3 
  92      9FBA7AEA 
  92      68283503 
  92      515C00
  93 0099 613FD374 		.ascii	"a?\323t\003\367\177\200\302\250\266\036&8?R\376\350"
  93      03F77F80 
  93      C2A8B61E 
  93      26383F52 
  93      FEE8
  94 00ab C2CC1A7E 		.ascii	"\302\314\032~\2720\306\237y\036:H\3567#X\010\357\323"
  94      BA30C69F 
  94      791E3A48 
  94      EE372358 
  94      08EFD3
  95 00be 0393F260 		.ascii	"\003\223\362`zm<\012Y\272\363\361\321j\244\306`\313"
ARM GAS  /tmp/ccGtGfPv.s 			page 7


  95      7A6D3C0A 
  95      59BAF3F1 
  95      D16AA4C6 
  95      60CB
  96 00d0 8B21F9CC 		.ascii	"\213!\371\314\316Y~\240\344y[%\352\315z\250/X\251\354"
  96      CE597EA0 
  96      E4795B25 
  96      EACD7AA8 
  96      2F58A9EC 
  97 00e4 798F7EBB 		.ascii	"y\217~\273\270p\031[\327j\230A\320\211\240A\204E\301"
  97      B870195B 
  97      D76A9841 
  97      D089A041 
  97      8445C1
  98 00f7 41BD5190 		.ascii	"A\275Q\220\230 q0q\002\327C\023=\264fAV\011v\213 \011"
  98      98207130 
  98      7102D743 
  98      133DB466 
  98      41560976 
  99 010e 41560BD2 		.ascii	"AV\013\322JZ\223\244\325F\347\031:\333\205b\007\021"
  99      4A5A93A4 
  99      D546E719 
  99      3ADB8562 
  99      0711
 100 0120 83DC1970 		.ascii	"\203\334\031p\200\363\261\244\237\345\357\327>\251\316"
 100      80F3B1A4 
 100      9FE5EFD7 
 100      3EA9CE
 101 012f D230F12C 		.ascii	"\3220\361,\262:\001\203\220\323\367\036QQ\373>B\320"
 101      B23A0183 
 101      90D3F71E 
 101      5151FB3E 
 101      42D0
 102 0141 A9CD4121 		.ascii	"\251\315A!\032\024\241\2744u\343'<R\344\252\024\270"
 102      1A14A1BC 
 102      3475E327 
 102      3C52E4AA 
 102      14B8
 103 0153 CEC10883 		.ascii	"\316\301\010\203\201z\265\020\274H\222.\363PX\272_<"
 103      817AB510 
 103      BC48922E 
 103      F35058BA 
 103      5F3C
 104 0165 BBD68F36 		.ascii	"\273\326\2176\010\273\264\360\353\011m\203\211S\224"
 104      08BBB4F0 
 104      EB096D83 
 104      895394
 105 0174 55C8FB7B 		.ascii	"U\310\373{\374i\374\225\3605w\237F\314\304\317)Y\013"
 105      FC69FC95 
 105      F035779F 
 105      46CCC4CF 
 105      29590B
 106 0187 853F918E 		.ascii	"\205?\221\216\006rD\020.\323\225\344\232\232\303N\370"
 106      06724410 
 106      2ED395E4 
 106      9A9AC34E 
 106      F8
ARM GAS  /tmp/ccGtGfPv.s 			page 8


 107 0198 054FF263 		.ascii	"\005O\362c\3578\330P\343\275\"\277\355\313\243*>\225"
 107      EF38D850 
 107      E3BD22BF 
 107      EDCBA32A 
 107      3E95
 108 01aa A2EA415A 		.ascii	"\242\352AZX\255\316\271t\367\332u\244\376\347\237x^"
 108      58ADCEB9 
 108      74F7DA75 
 108      A4FEE79F 
 108      785E
 109 01bc 0BB581C1 		.ascii	"\013\265\201\301=\254\227p\032\365Z#\374+\316\033O\363"
 109      3DAC9770 
 109      1AF55A23 
 109      FC2BCE1B 
 109      4FF3
 110 01ce 7F3C4F93 		.ascii	"\177<O\223\343Z~\001\023\324\326\033P<X\\8\034\324K"
 110      E35A7E01 
 110      13D4D61B 
 110      503C585C 
 110      381CD44B 
 111 01e2 F55F753F 		.ascii	"\365_u?\250\014_\034\247\366~+\371\337H:!\245A\255t"
 111      A80C5F1C 
 111      A7F67E2B 
 111      F9DF483A 
 111      21A541AD 
 112 01f7 652C4A79 		.ascii	"e,Jy\311\250\002\223&N\223<\215\215$\023\376\301\243"
 112      C9A80293 
 112      264E933C 
 112      8D8D2413 
 112      FEC1A3
 113 020a AF058442 		.ascii	"\257\005\204BaJ\013\244\261\000s\251\330\037\360\342"
 113      614A0BA4 
 113      B10073A9 
 113      D81FF0E2 
 114 021a 12141309 		.ascii	"\022\024\023\0112\305\013*\027\227\350{\323\317n\262"
 114      32C50B2A 
 114      1797E87B 
 114      D3CF6EB2 
 115 022a 40B96913 		.ascii	"@\271i\023l\2441=\001\307\363\234'\034l\374\020\376"
 115      6CA4313D 
 115      01C7F39C 
 115      271C6CFC 
 115      10FE
 116 023c E207C52D 		.ascii	"\342\007\305-\226\221\375\023\276c2\343~\224a\317\310"
 116      9691FD13 
 116      BE6332E3 
 116      7E9461CF 
 116      C8
 117 024d 79163E0F 		.ascii	"y\026>\017\205a4\223!\277 \205\307!w\025\011TB!\253"
 117      85613493 
 117      21BF2085 
 117      C7217715 
 117      09544221 
 118 0262 85E225C1 		.ascii	"\205\342%\3012n\202\004\302\217^\311\261x)\224\256\226"
 118      326E8204 
 118      C28F5EC9 
 118      B1782994 
ARM GAS  /tmp/ccGtGfPv.s 			page 9


 118      AE96
 119 0274 6926A4F1 		.ascii	"i&\244\361\305\342K\001\273\225$59N\312\034[Uh\305\305"
 119      C5E24B01 
 119      BB952435 
 119      394ECA1C 
 119      5B5568C5 
 120 0289 C32F079A 		.ascii	"\303/\007\232mR9^\243|F*\267\371\005\361fCo\355\377"
 120      6D52395E 
 120      A37C462A 
 120      B7F905F1 
 120      66436FED 
 121 029e A5205855 		.ascii	"\245 XU\220Y\270\3620\337\\\345\263\2752,}\204\244\015"
 121      9059B8F2 
 121      30DF5CE5 
 121      B3BD322C 
 121      7D84A40D 
 122 02b2 AA499D71 		.ascii	"\252I\235q\014\213/#\250(\351\360\331V\215\002\232\233"
 122      0C8B2F23 
 122      A828E9F0 
 122      D9568D02 
 122      9A9B
 123 02c4 FE74C98F 		.ascii	"\376t\311\217t\023\234\347\364\275\375?z\024\032\357"
 123      74139CE7 
 123      F4BDFD3F 
 123      7A141AEF 
 124 02d4 A397BF29 		.ascii	"\243\227\277)\312\337M\242\232<\023\317\3119\254\375"
 124      CADF4DA2 
 124      9A3C13CF 
 124      C939ACFD 
 125 02e4 1D9497FE 		.ascii	"\035\224\227\376\234_\276@L<_w9\311\3370<o\203,\236"
 125      9C5FBE40 
 125      4C3C5F77 
 125      39C9DF30 
 125      3C6F832C 
 126 02f9 141BE4E7 		.ascii	"\024\033\344\347\332\015r\252\2713\\\215\225U\362\240"
 126      DA0D72AA 
 126      B9335C8D 
 126      9555F2A0 
 127 0309 6A95186A 		.ascii	"j\225\030j\361EV\330&&~I\227\320s\260=L\374\032;UT\267"
 127      F14556D8 
 127      26267E49 
 127      97D073B0 
 127      3D4CFC1A 
 128 0321 205FFEC1 		.ascii	" _\376\301V\246\322\330!Xw\241C \310,{\364c\273\177"
 128      56A6D2D8 
 128      215877A1 
 128      4320C82C 
 128      7BF463BB 
 129 0336 D5C4DCE8 		.ascii	"\325\304\334\350\337\337j\022\333\025E\255\204\245\327"
 129      DFDF6A12 
 129      DB1545AD 
 129      84A5D7
 130 0345 BABA52EA 		.ascii	"\272\272R\352/\353\246\254l&\223\035\246\333\220\323"
 130      2FEBA6AC 
 130      6C26931D 
 130      A6DB90D3 
 131 0355 9F727356 		.ascii	"\237rsV\312\032\314\330\031+\233\263\273,\320]g\237"
ARM GAS  /tmp/ccGtGfPv.s 			page 10


 131      CA1ACCD8 
 131      192B9BB3 
 131      BB2CD05D 
 131      679F
 132 0367 AD0FDB7B 		.ascii	"\255\017\333{Fq\344\365\025P#\331\334\250\233\332\266"
 132      4671E4F5 
 132      155023D9 
 132      DCA89BDA 
 132      B6
 133 0378 BDA7BB67 		.ascii	"\275\247\273g\017\001\005j\307\356\2672]\203`\3546\207"
 133      0F01056A 
 133      C7EEB732 
 133      5D8360EC 
 133      3687
 134 038a 76D95B56 		.ascii	"v\331[V\300\220\261TwO\357\273\275)g\330\032\332\265"
 134      C090B154 
 134      774FEFBB 
 134      BD2967D8 
 134      1ADAB5
 135 039d D34E5919 		.ascii	"\323NY\031\327qw\244-\213p\353\252\021\271\321\212\316"
 135      D77177A4 
 135      2D8B70EB 
 135      AA11B9D1 
 135      8ACE
 136 03af A0BBD725 		.ascii	"\240\273\327%y\242\247w{\262\337t\355\221\234\2639\371"
 136      79A2A777 
 136      7BB2DF74 
 136      ED919CB3 
 136      39F9
 137 03c1 EA1BC072 		.ascii	"\352\033\300r\320@\001gs{\3010\207\234\364p$;0\340\332"
 137      D0400167 
 137      737BC130 
 137      879CF470 
 137      243B30E0 
 138 03d6 A3FF02D4 		.ascii	"\243\377\002\324\025\331\210"
 138      15D988
 139              		.text
 140              		.section	.gnu.lto_chCoreGetStatusX.f34daf984d137dbe,"",%progbits
 141 0000 789C9590 		.ascii	"x\234\225\220\277J\003A\020\306\277\231\275MR\211\255"
 141      BF4A0341 
 141      10C6BF99 
 141      BD4D5289 
 141      AD
 142 0011 56B61AB8 		.ascii	"V\266\032\270{\023\253\010Z\232%\234\007Y\017\222\322"
 142      7B13AB08 
 142      5A9A259C 
 142      07590F92 
 142      D2
 143 0022 221BCF42 		.ascii	"\"\033\317B\273\324\012\212\017\340\237*\265\275F\260"
 143      BBD40A8A 
 143      0FE09F2A 
 143      B5BD46B0 
 144 0032 132B5B11 		.ascii	"\023+[\021|\000\2338\263\341R\210\215\313\356\314\307"
 144      7C009B38 
 144      B3E15288 
 144      8DCBEECC 
 144      C7
ARM GAS  /tmp/ccGtGfPv.s 			page 11


 145 0043 CCEC6F66 		.ascii	"\314\354of\227\301\370\275\326\344l\023\320\026O\006"
 145      97C1F8BD 
 145      D6E46C13 
 145      D0164F06 
 146 0053 C4936760 		.ascii	"\304\223g`\334b\"\025 \214\230F{\024k\357\370\341}>"
 146      DC622215 
 146      208C9846 
 146      7B146BEF 
 146      F8E17D3E 
 147 0067 BFBD7CBC 		.ascii	"\277\275|\274z\242\033n1\012\202\021C\211*\253\252\241"
 147      7AA21B6E 
 147      310A8211 
 147      43892AAB 
 147      AAA1
 148 0079 A629463B 		.ascii	"\246)F;Y\234\2040\331\000\\\274\337\021\253\320\035"
 148      599C8430 
 148      D9005CBC 
 148      DF11ABD0 
 148      1D
 149 008a 498A3733 		.ascii	"I\21273\034\277\275N?\314>]\223EN\334\306\226p.p>\016"
 149      1CBFBD4E 
 149      3FCC3E5D 
 149      93454EDC 
 149      C696702E 
 150 00a1 61B52073 		.ascii	"a\265 s\204\357p\252*\361\021\260K\"\343$]\252\347\027"
 150      84EF70AA 
 150      2AF111B0 
 150      4B22E324 
 150      5DAAE717 
 151 00b5 C86735E5 		.ascii	"\310g5\345\232ar\355\254\344\373\365:\226\374\207K\177"
 151      9A6172ED 
 151      ACE4FBF5 
 151      3A96FC87 
 151      4B7F
 152 00c7 736DAE15 		.ascii	"sm\256\0253Tg\313q\033\261\233\215\245_\325J\035nJ\006"
 152      335467CB 
 152      711BB19B 
 152      8DA55FD5 
 152      4A1D6E4A 
 153 00dc 78012D03 		.ascii	"x\001-\003\013`G\320\362j\375\227\3154\315\026\273\034"
 153      0B6047D0 
 153      F26AFD97 
 153      CD34CD16 
 153      BB1C
 154 00ee 66AEF4BE 		.ascii	"f\256\364\276<\024\325/\272\331p\3402w\340{\336\225"
 154      3C14D52F 
 154      BAD970E0 
 154      3277E07B 
 154      DE95
 155 0100 835EEAF0 		.ascii	"\203^\352\360\003\222fX\032"
 155      03926658 
 155      1A
 156              		.text
 157              		.section	.gnu.lto_.symbol_nodes.f34daf984d137dbe,"",%progbits
 158 0000 789C4D8A 		.ascii	"x\234M\212\273\015\200@\024\303\234\2407!\003\245\245"
 158      BB0D8040 
 158      14C39CA0 
ARM GAS  /tmp/ccGtGfPv.s 			page 12


 158      372103A5 
 158      A5
 159 0011 640226E1 		.ascii	"d\002&\341?\0003q\005\322\341\306\262dcF>\274)0?\220"
 159      3F003371 
 159      05D2E1C6 
 159      B2646346 
 159      3EBC2930 
 160 0027 2C936A15 		.ascii	",\223j\025\025\352\222h\272\345&\357\212\372\343C\361"
 160      15EA9268 
 160      BAE526EF 
 160      8AFAE343 
 160      F1
 161 0038 2F4F65E8 		.ascii	"/Oe\350\311\013\255a\027B"
 161      C90BAD61 
 161      1742
 162              		.text
 163              		.section	.gnu.lto_.refs.f34daf984d137dbe,"",%progbits
 164 0000 789C6362 		.ascii	"x\234cb`bPd\200\000\026\006FF&& ff\0062\201\034FfV\010"
 164      60625064 
 164      80001606 
 164      46462626 
 164      20666606 
 165 001b CDC406A2 		.ascii	"\315\304\006\242\031\000\011\276\000X"
 165      190009BE 
 165      0058
 166              		.text
 167              		.section	.gnu.lto_.decls.f34daf984d137dbe,"",%progbits
 168 0000 789CA556 		.ascii	"x\234\245Vol\024E\024\237\331\366\332;zE$\221`\024["
 168      6F6C1445 
 168      149FD9F6 
 168      DA3B7A45 
 168      24916014 
 169 0015 8C9848A4 		.ascii	"\214\230H\244k\375\023\353\027\2404\004\232P%4D>\261"
 169      6BFD13EB 
 169      17A03404 
 169      9A502534 
 169      443EB1
 170 0028 59B65BEE 		.ascii	"Y\266[\356\302\335-\271\335\"\365\013\323\242 jL!\221"
 170      C2DD2DB9 
 170      DD22F50B 
 170      D3A2206A 
 170      4C2191
 171 003b A0097A15 		.ascii	"\240\011z\025(4\012\264\305P1\210\007\321\026\013\321"
 171      28340AB4 
 171      C5503188 
 171      07D1160B 
 171      D1
 172 004c 2B508442 		.ascii	"+P\204B\223\265\200hMM\325\210\201\250\347\233\335\331"
 172      93B58068 
 172      4D4DD588 
 172      81A8E79B 
 172      DDD9
 173 005e DBDB65AF 		.ascii	"\333\333e\257\264q\322w\235\273}\357\367{\357\367ff"
 173      B471D277 
 173      9DBB7DEF 
 173      F77BEFF7 
 173      6666
ARM GAS  /tmp/ccGtGfPv.s 			page 13


 174 0070 87431CEA 		.ascii	"\207C\034\352\300\010\245a\254-F\350\"\207\220\017!"
 174      C008A561 
 174      AC2D46E8 
 174      2287900F 
 174      21
 175 0081 341FD923 		.ascii	"4\037\331#\037\254\025\254\015\354(\330q\260<\260$\330"
 175      1FAC15AC 
 175      0DEC28D8 
 175      71B03CB0 
 175      24D8
 176 0093 7760E790 		.ascii	"w`\347\220sP_\212\221\002\353\005;\011v\001l\000\014"
 176      73505F8A 
 176      9102EB05 
 176      3B097601 
 176      6C000C
 177 00a6 E0510FD8 		.ascii	"\340Q\017\330Y0\314|\307\303\242\234~\2063\025,\010"
 177      5930CC7C 
 177      C7C3A29C 
 177      7E863315 
 177      2C08
 178 00b8 B680E1B7 		.ascii	"\266\200\341\267ga\273q\333\230O'\330a\260#`\027\031"
 178      6761BB71 
 178      DB984F27 
 178      D861B023 
 178      601719
 179 00cb 4FF6A0F5 		.ascii	"O\366\240\365\0241,\013\277\227\305R\036\035\354\032"
 179      14312C0B 
 179      BF97C552 
 179      1E1DEC1A 
 180 00db D88D1C5C 		.ascii	"\330\215\034\\\205\014\343&\330\010\330(\343\276\005"
 180      850CE326 
 180      D808D828 
 180      E3BE05
 181 00ea 769B69F7 		.ascii	"v\233i\367\031\3301\260\317=\370\2173\256^\346\353\256"
 181      19D831B0 
 181      CF3DF88F 
 181      33AE5EE6 
 181      EBAE
 182 00fc E92CE3C2 		.ascii	"\351,\343\302\314\027{`\224\240\017HB\327\367\215t<"
 182      CC177B60 
 182      94A00F48 
 182      42D7F78D 
 182      743C
 183 010e 4812CDC9 		.ascii	"H\022\315\311tz\001\232\201\336%0\022[\010\301\232\210"
 183      747A019A 
 183      81DE2530 
 183      125B08C1 
 183      9A88
 184 0120 E73F8056 		.ascii	"\347?\200Va\021O\015\240Rc\022\014\030d\010\211\370"
 184      61114F0D 
 184      A0526312 
 184      0C186408 
 184      89F8
 185 0132 233C83CD 		.ascii	"#<\203\315V\346\231p\034z\022\243\271\250\035\342[\010"
 185      56E69970 
 185      1C7A12A3 
 185      B9A81DE2 
ARM GAS  /tmp/ccGtGfPv.s 			page 14


 185      5B08
 186 0144 197E0879 		.ascii	"\031~\010y\215\307\321>J@\016\220<\003\236\002\264\342"
 186      8DC7D13E 
 186      4A400E90 
 186      3C039E02 
 186      B4E2
 187 0156 926C1711 		.ascii	"\222l\027\021\357\301\234;O},\331\337{\006\223\035\344"
 187      EFC19C3B 
 187      4F7D2CD9 
 187      DF7B0693 
 187      1DE4
 188 0168 EF747AB3 		.ascii	"\357tz\263\337\235\350\202\242\234\211\356g\211\346"
 188      DF9DE882 
 188      A29C89EE 
 188      6789E6
 189 0177 19BAA000 		.ascii	"\031\272\240\000z\203\220f\032\270\36444\316+j\016\332"
 189      7A839066 
 189      1AB8F434 
 189      34CE2B6A 
 189      0EDA
 190 0189 0B25E8FF 		.ascii	"\013%\350\377t\356\346\011\361\213\270\035\007 \366"
 190      74EEE609 
 190      F18BB81D 
 190      0720F6
 191 0198 638C016D 		.ascii	"c\214\001m/\236\233I\323\027p\246\015\337-\007\212f"
 191      2F9E9B49 
 191      D31770A6 
 191      0DDF2D07 
 191      8A66
 192 01aa 3C6613BA 		.ascii	"<f\023\272M\356\313\344`\205f\276R\006\207\226\206\234"
 192      4DEECBE4 
 192      608566BE 
 192      52068796 
 192      869C
 193 01bc 5D2EC6C7 		.ascii	"].\306\307\320\036Bv\350\257\337\321}\357\221d\276\225"
 193      D01E4276 
 193      E8AFDFD1 
 193      7DEF9164 
 193      BE95
 194 01ce 58CA706B 		.ascii	"X\312pk\003\021\275\212a\340fl\362\374\326\303\320k"
 194      0311BD8A 
 194      61E0666C 
 194      F2FCD6C3 
 194      D06B
 195 01e0 CE488043 		.ascii	"\316H\200C\003\367\210\364\331\201\003[\017\231\201"
 195      03F788F4 
 195      D981035B 
 195      0F9981
 196 01ef 26E79589 		.ascii	"&\347\225\211p\262n7\323\316\265b2\335h\023\032'\216"
 196      70B26E37 
 196      D3CEB562 
 196      32DD6813 
 196      1A278E
 197 0202 E978E8EE 		.ascii	"\351x\350\356\366'\364\344\245\276`K\223\236N\227\230"
 197      F627F4E4 
 197      A5BE604B 
 197      939E4E97 
ARM GAS  /tmp/ccGtGfPv.s 			page 15


 197      98
 198 0213 2DE5D0B0 		.ascii	"-\345\320\260\247<\244[^j\362\213\270\003\200D|tB\312"
 198      A73CA45B 
 198      5E6AF28B 
 198      B8038044 
 198      7C7442CA 
 199 0227 5CE93B94 		.ascii	"\\\351;\224QF\304]\367\210\314Rf\250\357\240\255\214"
 199      5146C45D 
 199      F788CC52 
 199      66A8EFA0 
 199      AD8C
 200 0239 883F9D08 		.ascii	"\210?\235\010gF\231\313}Ner\3051e\272=\225\371\360\255"
 200      674699CB 
 200      7D4E6572 
 200      C53165BA 
 200      3D95F9F0 
 201 024e B7AD0DEC 		.ascii	"\267\255\015\354w\355\013\312\226kc|\341\261\203\323"
 201      77ED0BCA 
 201      966B637C 
 201      E1B183D3 
 202 025e 2E4DAD44 		.ascii	".M\255DI\327\001\022\260\222\027\361\361\361\323<\341"
 202      49D70112 
 202      B09217F1 
 202      F1F1D33C 
 202      E1
 203 026f 4CF351D4 		.ascii	"L\363Q\324J\022\251\344\237\243~h\017\031\203\2350\035"
 203      4A12A9E4 
 203      9FA37E68 
 203      0F19839D 
 203      301D
 204 0281 6D37B25C 		.ascii	"m7\262\\\230\265\005\027Z@~{\013\366\357\030*7\266\340"
 204      98B50517 
 204      5A407E7B 
 204      0BF6EF18 
 204      2A37B6E0 
 205 0295 493C1DB2 		.ascii	"I<\035\262;\3019\263\273'\014M\346+\0105\203\014P\222"
 205      3BC139B3 
 205      BB270C4D 
 205      E62B0835 
 205      830C5092 
 206 02a9 3CDF1324 		.ascii	"<\337\023$\371\346\357\310Ul\326\230\215\022\264AW\266"
 206      F9E6EFC8 
 206      556CD698 
 206      8D12B441 
 206      57B6
 207 02bb BC03DA9E 		.ascii	"\274\003\332\236\302E\350M\373\330`g\210\276\217\314"
 207      C245E84D 
 207      FBD86067 
 207      88BE8FCC 
 208 02cb DC6533FB 		.ascii	"\334e3\373-fl\027\320\271\363\240y\206\2346\266\315"
 208      2D666C17 
 208      D0B9F3A0 
 208      79869C36 
 208      B6CD
 209 02dd FE3CF719 		.ascii	"\376<\367\031\202]g\010v\236!8`O\322\330\373\270\242"
 209      825D6708 
 209      769E2138 
ARM GAS  /tmp/ccGtGfPv.s 			page 16


 209      604FD2D8 
 209      FBB8A2
 210 02f0 61BDB8C8 		.ascii	"a\275\270\310\302\340\320a\203\205\326\347\345\316\246"
 210      C2E0D061 
 210      8385D6E7 
 210      E5CEA6
 211 02ff E6600E8E 		.ascii	"\346`\016\216\232\365\376sWO\342\355\233\311\351\247"
 211      9AF5FE73 
 211      574FE2ED 
 211      9BC9E9A7 
 212 030f 4C600E75 		.ascii	"L`\016uO\032\261\324KS\253H\273%\"\376\032\317\201\317"
 212      4F1AB1D4 
 212      4B53AB48 
 212      BB2522FE 
 212      1ACF81CF 
 213 0323 1E3C1B3E 		.ascii	"\036<\033>\317\302gf@\2733j\345\352\355\267\366B\243"
 213      CFC26766 
 213      40BB336A 
 213      E5EAEDB7 
 213      F642A3
 214 0336 8B4C6FD1 		.ascii	"\213Lo\321o\214\244\270&r\252\211\320\367\004\306\367"
 214      6F8CA4B8 
 214      2672AA89 
 214      D0F704C6 
 214      F7
 215 0347 A316BA42 		.ascii	"\243\026\272BJwM5[`\347\220\202g(\233\355\233<\354H"
 215      4A774D35 
 215      5B60E790 
 215      8267289B 
 215      ED9B3CEC 
 216 035c B2DF8D9D 		.ascii	"\262\337\215\235\274\324\003\233\252\003\340\322\351"
 216      BCD4039B 
 216      AA03E0D2 
 216      E9
 217 0369 4D260087 		.ascii	"M&\000\207\276wE\235\267\243\034K\306\\\302\271\332"
 217      BE77459D 
 217      B7A31C4B 
 217      C65CC2B9 
 217      DA
 218 037a 77C16E9F 		.ascii	"w\301n\237+\212\262\344\212\032\260\243h\206\251Tr\250"
 218      2B8AB2E4 
 218      8A1AB0A3 
 218      6886A954 
 218      72A8
 219 038c 771BC164 		.ascii	"w\033\301d\013i\242\233\314\256=\263^\223\343\257W\372"
 219      0B69A29B 
 219      CCAE3DB3 
 219      5E93E3AF 
 219      57FA
 220 039e DEE6B216 		.ascii	"\336\346\262\026\367Lo_\021_6\2326\310\004\245\217\006"
 220      F74C6F5F 
 220      115F369A 
 220      36C804A5 
 220      8F06
 221 03b0 332B7590 		.ascii	"3+u\220-U\016]wh\343\220i\374PF:\206-\326G\014\347\354"
 221      2D550E5D 
 221      7768E390 
ARM GAS  /tmp/ccGtGfPv.s 			page 17


 221      69FC5046 
 221      3A862DD6 
 222 03c8 660EDA07 		.ascii	"f\016\332\007\233\333M\304WYo\215RHF\313`\356\263p("
 222      9BDB4DC4 
 222      57596F8D 
 222      524846CB 
 222      60EEB370 
 223 03dd 2B9F60C0 		.ascii	"+\237`\300\236\314rdmyAm?\347\271^\200\356,8\364;+_"
 223      9ECC7264 
 223      6D79416D 
 223      3FE7B95E 
 223      80EE2C38 
 224 03f5 C453F064 		.ascii	"\304S\360d\356\035\235;/\374\206\233a\251\211X7N\015"
 224      EE1D9D3B 
 224      2FFC869B 
 224      61A98958 
 224      374E0D
 225 0408 92EF3E35 		.ascii	"\222\357>5\012]\247F\241\363\324(\014\330\023v\363`"
 225      0A5DA746 
 225      A1F3D428 
 225      0CD81376 
 225      F360
 226 041a DA2516BA 		.ascii	"\332%\026\272\304\233f%\3001\250k\223\326\356z\016\355"
 226      C49B6625 
 226      C031A86B 
 226      93D6EE7A 
 226      0EED
 227 042c ACE6E768 		.ascii	"\254\346\347h[\205\345W\310pnL\232\371\307\034\314\005"
 227      5B85E557 
 227      C8706E4C 
 227      9AF9C71C 
 227      CC05
 228 043e 8C99BE1F 		.ascii	"\214\231\276\037\223c\372\221\341\261\325\237t\021\262"
 228      9363FA91 
 228      E1B1D59F 
 228      7411B2
 229 044d 8DFC9BDE 		.ascii	"\215\374\233\336\324\364\0326/\257\034j\317\367|\331"
 229      D4F41A36 
 229      2FAF1C6A 
 229      CFF77CD9 
 230 045d B96EA737 		.ascii	"\271n\2477\335\267\323\237\356~\011\003\311\305k\251"
 230      DDB7D39F 
 230      EE7E0903 
 230      C9C56BA9 
 231 046d F78D43D3 		.ascii	"\367\215C\323x\301%\374\026\311\017\023\"\031q\223\374"
 231      78C125FC 
 231      16C90F13 
 231      22197193 
 231      FC
 232 047e E249D27D 		.ascii	"\342I\322}sl\351m\273\222\331\023\277\256\377\352\274"
 232      736CE96D 
 232      BB92D913 
 232      BFAEFFEA 
 232      BC
 233 048f 059B4BCB 		.ascii	"\005\233K\313u\337\334\355\313N\325\360\204k\257\217"
 233      75DFDCED 
 233      CB4ED5F0 
ARM GAS  /tmp/ccGtGfPv.s 			page 18


 233      846BAF8F 
 234 049f F5915DAF 		.ascii	"\365\221]\257\372{\202-\231\225y\314\210\030\315y\331"
 234      FA7B822D 
 234      999579CC 
 234      8818CD79 
 234      D9
 235 04b0 D1B32E3B 		.ascii	"\321\263.;\204\374\321\264|f\246\342Qw\305c\236\025"
 235      84FCD1B4 
 235      7C66A6E2 
 235      5177C563 
 235      9E15
 236 04c2 1F194E85 		.ascii	"\037\031N\205\274z\367\245o\"\262\336r\223\374\225\253"
 236      BC7AF7A5 
 236      6F22B2DE 
 236      7293FC95 
 236      AB
 237 04d3 77BBBD7A 		.ascii	"w\273\275zwfB$\267\335$w\234$\350\211\2622\336\374S"
 237      77664224 
 237      B7DD2477 
 237      9C24E889 
 237      B232DEFC 
 238 04e8 545E52A2 		.ascii	"T^R\242Q%\006\263Hx\015\257\306%^\012E\345\250\244\304"
 238      512506B3 
 238      48780DAF 
 238      C6255E0A 
 238      45E5A8A4 
 239 04fd E532094D 		.ascii	"\3452\011M\021\350D\010\307\302Z\301\222\027W\226V\241"
 239      11E84408 
 239      C7C25AC1 
 239      92175796 
 239      56A1
 240 050f 081F52A2 		.ascii	"\010\037R\2422\257h\232\302\327\3101M\211/\211\213\353"
 240      32AF689A 
 240      C2D7C831 
 240      4D892F89 
 240      8BEB
 241 0521 436149E5 		.ascii	"CaI\345k\225\206\270$\307\033\205*\245N^$\307\244\220"
 241      6B9586B8 
 241      24C71B85 
 241      2AA54E5E 
 241      24C7A490 
 242 0535 B02CACC9 		.ascii	"\260,\254\311B\275\022\027*W\324\010\213+\027U\363\224"
 242      42BD1217 
 242      2A57D408 
 242      8B2B1755 
 242      F394
 243 0547 65AD24F1 		.ascii	"e\255$\361b<:/\246\304\344y\262\270&\314?[VQV\316\207"
 243      623C3A2F 
 243      A6C4E479 
 243      B2B826CC 
 243      3F5B5651 
 244 055e 6352A4A1 		.ascii	"cR\244\241N\346U\255\256N\256/\013\241\0025\374\252"
 244      4EE655AD 
 244      AE4EAE2F 
 244      0BA10235 
 244      FCAA
 245 0570 2C68B3A4 		.ascii	",h\263\244P\025\244Q\031\211(Re$\2746&\327\275\034\326"
ARM GAS  /tmp/ccGtGfPv.s 			page 19


 245      5015A451 
 245      19892852 
 245      6524BC36 
 245      26D7BD1C 
 246 0585 422FD5D7 		.ascii	"B/\325\327\253\262V\235O\235|\"\375\275@1~zx<\377i\346"
 246      ABB2569D 
 246      4F9D7C22 
 246      FDBD4031 
 246      7E7A783C 
 247 059c C325B256 		.ascii	"\303%\262V\253\211Z\203\272j^N5\254|lEB(\300\246\202"
 247      AB895A83 
 247      BA6A5E4E 
 247      35AC7C6C 
 247      454228C0 
 248 05b2 B6FA7F2A 		.ascii	"\266\372\177*\341T \253\366pL\003\242\302\006\370_!"
 248      E15420AB 
 248      F6704C03 
 248      A2C206F8 
 248      5F21
 249 05c4 68853179 		.ascii	"h\2051y\243\006\244\005r\254\016\376M\001,\226B\261"
 249      A306A405 
 249      72AC0EFE 
 249      4D012C96 
 249      42B1
 250 05d6 20846471 		.ascii	" \204dq\275\260FTeA\010\262o\340&\010\371RH\214\373"
 250      BDB04654 
 250      654108B2 
 250      6FE02608 
 250      F952488C 
 251 05eb 05A1BE21 		.ascii	"\005\241\276!&\011B\2615){\356\205\362\012?\005~\346"
 251      260942B1 
 251      35297BEE 
 251      85F20A3F 
 251      057EE6
 252 05fe 69412BC9 		.ascii	"iA+\311.<\256e\225\2536\252\264T)T\333\250.S\244u^\022"
 252      2E3CAE65 
 252      95AB36AA 
 252      B4542954 
 252      DBA82E53 
 253 0616 AD57E29A 		.ascii	"\255W\342\232\312C5U5\033!\304\320d\303\363Q\032G\037"
 253      CA433555 
 253      351B21C4 
 253      D064C3F3 
 253      511A471F 
 254 062a 09A0FDBA 		.ascii	"\011\240\375\272r\2178\250\206\257\252\251\255\256\265"
 254      728F38A8 
 254      86AFAAA9 
 254      ADAEB5
 255 0639 F9A26A58 		.ascii	"\371\242jX\025`Q@,\244\012=\022\026U\326.^\276\242\272"
 255      15605140 
 255      2CA40A3D 
 255      121655D6 
 255      2E5EBEA2 
 256 064e 588CBC22 		.ascii	"X\214\274\"6\252\260\376\"\341\230\354\333 F\032\344"
 256      36AAB0FE 
 256      22E198EC 
 256      DB20461A 
ARM GAS  /tmp/ccGtGfPv.s 			page 20


 256      E4
 257 065f 2223AB95 		.ascii	"\"#\253\2251\212_d05\030\363\377\000CF\321\233"
 257      318A5F64 
 257      303518F3 
 257      FF004346 
 257      D19B
 258              		.text
 259              		.section	.gnu.lto_.symtab.f34daf984d137dbe,"",%progbits
 260 0000 5F636F72 		.ascii	"_core_init\000\000\000\000\000\000\000\000\000\000\000"
 260      655F696E 
 260      69740000 
 260      00000000 
 260      00000000 
 261 0015 00A10000 		.ascii	"\000\241\000\000\000ch_memcore\000\000\000\000\000\000"
 261      0063685F 
 261      6D656D63 
 261      6F726500 
 261      00000000 
 262 002a 00000000 		.ascii	"\000\000\000\000\000\000\300\000\000\000chCoreAlloc"
 262      0000C000 
 262      00006368 
 262      436F7265 
 262      416C6C6F 
 263 003f 416C6967 		.ascii	"AlignedWithOffsetI\000\000\000\000\000\000\000\000\000"
 263      6E656457 
 263      6974684F 
 263      66667365 
 263      74490000 
 264 005a 000000A6 		.ascii	"\000\000\000\246\000\000\000chCoreAllocAlignedWithO"
 264      00000063 
 264      68436F72 
 264      65416C6C 
 264      6F63416C 
 265 0078 66667365 		.ascii	"ffset\000\000\000\000\000\000\000\000\000\000\000\000"
 265      74000000 
 265      00000000 
 265      00000000 
 265      00
 266 0089 B6000000 		.ascii	"\266\000\000\000chCoreGetStatusX\000\000\000\000\000"
 266      6368436F 
 266      72654765 
 266      74537461 
 266      74757358 
 267 00a2 00000000 		.ascii	"\000\000\000\000\000\000\000\274\000\000\000__heap_"
 267      000000BC 
 267      0000005F 
 267      5F686561 
 267      705F
 268 00b4 62617365 		.ascii	"base__\000\000\002\000\000\000\000\000\000\000\000\000"
 268      5F5F0000 
 268      02000000 
 268      00000000 
 268      0000
 269 00c6 CF000000 		.ascii	"\317\000\000\000__heap_end__\000\000\002\000\000\000"
 269      5F5F6865 
 269      61705F65 
 269      6E645F5F 
ARM GAS  /tmp/ccGtGfPv.s 			page 21


 269      00000200 
 270 00dc 00000000 		.ascii	"\000\000\000\000\000\000\322\000\000\000"
 270      0000D200 
 270      0000
 271              		.text
 272              		.section	.gnu.lto_.opts,"",%progbits
 273 0000 272D6D63 		.ascii	"'-mcpu=cortex-m3' '-mno-thumb-interwork' '-mthumb' "
 273      70753D63 
 273      6F727465 
 273      782D6D33 
 273      2720272D 
 274 0033 272D6767 		.ascii	"'-ggdb' '-O2' '-fomit-frame-pointer' '-falign-funct"
 274      64622720 
 274      272D4F32 
 274      2720272D 
 274      666F6D69 
 275 0066 696F6E73 		.ascii	"ions=16' '-ffunction-sections' '-fdata-sections' '-"
 275      3D313627 
 275      20272D66 
 275      66756E63 
 275      74696F6E 
 276 0099 666E6F2D 		.ascii	"fno-common' '-flto'\000"
 276      636F6D6D 
 276      6F6E2720 
 276      272D666C 
 276      746F2700 
 277              		.text
 278              		.cfi_sections	.debug_frame
 279              		.section	.text._core_init,"ax",%progbits
 280              		.align	2
 281              		.p2align 4,,15
 282              		.global	_core_init
 283              		.thumb
 284              		.thumb_func
 285              		.type	_core_init, %function
 286              	_core_init:
 287              	.LFB188:
 288              		.file 1 "../../../os/common/oslib/src/chmemcore.c"
 289              		.loc 1 81 0
 290              		.cfi_startproc
 291              		@ args = 0, pretend = 0, frame = 0
 292              		@ frame_needed = 0, uses_anonymous_args = 0
 293              		@ link register save eliminated.
 294              		.loc 1 87 0
 295 0000 40F20003 		movw	r3, #:lower16:.LANCHOR0
 296 0004 40F20001 		movw	r1, #:lower16:__heap_base__
 297              		.loc 1 88 0
 298 0008 40F20002 		movw	r2, #:lower16:__heap_end__
 299              		.loc 1 87 0
 300 000c C0F20003 		movt	r3, #:upper16:.LANCHOR0
 301 0010 C0F20001 		movt	r1, #:upper16:__heap_base__
 302              		.loc 1 88 0
 303 0014 C0F20002 		movt	r2, #:upper16:__heap_end__
 304 0018 83E80600 		stmia	r3, {r1, r2}
 305 001c 7047     		bx	lr
 306              		.cfi_endproc
 307              	.LFE188:
ARM GAS  /tmp/ccGtGfPv.s 			page 22


 308              		.size	_core_init, .-_core_init
 309 001e 00BF     		.section	.text.chCoreAllocAlignedWithOffsetI,"ax",%progbits
 310              		.align	2
 311              		.p2align 4,,15
 312              		.global	chCoreAllocAlignedWithOffsetI
 313              		.thumb
 314              		.thumb_func
 315              		.type	chCoreAllocAlignedWithOffsetI, %function
 316              	chCoreAllocAlignedWithOffsetI:
 317              	.LFB189:
 318              		.loc 1 114 0
 319              		.cfi_startproc
 320              		@ args = 0, pretend = 0, frame = 0
 321              		@ frame_needed = 0, uses_anonymous_args = 0
 322              		@ link register save eliminated.
 323              	.LVL0:
 324              		.loc 1 121 0
 325 0000 40F20003 		movw	r3, #:lower16:.LANCHOR0
 326 0004 C0F20003 		movt	r3, #:upper16:.LANCHOR0
 327              		.loc 1 114 0
 328 0008 30B4     		push	{r4, r5}
 329              		.cfi_def_cfa_offset 8
 330              		.cfi_offset 4, -8
 331              		.cfi_offset 5, -4
 332              		.loc 1 121 0
 333 000a 1C68     		ldr	r4, [r3]
 334              		.loc 1 120 0
 335 000c 0138     		subs	r0, r0, #1
 336              	.LVL1:
 337              		.loc 1 121 0
 338 000e 2244     		add	r2, r2, r4
 339              	.LVL2:
 340 0010 013A     		subs	r2, r2, #1
 341              		.loc 1 120 0
 342 0012 4518     		adds	r5, r0, r1
 343              		.loc 1 121 0
 344 0014 5018     		adds	r0, r2, r1
 345              	.LVL3:
 346              		.loc 1 120 0
 347 0016 4942     		negs	r1, r1
 348              	.LVL4:
 349              		.loc 1 121 0
 350 0018 0840     		ands	r0, r0, r1
 351              	.LVL5:
 352              		.loc 1 125 0
 353 001a 5A68     		ldr	r2, [r3, #4]
 354              		.loc 1 120 0
 355 001c 2940     		ands	r1, r1, r5
 356              	.LVL6:
 357              		.loc 1 122 0
 358 001e 0144     		add	r1, r1, r0
 359              	.LVL7:
 360              		.loc 1 125 0
 361 0020 9142     		cmp	r1, r2
 362 0022 04D8     		bhi	.L5
 363              		.loc 1 125 0 is_stmt 0 discriminator 1
 364 0024 8C42     		cmp	r4, r1
ARM GAS  /tmp/ccGtGfPv.s 			page 23


 365 0026 02D8     		bhi	.L5
 366              		.loc 1 132 0 is_stmt 1
 367 0028 30BC     		pop	{r4, r5}
 368              	.LVL8:
 369              		.loc 1 129 0
 370 002a 1960     		str	r1, [r3]
 371              		.loc 1 132 0
 372 002c 7047     		bx	lr
 373              	.LVL9:
 374              	.L5:
 375              		.loc 1 126 0
 376 002e 0020     		movs	r0, #0
 377              	.LVL10:
 378              		.loc 1 132 0
 379 0030 30BC     		pop	{r4, r5}
 380              	.LVL11:
 381 0032 7047     		bx	lr
 382              		.cfi_endproc
 383              	.LFE189:
 384              		.size	chCoreAllocAlignedWithOffsetI, .-chCoreAllocAlignedWithOffsetI
 385 0034 AFF30080 		.section	.text.chCoreAllocAlignedWithOffset,"ax",%progbits
 385      AFF30080 
 385      AFF30080 
 386              		.align	2
 387              		.p2align 4,,15
 388              		.global	chCoreAllocAlignedWithOffset
 389              		.thumb
 390              		.thumb_func
 391              		.type	chCoreAllocAlignedWithOffset, %function
 392              	chCoreAllocAlignedWithOffset:
 393              	.LFB190:
 394              		.loc 1 150 0
 395              		.cfi_startproc
 396              		@ args = 0, pretend = 0, frame = 0
 397              		@ frame_needed = 0, uses_anonymous_args = 0
 398              		@ link register save eliminated.
 399              	.LVL12:
 400 0000 30B4     		push	{r4, r5}
 401              		.cfi_def_cfa_offset 8
 402              		.cfi_offset 4, -8
 403              		.cfi_offset 5, -4
 404              	.LBB26:
 405              	.LBB27:
 406              	.LBB28:
 407              	.LBB29:
 408              		.file 2 "../../../os/common/ext/CMSIS/include/cmsis_gcc.h"
 409              		.loc 2 264 0
 410 0002 2023     		movs	r3, #32
 411              	@ 264 "../../../os/common/ext/CMSIS/include/cmsis_gcc.h" 1
 412 0004 83F31188 		MSR basepri, r3
 413              	@ 0 "" 2
 414              	.LVL13:
 415              		.thumb
 416              	.LBE29:
 417              	.LBE28:
 418              	.LBE27:
 419              	.LBE26:
ARM GAS  /tmp/ccGtGfPv.s 			page 24


 420              	.LBB30:
 421              	.LBB31:
 422              		.loc 1 121 0
 423 0008 40F20003 		movw	r3, #:lower16:.LANCHOR0
 424 000c C0F20003 		movt	r3, #:upper16:.LANCHOR0
 425 0010 1D68     		ldr	r5, [r3]
 426              		.loc 1 120 0
 427 0012 4C1E     		subs	r4, r1, #1
 428              		.loc 1 121 0
 429 0014 2A44     		add	r2, r2, r5
 430              	.LVL14:
 431 0016 2244     		add	r2, r2, r4
 432              		.loc 1 120 0
 433 0018 4942     		negs	r1, r1
 434              	.LVL15:
 435 001a 0444     		add	r4, r4, r0
 436              	.LVL16:
 437              		.loc 1 121 0
 438 001c 02EA0100 		and	r0, r2, r1
 439              	.LVL17:
 440              		.loc 1 120 0
 441 0020 2140     		ands	r1, r1, r4
 442              	.LVL18:
 443              		.loc 1 125 0
 444 0022 5A68     		ldr	r2, [r3, #4]
 445              		.loc 1 122 0
 446 0024 0144     		add	r1, r1, r0
 447              	.LVL19:
 448              		.loc 1 125 0
 449 0026 9142     		cmp	r1, r2
 450 0028 07D8     		bhi	.L10
 451 002a 8D42     		cmp	r5, r1
 452 002c 05D8     		bhi	.L10
 453              		.loc 1 129 0
 454 002e 1960     		str	r1, [r3]
 455              	.LVL20:
 456              	.LBE31:
 457              	.LBE30:
 458              	.LBB33:
 459              	.LBB34:
 460              	.LBB35:
 461              	.LBB36:
 462              	.LBB37:
 463              		.loc 2 264 0
 464 0030 0023     		movs	r3, #0
 465              	@ 264 "../../../os/common/ext/CMSIS/include/cmsis_gcc.h" 1
 466 0032 83F31188 		MSR basepri, r3
 467              	@ 0 "" 2
 468              		.thumb
 469              	.LBE37:
 470              	.LBE36:
 471              	.LBE35:
 472              	.LBE34:
 473              	.LBE33:
 474              		.loc 1 158 0
 475 0036 30BC     		pop	{r4, r5}
 476 0038 7047     		bx	lr
ARM GAS  /tmp/ccGtGfPv.s 			page 25


 477              	.LVL21:
 478              	.L10:
 479              	.LBB42:
 480              	.LBB32:
 481              		.loc 1 126 0
 482 003a 0020     		movs	r0, #0
 483              	.LVL22:
 484              	.LBE32:
 485              	.LBE42:
 486              	.LBB43:
 487              	.LBB41:
 488              	.LBB40:
 489              	.LBB39:
 490              	.LBB38:
 491              		.loc 2 264 0
 492 003c 0023     		movs	r3, #0
 493              	@ 264 "../../../os/common/ext/CMSIS/include/cmsis_gcc.h" 1
 494 003e 83F31188 		MSR basepri, r3
 495              	@ 0 "" 2
 496              		.thumb
 497              	.LBE38:
 498              	.LBE39:
 499              	.LBE40:
 500              	.LBE41:
 501              	.LBE43:
 502              		.loc 1 158 0
 503 0042 30BC     		pop	{r4, r5}
 504              	.LVL23:
 505 0044 7047     		bx	lr
 506              		.cfi_endproc
 507              	.LFE190:
 508              		.size	chCoreAllocAlignedWithOffset, .-chCoreAllocAlignedWithOffset
 509 0046 00BFAFF3 		.section	.text.chCoreGetStatusX,"ax",%progbits
 509      0080AFF3 
 509      0080
 510              		.align	2
 511              		.p2align 4,,15
 512              		.global	chCoreGetStatusX
 513              		.thumb
 514              		.thumb_func
 515              		.type	chCoreGetStatusX, %function
 516              	chCoreGetStatusX:
 517              	.LFB191:
 518              		.loc 1 167 0
 519              		.cfi_startproc
 520              		@ args = 0, pretend = 0, frame = 0
 521              		@ frame_needed = 0, uses_anonymous_args = 0
 522              		@ link register save eliminated.
 523              		.loc 1 170 0
 524 0000 40F20003 		movw	r3, #:lower16:.LANCHOR0
 525 0004 C0F20003 		movt	r3, #:upper16:.LANCHOR0
 526 0008 5868     		ldr	r0, [r3, #4]
 527 000a 1B68     		ldr	r3, [r3]
 528              		.loc 1 172 0
 529 000c C01A     		subs	r0, r0, r3
 530 000e 7047     		bx	lr
 531              		.cfi_endproc
ARM GAS  /tmp/ccGtGfPv.s 			page 26


 532              	.LFE191:
 533              		.size	chCoreGetStatusX, .-chCoreGetStatusX
 534              		.global	ch_memcore
 535              		.section	.bss.ch_memcore,"aw",%nobits
 536              		.align	2
 537              		.set	.LANCHOR0,. + 0
 538              		.type	ch_memcore, %object
 539              		.size	ch_memcore, 8
 540              	ch_memcore:
 541 0000 00000000 		.space	8
 541      00000000 
 542              		.text
 543              	.Letext0:
 544              		.file 3 "/home/otto/MentorGraphics/Sourcery_CodeBench_Lite_for_ARM_EABI/lib/gcc/arm-none-eabi/4.8.
 545              		.file 4 "/home/otto/MentorGraphics/Sourcery_CodeBench_Lite_for_ARM_EABI/arm-none-eabi/include/stdi
 546              		.file 5 "../../../os/common/ports/ARMCMx/compilers/GCC/chtypes.h"
 547              		.file 6 "../../../os/rt/include/chsystypes.h"
 548              		.file 7 "../../../os/rt/include/chschd.h"
 549              		.file 8 "../../../os/common/ports/ARMCMx/chcore.h"
 550              		.file 9 "../../../os/common/ports/ARMCMx/chcore_v7m.h"
 551              		.file 10 "../../../os/rt/include/chsem.h"
 552              		.file 11 "../../../os/rt/include/chmtx.h"
 553              		.file 12 "../../../os/common/oslib/include/chmemcore.h"
 554              		.file 13 "../../../os/rt/include/chsys.h"
 555              		.file 14 "../../../os/common/ext/CMSIS/include/core_cm3.h"
 556              		.section	.debug_info,"",%progbits
 557              	.Ldebug_info0:
 558 0000 9A080000 		.4byte	0x89a
 559 0004 0400     		.2byte	0x4
 560 0006 00000000 		.4byte	.Ldebug_abbrev0
 561 000a 04       		.byte	0x4
 562 000b 01       		.uleb128 0x1
 563 000c 85020000 		.4byte	.LASF104
 564 0010 01       		.byte	0x1
 565 0011 28050000 		.4byte	.LASF105
 566 0015 17000000 		.4byte	.LASF106
 567 0019 30000000 		.4byte	.Ldebug_ranges0+0x30
 568 001d 00000000 		.4byte	0
 569 0021 00000000 		.4byte	.Ldebug_line0
 570 0025 02       		.uleb128 0x2
 571 0026 04       		.byte	0x4
 572 0027 05       		.byte	0x5
 573 0028 696E7400 		.ascii	"int\000"
 574 002c 03       		.uleb128 0x3
 575 002d 61020000 		.4byte	.LASF2
 576 0031 03       		.byte	0x3
 577 0032 D4       		.byte	0xd4
 578 0033 37000000 		.4byte	0x37
 579 0037 04       		.uleb128 0x4
 580 0038 04       		.byte	0x4
 581 0039 07       		.byte	0x7
 582 003a A0000000 		.4byte	.LASF0
 583 003e 04       		.uleb128 0x4
 584 003f 01       		.byte	0x1
 585 0040 06       		.byte	0x6
 586 0041 E9040000 		.4byte	.LASF1
 587 0045 03       		.uleb128 0x3
ARM GAS  /tmp/ccGtGfPv.s 			page 27


 588 0046 6D030000 		.4byte	.LASF3
 589 004a 04       		.byte	0x4
 590 004b 2A       		.byte	0x2a
 591 004c 50000000 		.4byte	0x50
 592 0050 04       		.uleb128 0x4
 593 0051 01       		.byte	0x1
 594 0052 08       		.byte	0x8
 595 0053 A5040000 		.4byte	.LASF4
 596 0057 04       		.uleb128 0x4
 597 0058 02       		.byte	0x2
 598 0059 05       		.byte	0x5
 599 005a F1030000 		.4byte	.LASF5
 600 005e 03       		.uleb128 0x3
 601 005f DD030000 		.4byte	.LASF6
 602 0063 04       		.byte	0x4
 603 0064 36       		.byte	0x36
 604 0065 69000000 		.4byte	0x69
 605 0069 04       		.uleb128 0x4
 606 006a 02       		.byte	0x2
 607 006b 07       		.byte	0x7
 608 006c FB040000 		.4byte	.LASF7
 609 0070 03       		.uleb128 0x3
 610 0071 88040000 		.4byte	.LASF8
 611 0075 04       		.byte	0x4
 612 0076 4F       		.byte	0x4f
 613 0077 7B000000 		.4byte	0x7b
 614 007b 04       		.uleb128 0x4
 615 007c 04       		.byte	0x4
 616 007d 05       		.byte	0x5
 617 007e FB030000 		.4byte	.LASF9
 618 0082 03       		.uleb128 0x3
 619 0083 62010000 		.4byte	.LASF10
 620 0087 04       		.byte	0x4
 621 0088 50       		.byte	0x50
 622 0089 8D000000 		.4byte	0x8d
 623 008d 04       		.uleb128 0x4
 624 008e 04       		.byte	0x4
 625 008f 07       		.byte	0x7
 626 0090 63040000 		.4byte	.LASF11
 627 0094 04       		.uleb128 0x4
 628 0095 08       		.byte	0x8
 629 0096 05       		.byte	0x5
 630 0097 97030000 		.4byte	.LASF12
 631 009b 03       		.uleb128 0x3
 632 009c 3E040000 		.4byte	.LASF13
 633 00a0 04       		.byte	0x4
 634 00a1 78       		.byte	0x78
 635 00a2 A6000000 		.4byte	0xa6
 636 00a6 04       		.uleb128 0x4
 637 00a7 08       		.byte	0x8
 638 00a8 07       		.byte	0x7
 639 00a9 DB010000 		.4byte	.LASF14
 640 00ad 03       		.uleb128 0x3
 641 00ae CA030000 		.4byte	.LASF15
 642 00b2 05       		.byte	0x5
 643 00b3 3C       		.byte	0x3c
 644 00b4 45000000 		.4byte	0x45
ARM GAS  /tmp/ccGtGfPv.s 			page 28


 645 00b8 03       		.uleb128 0x3
 646 00b9 64030000 		.4byte	.LASF16
 647 00bd 05       		.byte	0x5
 648 00be 3D       		.byte	0x3d
 649 00bf 45000000 		.4byte	0x45
 650 00c3 03       		.uleb128 0x3
 651 00c4 5B040000 		.4byte	.LASF17
 652 00c8 05       		.byte	0x5
 653 00c9 3E       		.byte	0x3e
 654 00ca 45000000 		.4byte	0x45
 655 00ce 03       		.uleb128 0x3
 656 00cf 9A010000 		.4byte	.LASF18
 657 00d3 05       		.byte	0x5
 658 00d4 40       		.byte	0x40
 659 00d5 82000000 		.4byte	0x82
 660 00d9 03       		.uleb128 0x3
 661 00da A5030000 		.4byte	.LASF19
 662 00de 05       		.byte	0x5
 663 00df 41       		.byte	0x41
 664 00e0 70000000 		.4byte	0x70
 665 00e4 03       		.uleb128 0x3
 666 00e5 73010000 		.4byte	.LASF20
 667 00e9 05       		.byte	0x5
 668 00ea 43       		.byte	0x43
 669 00eb 82000000 		.4byte	0x82
 670 00ef 03       		.uleb128 0x3
 671 00f0 F2010000 		.4byte	.LASF21
 672 00f4 05       		.byte	0x5
 673 00f5 45       		.byte	0x45
 674 00f6 70000000 		.4byte	0x70
 675 00fa 03       		.uleb128 0x3
 676 00fb 84000000 		.4byte	.LASF22
 677 00ff 06       		.byte	0x6
 678 0100 35       		.byte	0x35
 679 0101 5E000000 		.4byte	0x5e
 680 0105 03       		.uleb128 0x3
 681 0106 3F020000 		.4byte	.LASF23
 682 010a 06       		.byte	0x6
 683 010b 3F       		.byte	0x3f
 684 010c 10010000 		.4byte	0x110
 685 0110 05       		.uleb128 0x5
 686 0111 7E030000 		.4byte	.LASF41
 687 0115 44       		.byte	0x44
 688 0116 07       		.byte	0x7
 689 0117 9A       		.byte	0x9a
 690 0118 EE010000 		.4byte	0x1ee
 691 011c 06       		.uleb128 0x6
 692 011d 82040000 		.4byte	.LASF24
 693 0121 07       		.byte	0x7
 694 0122 9B       		.byte	0x9b
 695 0123 23020000 		.4byte	0x223
 696 0127 00       		.byte	0
 697 0128 06       		.uleb128 0x6
 698 0129 32030000 		.4byte	.LASF25
 699 012d 07       		.byte	0x7
 700 012e 9C       		.byte	0x9c
 701 012f CE000000 		.4byte	0xce
ARM GAS  /tmp/ccGtGfPv.s 			page 29


 702 0133 08       		.byte	0x8
 703 0134 07       		.uleb128 0x7
 704 0135 63747800 		.ascii	"ctx\000"
 705 0139 07       		.byte	0x7
 706 013a 9D       		.byte	0x9d
 707 013b 0F040000 		.4byte	0x40f
 708 013f 0C       		.byte	0xc
 709 0140 06       		.uleb128 0x6
 710 0141 9F040000 		.4byte	.LASF26
 711 0145 07       		.byte	0x7
 712 0146 9F       		.byte	0x9f
 713 0147 F9010000 		.4byte	0x1f9
 714 014b 10       		.byte	0x10
 715 014c 06       		.uleb128 0x6
 716 014d 63050000 		.4byte	.LASF27
 717 0151 07       		.byte	0x7
 718 0152 A0       		.byte	0xa0
 719 0153 F9010000 		.4byte	0x1f9
 720 0157 14       		.byte	0x14
 721 0158 06       		.uleb128 0x6
 722 0159 4D040000 		.4byte	.LASF28
 723 015d 07       		.byte	0x7
 724 015e A7       		.byte	0xa7
 725 015f 74050000 		.4byte	0x574
 726 0163 18       		.byte	0x18
 727 0164 06       		.uleb128 0x6
 728 0165 4F030000 		.4byte	.LASF29
 729 0169 07       		.byte	0x7
 730 016a B0       		.byte	0xb0
 731 016b 86050000 		.4byte	0x586
 732 016f 1C       		.byte	0x1c
 733 0170 06       		.uleb128 0x6
 734 0171 D1040000 		.4byte	.LASF30
 735 0175 07       		.byte	0x7
 736 0176 B5       		.byte	0xb5
 737 0177 B8000000 		.4byte	0xb8
 738 017b 20       		.byte	0x20
 739 017c 06       		.uleb128 0x6
 740 017d 7E000000 		.4byte	.LASF31
 741 0181 07       		.byte	0x7
 742 0182 B9       		.byte	0xb9
 743 0183 AD000000 		.4byte	0xad
 744 0187 21       		.byte	0x21
 745 0188 06       		.uleb128 0x6
 746 0189 C1000000 		.4byte	.LASF32
 747 018d 07       		.byte	0x7
 748 018e BE       		.byte	0xbe
 749 018f C3000000 		.4byte	0xc3
 750 0193 22       		.byte	0x22
 751 0194 08       		.uleb128 0x8
 752 0195 7500     		.ascii	"u\000"
 753 0197 07       		.byte	0x7
 754 0198 0F01     		.2byte	0x10f
 755 019a A9040000 		.4byte	0x4a9
 756 019e 24       		.byte	0x24
 757 019f 09       		.uleb128 0x9
 758 01a0 B3040000 		.4byte	.LASF33
ARM GAS  /tmp/ccGtGfPv.s 			page 30


 759 01a4 07       		.byte	0x7
 760 01a5 1401     		.2byte	0x114
 761 01a7 FF010000 		.4byte	0x1ff
 762 01ab 28       		.byte	0x28
 763 01ac 09       		.uleb128 0x9
 764 01ad 75030000 		.4byte	.LASF34
 765 01b1 07       		.byte	0x7
 766 01b2 1A01     		.2byte	0x11a
 767 01b4 23020000 		.4byte	0x223
 768 01b8 2C       		.byte	0x2c
 769 01b9 09       		.uleb128 0x9
 770 01ba 97000000 		.4byte	.LASF35
 771 01be 07       		.byte	0x7
 772 01bf 2001     		.2byte	0x120
 773 01c1 E4000000 		.4byte	0xe4
 774 01c5 34       		.byte	0x34
 775 01c6 09       		.uleb128 0x9
 776 01c7 20020000 		.4byte	.LASF36
 777 01cb 07       		.byte	0x7
 778 01cc 2701     		.2byte	0x127
 779 01ce 6E050000 		.4byte	0x56e
 780 01d2 38       		.byte	0x38
 781 01d3 09       		.uleb128 0x9
 782 01d4 8E000000 		.4byte	.LASF37
 783 01d8 07       		.byte	0x7
 784 01d9 2B01     		.2byte	0x12b
 785 01db CE000000 		.4byte	0xce
 786 01df 3C       		.byte	0x3c
 787 01e0 09       		.uleb128 0x9
 788 01e1 87050000 		.4byte	.LASF38
 789 01e5 07       		.byte	0x7
 790 01e6 3201     		.2byte	0x132
 791 01e8 D6020000 		.4byte	0x2d6
 792 01ec 40       		.byte	0x40
 793 01ed 00       		.byte	0
 794 01ee 03       		.uleb128 0x3
 795 01ef 3C030000 		.4byte	.LASF39
 796 01f3 06       		.byte	0x6
 797 01f4 44       		.byte	0x44
 798 01f5 F9010000 		.4byte	0x1f9
 799 01f9 0A       		.uleb128 0xa
 800 01fa 04       		.byte	0x4
 801 01fb 05010000 		.4byte	0x105
 802 01ff 03       		.uleb128 0x3
 803 0200 B2000000 		.4byte	.LASF40
 804 0204 06       		.byte	0x6
 805 0205 49       		.byte	0x49
 806 0206 0A020000 		.4byte	0x20a
 807 020a 05       		.uleb128 0x5
 808 020b 00000000 		.4byte	.LASF42
 809 020f 04       		.byte	0x4
 810 0210 07       		.byte	0x7
 811 0211 88       		.byte	0x88
 812 0212 23020000 		.4byte	0x223
 813 0216 06       		.uleb128 0x6
 814 0217 AD000000 		.4byte	.LASF43
 815 021b 07       		.byte	0x7
ARM GAS  /tmp/ccGtGfPv.s 			page 31


 816 021c 89       		.byte	0x89
 817 021d F9010000 		.4byte	0x1f9
 818 0221 00       		.byte	0
 819 0222 00       		.byte	0
 820 0223 03       		.uleb128 0x3
 821 0224 0A020000 		.4byte	.LASF44
 822 0228 06       		.byte	0x6
 823 0229 50       		.byte	0x50
 824 022a 2E020000 		.4byte	0x22e
 825 022e 05       		.uleb128 0x5
 826 022f 27010000 		.4byte	.LASF45
 827 0233 08       		.byte	0x8
 828 0234 07       		.byte	0x7
 829 0235 8F       		.byte	0x8f
 830 0236 53020000 		.4byte	0x253
 831 023a 06       		.uleb128 0x6
 832 023b AD000000 		.4byte	.LASF43
 833 023f 07       		.byte	0x7
 834 0240 90       		.byte	0x90
 835 0241 F9010000 		.4byte	0x1f9
 836 0245 00       		.byte	0
 837 0246 06       		.uleb128 0x6
 838 0247 22010000 		.4byte	.LASF46
 839 024b 07       		.byte	0x7
 840 024c 91       		.byte	0x91
 841 024d F9010000 		.4byte	0x1f9
 842 0251 04       		.byte	0x4
 843 0252 00       		.byte	0
 844 0253 03       		.uleb128 0x3
 845 0254 75040000 		.4byte	.LASF47
 846 0258 06       		.byte	0x6
 847 0259 57       		.byte	0x57
 848 025a 5E020000 		.4byte	0x25e
 849 025e 0B       		.uleb128 0xb
 850 025f 08010000 		.4byte	.LASF48
 851 0263 1C       		.byte	0x1c
 852 0264 07       		.byte	0x7
 853 0265 6A01     		.2byte	0x16a
 854 0267 BA020000 		.4byte	0x2ba
 855 026b 09       		.uleb128 0x9
 856 026c 82040000 		.4byte	.LASF24
 857 0270 07       		.byte	0x7
 858 0271 6B01     		.2byte	0x16b
 859 0273 23020000 		.4byte	0x223
 860 0277 00       		.byte	0
 861 0278 09       		.uleb128 0x9
 862 0279 32030000 		.4byte	.LASF25
 863 027d 07       		.byte	0x7
 864 027e 6C01     		.2byte	0x16c
 865 0280 CE000000 		.4byte	0xce
 866 0284 08       		.byte	0x8
 867 0285 08       		.uleb128 0x8
 868 0286 63747800 		.ascii	"ctx\000"
 869 028a 07       		.byte	0x7
 870 028b 6E01     		.2byte	0x16e
 871 028d 0F040000 		.4byte	0x40f
 872 0291 0C       		.byte	0xc
ARM GAS  /tmp/ccGtGfPv.s 			page 32


 873 0292 09       		.uleb128 0x9
 874 0293 9F040000 		.4byte	.LASF26
 875 0297 07       		.byte	0x7
 876 0298 7101     		.2byte	0x171
 877 029a F9010000 		.4byte	0x1f9
 878 029e 10       		.byte	0x10
 879 029f 09       		.uleb128 0x9
 880 02a0 63050000 		.4byte	.LASF27
 881 02a4 07       		.byte	0x7
 882 02a5 7201     		.2byte	0x172
 883 02a7 F9010000 		.4byte	0x1f9
 884 02ab 14       		.byte	0x14
 885 02ac 09       		.uleb128 0x9
 886 02ad 20050000 		.4byte	.LASF49
 887 02b1 07       		.byte	0x7
 888 02b2 7501     		.2byte	0x175
 889 02b4 F9010000 		.4byte	0x1f9
 890 02b8 18       		.byte	0x18
 891 02b9 00       		.byte	0
 892 02ba 03       		.uleb128 0x3
 893 02bb 38010000 		.4byte	.LASF50
 894 02bf 06       		.byte	0x6
 895 02c0 5C       		.byte	0x5c
 896 02c1 C5020000 		.4byte	0x2c5
 897 02c5 0A       		.uleb128 0xa
 898 02c6 04       		.byte	0x4
 899 02c7 CB020000 		.4byte	0x2cb
 900 02cb 0C       		.uleb128 0xc
 901 02cc D6020000 		.4byte	0x2d6
 902 02d0 0D       		.uleb128 0xd
 903 02d1 D6020000 		.4byte	0x2d6
 904 02d5 00       		.byte	0
 905 02d6 0E       		.uleb128 0xe
 906 02d7 04       		.byte	0x4
 907 02d8 03       		.uleb128 0x3
 908 02d9 AB030000 		.4byte	.LASF51
 909 02dd 06       		.byte	0x6
 910 02de 61       		.byte	0x61
 911 02df E3020000 		.4byte	0x2e3
 912 02e3 0B       		.uleb128 0xb
 913 02e4 A2010000 		.4byte	.LASF52
 914 02e8 14       		.byte	0x14
 915 02e9 07       		.byte	0x7
 916 02ea 4501     		.2byte	0x145
 917 02ec 32030000 		.4byte	0x332
 918 02f0 09       		.uleb128 0x9
 919 02f1 AD000000 		.4byte	.LASF43
 920 02f5 07       		.byte	0x7
 921 02f6 4601     		.2byte	0x146
 922 02f8 8C050000 		.4byte	0x58c
 923 02fc 00       		.byte	0
 924 02fd 09       		.uleb128 0x9
 925 02fe 22010000 		.4byte	.LASF46
 926 0302 07       		.byte	0x7
 927 0303 4701     		.2byte	0x147
 928 0305 8C050000 		.4byte	0x58c
 929 0309 04       		.byte	0x4
ARM GAS  /tmp/ccGtGfPv.s 			page 33


 930 030a 09       		.uleb128 0x9
 931 030b F5040000 		.4byte	.LASF53
 932 030f 07       		.byte	0x7
 933 0310 4801     		.2byte	0x148
 934 0312 FA000000 		.4byte	0xfa
 935 0316 08       		.byte	0x8
 936 0317 09       		.uleb128 0x9
 937 0318 16010000 		.4byte	.LASF54
 938 031c 07       		.byte	0x7
 939 031d 4901     		.2byte	0x149
 940 031f BA020000 		.4byte	0x2ba
 941 0323 0C       		.byte	0xc
 942 0324 08       		.uleb128 0x8
 943 0325 70617200 		.ascii	"par\000"
 944 0329 07       		.byte	0x7
 945 032a 4B01     		.2byte	0x14b
 946 032c D6020000 		.4byte	0x2d6
 947 0330 10       		.byte	0x10
 948 0331 00       		.byte	0
 949 0332 03       		.uleb128 0x3
 950 0333 BB040000 		.4byte	.LASF55
 951 0337 06       		.byte	0x6
 952 0338 66       		.byte	0x66
 953 0339 3D030000 		.4byte	0x33d
 954 033d 0B       		.uleb128 0xb
 955 033e 28020000 		.4byte	.LASF56
 956 0342 0C       		.byte	0xc
 957 0343 07       		.byte	0x7
 958 0344 5501     		.2byte	0x155
 959 0346 7F030000 		.4byte	0x37f
 960 034a 09       		.uleb128 0x9
 961 034b AD000000 		.4byte	.LASF43
 962 034f 07       		.byte	0x7
 963 0350 5601     		.2byte	0x156
 964 0352 8C050000 		.4byte	0x58c
 965 0356 00       		.byte	0
 966 0357 09       		.uleb128 0x9
 967 0358 22010000 		.4byte	.LASF46
 968 035c 07       		.byte	0x7
 969 035d 5801     		.2byte	0x158
 970 035f 8C050000 		.4byte	0x58c
 971 0363 04       		.byte	0x4
 972 0364 09       		.uleb128 0x9
 973 0365 F5040000 		.4byte	.LASF53
 974 0369 07       		.byte	0x7
 975 036a 5A01     		.2byte	0x15a
 976 036c FA000000 		.4byte	0xfa
 977 0370 08       		.byte	0x8
 978 0371 09       		.uleb128 0x9
 979 0372 35040000 		.4byte	.LASF57
 980 0376 07       		.byte	0x7
 981 0377 6201     		.2byte	0x162
 982 0379 FA000000 		.4byte	0xfa
 983 037d 0A       		.byte	0xa
 984 037e 00       		.byte	0
 985 037f 03       		.uleb128 0x3
 986 0380 88030000 		.4byte	.LASF58
ARM GAS  /tmp/ccGtGfPv.s 			page 34


 987 0384 06       		.byte	0x6
 988 0385 6B       		.byte	0x6b
 989 0386 8A030000 		.4byte	0x38a
 990 038a 0B       		.uleb128 0xb
 991 038b 52010000 		.4byte	.LASF59
 992 038f 04       		.byte	0x4
 993 0390 07       		.byte	0x7
 994 0391 7C01     		.2byte	0x17c
 995 0393 A5030000 		.4byte	0x3a5
 996 0397 09       		.uleb128 0x9
 997 0398 C0030000 		.4byte	.LASF60
 998 039c 07       		.byte	0x7
 999 039d 8401     		.2byte	0x184
 1000 039f 92050000 		.4byte	0x592
 1001 03a3 00       		.byte	0
 1002 03a4 00       		.byte	0
 1003 03a5 03       		.uleb128 0x3
 1004 03a6 D7040000 		.4byte	.LASF61
 1005 03aa 06       		.byte	0x6
 1006 03ab 70       		.byte	0x70
 1007 03ac B0030000 		.4byte	0x3b0
 1008 03b0 0B       		.uleb128 0xb
 1009 03b1 1D040000 		.4byte	.LASF62
 1010 03b5 70       		.byte	0x70
 1011 03b6 07       		.byte	0x7
 1012 03b7 9C01     		.2byte	0x19c
 1013 03b9 F2030000 		.4byte	0x3f2
 1014 03bd 09       		.uleb128 0x9
 1015 03be 47040000 		.4byte	.LASF63
 1016 03c2 07       		.byte	0x7
 1017 03c3 A001     		.2byte	0x1a0
 1018 03c5 53020000 		.4byte	0x253
 1019 03c9 00       		.byte	0
 1020 03ca 09       		.uleb128 0x9
 1021 03cb F4000000 		.4byte	.LASF64
 1022 03cf 07       		.byte	0x7
 1023 03d0 A401     		.2byte	0x1a4
 1024 03d2 32030000 		.4byte	0x332
 1025 03d6 1C       		.byte	0x1c
 1026 03d7 08       		.uleb128 0x8
 1027 03d8 64626700 		.ascii	"dbg\000"
 1028 03dc 07       		.byte	0x7
 1029 03dd A801     		.2byte	0x1a8
 1030 03df 7F030000 		.4byte	0x37f
 1031 03e3 28       		.byte	0x28
 1032 03e4 09       		.uleb128 0x9
 1033 03e5 D2030000 		.4byte	.LASF65
 1034 03e9 07       		.byte	0x7
 1035 03ea AC01     		.2byte	0x1ac
 1036 03ec 05010000 		.4byte	0x105
 1037 03f0 2C       		.byte	0x2c
 1038 03f1 00       		.byte	0
 1039 03f2 04       		.uleb128 0x4
 1040 03f3 04       		.byte	0x4
 1041 03f4 07       		.byte	0x7
 1042 03f5 52040000 		.4byte	.LASF66
 1043 03f9 03       		.uleb128 0x3
ARM GAS  /tmp/ccGtGfPv.s 			page 35


 1044 03fa 75000000 		.4byte	.LASF67
 1045 03fe 08       		.byte	0x8
 1046 03ff 65       		.byte	0x65
 1047 0400 D6020000 		.4byte	0x2d6
 1048 0404 03       		.uleb128 0x3
 1049 0405 0E050000 		.4byte	.LASF68
 1050 0409 08       		.byte	0x8
 1051 040a 6D       		.byte	0x6d
 1052 040b 9B000000 		.4byte	0x9b
 1053 040f 05       		.uleb128 0x5
 1054 0410 FB000000 		.4byte	.LASF69
 1055 0414 04       		.byte	0x4
 1056 0415 08       		.byte	0x8
 1057 0416 89       		.byte	0x89
 1058 0417 27040000 		.4byte	0x427
 1059 041b 07       		.uleb128 0x7
 1060 041c 737000   		.ascii	"sp\000"
 1061 041f 08       		.byte	0x8
 1062 0420 8A       		.byte	0x8a
 1063 0421 A3040000 		.4byte	0x4a3
 1064 0425 00       		.byte	0
 1065 0426 00       		.byte	0
 1066 0427 0B       		.uleb128 0xb
 1067 0428 04040000 		.4byte	.LASF70
 1068 042c 24       		.byte	0x24
 1069 042d 09       		.byte	0x9
 1070 042e 5901     		.2byte	0x159
 1071 0430 A3040000 		.4byte	0x4a3
 1072 0434 08       		.uleb128 0x8
 1073 0435 723400   		.ascii	"r4\000"
 1074 0438 09       		.byte	0x9
 1075 0439 6C01     		.2byte	0x16c
 1076 043b F9030000 		.4byte	0x3f9
 1077 043f 00       		.byte	0
 1078 0440 08       		.uleb128 0x8
 1079 0441 723500   		.ascii	"r5\000"
 1080 0444 09       		.byte	0x9
 1081 0445 6D01     		.2byte	0x16d
 1082 0447 F9030000 		.4byte	0x3f9
 1083 044b 04       		.byte	0x4
 1084 044c 08       		.uleb128 0x8
 1085 044d 723600   		.ascii	"r6\000"
 1086 0450 09       		.byte	0x9
 1087 0451 6E01     		.2byte	0x16e
 1088 0453 F9030000 		.4byte	0x3f9
 1089 0457 08       		.byte	0x8
 1090 0458 08       		.uleb128 0x8
 1091 0459 723700   		.ascii	"r7\000"
 1092 045c 09       		.byte	0x9
 1093 045d 6F01     		.2byte	0x16f
 1094 045f F9030000 		.4byte	0x3f9
 1095 0463 0C       		.byte	0xc
 1096 0464 08       		.uleb128 0x8
 1097 0465 723800   		.ascii	"r8\000"
 1098 0468 09       		.byte	0x9
 1099 0469 7001     		.2byte	0x170
 1100 046b F9030000 		.4byte	0x3f9
ARM GAS  /tmp/ccGtGfPv.s 			page 36


 1101 046f 10       		.byte	0x10
 1102 0470 08       		.uleb128 0x8
 1103 0471 723900   		.ascii	"r9\000"
 1104 0474 09       		.byte	0x9
 1105 0475 7101     		.2byte	0x171
 1106 0477 F9030000 		.4byte	0x3f9
 1107 047b 14       		.byte	0x14
 1108 047c 08       		.uleb128 0x8
 1109 047d 72313000 		.ascii	"r10\000"
 1110 0481 09       		.byte	0x9
 1111 0482 7201     		.2byte	0x172
 1112 0484 F9030000 		.4byte	0x3f9
 1113 0488 18       		.byte	0x18
 1114 0489 08       		.uleb128 0x8
 1115 048a 72313100 		.ascii	"r11\000"
 1116 048e 09       		.byte	0x9
 1117 048f 7301     		.2byte	0x173
 1118 0491 F9030000 		.4byte	0x3f9
 1119 0495 1C       		.byte	0x1c
 1120 0496 08       		.uleb128 0x8
 1121 0497 6C7200   		.ascii	"lr\000"
 1122 049a 09       		.byte	0x9
 1123 049b 7401     		.2byte	0x174
 1124 049d F9030000 		.4byte	0x3f9
 1125 04a1 20       		.byte	0x20
 1126 04a2 00       		.byte	0
 1127 04a3 0A       		.uleb128 0xa
 1128 04a4 04       		.byte	0x4
 1129 04a5 27040000 		.4byte	0x427
 1130 04a9 0F       		.uleb128 0xf
 1131 04aa 04       		.byte	0x4
 1132 04ab 07       		.byte	0x7
 1133 04ac D2       		.byte	0xd2
 1134 04ad 0C050000 		.4byte	0x50c
 1135 04b1 10       		.uleb128 0x10
 1136 04b2 68020000 		.4byte	.LASF71
 1137 04b6 07       		.byte	0x7
 1138 04b7 D9       		.byte	0xd9
 1139 04b8 D9000000 		.4byte	0xd9
 1140 04bc 10       		.uleb128 0x10
 1141 04bd 71050000 		.4byte	.LASF72
 1142 04c1 07       		.byte	0x7
 1143 04c2 E0       		.byte	0xe0
 1144 04c3 D9000000 		.4byte	0xd9
 1145 04c7 10       		.uleb128 0x10
 1146 04c8 E3000000 		.4byte	.LASF73
 1147 04cc 07       		.byte	0x7
 1148 04cd E7       		.byte	0xe7
 1149 04ce D6020000 		.4byte	0x2d6
 1150 04d2 10       		.uleb128 0x10
 1151 04d3 E3040000 		.4byte	.LASF74
 1152 04d7 07       		.byte	0x7
 1153 04d8 EE       		.byte	0xee
 1154 04d9 0C050000 		.4byte	0x50c
 1155 04dd 10       		.uleb128 0x10
 1156 04de 6B010000 		.4byte	.LASF75
 1157 04e2 07       		.byte	0x7
ARM GAS  /tmp/ccGtGfPv.s 			page 37


 1158 04e3 F3       		.byte	0xf3
 1159 04e4 D9000000 		.4byte	0xd9
 1160 04e8 10       		.uleb128 0x10
 1161 04e9 90040000 		.4byte	.LASF76
 1162 04ed 07       		.byte	0x7
 1163 04ee FC       		.byte	0xfc
 1164 04ef 37050000 		.4byte	0x537
 1165 04f3 11       		.uleb128 0x11
 1166 04f4 10000000 		.4byte	.LASF77
 1167 04f8 07       		.byte	0x7
 1168 04f9 0501     		.2byte	0x105
 1169 04fb 6E050000 		.4byte	0x56e
 1170 04ff 11       		.uleb128 0x11
 1171 0500 1B010000 		.4byte	.LASF78
 1172 0504 07       		.byte	0x7
 1173 0505 0D01     		.2byte	0x10d
 1174 0507 E4000000 		.4byte	0xe4
 1175 050b 00       		.byte	0
 1176 050c 0A       		.uleb128 0xa
 1177 050d 04       		.byte	0x4
 1178 050e EE010000 		.4byte	0x1ee
 1179 0512 05       		.uleb128 0x5
 1180 0513 8D010000 		.4byte	.LASF79
 1181 0517 0C       		.byte	0xc
 1182 0518 0A       		.byte	0xa
 1183 0519 34       		.byte	0x34
 1184 051a 37050000 		.4byte	0x537
 1185 051e 06       		.uleb128 0x6
 1186 051f 82040000 		.4byte	.LASF24
 1187 0523 0A       		.byte	0xa
 1188 0524 35       		.byte	0x35
 1189 0525 23020000 		.4byte	0x223
 1190 0529 00       		.byte	0
 1191 052a 07       		.uleb128 0x7
 1192 052b 636E7400 		.ascii	"cnt\000"
 1193 052f 0A       		.byte	0xa
 1194 0530 37       		.byte	0x37
 1195 0531 EF000000 		.4byte	0xef
 1196 0535 08       		.byte	0x8
 1197 0536 00       		.byte	0
 1198 0537 0A       		.uleb128 0xa
 1199 0538 04       		.byte	0x4
 1200 0539 12050000 		.4byte	0x512
 1201 053d 05       		.uleb128 0x5
 1202 053e 7C020000 		.4byte	.LASF80
 1203 0542 10       		.byte	0x10
 1204 0543 0B       		.byte	0xb
 1205 0544 39       		.byte	0x39
 1206 0545 6E050000 		.4byte	0x56e
 1207 0549 06       		.uleb128 0x6
 1208 054a 82040000 		.4byte	.LASF24
 1209 054e 0B       		.byte	0xb
 1210 054f 3A       		.byte	0x3a
 1211 0550 23020000 		.4byte	0x223
 1212 0554 00       		.byte	0
 1213 0555 06       		.uleb128 0x6
 1214 0556 04020000 		.4byte	.LASF81
ARM GAS  /tmp/ccGtGfPv.s 			page 38


 1215 055a 0B       		.byte	0xb
 1216 055b 3C       		.byte	0x3c
 1217 055c F9010000 		.4byte	0x1f9
 1218 0560 08       		.byte	0x8
 1219 0561 06       		.uleb128 0x6
 1220 0562 AD000000 		.4byte	.LASF43
 1221 0566 0B       		.byte	0xb
 1222 0567 3E       		.byte	0x3e
 1223 0568 A2050000 		.4byte	0x5a2
 1224 056c 0C       		.byte	0xc
 1225 056d 00       		.byte	0
 1226 056e 0A       		.uleb128 0xa
 1227 056f 04       		.byte	0x4
 1228 0570 3D050000 		.4byte	0x53d
 1229 0574 0A       		.uleb128 0xa
 1230 0575 04       		.byte	0x4
 1231 0576 7A050000 		.4byte	0x57a
 1232 057a 12       		.uleb128 0x12
 1233 057b 7F050000 		.4byte	0x57f
 1234 057f 04       		.uleb128 0x4
 1235 0580 01       		.byte	0x1
 1236 0581 08       		.byte	0x8
 1237 0582 37030000 		.4byte	.LASF82
 1238 0586 0A       		.uleb128 0xa
 1239 0587 04       		.byte	0x4
 1240 0588 04040000 		.4byte	0x404
 1241 058c 0A       		.uleb128 0xa
 1242 058d 04       		.byte	0x4
 1243 058e D8020000 		.4byte	0x2d8
 1244 0592 13       		.uleb128 0x13
 1245 0593 74050000 		.4byte	0x574
 1246 0597 03       		.uleb128 0x3
 1247 0598 97040000 		.4byte	.LASF83
 1248 059c 0B       		.byte	0xb
 1249 059d 34       		.byte	0x34
 1250 059e 3D050000 		.4byte	0x53d
 1251 05a2 0A       		.uleb128 0xa
 1252 05a3 04       		.byte	0x4
 1253 05a4 97050000 		.4byte	0x597
 1254 05a8 04       		.uleb128 0x4
 1255 05a9 01       		.byte	0x1
 1256 05aa 02       		.byte	0x2
 1257 05ab 76020000 		.4byte	.LASF84
 1258 05af 14       		.uleb128 0x14
 1259 05b0 08       		.byte	0x8
 1260 05b1 0C       		.byte	0xc
 1261 05b2 51       		.byte	0x51
 1262 05b3 D0050000 		.4byte	0x5d0
 1263 05b7 06       		.uleb128 0x6
 1264 05b8 69050000 		.4byte	.LASF85
 1265 05bc 0C       		.byte	0xc
 1266 05bd 55       		.byte	0x55
 1267 05be D0050000 		.4byte	0x5d0
 1268 05c2 00       		.byte	0
 1269 05c3 06       		.uleb128 0x6
 1270 05c4 19050000 		.4byte	.LASF86
 1271 05c8 0C       		.byte	0xc
ARM GAS  /tmp/ccGtGfPv.s 			page 39


 1272 05c9 59       		.byte	0x59
 1273 05ca D0050000 		.4byte	0x5d0
 1274 05ce 04       		.byte	0x4
 1275 05cf 00       		.byte	0
 1276 05d0 0A       		.uleb128 0xa
 1277 05d1 04       		.byte	0x4
 1278 05d2 45000000 		.4byte	0x45
 1279 05d6 03       		.uleb128 0x3
 1280 05d7 B3010000 		.4byte	.LASF87
 1281 05db 0C       		.byte	0xc
 1282 05dc 5A       		.byte	0x5a
 1283 05dd AF050000 		.4byte	0x5af
 1284 05e1 15       		.uleb128 0x15
 1285 05e2 27040000 		.4byte	.LASF96
 1286 05e6 02       		.byte	0x2
 1287 05e7 0601     		.2byte	0x106
 1288 05e9 03       		.byte	0x3
 1289 05ea FB050000 		.4byte	0x5fb
 1290 05ee 16       		.uleb128 0x16
 1291 05ef 1A020000 		.4byte	.LASF91
 1292 05f3 02       		.byte	0x2
 1293 05f4 0601     		.2byte	0x106
 1294 05f6 82000000 		.4byte	0x82
 1295 05fa 00       		.byte	0
 1296 05fb 17       		.uleb128 0x17
 1297 05fc EA000000 		.4byte	.LASF88
 1298 0600 09       		.byte	0x9
 1299 0601 5202     		.2byte	0x252
 1300 0603 03       		.byte	0x3
 1301 0604 17       		.uleb128 0x17
 1302 0605 51050000 		.4byte	.LASF89
 1303 0609 09       		.byte	0x9
 1304 060a 6A02     		.2byte	0x26a
 1305 060c 03       		.byte	0x3
 1306 060d 17       		.uleb128 0x17
 1307 060e 28030000 		.4byte	.LASF90
 1308 0612 0D       		.byte	0xd
 1309 0613 7601     		.2byte	0x176
 1310 0615 03       		.byte	0x3
 1311 0616 18       		.uleb128 0x18
 1312 0617 BD010000 		.4byte	.LASF99
 1313 061b 01       		.byte	0x1
 1314 061c 70       		.byte	0x70
 1315 061d D6020000 		.4byte	0x2d6
 1316 0621 01       		.byte	0x1
 1317 0622 69060000 		.4byte	0x669
 1318 0626 19       		.uleb128 0x19
 1319 0627 BB030000 		.4byte	.LASF92
 1320 062b 01       		.byte	0x1
 1321 062c 70       		.byte	0x70
 1322 062d 2C000000 		.4byte	0x2c
 1323 0631 19       		.uleb128 0x19
 1324 0632 5D050000 		.4byte	.LASF93
 1325 0636 01       		.byte	0x1
 1326 0637 71       		.byte	0x71
 1327 0638 37000000 		.4byte	0x37
 1328 063c 19       		.uleb128 0x19
ARM GAS  /tmp/ccGtGfPv.s 			page 40


 1329 063d 6F020000 		.4byte	.LASF94
 1330 0641 01       		.byte	0x1
 1331 0642 72       		.byte	0x72
 1332 0643 2C000000 		.4byte	0x2c
 1333 0647 1A       		.uleb128 0x1a
 1334 0648 7000     		.ascii	"p\000"
 1335 064a 01       		.byte	0x1
 1336 064b 73       		.byte	0x73
 1337 064c D0050000 		.4byte	0x5d0
 1338 0650 1B       		.uleb128 0x1b
 1339 0651 AD000000 		.4byte	.LASF43
 1340 0655 01       		.byte	0x1
 1341 0656 73       		.byte	0x73
 1342 0657 D0050000 		.4byte	0x5d0
 1343 065b 1C       		.uleb128 0x1c
 1344 065c 7F010000 		.4byte	.LASF95
 1345 0660 79060000 		.4byte	0x679
 1346 0664 BD010000 		.4byte	.LASF99
 1347 0668 00       		.byte	0
 1348 0669 1D       		.uleb128 0x1d
 1349 066a 7F050000 		.4byte	0x57f
 1350 066e 79060000 		.4byte	0x679
 1351 0672 1E       		.uleb128 0x1e
 1352 0673 F2030000 		.4byte	0x3f2
 1353 0677 1D       		.byte	0x1d
 1354 0678 00       		.byte	0
 1355 0679 12       		.uleb128 0x12
 1356 067a 69060000 		.4byte	0x669
 1357 067e 15       		.uleb128 0x15
 1358 067f F8010000 		.4byte	.LASF97
 1359 0683 0D       		.byte	0xd
 1360 0684 8201     		.2byte	0x182
 1361 0686 03       		.byte	0x3
 1362 0687 99060000 		.4byte	0x699
 1363 068b 1C       		.uleb128 0x1c
 1364 068c 56030000 		.4byte	.LASF98
 1365 0690 A9060000 		.4byte	0x6a9
 1366 0694 F8010000 		.4byte	.LASF97
 1367 0698 00       		.byte	0
 1368 0699 1D       		.uleb128 0x1d
 1369 069a 7F050000 		.4byte	0x57f
 1370 069e A9060000 		.4byte	0x6a9
 1371 06a2 1E       		.uleb128 0x1e
 1372 06a3 F2030000 		.4byte	0x3f2
 1373 06a7 0B       		.byte	0xb
 1374 06a8 00       		.byte	0
 1375 06a9 12       		.uleb128 0x12
 1376 06aa 99060000 		.4byte	0x699
 1377 06ae 1F       		.uleb128 0x1f
 1378 06af 48020000 		.4byte	.LASF107
 1379 06b3 01       		.byte	0x1
 1380 06b4 51       		.byte	0x51
 1381 06b5 00000000 		.4byte	.LFB188
 1382 06b9 1E000000 		.4byte	.LFE188-.LFB188
 1383 06bd 01       		.uleb128 0x1
 1384 06be 9C       		.byte	0x9c
 1385 06bf DA060000 		.4byte	0x6da
ARM GAS  /tmp/ccGtGfPv.s 			page 41


 1386 06c3 20       		.uleb128 0x20
 1387 06c4 53020000 		.4byte	.LASF100
 1388 06c8 01       		.byte	0x1
 1389 06c9 53       		.byte	0x53
 1390 06ca DA060000 		.4byte	0x6da
 1391 06ce 20       		.uleb128 0x20
 1392 06cf 7A050000 		.4byte	.LASF101
 1393 06d3 01       		.byte	0x1
 1394 06d4 54       		.byte	0x54
 1395 06d5 DA060000 		.4byte	0x6da
 1396 06d9 00       		.byte	0
 1397 06da 1D       		.uleb128 0x1d
 1398 06db 45000000 		.4byte	0x45
 1399 06df E5060000 		.4byte	0x6e5
 1400 06e3 21       		.uleb128 0x21
 1401 06e4 00       		.byte	0
 1402 06e5 22       		.uleb128 0x22
 1403 06e6 16060000 		.4byte	0x616
 1404 06ea 00000000 		.4byte	.LFB189
 1405 06ee 34000000 		.4byte	.LFE189-.LFB189
 1406 06f2 01       		.uleb128 0x1
 1407 06f3 9C       		.byte	0x9c
 1408 06f4 29070000 		.4byte	0x729
 1409 06f8 23       		.uleb128 0x23
 1410 06f9 26060000 		.4byte	0x626
 1411 06fd 00000000 		.4byte	.LLST0
 1412 0701 23       		.uleb128 0x23
 1413 0702 31060000 		.4byte	0x631
 1414 0706 9F000000 		.4byte	.LLST1
 1415 070a 23       		.uleb128 0x23
 1416 070b 3C060000 		.4byte	0x63c
 1417 070f CE000000 		.4byte	.LLST2
 1418 0713 24       		.uleb128 0x24
 1419 0714 47060000 		.4byte	0x647
 1420 0718 EF000000 		.4byte	.LLST3
 1421 071c 25       		.uleb128 0x25
 1422 071d 50060000 		.4byte	0x650
 1423 0721 01       		.uleb128 0x1
 1424 0722 51       		.byte	0x51
 1425 0723 26       		.uleb128 0x26
 1426 0724 5B060000 		.4byte	0x65b
 1427 0728 00       		.byte	0
 1428 0729 27       		.uleb128 0x27
 1429 072a C6000000 		.4byte	.LASF108
 1430 072e 01       		.byte	0x1
 1431 072f 94       		.byte	0x94
 1432 0730 D6020000 		.4byte	0x2d6
 1433 0734 00000000 		.4byte	.LFB190
 1434 0738 46000000 		.4byte	.LFE190-.LFB190
 1435 073c 01       		.uleb128 0x1
 1436 073d 9C       		.byte	0x9c
 1437 073e 45080000 		.4byte	0x845
 1438 0742 28       		.uleb128 0x28
 1439 0743 BB030000 		.4byte	.LASF92
 1440 0747 01       		.byte	0x1
 1441 0748 94       		.byte	0x94
 1442 0749 2C000000 		.4byte	0x2c
ARM GAS  /tmp/ccGtGfPv.s 			page 42


 1443 074d 3E010000 		.4byte	.LLST4
 1444 0751 28       		.uleb128 0x28
 1445 0752 5D050000 		.4byte	.LASF93
 1446 0756 01       		.byte	0x1
 1447 0757 95       		.byte	0x95
 1448 0758 37000000 		.4byte	0x37
 1449 075c 5F010000 		.4byte	.LLST5
 1450 0760 28       		.uleb128 0x28
 1451 0761 6F020000 		.4byte	.LASF94
 1452 0765 01       		.byte	0x1
 1453 0766 96       		.byte	0x96
 1454 0767 2C000000 		.4byte	0x2c
 1455 076b 8E010000 		.4byte	.LLST6
 1456 076f 1A       		.uleb128 0x1a
 1457 0770 7000     		.ascii	"p\000"
 1458 0772 01       		.byte	0x1
 1459 0773 97       		.byte	0x97
 1460 0774 D6020000 		.4byte	0x2d6
 1461 0778 29       		.uleb128 0x29
 1462 0779 0D060000 		.4byte	0x60d
 1463 077d 02000000 		.4byte	.LBB26
 1464 0781 06000000 		.4byte	.LBE26-.LBB26
 1465 0785 01       		.byte	0x1
 1466 0786 99       		.byte	0x99
 1467 0787 B4070000 		.4byte	0x7b4
 1468 078b 2A       		.uleb128 0x2a
 1469 078c FB050000 		.4byte	0x5fb
 1470 0790 02000000 		.4byte	.LBB27
 1471 0794 06000000 		.4byte	.LBE27-.LBB27
 1472 0798 0D       		.byte	0xd
 1473 0799 7801     		.2byte	0x178
 1474 079b 2A       		.uleb128 0x2a
 1475 079c E1050000 		.4byte	0x5e1
 1476 07a0 02000000 		.4byte	.LBB28
 1477 07a4 06000000 		.4byte	.LBE28-.LBB28
 1478 07a8 09       		.byte	0x9
 1479 07a9 5A02     		.2byte	0x25a
 1480 07ab 2B       		.uleb128 0x2b
 1481 07ac EE050000 		.4byte	0x5ee
 1482 07b0 20       		.byte	0x20
 1483 07b1 00       		.byte	0
 1484 07b2 00       		.byte	0
 1485 07b3 00       		.byte	0
 1486 07b4 2C       		.uleb128 0x2c
 1487 07b5 16060000 		.4byte	0x616
 1488 07b9 08000000 		.4byte	.LBB30
 1489 07bd 00000000 		.4byte	.Ldebug_ranges0+0
 1490 07c1 01       		.byte	0x1
 1491 07c2 9A       		.byte	0x9a
 1492 07c3 FE070000 		.4byte	0x7fe
 1493 07c7 23       		.uleb128 0x23
 1494 07c8 3C060000 		.4byte	0x63c
 1495 07cc AF010000 		.4byte	.LLST7
 1496 07d0 23       		.uleb128 0x23
 1497 07d1 31060000 		.4byte	0x631
 1498 07d5 D0010000 		.4byte	.LLST8
 1499 07d9 23       		.uleb128 0x23
ARM GAS  /tmp/ccGtGfPv.s 			page 43


 1500 07da 26060000 		.4byte	0x626
 1501 07de FF010000 		.4byte	.LLST9
 1502 07e2 2D       		.uleb128 0x2d
 1503 07e3 00000000 		.4byte	.Ldebug_ranges0+0
 1504 07e7 24       		.uleb128 0x24
 1505 07e8 47060000 		.4byte	0x647
 1506 07ec 67020000 		.4byte	.LLST10
 1507 07f0 25       		.uleb128 0x25
 1508 07f1 50060000 		.4byte	0x650
 1509 07f5 01       		.uleb128 0x1
 1510 07f6 51       		.byte	0x51
 1511 07f7 26       		.uleb128 0x26
 1512 07f8 5B060000 		.4byte	0x65b
 1513 07fc 00       		.byte	0
 1514 07fd 00       		.byte	0
 1515 07fe 2E       		.uleb128 0x2e
 1516 07ff 7E060000 		.4byte	0x67e
 1517 0803 30000000 		.4byte	.LBB33
 1518 0807 18000000 		.4byte	.Ldebug_ranges0+0x18
 1519 080b 01       		.byte	0x1
 1520 080c 9B       		.byte	0x9b
 1521 080d 2D       		.uleb128 0x2d
 1522 080e 18000000 		.4byte	.Ldebug_ranges0+0x18
 1523 0812 26       		.uleb128 0x26
 1524 0813 8B060000 		.4byte	0x68b
 1525 0817 2F       		.uleb128 0x2f
 1526 0818 04060000 		.4byte	0x604
 1527 081c 30000000 		.4byte	.LBB35
 1528 0820 18000000 		.4byte	.Ldebug_ranges0+0x18
 1529 0824 0D       		.byte	0xd
 1530 0825 8F01     		.2byte	0x18f
 1531 0827 2F       		.uleb128 0x2f
 1532 0828 E1050000 		.4byte	0x5e1
 1533 082c 30000000 		.4byte	.LBB36
 1534 0830 18000000 		.4byte	.Ldebug_ranges0+0x18
 1535 0834 09       		.byte	0x9
 1536 0835 6D02     		.2byte	0x26d
 1537 0837 23       		.uleb128 0x23
 1538 0838 EE050000 		.4byte	0x5ee
 1539 083c B6020000 		.4byte	.LLST11
 1540 0840 00       		.byte	0
 1541 0841 00       		.byte	0
 1542 0842 00       		.byte	0
 1543 0843 00       		.byte	0
 1544 0844 00       		.byte	0
 1545 0845 30       		.uleb128 0x30
 1546 0846 41010000 		.4byte	.LASF109
 1547 084a 01       		.byte	0x1
 1548 084b A7       		.byte	0xa7
 1549 084c 2C000000 		.4byte	0x2c
 1550 0850 00000000 		.4byte	.LFB191
 1551 0854 10000000 		.4byte	.LFE191-.LFB191
 1552 0858 01       		.uleb128 0x1
 1553 0859 9C       		.byte	0x9c
 1554 085a 31       		.uleb128 0x31
 1555 085b 10040000 		.4byte	.LASF102
 1556 085f 0E       		.byte	0xe
ARM GAS  /tmp/ccGtGfPv.s 			page 44


 1557 0860 9606     		.2byte	0x696
 1558 0862 66080000 		.4byte	0x866
 1559 0866 13       		.uleb128 0x13
 1560 0867 70000000 		.4byte	0x70
 1561 086b 32       		.uleb128 0x32
 1562 086c 636800   		.ascii	"ch\000"
 1563 086f 07       		.byte	0x7
 1564 0870 D201     		.2byte	0x1d2
 1565 0872 A5030000 		.4byte	0x3a5
 1566 0876 33       		.uleb128 0x33
 1567 0877 E6030000 		.4byte	.LASF103
 1568 087b 01       		.byte	0x1
 1569 087c 3A       		.byte	0x3a
 1570 087d D6050000 		.4byte	0x5d6
 1571 0881 05       		.uleb128 0x5
 1572 0882 03       		.byte	0x3
 1573 0883 00000000 		.4byte	ch_memcore
 1574 0887 20       		.uleb128 0x20
 1575 0888 53020000 		.4byte	.LASF100
 1576 088c 01       		.byte	0x1
 1577 088d 53       		.byte	0x53
 1578 088e DA060000 		.4byte	0x6da
 1579 0892 20       		.uleb128 0x20
 1580 0893 7A050000 		.4byte	.LASF101
 1581 0897 01       		.byte	0x1
 1582 0898 54       		.byte	0x54
 1583 0899 DA060000 		.4byte	0x6da
 1584 089d 00       		.byte	0
 1585              		.section	.debug_abbrev,"",%progbits
 1586              	.Ldebug_abbrev0:
 1587 0000 01       		.uleb128 0x1
 1588 0001 11       		.uleb128 0x11
 1589 0002 01       		.byte	0x1
 1590 0003 25       		.uleb128 0x25
 1591 0004 0E       		.uleb128 0xe
 1592 0005 13       		.uleb128 0x13
 1593 0006 0B       		.uleb128 0xb
 1594 0007 03       		.uleb128 0x3
 1595 0008 0E       		.uleb128 0xe
 1596 0009 1B       		.uleb128 0x1b
 1597 000a 0E       		.uleb128 0xe
 1598 000b 55       		.uleb128 0x55
 1599 000c 17       		.uleb128 0x17
 1600 000d 11       		.uleb128 0x11
 1601 000e 01       		.uleb128 0x1
 1602 000f 10       		.uleb128 0x10
 1603 0010 17       		.uleb128 0x17
 1604 0011 00       		.byte	0
 1605 0012 00       		.byte	0
 1606 0013 02       		.uleb128 0x2
 1607 0014 24       		.uleb128 0x24
 1608 0015 00       		.byte	0
 1609 0016 0B       		.uleb128 0xb
 1610 0017 0B       		.uleb128 0xb
 1611 0018 3E       		.uleb128 0x3e
 1612 0019 0B       		.uleb128 0xb
 1613 001a 03       		.uleb128 0x3
ARM GAS  /tmp/ccGtGfPv.s 			page 45


 1614 001b 08       		.uleb128 0x8
 1615 001c 00       		.byte	0
 1616 001d 00       		.byte	0
 1617 001e 03       		.uleb128 0x3
 1618 001f 16       		.uleb128 0x16
 1619 0020 00       		.byte	0
 1620 0021 03       		.uleb128 0x3
 1621 0022 0E       		.uleb128 0xe
 1622 0023 3A       		.uleb128 0x3a
 1623 0024 0B       		.uleb128 0xb
 1624 0025 3B       		.uleb128 0x3b
 1625 0026 0B       		.uleb128 0xb
 1626 0027 49       		.uleb128 0x49
 1627 0028 13       		.uleb128 0x13
 1628 0029 00       		.byte	0
 1629 002a 00       		.byte	0
 1630 002b 04       		.uleb128 0x4
 1631 002c 24       		.uleb128 0x24
 1632 002d 00       		.byte	0
 1633 002e 0B       		.uleb128 0xb
 1634 002f 0B       		.uleb128 0xb
 1635 0030 3E       		.uleb128 0x3e
 1636 0031 0B       		.uleb128 0xb
 1637 0032 03       		.uleb128 0x3
 1638 0033 0E       		.uleb128 0xe
 1639 0034 00       		.byte	0
 1640 0035 00       		.byte	0
 1641 0036 05       		.uleb128 0x5
 1642 0037 13       		.uleb128 0x13
 1643 0038 01       		.byte	0x1
 1644 0039 03       		.uleb128 0x3
 1645 003a 0E       		.uleb128 0xe
 1646 003b 0B       		.uleb128 0xb
 1647 003c 0B       		.uleb128 0xb
 1648 003d 3A       		.uleb128 0x3a
 1649 003e 0B       		.uleb128 0xb
 1650 003f 3B       		.uleb128 0x3b
 1651 0040 0B       		.uleb128 0xb
 1652 0041 01       		.uleb128 0x1
 1653 0042 13       		.uleb128 0x13
 1654 0043 00       		.byte	0
 1655 0044 00       		.byte	0
 1656 0045 06       		.uleb128 0x6
 1657 0046 0D       		.uleb128 0xd
 1658 0047 00       		.byte	0
 1659 0048 03       		.uleb128 0x3
 1660 0049 0E       		.uleb128 0xe
 1661 004a 3A       		.uleb128 0x3a
 1662 004b 0B       		.uleb128 0xb
 1663 004c 3B       		.uleb128 0x3b
 1664 004d 0B       		.uleb128 0xb
 1665 004e 49       		.uleb128 0x49
 1666 004f 13       		.uleb128 0x13
 1667 0050 38       		.uleb128 0x38
 1668 0051 0B       		.uleb128 0xb
 1669 0052 00       		.byte	0
 1670 0053 00       		.byte	0
ARM GAS  /tmp/ccGtGfPv.s 			page 46


 1671 0054 07       		.uleb128 0x7
 1672 0055 0D       		.uleb128 0xd
 1673 0056 00       		.byte	0
 1674 0057 03       		.uleb128 0x3
 1675 0058 08       		.uleb128 0x8
 1676 0059 3A       		.uleb128 0x3a
 1677 005a 0B       		.uleb128 0xb
 1678 005b 3B       		.uleb128 0x3b
 1679 005c 0B       		.uleb128 0xb
 1680 005d 49       		.uleb128 0x49
 1681 005e 13       		.uleb128 0x13
 1682 005f 38       		.uleb128 0x38
 1683 0060 0B       		.uleb128 0xb
 1684 0061 00       		.byte	0
 1685 0062 00       		.byte	0
 1686 0063 08       		.uleb128 0x8
 1687 0064 0D       		.uleb128 0xd
 1688 0065 00       		.byte	0
 1689 0066 03       		.uleb128 0x3
 1690 0067 08       		.uleb128 0x8
 1691 0068 3A       		.uleb128 0x3a
 1692 0069 0B       		.uleb128 0xb
 1693 006a 3B       		.uleb128 0x3b
 1694 006b 05       		.uleb128 0x5
 1695 006c 49       		.uleb128 0x49
 1696 006d 13       		.uleb128 0x13
 1697 006e 38       		.uleb128 0x38
 1698 006f 0B       		.uleb128 0xb
 1699 0070 00       		.byte	0
 1700 0071 00       		.byte	0
 1701 0072 09       		.uleb128 0x9
 1702 0073 0D       		.uleb128 0xd
 1703 0074 00       		.byte	0
 1704 0075 03       		.uleb128 0x3
 1705 0076 0E       		.uleb128 0xe
 1706 0077 3A       		.uleb128 0x3a
 1707 0078 0B       		.uleb128 0xb
 1708 0079 3B       		.uleb128 0x3b
 1709 007a 05       		.uleb128 0x5
 1710 007b 49       		.uleb128 0x49
 1711 007c 13       		.uleb128 0x13
 1712 007d 38       		.uleb128 0x38
 1713 007e 0B       		.uleb128 0xb
 1714 007f 00       		.byte	0
 1715 0080 00       		.byte	0
 1716 0081 0A       		.uleb128 0xa
 1717 0082 0F       		.uleb128 0xf
 1718 0083 00       		.byte	0
 1719 0084 0B       		.uleb128 0xb
 1720 0085 0B       		.uleb128 0xb
 1721 0086 49       		.uleb128 0x49
 1722 0087 13       		.uleb128 0x13
 1723 0088 00       		.byte	0
 1724 0089 00       		.byte	0
 1725 008a 0B       		.uleb128 0xb
 1726 008b 13       		.uleb128 0x13
 1727 008c 01       		.byte	0x1
ARM GAS  /tmp/ccGtGfPv.s 			page 47


 1728 008d 03       		.uleb128 0x3
 1729 008e 0E       		.uleb128 0xe
 1730 008f 0B       		.uleb128 0xb
 1731 0090 0B       		.uleb128 0xb
 1732 0091 3A       		.uleb128 0x3a
 1733 0092 0B       		.uleb128 0xb
 1734 0093 3B       		.uleb128 0x3b
 1735 0094 05       		.uleb128 0x5
 1736 0095 01       		.uleb128 0x1
 1737 0096 13       		.uleb128 0x13
 1738 0097 00       		.byte	0
 1739 0098 00       		.byte	0
 1740 0099 0C       		.uleb128 0xc
 1741 009a 15       		.uleb128 0x15
 1742 009b 01       		.byte	0x1
 1743 009c 27       		.uleb128 0x27
 1744 009d 19       		.uleb128 0x19
 1745 009e 01       		.uleb128 0x1
 1746 009f 13       		.uleb128 0x13
 1747 00a0 00       		.byte	0
 1748 00a1 00       		.byte	0
 1749 00a2 0D       		.uleb128 0xd
 1750 00a3 05       		.uleb128 0x5
 1751 00a4 00       		.byte	0
 1752 00a5 49       		.uleb128 0x49
 1753 00a6 13       		.uleb128 0x13
 1754 00a7 00       		.byte	0
 1755 00a8 00       		.byte	0
 1756 00a9 0E       		.uleb128 0xe
 1757 00aa 0F       		.uleb128 0xf
 1758 00ab 00       		.byte	0
 1759 00ac 0B       		.uleb128 0xb
 1760 00ad 0B       		.uleb128 0xb
 1761 00ae 00       		.byte	0
 1762 00af 00       		.byte	0
 1763 00b0 0F       		.uleb128 0xf
 1764 00b1 17       		.uleb128 0x17
 1765 00b2 01       		.byte	0x1
 1766 00b3 0B       		.uleb128 0xb
 1767 00b4 0B       		.uleb128 0xb
 1768 00b5 3A       		.uleb128 0x3a
 1769 00b6 0B       		.uleb128 0xb
 1770 00b7 3B       		.uleb128 0x3b
 1771 00b8 0B       		.uleb128 0xb
 1772 00b9 01       		.uleb128 0x1
 1773 00ba 13       		.uleb128 0x13
 1774 00bb 00       		.byte	0
 1775 00bc 00       		.byte	0
 1776 00bd 10       		.uleb128 0x10
 1777 00be 0D       		.uleb128 0xd
 1778 00bf 00       		.byte	0
 1779 00c0 03       		.uleb128 0x3
 1780 00c1 0E       		.uleb128 0xe
 1781 00c2 3A       		.uleb128 0x3a
 1782 00c3 0B       		.uleb128 0xb
 1783 00c4 3B       		.uleb128 0x3b
 1784 00c5 0B       		.uleb128 0xb
ARM GAS  /tmp/ccGtGfPv.s 			page 48


 1785 00c6 49       		.uleb128 0x49
 1786 00c7 13       		.uleb128 0x13
 1787 00c8 00       		.byte	0
 1788 00c9 00       		.byte	0
 1789 00ca 11       		.uleb128 0x11
 1790 00cb 0D       		.uleb128 0xd
 1791 00cc 00       		.byte	0
 1792 00cd 03       		.uleb128 0x3
 1793 00ce 0E       		.uleb128 0xe
 1794 00cf 3A       		.uleb128 0x3a
 1795 00d0 0B       		.uleb128 0xb
 1796 00d1 3B       		.uleb128 0x3b
 1797 00d2 05       		.uleb128 0x5
 1798 00d3 49       		.uleb128 0x49
 1799 00d4 13       		.uleb128 0x13
 1800 00d5 00       		.byte	0
 1801 00d6 00       		.byte	0
 1802 00d7 12       		.uleb128 0x12
 1803 00d8 26       		.uleb128 0x26
 1804 00d9 00       		.byte	0
 1805 00da 49       		.uleb128 0x49
 1806 00db 13       		.uleb128 0x13
 1807 00dc 00       		.byte	0
 1808 00dd 00       		.byte	0
 1809 00de 13       		.uleb128 0x13
 1810 00df 35       		.uleb128 0x35
 1811 00e0 00       		.byte	0
 1812 00e1 49       		.uleb128 0x49
 1813 00e2 13       		.uleb128 0x13
 1814 00e3 00       		.byte	0
 1815 00e4 00       		.byte	0
 1816 00e5 14       		.uleb128 0x14
 1817 00e6 13       		.uleb128 0x13
 1818 00e7 01       		.byte	0x1
 1819 00e8 0B       		.uleb128 0xb
 1820 00e9 0B       		.uleb128 0xb
 1821 00ea 3A       		.uleb128 0x3a
 1822 00eb 0B       		.uleb128 0xb
 1823 00ec 3B       		.uleb128 0x3b
 1824 00ed 0B       		.uleb128 0xb
 1825 00ee 01       		.uleb128 0x1
 1826 00ef 13       		.uleb128 0x13
 1827 00f0 00       		.byte	0
 1828 00f1 00       		.byte	0
 1829 00f2 15       		.uleb128 0x15
 1830 00f3 2E       		.uleb128 0x2e
 1831 00f4 01       		.byte	0x1
 1832 00f5 03       		.uleb128 0x3
 1833 00f6 0E       		.uleb128 0xe
 1834 00f7 3A       		.uleb128 0x3a
 1835 00f8 0B       		.uleb128 0xb
 1836 00f9 3B       		.uleb128 0x3b
 1837 00fa 05       		.uleb128 0x5
 1838 00fb 27       		.uleb128 0x27
 1839 00fc 19       		.uleb128 0x19
 1840 00fd 20       		.uleb128 0x20
 1841 00fe 0B       		.uleb128 0xb
ARM GAS  /tmp/ccGtGfPv.s 			page 49


 1842 00ff 01       		.uleb128 0x1
 1843 0100 13       		.uleb128 0x13
 1844 0101 00       		.byte	0
 1845 0102 00       		.byte	0
 1846 0103 16       		.uleb128 0x16
 1847 0104 05       		.uleb128 0x5
 1848 0105 00       		.byte	0
 1849 0106 03       		.uleb128 0x3
 1850 0107 0E       		.uleb128 0xe
 1851 0108 3A       		.uleb128 0x3a
 1852 0109 0B       		.uleb128 0xb
 1853 010a 3B       		.uleb128 0x3b
 1854 010b 05       		.uleb128 0x5
 1855 010c 49       		.uleb128 0x49
 1856 010d 13       		.uleb128 0x13
 1857 010e 00       		.byte	0
 1858 010f 00       		.byte	0
 1859 0110 17       		.uleb128 0x17
 1860 0111 2E       		.uleb128 0x2e
 1861 0112 00       		.byte	0
 1862 0113 03       		.uleb128 0x3
 1863 0114 0E       		.uleb128 0xe
 1864 0115 3A       		.uleb128 0x3a
 1865 0116 0B       		.uleb128 0xb
 1866 0117 3B       		.uleb128 0x3b
 1867 0118 05       		.uleb128 0x5
 1868 0119 27       		.uleb128 0x27
 1869 011a 19       		.uleb128 0x19
 1870 011b 20       		.uleb128 0x20
 1871 011c 0B       		.uleb128 0xb
 1872 011d 00       		.byte	0
 1873 011e 00       		.byte	0
 1874 011f 18       		.uleb128 0x18
 1875 0120 2E       		.uleb128 0x2e
 1876 0121 01       		.byte	0x1
 1877 0122 3F       		.uleb128 0x3f
 1878 0123 19       		.uleb128 0x19
 1879 0124 03       		.uleb128 0x3
 1880 0125 0E       		.uleb128 0xe
 1881 0126 3A       		.uleb128 0x3a
 1882 0127 0B       		.uleb128 0xb
 1883 0128 3B       		.uleb128 0x3b
 1884 0129 0B       		.uleb128 0xb
 1885 012a 27       		.uleb128 0x27
 1886 012b 19       		.uleb128 0x19
 1887 012c 49       		.uleb128 0x49
 1888 012d 13       		.uleb128 0x13
 1889 012e 20       		.uleb128 0x20
 1890 012f 0B       		.uleb128 0xb
 1891 0130 01       		.uleb128 0x1
 1892 0131 13       		.uleb128 0x13
 1893 0132 00       		.byte	0
 1894 0133 00       		.byte	0
 1895 0134 19       		.uleb128 0x19
 1896 0135 05       		.uleb128 0x5
 1897 0136 00       		.byte	0
 1898 0137 03       		.uleb128 0x3
ARM GAS  /tmp/ccGtGfPv.s 			page 50


 1899 0138 0E       		.uleb128 0xe
 1900 0139 3A       		.uleb128 0x3a
 1901 013a 0B       		.uleb128 0xb
 1902 013b 3B       		.uleb128 0x3b
 1903 013c 0B       		.uleb128 0xb
 1904 013d 49       		.uleb128 0x49
 1905 013e 13       		.uleb128 0x13
 1906 013f 00       		.byte	0
 1907 0140 00       		.byte	0
 1908 0141 1A       		.uleb128 0x1a
 1909 0142 34       		.uleb128 0x34
 1910 0143 00       		.byte	0
 1911 0144 03       		.uleb128 0x3
 1912 0145 08       		.uleb128 0x8
 1913 0146 3A       		.uleb128 0x3a
 1914 0147 0B       		.uleb128 0xb
 1915 0148 3B       		.uleb128 0x3b
 1916 0149 0B       		.uleb128 0xb
 1917 014a 49       		.uleb128 0x49
 1918 014b 13       		.uleb128 0x13
 1919 014c 00       		.byte	0
 1920 014d 00       		.byte	0
 1921 014e 1B       		.uleb128 0x1b
 1922 014f 34       		.uleb128 0x34
 1923 0150 00       		.byte	0
 1924 0151 03       		.uleb128 0x3
 1925 0152 0E       		.uleb128 0xe
 1926 0153 3A       		.uleb128 0x3a
 1927 0154 0B       		.uleb128 0xb
 1928 0155 3B       		.uleb128 0x3b
 1929 0156 0B       		.uleb128 0xb
 1930 0157 49       		.uleb128 0x49
 1931 0158 13       		.uleb128 0x13
 1932 0159 00       		.byte	0
 1933 015a 00       		.byte	0
 1934 015b 1C       		.uleb128 0x1c
 1935 015c 34       		.uleb128 0x34
 1936 015d 00       		.byte	0
 1937 015e 03       		.uleb128 0x3
 1938 015f 0E       		.uleb128 0xe
 1939 0160 49       		.uleb128 0x49
 1940 0161 13       		.uleb128 0x13
 1941 0162 34       		.uleb128 0x34
 1942 0163 19       		.uleb128 0x19
 1943 0164 1C       		.uleb128 0x1c
 1944 0165 0E       		.uleb128 0xe
 1945 0166 00       		.byte	0
 1946 0167 00       		.byte	0
 1947 0168 1D       		.uleb128 0x1d
 1948 0169 01       		.uleb128 0x1
 1949 016a 01       		.byte	0x1
 1950 016b 49       		.uleb128 0x49
 1951 016c 13       		.uleb128 0x13
 1952 016d 01       		.uleb128 0x1
 1953 016e 13       		.uleb128 0x13
 1954 016f 00       		.byte	0
 1955 0170 00       		.byte	0
ARM GAS  /tmp/ccGtGfPv.s 			page 51


 1956 0171 1E       		.uleb128 0x1e
 1957 0172 21       		.uleb128 0x21
 1958 0173 00       		.byte	0
 1959 0174 49       		.uleb128 0x49
 1960 0175 13       		.uleb128 0x13
 1961 0176 2F       		.uleb128 0x2f
 1962 0177 0B       		.uleb128 0xb
 1963 0178 00       		.byte	0
 1964 0179 00       		.byte	0
 1965 017a 1F       		.uleb128 0x1f
 1966 017b 2E       		.uleb128 0x2e
 1967 017c 01       		.byte	0x1
 1968 017d 3F       		.uleb128 0x3f
 1969 017e 19       		.uleb128 0x19
 1970 017f 03       		.uleb128 0x3
 1971 0180 0E       		.uleb128 0xe
 1972 0181 3A       		.uleb128 0x3a
 1973 0182 0B       		.uleb128 0xb
 1974 0183 3B       		.uleb128 0x3b
 1975 0184 0B       		.uleb128 0xb
 1976 0185 27       		.uleb128 0x27
 1977 0186 19       		.uleb128 0x19
 1978 0187 11       		.uleb128 0x11
 1979 0188 01       		.uleb128 0x1
 1980 0189 12       		.uleb128 0x12
 1981 018a 06       		.uleb128 0x6
 1982 018b 40       		.uleb128 0x40
 1983 018c 18       		.uleb128 0x18
 1984 018d 9742     		.uleb128 0x2117
 1985 018f 19       		.uleb128 0x19
 1986 0190 01       		.uleb128 0x1
 1987 0191 13       		.uleb128 0x13
 1988 0192 00       		.byte	0
 1989 0193 00       		.byte	0
 1990 0194 20       		.uleb128 0x20
 1991 0195 34       		.uleb128 0x34
 1992 0196 00       		.byte	0
 1993 0197 03       		.uleb128 0x3
 1994 0198 0E       		.uleb128 0xe
 1995 0199 3A       		.uleb128 0x3a
 1996 019a 0B       		.uleb128 0xb
 1997 019b 3B       		.uleb128 0x3b
 1998 019c 0B       		.uleb128 0xb
 1999 019d 49       		.uleb128 0x49
 2000 019e 13       		.uleb128 0x13
 2001 019f 3F       		.uleb128 0x3f
 2002 01a0 19       		.uleb128 0x19
 2003 01a1 3C       		.uleb128 0x3c
 2004 01a2 19       		.uleb128 0x19
 2005 01a3 00       		.byte	0
 2006 01a4 00       		.byte	0
 2007 01a5 21       		.uleb128 0x21
 2008 01a6 21       		.uleb128 0x21
 2009 01a7 00       		.byte	0
 2010 01a8 00       		.byte	0
 2011 01a9 00       		.byte	0
 2012 01aa 22       		.uleb128 0x22
ARM GAS  /tmp/ccGtGfPv.s 			page 52


 2013 01ab 2E       		.uleb128 0x2e
 2014 01ac 01       		.byte	0x1
 2015 01ad 31       		.uleb128 0x31
 2016 01ae 13       		.uleb128 0x13
 2017 01af 11       		.uleb128 0x11
 2018 01b0 01       		.uleb128 0x1
 2019 01b1 12       		.uleb128 0x12
 2020 01b2 06       		.uleb128 0x6
 2021 01b3 40       		.uleb128 0x40
 2022 01b4 18       		.uleb128 0x18
 2023 01b5 9742     		.uleb128 0x2117
 2024 01b7 19       		.uleb128 0x19
 2025 01b8 01       		.uleb128 0x1
 2026 01b9 13       		.uleb128 0x13
 2027 01ba 00       		.byte	0
 2028 01bb 00       		.byte	0
 2029 01bc 23       		.uleb128 0x23
 2030 01bd 05       		.uleb128 0x5
 2031 01be 00       		.byte	0
 2032 01bf 31       		.uleb128 0x31
 2033 01c0 13       		.uleb128 0x13
 2034 01c1 02       		.uleb128 0x2
 2035 01c2 17       		.uleb128 0x17
 2036 01c3 00       		.byte	0
 2037 01c4 00       		.byte	0
 2038 01c5 24       		.uleb128 0x24
 2039 01c6 34       		.uleb128 0x34
 2040 01c7 00       		.byte	0
 2041 01c8 31       		.uleb128 0x31
 2042 01c9 13       		.uleb128 0x13
 2043 01ca 02       		.uleb128 0x2
 2044 01cb 17       		.uleb128 0x17
 2045 01cc 00       		.byte	0
 2046 01cd 00       		.byte	0
 2047 01ce 25       		.uleb128 0x25
 2048 01cf 34       		.uleb128 0x34
 2049 01d0 00       		.byte	0
 2050 01d1 31       		.uleb128 0x31
 2051 01d2 13       		.uleb128 0x13
 2052 01d3 02       		.uleb128 0x2
 2053 01d4 18       		.uleb128 0x18
 2054 01d5 00       		.byte	0
 2055 01d6 00       		.byte	0
 2056 01d7 26       		.uleb128 0x26
 2057 01d8 34       		.uleb128 0x34
 2058 01d9 00       		.byte	0
 2059 01da 31       		.uleb128 0x31
 2060 01db 13       		.uleb128 0x13
 2061 01dc 00       		.byte	0
 2062 01dd 00       		.byte	0
 2063 01de 27       		.uleb128 0x27
 2064 01df 2E       		.uleb128 0x2e
 2065 01e0 01       		.byte	0x1
 2066 01e1 3F       		.uleb128 0x3f
 2067 01e2 19       		.uleb128 0x19
 2068 01e3 03       		.uleb128 0x3
 2069 01e4 0E       		.uleb128 0xe
ARM GAS  /tmp/ccGtGfPv.s 			page 53


 2070 01e5 3A       		.uleb128 0x3a
 2071 01e6 0B       		.uleb128 0xb
 2072 01e7 3B       		.uleb128 0x3b
 2073 01e8 0B       		.uleb128 0xb
 2074 01e9 27       		.uleb128 0x27
 2075 01ea 19       		.uleb128 0x19
 2076 01eb 49       		.uleb128 0x49
 2077 01ec 13       		.uleb128 0x13
 2078 01ed 11       		.uleb128 0x11
 2079 01ee 01       		.uleb128 0x1
 2080 01ef 12       		.uleb128 0x12
 2081 01f0 06       		.uleb128 0x6
 2082 01f1 40       		.uleb128 0x40
 2083 01f2 18       		.uleb128 0x18
 2084 01f3 9742     		.uleb128 0x2117
 2085 01f5 19       		.uleb128 0x19
 2086 01f6 01       		.uleb128 0x1
 2087 01f7 13       		.uleb128 0x13
 2088 01f8 00       		.byte	0
 2089 01f9 00       		.byte	0
 2090 01fa 28       		.uleb128 0x28
 2091 01fb 05       		.uleb128 0x5
 2092 01fc 00       		.byte	0
 2093 01fd 03       		.uleb128 0x3
 2094 01fe 0E       		.uleb128 0xe
 2095 01ff 3A       		.uleb128 0x3a
 2096 0200 0B       		.uleb128 0xb
 2097 0201 3B       		.uleb128 0x3b
 2098 0202 0B       		.uleb128 0xb
 2099 0203 49       		.uleb128 0x49
 2100 0204 13       		.uleb128 0x13
 2101 0205 02       		.uleb128 0x2
 2102 0206 17       		.uleb128 0x17
 2103 0207 00       		.byte	0
 2104 0208 00       		.byte	0
 2105 0209 29       		.uleb128 0x29
 2106 020a 1D       		.uleb128 0x1d
 2107 020b 01       		.byte	0x1
 2108 020c 31       		.uleb128 0x31
 2109 020d 13       		.uleb128 0x13
 2110 020e 11       		.uleb128 0x11
 2111 020f 01       		.uleb128 0x1
 2112 0210 12       		.uleb128 0x12
 2113 0211 06       		.uleb128 0x6
 2114 0212 58       		.uleb128 0x58
 2115 0213 0B       		.uleb128 0xb
 2116 0214 59       		.uleb128 0x59
 2117 0215 0B       		.uleb128 0xb
 2118 0216 01       		.uleb128 0x1
 2119 0217 13       		.uleb128 0x13
 2120 0218 00       		.byte	0
 2121 0219 00       		.byte	0
 2122 021a 2A       		.uleb128 0x2a
 2123 021b 1D       		.uleb128 0x1d
 2124 021c 01       		.byte	0x1
 2125 021d 31       		.uleb128 0x31
 2126 021e 13       		.uleb128 0x13
ARM GAS  /tmp/ccGtGfPv.s 			page 54


 2127 021f 11       		.uleb128 0x11
 2128 0220 01       		.uleb128 0x1
 2129 0221 12       		.uleb128 0x12
 2130 0222 06       		.uleb128 0x6
 2131 0223 58       		.uleb128 0x58
 2132 0224 0B       		.uleb128 0xb
 2133 0225 59       		.uleb128 0x59
 2134 0226 05       		.uleb128 0x5
 2135 0227 00       		.byte	0
 2136 0228 00       		.byte	0
 2137 0229 2B       		.uleb128 0x2b
 2138 022a 05       		.uleb128 0x5
 2139 022b 00       		.byte	0
 2140 022c 31       		.uleb128 0x31
 2141 022d 13       		.uleb128 0x13
 2142 022e 1C       		.uleb128 0x1c
 2143 022f 0B       		.uleb128 0xb
 2144 0230 00       		.byte	0
 2145 0231 00       		.byte	0
 2146 0232 2C       		.uleb128 0x2c
 2147 0233 1D       		.uleb128 0x1d
 2148 0234 01       		.byte	0x1
 2149 0235 31       		.uleb128 0x31
 2150 0236 13       		.uleb128 0x13
 2151 0237 52       		.uleb128 0x52
 2152 0238 01       		.uleb128 0x1
 2153 0239 55       		.uleb128 0x55
 2154 023a 17       		.uleb128 0x17
 2155 023b 58       		.uleb128 0x58
 2156 023c 0B       		.uleb128 0xb
 2157 023d 59       		.uleb128 0x59
 2158 023e 0B       		.uleb128 0xb
 2159 023f 01       		.uleb128 0x1
 2160 0240 13       		.uleb128 0x13
 2161 0241 00       		.byte	0
 2162 0242 00       		.byte	0
 2163 0243 2D       		.uleb128 0x2d
 2164 0244 0B       		.uleb128 0xb
 2165 0245 01       		.byte	0x1
 2166 0246 55       		.uleb128 0x55
 2167 0247 17       		.uleb128 0x17
 2168 0248 00       		.byte	0
 2169 0249 00       		.byte	0
 2170 024a 2E       		.uleb128 0x2e
 2171 024b 1D       		.uleb128 0x1d
 2172 024c 01       		.byte	0x1
 2173 024d 31       		.uleb128 0x31
 2174 024e 13       		.uleb128 0x13
 2175 024f 52       		.uleb128 0x52
 2176 0250 01       		.uleb128 0x1
 2177 0251 55       		.uleb128 0x55
 2178 0252 17       		.uleb128 0x17
 2179 0253 58       		.uleb128 0x58
 2180 0254 0B       		.uleb128 0xb
 2181 0255 59       		.uleb128 0x59
 2182 0256 0B       		.uleb128 0xb
 2183 0257 00       		.byte	0
ARM GAS  /tmp/ccGtGfPv.s 			page 55


 2184 0258 00       		.byte	0
 2185 0259 2F       		.uleb128 0x2f
 2186 025a 1D       		.uleb128 0x1d
 2187 025b 01       		.byte	0x1
 2188 025c 31       		.uleb128 0x31
 2189 025d 13       		.uleb128 0x13
 2190 025e 52       		.uleb128 0x52
 2191 025f 01       		.uleb128 0x1
 2192 0260 55       		.uleb128 0x55
 2193 0261 17       		.uleb128 0x17
 2194 0262 58       		.uleb128 0x58
 2195 0263 0B       		.uleb128 0xb
 2196 0264 59       		.uleb128 0x59
 2197 0265 05       		.uleb128 0x5
 2198 0266 00       		.byte	0
 2199 0267 00       		.byte	0
 2200 0268 30       		.uleb128 0x30
 2201 0269 2E       		.uleb128 0x2e
 2202 026a 00       		.byte	0
 2203 026b 3F       		.uleb128 0x3f
 2204 026c 19       		.uleb128 0x19
 2205 026d 03       		.uleb128 0x3
 2206 026e 0E       		.uleb128 0xe
 2207 026f 3A       		.uleb128 0x3a
 2208 0270 0B       		.uleb128 0xb
 2209 0271 3B       		.uleb128 0x3b
 2210 0272 0B       		.uleb128 0xb
 2211 0273 27       		.uleb128 0x27
 2212 0274 19       		.uleb128 0x19
 2213 0275 49       		.uleb128 0x49
 2214 0276 13       		.uleb128 0x13
 2215 0277 11       		.uleb128 0x11
 2216 0278 01       		.uleb128 0x1
 2217 0279 12       		.uleb128 0x12
 2218 027a 06       		.uleb128 0x6
 2219 027b 40       		.uleb128 0x40
 2220 027c 18       		.uleb128 0x18
 2221 027d 9742     		.uleb128 0x2117
 2222 027f 19       		.uleb128 0x19
 2223 0280 00       		.byte	0
 2224 0281 00       		.byte	0
 2225 0282 31       		.uleb128 0x31
 2226 0283 34       		.uleb128 0x34
 2227 0284 00       		.byte	0
 2228 0285 03       		.uleb128 0x3
 2229 0286 0E       		.uleb128 0xe
 2230 0287 3A       		.uleb128 0x3a
 2231 0288 0B       		.uleb128 0xb
 2232 0289 3B       		.uleb128 0x3b
 2233 028a 05       		.uleb128 0x5
 2234 028b 49       		.uleb128 0x49
 2235 028c 13       		.uleb128 0x13
 2236 028d 3F       		.uleb128 0x3f
 2237 028e 19       		.uleb128 0x19
 2238 028f 3C       		.uleb128 0x3c
 2239 0290 19       		.uleb128 0x19
 2240 0291 00       		.byte	0
ARM GAS  /tmp/ccGtGfPv.s 			page 56


 2241 0292 00       		.byte	0
 2242 0293 32       		.uleb128 0x32
 2243 0294 34       		.uleb128 0x34
 2244 0295 00       		.byte	0
 2245 0296 03       		.uleb128 0x3
 2246 0297 08       		.uleb128 0x8
 2247 0298 3A       		.uleb128 0x3a
 2248 0299 0B       		.uleb128 0xb
 2249 029a 3B       		.uleb128 0x3b
 2250 029b 05       		.uleb128 0x5
 2251 029c 49       		.uleb128 0x49
 2252 029d 13       		.uleb128 0x13
 2253 029e 3F       		.uleb128 0x3f
 2254 029f 19       		.uleb128 0x19
 2255 02a0 3C       		.uleb128 0x3c
 2256 02a1 19       		.uleb128 0x19
 2257 02a2 00       		.byte	0
 2258 02a3 00       		.byte	0
 2259 02a4 33       		.uleb128 0x33
 2260 02a5 34       		.uleb128 0x34
 2261 02a6 00       		.byte	0
 2262 02a7 03       		.uleb128 0x3
 2263 02a8 0E       		.uleb128 0xe
 2264 02a9 3A       		.uleb128 0x3a
 2265 02aa 0B       		.uleb128 0xb
 2266 02ab 3B       		.uleb128 0x3b
 2267 02ac 0B       		.uleb128 0xb
 2268 02ad 49       		.uleb128 0x49
 2269 02ae 13       		.uleb128 0x13
 2270 02af 3F       		.uleb128 0x3f
 2271 02b0 19       		.uleb128 0x19
 2272 02b1 02       		.uleb128 0x2
 2273 02b2 18       		.uleb128 0x18
 2274 02b3 00       		.byte	0
 2275 02b4 00       		.byte	0
 2276 02b5 00       		.byte	0
 2277              		.section	.debug_loc,"",%progbits
 2278              	.Ldebug_loc0:
 2279              	.LLST0:
 2280 0000 00000000 		.4byte	.LVL0
 2281 0004 0E000000 		.4byte	.LVL1
 2282 0008 0100     		.2byte	0x1
 2283 000a 50       		.byte	0x50
 2284 000b 0E000000 		.4byte	.LVL1
 2285 000f 16000000 		.4byte	.LVL3
 2286 0013 0300     		.2byte	0x3
 2287 0015 70       		.byte	0x70
 2288 0016 01       		.sleb128 1
 2289 0017 9F       		.byte	0x9f
 2290 0018 16000000 		.4byte	.LVL3
 2291 001c 18000000 		.4byte	.LVL4
 2292 0020 0400     		.2byte	0x4
 2293 0022 F3       		.byte	0xf3
 2294 0023 01       		.uleb128 0x1
 2295 0024 50       		.byte	0x50
 2296 0025 9F       		.byte	0x9f
 2297 0026 18000000 		.4byte	.LVL4
ARM GAS  /tmp/ccGtGfPv.s 			page 57


 2298 002a 1E000000 		.4byte	.LVL6
 2299 002e 0600     		.2byte	0x6
 2300 0030 71       		.byte	0x71
 2301 0031 00       		.sleb128 0
 2302 0032 75       		.byte	0x75
 2303 0033 00       		.sleb128 0
 2304 0034 1A       		.byte	0x1a
 2305 0035 9F       		.byte	0x9f
 2306 0036 1E000000 		.4byte	.LVL6
 2307 003a 20000000 		.4byte	.LVL7
 2308 003e 0100     		.2byte	0x1
 2309 0040 51       		.byte	0x51
 2310 0041 20000000 		.4byte	.LVL7
 2311 0045 2A000000 		.4byte	.LVL8
 2312 0049 0800     		.2byte	0x8
 2313 004b F3       		.byte	0xf3
 2314 004c 01       		.uleb128 0x1
 2315 004d 51       		.byte	0x51
 2316 004e 1F       		.byte	0x1f
 2317 004f 75       		.byte	0x75
 2318 0050 00       		.sleb128 0
 2319 0051 1A       		.byte	0x1a
 2320 0052 9F       		.byte	0x9f
 2321 0053 2A000000 		.4byte	.LVL8
 2322 0057 2E000000 		.4byte	.LVL9
 2323 005b 0F00     		.2byte	0xf
 2324 005d F3       		.byte	0xf3
 2325 005e 01       		.uleb128 0x1
 2326 005f 50       		.byte	0x50
 2327 0060 F3       		.byte	0xf3
 2328 0061 01       		.uleb128 0x1
 2329 0062 51       		.byte	0x51
 2330 0063 22       		.byte	0x22
 2331 0064 31       		.byte	0x31
 2332 0065 1C       		.byte	0x1c
 2333 0066 F3       		.byte	0xf3
 2334 0067 01       		.uleb128 0x1
 2335 0068 51       		.byte	0x51
 2336 0069 1F       		.byte	0x1f
 2337 006a 1A       		.byte	0x1a
 2338 006b 9F       		.byte	0x9f
 2339 006c 2E000000 		.4byte	.LVL9
 2340 0070 32000000 		.4byte	.LVL11
 2341 0074 0800     		.2byte	0x8
 2342 0076 F3       		.byte	0xf3
 2343 0077 01       		.uleb128 0x1
 2344 0078 51       		.byte	0x51
 2345 0079 1F       		.byte	0x1f
 2346 007a 75       		.byte	0x75
 2347 007b 00       		.sleb128 0
 2348 007c 1A       		.byte	0x1a
 2349 007d 9F       		.byte	0x9f
 2350 007e 32000000 		.4byte	.LVL11
 2351 0082 34000000 		.4byte	.LFE189
 2352 0086 0F00     		.2byte	0xf
 2353 0088 F3       		.byte	0xf3
 2354 0089 01       		.uleb128 0x1
ARM GAS  /tmp/ccGtGfPv.s 			page 58


 2355 008a 50       		.byte	0x50
 2356 008b F3       		.byte	0xf3
 2357 008c 01       		.uleb128 0x1
 2358 008d 51       		.byte	0x51
 2359 008e 22       		.byte	0x22
 2360 008f 31       		.byte	0x31
 2361 0090 1C       		.byte	0x1c
 2362 0091 F3       		.byte	0xf3
 2363 0092 01       		.uleb128 0x1
 2364 0093 51       		.byte	0x51
 2365 0094 1F       		.byte	0x1f
 2366 0095 1A       		.byte	0x1a
 2367 0096 9F       		.byte	0x9f
 2368 0097 00000000 		.4byte	0
 2369 009b 00000000 		.4byte	0
 2370              	.LLST1:
 2371 009f 00000000 		.4byte	.LVL0
 2372 00a3 18000000 		.4byte	.LVL4
 2373 00a7 0100     		.2byte	0x1
 2374 00a9 51       		.byte	0x51
 2375 00aa 18000000 		.4byte	.LVL4
 2376 00ae 1E000000 		.4byte	.LVL6
 2377 00b2 0400     		.2byte	0x4
 2378 00b4 71       		.byte	0x71
 2379 00b5 00       		.sleb128 0
 2380 00b6 1F       		.byte	0x1f
 2381 00b7 9F       		.byte	0x9f
 2382 00b8 1E000000 		.4byte	.LVL6
 2383 00bc 34000000 		.4byte	.LFE189
 2384 00c0 0400     		.2byte	0x4
 2385 00c2 F3       		.byte	0xf3
 2386 00c3 01       		.uleb128 0x1
 2387 00c4 51       		.byte	0x51
 2388 00c5 9F       		.byte	0x9f
 2389 00c6 00000000 		.4byte	0
 2390 00ca 00000000 		.4byte	0
 2391              	.LLST2:
 2392 00ce 00000000 		.4byte	.LVL0
 2393 00d2 10000000 		.4byte	.LVL2
 2394 00d6 0100     		.2byte	0x1
 2395 00d8 52       		.byte	0x52
 2396 00d9 10000000 		.4byte	.LVL2
 2397 00dd 34000000 		.4byte	.LFE189
 2398 00e1 0400     		.2byte	0x4
 2399 00e3 F3       		.byte	0xf3
 2400 00e4 01       		.uleb128 0x1
 2401 00e5 52       		.byte	0x52
 2402 00e6 9F       		.byte	0x9f
 2403 00e7 00000000 		.4byte	0
 2404 00eb 00000000 		.4byte	0
 2405              	.LLST3:
 2406 00ef 1A000000 		.4byte	.LVL5
 2407 00f3 30000000 		.4byte	.LVL10
 2408 00f7 0100     		.2byte	0x1
 2409 00f9 50       		.byte	0x50
 2410 00fa 30000000 		.4byte	.LVL10
 2411 00fe 32000000 		.4byte	.LVL11
ARM GAS  /tmp/ccGtGfPv.s 			page 59


 2412 0102 1200     		.2byte	0x12
 2413 0104 74       		.byte	0x74
 2414 0105 00       		.sleb128 0
 2415 0106 F3       		.byte	0xf3
 2416 0107 01       		.uleb128 0x1
 2417 0108 51       		.byte	0x51
 2418 0109 22       		.byte	0x22
 2419 010a F3       		.byte	0xf3
 2420 010b 01       		.uleb128 0x1
 2421 010c 52       		.byte	0x52
 2422 010d 22       		.byte	0x22
 2423 010e 31       		.byte	0x31
 2424 010f 1C       		.byte	0x1c
 2425 0110 F3       		.byte	0xf3
 2426 0111 01       		.uleb128 0x1
 2427 0112 51       		.byte	0x51
 2428 0113 1F       		.byte	0x1f
 2429 0114 1A       		.byte	0x1a
 2430 0115 9F       		.byte	0x9f
 2431 0116 32000000 		.4byte	.LVL11
 2432 011a 34000000 		.4byte	.LFE189
 2433 011e 1600     		.2byte	0x16
 2434 0120 F3       		.byte	0xf3
 2435 0121 01       		.uleb128 0x1
 2436 0122 52       		.byte	0x52
 2437 0123 F3       		.byte	0xf3
 2438 0124 01       		.uleb128 0x1
 2439 0125 51       		.byte	0x51
 2440 0126 22       		.byte	0x22
 2441 0127 03       		.byte	0x3
 2442 0128 00000000 		.4byte	ch_memcore
 2443 012c 06       		.byte	0x6
 2444 012d 22       		.byte	0x22
 2445 012e 31       		.byte	0x31
 2446 012f 1C       		.byte	0x1c
 2447 0130 F3       		.byte	0xf3
 2448 0131 01       		.uleb128 0x1
 2449 0132 51       		.byte	0x51
 2450 0133 1F       		.byte	0x1f
 2451 0134 1A       		.byte	0x1a
 2452 0135 9F       		.byte	0x9f
 2453 0136 00000000 		.4byte	0
 2454 013a 00000000 		.4byte	0
 2455              	.LLST4:
 2456 013e 00000000 		.4byte	.LVL12
 2457 0142 20000000 		.4byte	.LVL17
 2458 0146 0100     		.2byte	0x1
 2459 0148 50       		.byte	0x50
 2460 0149 20000000 		.4byte	.LVL17
 2461 014d 46000000 		.4byte	.LFE190
 2462 0151 0400     		.2byte	0x4
 2463 0153 F3       		.byte	0xf3
 2464 0154 01       		.uleb128 0x1
 2465 0155 50       		.byte	0x50
 2466 0156 9F       		.byte	0x9f
 2467 0157 00000000 		.4byte	0
 2468 015b 00000000 		.4byte	0
ARM GAS  /tmp/ccGtGfPv.s 			page 60


 2469              	.LLST5:
 2470 015f 00000000 		.4byte	.LVL12
 2471 0163 1A000000 		.4byte	.LVL15
 2472 0167 0100     		.2byte	0x1
 2473 0169 51       		.byte	0x51
 2474 016a 1A000000 		.4byte	.LVL15
 2475 016e 22000000 		.4byte	.LVL18
 2476 0172 0400     		.2byte	0x4
 2477 0174 71       		.byte	0x71
 2478 0175 00       		.sleb128 0
 2479 0176 1F       		.byte	0x1f
 2480 0177 9F       		.byte	0x9f
 2481 0178 22000000 		.4byte	.LVL18
 2482 017c 46000000 		.4byte	.LFE190
 2483 0180 0400     		.2byte	0x4
 2484 0182 F3       		.byte	0xf3
 2485 0183 01       		.uleb128 0x1
 2486 0184 51       		.byte	0x51
 2487 0185 9F       		.byte	0x9f
 2488 0186 00000000 		.4byte	0
 2489 018a 00000000 		.4byte	0
 2490              	.LLST6:
 2491 018e 00000000 		.4byte	.LVL12
 2492 0192 16000000 		.4byte	.LVL14
 2493 0196 0100     		.2byte	0x1
 2494 0198 52       		.byte	0x52
 2495 0199 16000000 		.4byte	.LVL14
 2496 019d 46000000 		.4byte	.LFE190
 2497 01a1 0400     		.2byte	0x4
 2498 01a3 F3       		.byte	0xf3
 2499 01a4 01       		.uleb128 0x1
 2500 01a5 52       		.byte	0x52
 2501 01a6 9F       		.byte	0x9f
 2502 01a7 00000000 		.4byte	0
 2503 01ab 00000000 		.4byte	0
 2504              	.LLST7:
 2505 01af 08000000 		.4byte	.LVL13
 2506 01b3 16000000 		.4byte	.LVL14
 2507 01b7 0100     		.2byte	0x1
 2508 01b9 52       		.byte	0x52
 2509 01ba 16000000 		.4byte	.LVL14
 2510 01be 46000000 		.4byte	.LFE190
 2511 01c2 0400     		.2byte	0x4
 2512 01c4 F3       		.byte	0xf3
 2513 01c5 01       		.uleb128 0x1
 2514 01c6 52       		.byte	0x52
 2515 01c7 9F       		.byte	0x9f
 2516 01c8 00000000 		.4byte	0
 2517 01cc 00000000 		.4byte	0
 2518              	.LLST8:
 2519 01d0 08000000 		.4byte	.LVL13
 2520 01d4 1A000000 		.4byte	.LVL15
 2521 01d8 0100     		.2byte	0x1
 2522 01da 51       		.byte	0x51
 2523 01db 1A000000 		.4byte	.LVL15
 2524 01df 22000000 		.4byte	.LVL18
 2525 01e3 0400     		.2byte	0x4
ARM GAS  /tmp/ccGtGfPv.s 			page 61


 2526 01e5 71       		.byte	0x71
 2527 01e6 00       		.sleb128 0
 2528 01e7 1F       		.byte	0x1f
 2529 01e8 9F       		.byte	0x9f
 2530 01e9 22000000 		.4byte	.LVL18
 2531 01ed 46000000 		.4byte	.LFE190
 2532 01f1 0400     		.2byte	0x4
 2533 01f3 F3       		.byte	0xf3
 2534 01f4 01       		.uleb128 0x1
 2535 01f5 51       		.byte	0x51
 2536 01f6 9F       		.byte	0x9f
 2537 01f7 00000000 		.4byte	0
 2538 01fb 00000000 		.4byte	0
 2539              	.LLST9:
 2540 01ff 08000000 		.4byte	.LVL13
 2541 0203 1A000000 		.4byte	.LVL15
 2542 0207 0100     		.2byte	0x1
 2543 0209 50       		.byte	0x50
 2544 020a 1A000000 		.4byte	.LVL15
 2545 020e 1C000000 		.4byte	.LVL16
 2546 0212 0900     		.2byte	0x9
 2547 0214 74       		.byte	0x74
 2548 0215 00       		.sleb128 0
 2549 0216 70       		.byte	0x70
 2550 0217 00       		.sleb128 0
 2551 0218 22       		.byte	0x22
 2552 0219 71       		.byte	0x71
 2553 021a 00       		.sleb128 0
 2554 021b 1A       		.byte	0x1a
 2555 021c 9F       		.byte	0x9f
 2556 021d 1C000000 		.4byte	.LVL16
 2557 0221 20000000 		.4byte	.LVL17
 2558 0225 0A00     		.2byte	0xa
 2559 0227 71       		.byte	0x71
 2560 0228 00       		.sleb128 0
 2561 0229 20       		.byte	0x20
 2562 022a 70       		.byte	0x70
 2563 022b 00       		.sleb128 0
 2564 022c 22       		.byte	0x22
 2565 022d 71       		.byte	0x71
 2566 022e 00       		.sleb128 0
 2567 022f 1A       		.byte	0x1a
 2568 0230 9F       		.byte	0x9f
 2569 0231 20000000 		.4byte	.LVL17
 2570 0235 22000000 		.4byte	.LVL18
 2571 0239 0B00     		.2byte	0xb
 2572 023b 71       		.byte	0x71
 2573 023c 00       		.sleb128 0
 2574 023d 20       		.byte	0x20
 2575 023e F3       		.byte	0xf3
 2576 023f 01       		.uleb128 0x1
 2577 0240 50       		.byte	0x50
 2578 0241 22       		.byte	0x22
 2579 0242 71       		.byte	0x71
 2580 0243 00       		.sleb128 0
 2581 0244 1A       		.byte	0x1a
 2582 0245 9F       		.byte	0x9f
ARM GAS  /tmp/ccGtGfPv.s 			page 62


 2583 0246 22000000 		.4byte	.LVL18
 2584 024a 46000000 		.4byte	.LFE190
 2585 024e 0F00     		.2byte	0xf
 2586 0250 F3       		.byte	0xf3
 2587 0251 01       		.uleb128 0x1
 2588 0252 51       		.byte	0x51
 2589 0253 F3       		.byte	0xf3
 2590 0254 01       		.uleb128 0x1
 2591 0255 50       		.byte	0x50
 2592 0256 22       		.byte	0x22
 2593 0257 31       		.byte	0x31
 2594 0258 1C       		.byte	0x1c
 2595 0259 F3       		.byte	0xf3
 2596 025a 01       		.uleb128 0x1
 2597 025b 51       		.byte	0x51
 2598 025c 1F       		.byte	0x1f
 2599 025d 1A       		.byte	0x1a
 2600 025e 9F       		.byte	0x9f
 2601 025f 00000000 		.4byte	0
 2602 0263 00000000 		.4byte	0
 2603              	.LLST10:
 2604 0267 20000000 		.4byte	.LVL17
 2605 026b 3C000000 		.4byte	.LVL22
 2606 026f 0100     		.2byte	0x1
 2607 0271 50       		.byte	0x50
 2608 0272 3C000000 		.4byte	.LVL22
 2609 0276 44000000 		.4byte	.LVL23
 2610 027a 1200     		.2byte	0x12
 2611 027c 75       		.byte	0x75
 2612 027d 00       		.sleb128 0
 2613 027e F3       		.byte	0xf3
 2614 027f 01       		.uleb128 0x1
 2615 0280 51       		.byte	0x51
 2616 0281 22       		.byte	0x22
 2617 0282 F3       		.byte	0xf3
 2618 0283 01       		.uleb128 0x1
 2619 0284 52       		.byte	0x52
 2620 0285 22       		.byte	0x22
 2621 0286 31       		.byte	0x31
 2622 0287 1C       		.byte	0x1c
 2623 0288 F3       		.byte	0xf3
 2624 0289 01       		.uleb128 0x1
 2625 028a 51       		.byte	0x51
 2626 028b 1F       		.byte	0x1f
 2627 028c 1A       		.byte	0x1a
 2628 028d 9F       		.byte	0x9f
 2629 028e 44000000 		.4byte	.LVL23
 2630 0292 46000000 		.4byte	.LFE190
 2631 0296 1600     		.2byte	0x16
 2632 0298 F3       		.byte	0xf3
 2633 0299 01       		.uleb128 0x1
 2634 029a 52       		.byte	0x52
 2635 029b F3       		.byte	0xf3
 2636 029c 01       		.uleb128 0x1
 2637 029d 51       		.byte	0x51
 2638 029e 22       		.byte	0x22
 2639 029f 03       		.byte	0x3
ARM GAS  /tmp/ccGtGfPv.s 			page 63


 2640 02a0 00000000 		.4byte	ch_memcore
 2641 02a4 06       		.byte	0x6
 2642 02a5 22       		.byte	0x22
 2643 02a6 31       		.byte	0x31
 2644 02a7 1C       		.byte	0x1c
 2645 02a8 F3       		.byte	0xf3
 2646 02a9 01       		.uleb128 0x1
 2647 02aa 51       		.byte	0x51
 2648 02ab 1F       		.byte	0x1f
 2649 02ac 1A       		.byte	0x1a
 2650 02ad 9F       		.byte	0x9f
 2651 02ae 00000000 		.4byte	0
 2652 02b2 00000000 		.4byte	0
 2653              	.LLST11:
 2654 02b6 30000000 		.4byte	.LVL20
 2655 02ba 3A000000 		.4byte	.LVL21
 2656 02be 0200     		.2byte	0x2
 2657 02c0 30       		.byte	0x30
 2658 02c1 9F       		.byte	0x9f
 2659 02c2 3C000000 		.4byte	.LVL22
 2660 02c6 46000000 		.4byte	.LFE190
 2661 02ca 0200     		.2byte	0x2
 2662 02cc 30       		.byte	0x30
 2663 02cd 9F       		.byte	0x9f
 2664 02ce 00000000 		.4byte	0
 2665 02d2 00000000 		.4byte	0
 2666              		.section	.debug_aranges,"",%progbits
 2667 0000 34000000 		.4byte	0x34
 2668 0004 0200     		.2byte	0x2
 2669 0006 00000000 		.4byte	.Ldebug_info0
 2670 000a 04       		.byte	0x4
 2671 000b 00       		.byte	0
 2672 000c 0000     		.2byte	0
 2673 000e 0000     		.2byte	0
 2674 0010 00000000 		.4byte	.LFB188
 2675 0014 1E000000 		.4byte	.LFE188-.LFB188
 2676 0018 00000000 		.4byte	.LFB189
 2677 001c 34000000 		.4byte	.LFE189-.LFB189
 2678 0020 00000000 		.4byte	.LFB190
 2679 0024 46000000 		.4byte	.LFE190-.LFB190
 2680 0028 00000000 		.4byte	.LFB191
 2681 002c 10000000 		.4byte	.LFE191-.LFB191
 2682 0030 00000000 		.4byte	0
 2683 0034 00000000 		.4byte	0
 2684              		.section	.debug_ranges,"",%progbits
 2685              	.Ldebug_ranges0:
 2686 0000 08000000 		.4byte	.LBB30
 2687 0004 30000000 		.4byte	.LBE30
 2688 0008 3A000000 		.4byte	.LBB42
 2689 000c 3C000000 		.4byte	.LBE42
 2690 0010 00000000 		.4byte	0
 2691 0014 00000000 		.4byte	0
 2692 0018 30000000 		.4byte	.LBB33
 2693 001c 36000000 		.4byte	.LBE33
 2694 0020 3C000000 		.4byte	.LBB43
 2695 0024 42000000 		.4byte	.LBE43
 2696 0028 00000000 		.4byte	0
ARM GAS  /tmp/ccGtGfPv.s 			page 64


 2697 002c 00000000 		.4byte	0
 2698 0030 00000000 		.4byte	.LFB188
 2699 0034 1E000000 		.4byte	.LFE188
 2700 0038 00000000 		.4byte	.LFB189
 2701 003c 34000000 		.4byte	.LFE189
 2702 0040 00000000 		.4byte	.LFB190
 2703 0044 46000000 		.4byte	.LFE190
 2704 0048 00000000 		.4byte	.LFB191
 2705 004c 10000000 		.4byte	.LFE191
 2706 0050 00000000 		.4byte	0
 2707 0054 00000000 		.4byte	0
 2708              		.section	.debug_line,"",%progbits
 2709              	.Ldebug_line0:
 2710 0000 E5020000 		.section	.debug_str,"MS",%progbits,1
 2710      02004C02 
 2710      00000201 
 2710      FB0E0D00 
 2710      01010101 
 2711              	.LASF42:
 2712 0000 63685F74 		.ascii	"ch_threads_list\000"
 2712      68726561 
 2712      64735F6C 
 2712      69737400 
 2713              	.LASF77:
 2714 0010 77746D74 		.ascii	"wtmtxp\000"
 2714      787000
 2715              	.LASF106:
 2716 0017 2F686F6D 		.ascii	"/home/otto/Escritorio/Semestre12/Embebidos/ChibiOS_"
 2716      652F6F74 
 2716      746F2F45 
 2716      73637269 
 2716      746F7269 
 2717 004a 31372E36 		.ascii	"17.6.2/demos/STM32/NIL-STM32F100-DISCOVERY\000"
 2717      2E322F64 
 2717      656D6F73 
 2717      2F53544D 
 2717      33322F4E 
 2718              	.LASF67:
 2719 0075 72656761 		.ascii	"regarm_t\000"
 2719      726D5F74 
 2719      00
 2720              	.LASF31:
 2721 007e 666C6167 		.ascii	"flags\000"
 2721      7300
 2722              	.LASF22:
 2723 0084 73797374 		.ascii	"systime_t\000"
 2723      696D655F 
 2723      7400
 2724              	.LASF37:
 2725 008e 7265616C 		.ascii	"realprio\000"
 2725      7072696F 
 2725      00
 2726              	.LASF35:
 2727 0097 6570656E 		.ascii	"epending\000"
 2727      64696E67 
 2727      00
 2728              	.LASF0:
ARM GAS  /tmp/ccGtGfPv.s 			page 65


 2729 00a0 756E7369 		.ascii	"unsigned int\000"
 2729      676E6564 
 2729      20696E74 
 2729      00
 2730              	.LASF43:
 2731 00ad 6E657874 		.ascii	"next\000"
 2731      00
 2732              	.LASF40:
 2733 00b2 74687265 		.ascii	"threads_list_t\000"
 2733      6164735F 
 2733      6C697374 
 2733      5F7400
 2734              	.LASF32:
 2735 00c1 72656673 		.ascii	"refs\000"
 2735      00
 2736              	.LASF108:
 2737 00c6 6368436F 		.ascii	"chCoreAllocAlignedWithOffset\000"
 2737      7265416C 
 2737      6C6F6341 
 2737      6C69676E 
 2737      65645769 
 2738              	.LASF73:
 2739 00e3 77746F62 		.ascii	"wtobjp\000"
 2739      6A7000
 2740              	.LASF88:
 2741 00ea 706F7274 		.ascii	"port_lock\000"
 2741      5F6C6F63 
 2741      6B00
 2742              	.LASF64:
 2743 00f4 76746C69 		.ascii	"vtlist\000"
 2743      737400
 2744              	.LASF69:
 2745 00fb 706F7274 		.ascii	"port_context\000"
 2745      5F636F6E 
 2745      74657874 
 2745      00
 2746              	.LASF48:
 2747 0108 63685F72 		.ascii	"ch_ready_list\000"
 2747      65616479 
 2747      5F6C6973 
 2747      7400
 2748              	.LASF54:
 2749 0116 66756E63 		.ascii	"func\000"
 2749      00
 2750              	.LASF78:
 2751 011b 65776D61 		.ascii	"ewmask\000"
 2751      736B00
 2752              	.LASF46:
 2753 0122 70726576 		.ascii	"prev\000"
 2753      00
 2754              	.LASF45:
 2755 0127 63685F74 		.ascii	"ch_threads_queue\000"
 2755      68726561 
 2755      64735F71 
 2755      75657565 
 2755      00
 2756              	.LASF50:
ARM GAS  /tmp/ccGtGfPv.s 			page 66


 2757 0138 76746675 		.ascii	"vtfunc_t\000"
 2757      6E635F74 
 2757      00
 2758              	.LASF109:
 2759 0141 6368436F 		.ascii	"chCoreGetStatusX\000"
 2759      72654765 
 2759      74537461 
 2759      74757358 
 2759      00
 2760              	.LASF59:
 2761 0152 63685F73 		.ascii	"ch_system_debug\000"
 2761      79737465 
 2761      6D5F6465 
 2761      62756700 
 2762              	.LASF10:
 2763 0162 75696E74 		.ascii	"uint32_t\000"
 2763      33325F74 
 2763      00
 2764              	.LASF75:
 2765 016b 73656E74 		.ascii	"sentmsg\000"
 2765      6D736700 
 2766              	.LASF20:
 2767 0173 6576656E 		.ascii	"eventmask_t\000"
 2767      746D6173 
 2767      6B5F7400 
 2768              	.LASF95:
 2769 017f 5F5F6675 		.ascii	"__func__.5918\000"
 2769      6E635F5F 
 2769      2E353931 
 2769      3800
 2770              	.LASF79:
 2771 018d 63685F73 		.ascii	"ch_semaphore\000"
 2771      656D6170 
 2771      686F7265 
 2771      00
 2772              	.LASF18:
 2773 019a 74707269 		.ascii	"tprio_t\000"
 2773      6F5F7400 
 2774              	.LASF52:
 2775 01a2 63685F76 		.ascii	"ch_virtual_timer\000"
 2775      69727475 
 2775      616C5F74 
 2775      696D6572 
 2775      00
 2776              	.LASF87:
 2777 01b3 6D656D63 		.ascii	"memcore_t\000"
 2777      6F72655F 
 2777      7400
 2778              	.LASF99:
 2779 01bd 6368436F 		.ascii	"chCoreAllocAlignedWithOffsetI\000"
 2779      7265416C 
 2779      6C6F6341 
 2779      6C69676E 
 2779      65645769 
 2780              	.LASF14:
 2781 01db 6C6F6E67 		.ascii	"long long unsigned int\000"
 2781      206C6F6E 
ARM GAS  /tmp/ccGtGfPv.s 			page 67


 2781      6720756E 
 2781      7369676E 
 2781      65642069 
 2782              	.LASF21:
 2783 01f2 636E745F 		.ascii	"cnt_t\000"
 2783      7400
 2784              	.LASF97:
 2785 01f8 63685379 		.ascii	"chSysUnlock\000"
 2785      73556E6C 
 2785      6F636B00 
 2786              	.LASF81:
 2787 0204 6F776E65 		.ascii	"owner\000"
 2787      7200
 2788              	.LASF44:
 2789 020a 74687265 		.ascii	"threads_queue_t\000"
 2789      6164735F 
 2789      71756575 
 2789      655F7400 
 2790              	.LASF91:
 2791 021a 76616C75 		.ascii	"value\000"
 2791      6500
 2792              	.LASF36:
 2793 0220 6D74786C 		.ascii	"mtxlist\000"
 2793      69737400 
 2794              	.LASF56:
 2795 0228 63685F76 		.ascii	"ch_virtual_timers_list\000"
 2795      69727475 
 2795      616C5F74 
 2795      696D6572 
 2795      735F6C69 
 2796              	.LASF23:
 2797 023f 74687265 		.ascii	"thread_t\000"
 2797      61645F74 
 2797      00
 2798              	.LASF107:
 2799 0248 5F636F72 		.ascii	"_core_init\000"
 2799      655F696E 
 2799      697400
 2800              	.LASF100:
 2801 0253 5F5F6865 		.ascii	"__heap_base__\000"
 2801      61705F62 
 2801      6173655F 
 2801      5F00
 2802              	.LASF2:
 2803 0261 73697A65 		.ascii	"size_t\000"
 2803      5F7400
 2804              	.LASF71:
 2805 0268 7264796D 		.ascii	"rdymsg\000"
 2805      736700
 2806              	.LASF94:
 2807 026f 6F666673 		.ascii	"offset\000"
 2807      657400
 2808              	.LASF84:
 2809 0276 5F426F6F 		.ascii	"_Bool\000"
 2809      6C00
 2810              	.LASF80:
 2811 027c 63685F6D 		.ascii	"ch_mutex\000"
ARM GAS  /tmp/ccGtGfPv.s 			page 68


 2811      75746578 
 2811      00
 2812              	.LASF104:
 2813 0285 474E5520 		.ascii	"GNU C 4.8.1 -mcpu=cortex-m3 -mno-thumb-interwork -m"
 2813      4320342E 
 2813      382E3120 
 2813      2D6D6370 
 2813      753D636F 
 2814 02b8 7468756D 		.ascii	"thumb -ggdb -O2 -fomit-frame-pointer -falign-functi"
 2814      62202D67 
 2814      67646220 
 2814      2D4F3220 
 2814      2D666F6D 
 2815 02eb 6F6E733D 		.ascii	"ons=16 -ffunction-sections -fdata-sections -fno-com"
 2815      3136202D 
 2815      6666756E 
 2815      6374696F 
 2815      6E2D7365 
 2816 031e 6D6F6E20 		.ascii	"mon -flto\000"
 2816      2D666C74 
 2816      6F00
 2817              	.LASF90:
 2818 0328 63685379 		.ascii	"chSysLock\000"
 2818      734C6F63 
 2818      6B00
 2819              	.LASF25:
 2820 0332 7072696F 		.ascii	"prio\000"
 2820      00
 2821              	.LASF82:
 2822 0337 63686172 		.ascii	"char\000"
 2822      00
 2823              	.LASF39:
 2824 033c 74687265 		.ascii	"thread_reference_t\000"
 2824      61645F72 
 2824      65666572 
 2824      656E6365 
 2824      5F7400
 2825              	.LASF29:
 2826 034f 77616261 		.ascii	"wabase\000"
 2826      736500
 2827              	.LASF98:
 2828 0356 5F5F6675 		.ascii	"__func__.5178\000"
 2828      6E635F5F 
 2828      2E353137 
 2828      3800
 2829              	.LASF16:
 2830 0364 74737461 		.ascii	"tstate_t\000"
 2830      74655F74 
 2830      00
 2831              	.LASF3:
 2832 036d 75696E74 		.ascii	"uint8_t\000"
 2832      385F7400 
 2833              	.LASF34:
 2834 0375 6D736771 		.ascii	"msgqueue\000"
 2834      75657565 
 2834      00
 2835              	.LASF41:
ARM GAS  /tmp/ccGtGfPv.s 			page 69


 2836 037e 63685F74 		.ascii	"ch_thread\000"
 2836      68726561 
 2836      6400
 2837              	.LASF58:
 2838 0388 73797374 		.ascii	"system_debug_t\000"
 2838      656D5F64 
 2838      65627567 
 2838      5F7400
 2839              	.LASF12:
 2840 0397 6C6F6E67 		.ascii	"long long int\000"
 2840      206C6F6E 
 2840      6720696E 
 2840      7400
 2841              	.LASF19:
 2842 03a5 6D73675F 		.ascii	"msg_t\000"
 2842      7400
 2843              	.LASF51:
 2844 03ab 76697274 		.ascii	"virtual_timer_t\000"
 2844      75616C5F 
 2844      74696D65 
 2844      725F7400 
 2845              	.LASF92:
 2846 03bb 73697A65 		.ascii	"size\000"
 2846      00
 2847              	.LASF60:
 2848 03c0 70616E69 		.ascii	"panic_msg\000"
 2848      635F6D73 
 2848      6700
 2849              	.LASF15:
 2850 03ca 746D6F64 		.ascii	"tmode_t\000"
 2850      655F7400 
 2851              	.LASF65:
 2852 03d2 6D61696E 		.ascii	"mainthread\000"
 2852      74687265 
 2852      616400
 2853              	.LASF6:
 2854 03dd 75696E74 		.ascii	"uint16_t\000"
 2854      31365F74 
 2854      00
 2855              	.LASF103:
 2856 03e6 63685F6D 		.ascii	"ch_memcore\000"
 2856      656D636F 
 2856      726500
 2857              	.LASF5:
 2858 03f1 73686F72 		.ascii	"short int\000"
 2858      7420696E 
 2858      7400
 2859              	.LASF9:
 2860 03fb 6C6F6E67 		.ascii	"long int\000"
 2860      20696E74 
 2860      00
 2861              	.LASF70:
 2862 0404 706F7274 		.ascii	"port_intctx\000"
 2862      5F696E74 
 2862      63747800 
 2863              	.LASF102:
 2864 0410 49544D5F 		.ascii	"ITM_RxBuffer\000"
ARM GAS  /tmp/ccGtGfPv.s 			page 70


 2864      52784275 
 2864      66666572 
 2864      00
 2865              	.LASF62:
 2866 041d 63685F73 		.ascii	"ch_system\000"
 2866      79737465 
 2866      6D00
 2867              	.LASF96:
 2868 0427 5F5F7365 		.ascii	"__set_BASEPRI\000"
 2868      745F4241 
 2868      53455052 
 2868      4900
 2869              	.LASF57:
 2870 0435 6C617374 		.ascii	"lasttime\000"
 2870      74696D65 
 2870      00
 2871              	.LASF13:
 2872 043e 75696E74 		.ascii	"uint64_t\000"
 2872      36345F74 
 2872      00
 2873              	.LASF63:
 2874 0447 726C6973 		.ascii	"rlist\000"
 2874      7400
 2875              	.LASF28:
 2876 044d 6E616D65 		.ascii	"name\000"
 2876      00
 2877              	.LASF66:
 2878 0452 73697A65 		.ascii	"sizetype\000"
 2878      74797065 
 2878      00
 2879              	.LASF17:
 2880 045b 74726566 		.ascii	"trefs_t\000"
 2880      735F7400 
 2881              	.LASF11:
 2882 0463 6C6F6E67 		.ascii	"long unsigned int\000"
 2882      20756E73 
 2882      69676E65 
 2882      6420696E 
 2882      7400
 2883              	.LASF47:
 2884 0475 72656164 		.ascii	"ready_list_t\000"
 2884      795F6C69 
 2884      73745F74 
 2884      00
 2885              	.LASF24:
 2886 0482 71756575 		.ascii	"queue\000"
 2886      6500
 2887              	.LASF8:
 2888 0488 696E7433 		.ascii	"int32_t\000"
 2888      325F7400 
 2889              	.LASF76:
 2890 0490 77747365 		.ascii	"wtsemp\000"
 2890      6D7000
 2891              	.LASF83:
 2892 0497 6D757465 		.ascii	"mutex_t\000"
 2892      785F7400 
 2893              	.LASF26:
ARM GAS  /tmp/ccGtGfPv.s 			page 71


 2894 049f 6E657765 		.ascii	"newer\000"
 2894      7200
 2895              	.LASF4:
 2896 04a5 756E7369 		.ascii	"unsigned char\000"
 2896      676E6564 
 2896      20636861 
 2896      7200
 2897              	.LASF33:
 2898 04b3 77616974 		.ascii	"waiting\000"
 2898      696E6700 
 2899              	.LASF55:
 2900 04bb 76697274 		.ascii	"virtual_timers_list_t\000"
 2900      75616C5F 
 2900      74696D65 
 2900      72735F6C 
 2900      6973745F 
 2901              	.LASF30:
 2902 04d1 73746174 		.ascii	"state\000"
 2902      6500
 2903              	.LASF61:
 2904 04d7 63685F73 		.ascii	"ch_system_t\000"
 2904      79737465 
 2904      6D5F7400 
 2905              	.LASF74:
 2906 04e3 77747472 		.ascii	"wttrp\000"
 2906      7000
 2907              	.LASF1:
 2908 04e9 7369676E 		.ascii	"signed char\000"
 2908      65642063 
 2908      68617200 
 2909              	.LASF53:
 2910 04f5 64656C74 		.ascii	"delta\000"
 2910      6100
 2911              	.LASF7:
 2912 04fb 73686F72 		.ascii	"short unsigned int\000"
 2912      7420756E 
 2912      7369676E 
 2912      65642069 
 2912      6E7400
 2913              	.LASF68:
 2914 050e 73746B61 		.ascii	"stkalign_t\000"
 2914      6C69676E 
 2914      5F7400
 2915              	.LASF86:
 2916 0519 656E646D 		.ascii	"endmem\000"
 2916      656D00
 2917              	.LASF49:
 2918 0520 63757272 		.ascii	"current\000"
 2918      656E7400 
 2919              	.LASF105:
 2920 0528 2E2E2F2E 		.ascii	"../../../os/common/oslib/src/chmemcore.c\000"
 2920      2E2F2E2E 
 2920      2F6F732F 
 2920      636F6D6D 
 2920      6F6E2F6F 
 2921              	.LASF89:
 2922 0551 706F7274 		.ascii	"port_unlock\000"
ARM GAS  /tmp/ccGtGfPv.s 			page 72


 2922      5F756E6C 
 2922      6F636B00 
 2923              	.LASF93:
 2924 055d 616C6967 		.ascii	"align\000"
 2924      6E00
 2925              	.LASF27:
 2926 0563 6F6C6465 		.ascii	"older\000"
 2926      7200
 2927              	.LASF85:
 2928 0569 6E657874 		.ascii	"nextmem\000"
 2928      6D656D00 
 2929              	.LASF72:
 2930 0571 65786974 		.ascii	"exitcode\000"
 2930      636F6465 
 2930      00
 2931              	.LASF101:
 2932 057a 5F5F6865 		.ascii	"__heap_end__\000"
 2932      61705F65 
 2932      6E645F5F 
 2932      00
 2933              	.LASF38:
 2934 0587 6D706F6F 		.ascii	"mpool\000"
 2934      6C00
 2935              		.comm	__gnu_lto_v1,1,1
 2936              		.ident	"GCC: (Sourcery CodeBench Lite 2013.11-24) 4.8.1"
ARM GAS  /tmp/ccGtGfPv.s 			page 73


DEFINED SYMBOLS
                            *ABS*:00000000 chmemcore.c
     /tmp/ccGtGfPv.s:280    .text._core_init:00000000 $t
     /tmp/ccGtGfPv.s:286    .text._core_init:00000000 _core_init
     /tmp/ccGtGfPv.s:537    .bss.ch_memcore:00000000 .LANCHOR0
     /tmp/ccGtGfPv.s:310    .text.chCoreAllocAlignedWithOffsetI:00000000 $t
     /tmp/ccGtGfPv.s:316    .text.chCoreAllocAlignedWithOffsetI:00000000 chCoreAllocAlignedWithOffsetI
     /tmp/ccGtGfPv.s:386    .text.chCoreAllocAlignedWithOffset:00000000 $t
     /tmp/ccGtGfPv.s:392    .text.chCoreAllocAlignedWithOffset:00000000 chCoreAllocAlignedWithOffset
     /tmp/ccGtGfPv.s:510    .text.chCoreGetStatusX:00000000 $t
     /tmp/ccGtGfPv.s:516    .text.chCoreGetStatusX:00000000 chCoreGetStatusX
     /tmp/ccGtGfPv.s:540    .bss.ch_memcore:00000000 ch_memcore
     /tmp/ccGtGfPv.s:536    .bss.ch_memcore:00000000 $d
                            *COM*:00000001 __gnu_lto_v1
                     .debug_frame:00000010 $d

UNDEFINED SYMBOLS
__heap_base__
__heap_end__
