ARM GAS  /tmp/ccGtGfPv.s 			page 1


   1              		.syntax unified
   2              		.cpu cortex-m3
   3              		.fpu softvfp
   4              		.eabi_attribute 20, 1
   5              		.eabi_attribute 21, 1
   6              		.eabi_attribute 23, 3
   7              		.eabi_attribute 24, 1
   8              		.eabi_attribute 25, 1
   9              		.eabi_attribute 26, 1
  10              		.eabi_attribute 30, 2
  11              		.eabi_attribute 34, 1
  12              		.eabi_attribute 18, 4
  13              		.thumb
  14              		.file	"chmemcore.c"
  15              		.text
  16              	.Ltext0:
  17              		.section	.gnu.lto_.jmpfuncs.f34daf984d137dbe,"",%progbits
  18 0000 789C6362 		.ascii	"x\234cb`b\300\006\270\2404\013\020\261\263\262\2631"
  18      6062C006 
  18      B8A0340B 
  18      10B1B3B2 
  18      B331
  19 0012 30000002 		.ascii	"0\000\000\0027\0000"
  19      370030
  20              		.text
  21              		.section	.gnu.lto_.inline.f34daf984d137dbe,"",%progbits
  22 0000 789C6362 		.ascii	"x\234cb`b\300\006*\2404\013\003\003+\013#\003\023\313"
  22      6062C006 
  22      2AA0340B 
  22      03032B0B 
  22      230313CB 
  23 0014 027906B6 		.ascii	"\002y\006\266\005\362L\0201a!F&FF\020\033D\260Hl\331"
  23      05F24C10 
  23      31612146 
  23      26464610 
  23      1B44B048 
  24 002a CA089165 		.ascii	"\312\010\221e\373\240\307\303\300t\201\237\005$\307"
  24      FBA0C7C3 
  24      C074819F 
  24      0524C7
  25 0039 CA202AC2 		.ascii	"\312 *\302\310\004V\002V\314\"s\345\012\232:\016\220"
  25      C8045602 
  25      56CC2273 
  25      E50A9A3A 
  25      0E90
  26 004b 3A360636 		.ascii	":6\0066V\240\025@1\270\025\014\000\016\301\015\204"
  26      56A01540 
  26      31B8150C 
  26      000EC10D 
  26      84
  27              		.text
  28              		.section	.gnu.lto_.pureconst.f34daf984d137dbe,"",%progbits
  29 0000 789C6362 		.ascii	"x\234cb`b\340d\200\000\026\006\011\026\011V+6\026\000"
  29      6062E064 
  29      80001606 
  29      09160956 
  29      2B361600 
ARM GAS  /tmp/ccGtGfPv.s 			page 2


  30 0014 032C008F 		.ascii	"\003,\000\217"
  31              		.text
  32              		.section	.gnu.lto__core_init.f34daf984d137dbe,"",%progbits
  33 0000 789C9D4F 		.ascii	"x\234\235O=K\304@\020\235\267\271\003\013\005[;\321"
  33      3D4BC440 
  33      109DB7B9 
  33      030B055B 
  33      3BD1
  34 0012 4A94A4D7 		.ascii	"J\224\244\327\336_p\202VK\022\003\027p/z)-2Q\221+\024"
  34      DE5F7082 
  34      564B1203 
  34      17702F7A 
  34      292D3251 
  35 0029 622182DA 		.ascii	"b!\202\332\034bc\241\376\003S\0356\012\332h\031\361"
  35      1C6263A1 
  35      FE03531D 
  35      360ADA68 
  35      19F1
  36 003b 5F5C61DC 		.ascii	"_\\a\334|x\310\3319\354\356\314\316\274y\363F\220\240"
  36      7C78C8D9 
  36      39ECEECC 
  36      CEBC79F3 
  36      4690A0
  37 004e 719BD157 		.ascii	"q\233\321W\201hU{\030\004\221<\023\305\023\002(\002"
  37      8168557B 
  37      1804913C 
  37      13C51302 
  37      2802
  38 0060 024502D1 		.ascii	"\002E\002\321\006J\354\235H\263<\277}\035\234\035\341"
  38      064AEC9D 
  38      48B33CBF 
  38      7D1D9C1D 
  38      E1
  39 0071 523474A6 		.ascii	"R4t\246I\007\314\311\354\034\3659K\322\267\303S\360"
  39      4907CCC9 
  39      EC1CF539 
  39      4BD2B7C3 
  39      53F0
  40 0083 079FF057 		.ascii	"\007\237\360W\236\303\207\236\266\004r1\232e\343\012"
  40      9EC3879E 
  40      B6047231 
  40      9A65E30A 
  41 0093 230575CF 		.ascii	"#\005u\317\373\200\031\367i\217\363<*[\226\307Z\256"
  41      FB8019F7 
  41      698FF33C 
  41      2A5B96C7 
  41      5AAE
  42 00a5 F14B7455 		.ascii	"\361KtUi\351\267P\267\246K\332\033O\2647\334\17786m"
  42      69E9B750 
  42      B7A64BDA 
  42      1B4FB437 
  42      DC7F3836 
  43 00ba F4D1A445 		.ascii	"\364\321\244E\272am+>pA\3471\363\264\017\261KC\356\025"
  43      BA616D2B 
  43      3E7041E7 
  43      31F3B40F 
  43      B14B43EE 
ARM GAS  /tmp/ccGtGfPv.s 			page 3


  44 00cf 91A14A8A 		.ascii	"\221\241J\212u\255\317()\235zX\205\340\035\037\015\205"
  44      75ADCF28 
  44      299D7A58 
  44      85E01D1F 
  44      0D85
  45 00e1 2A57F27E 		.ascii	"*W\362~\376\233\027\177y\253U^(\316\036\347+\326\037"
  45      FE9B177F 
  45      79AB555E 
  45      28CE1EE7 
  45      2BD61F
  46 00f4 6B69B8DE 		.ascii	"ki\270\336\245\000,\230\246U\235 \264\334@\251\240\243"
  46      A5002C98 
  46      A6559D20 
  46      B4DC40A9 
  46      A0A3
  47 0106 A32DDFB1 		.ascii	"\243-\337\261\302\256k\271m\345)7\350z\246KSR\266={"
  47      C2AE6BB9 
  47      6DE52937 
  47      E87AA64B 
  47      5352B63D 
  48 011b 5B3A76E8 		.ascii	"[:v\350I9Y\377\274\316\246\224\337\302\215w}"
  48      493959FF 
  48      BCCEA694 
  48      DFC28D77 
  48      7D
  49              		.text
  50              		.section	.gnu.lto_chCoreAllocAlignedWithOffsetI.f34daf984d137dbe,"",%progbits
  51 0000 789C9554 		.ascii	"x\234\225TAk\023A\024~of7\033\322\244IS\025\361Tz\323"
  51      416B1341 
  51      147E6F66 
  51      371BD2A4 
  51      495315F1 
  52 0017 4A025E3D 		.ascii	"J\002^=\364\340_0\240\307f\0151\3406\322z\020<t\322"
  52      F4E05F30 
  52      A0C7660D 
  52      31E036D2 
  52      7A103C74 
  53 002c E4505068 		.ascii	"\344PPh\021<\250\027k\025TD=\026\252\230\203HzP\314"
  53      113CA817 
  53      6B155444 
  53      3D16AA98 
  53      83487A50 
  54 0041 514F8152 		.ascii	"QO\201R\021*\202\327\"\256\337\233\315\2566\027\351"
  54      112A82D7 
  54      22AEDF9B 
  54      CDAE3617 
  54      E9
  55 0052 90BC99F9 		.ascii	"\220\274\231\371\276\367\336\274\367\355\354*R4:\316"
  55      BEF7DEBC 
  55      F7EDEC2A 
  55      52343ACE 
  56 0062 E1FF4213 		.ascii	"\341\377B\023\235\301\314)b\265\366\221\250\225V\312"
  56      9DC1CC29 
  56      62B5F691 
  56      A89556CA 
  57 0072 FDE691C9 		.ascii	"\375\346\221\311\350'\357\211LV\017\267N\264u\330\215"
  57      E827EF89 
ARM GAS  /tmp/ccGtGfPv.s 			page 4


  57      4C560FB7 
  57      4EB475D8 
  57      8D
  58 0083 DC5C6659 		.ascii	"\334\\fY\020\323\222\322\216\313K\027Y\222\252iZ7\346"
  58      10D392D2 
  58      8ECB4B17 
  58      5992AA69 
  58      5A37E6
  59 0096 F660777F 		.ascii	"\366`w\177\300wM\267\363\300\374\012C\346\006\243\200"
  59      C0774DB7 
  59      F3C0FC0A 
  59      43E606A3 
  59      80
  60 00a7 D34C3ED3 		.ascii	"\323L>\323\005lx\312N\3129XQ\024k\372\227z\246\323\015"
  60      056C78CA 
  60      4ECA3958 
  60      51146BFA 
  60      977AA6D3 
  61 00bc C3591B55 		.ascii	"\303Y\033U\372_\324K\325\035\204\341\3637\257vnq\361"
  61      FA5FD44B 
  61      D51D84E1 
  61      F337AF76 
  61      6E71F1
  62 00cf 285383B5 		.ascii	"(S\203\265\346\200\311\201a\027['%\306\023\223&`\031"
  62      E680C981 
  62      61175B27 
  62      25C61393 
  62      266019
  63 00e2 AC680CAC 		.ascii	"\254h\014\254\312\312*'\304\270\230\274\230\202\230"
  63      CACA2A27 
  63      C4B898BC 
  63      988298
  64 00f1 099AE375 		.ascii	"\011\232\343u\236\246\"\346\015\314\223\342\210\341"
  64      9EA622E6 
  64      0DCC93E2 
  64      88E1
  65 00ff 52C798B5 		.ascii	"R\307\230\265\251\210\214\250\200\241\241o\331\363\260"
  65      A9888CA8 
  65      80A1A16F 
  65      D9F3B0
  66 010e 224A8595 		.ascii	"\"J\205\225\314\372\003\265W\332;\253'\346\3701\012"
  66      CCFA03B5 
  66      57DA3BAB 
  66      27E6F831 
  66      0A
  67 011f A9B35B67 		.ascii	"\251\263[g]g\224/\204\216\321\024\010\351\313\0151\362"
  67      5D67942F 
  67      848ED114 
  67      08E9CB0D 
  67      31F2
  68 0131 24ECF2D3 		.ascii	"$\354\362\323\204\365\352\222\037\001[\355j\214\245"
  68      84F5EA92 
  68      1F015BED 
  68      6A8CA5
  69 0140 6D9047B4 		.ascii	"m\220G\264M*\302\320\025`\033\372e\363\367'\025{ff\350"
  69      4D2AC2D0 
  69      15601BFA 
ARM GAS  /tmp/ccGtGfPv.s 			page 5


  69      65F3F727 
  69      157B6666 
  70 0155 142ABF4F 		.ascii	"\024*\277O\367Z\306\024\032\234\272A\373fEV^ \205XA"
  70      F75AC614 
  70      1A9CBA41 
  70      FB664556 
  70      5E208558 
  71 016a 3D2B6395 		.ascii	"=+c\225cAq\330\315\344\374,\222\324y\314\246\376\221"
  71      634171D8 
  71      CDE4FC2C 
  71      92D479CC 
  71      A6FE91
  72 017d A0391023 		.ascii	"\2409\020#m\214[T\217\240y\020r\206\363\267\271\366"
  72      6D8C5B54 
  72      8FA07910 
  72      7286F3B7 
  72      B9F6
  73 018f 56C2166C 		.ascii	"V\302\026l\177y\233|\257},\206'\300\374\323\\\2446\340"
  73      7F799B7C 
  73      AF7D2C86 
  73      27C0FCD3 
  73      5CA436E0 
  74 01a3 A8B4F6DE 		.ascii	"\250\264\366\336\352\361\330\263h\235\323\007\2347\254"
  74      EAF1D8B3 
  74      689DD307 
  74      9C37AC
  75 01b2 73712846 		.ascii	"sq(F\330KN\233<\214\030\261\032=z\267\333\312%)l\342"
  75      D84B4E9B 
  75      3C8C18B1 
  75      1A3D7AB7 
  75      DBCA2529 
  76 01c8 7854D02E 		.ascii	"xT\320.^\013\015\237\257\255;\234\210>\342\344\320\243"
  76      5E0B0D9F 
  76      AFAD3B9C 
  76      883EE2E4 
  76      D0A3
  77 01da 59DC85E5 		.ascii	"Y\334\205\345\355\315\207?\207U\316\3203\203q\366\220"
  77      EDCD873F 
  77      8755CED0 
  77      338371F6 
  77      90
  78 01eb CF26495C 		.ascii	"\317&I\\A\016\271a}\274\211\002[\3763\261\204\340\021"
  78      410EB961 
  78      7DBC8902 
  78      5BFE33B1 
  78      84E011
  79 01fe E8EF6F8F 		.ascii	"\350\357o\217@\031\347u?;D\024\020\271\240,a\362-8Y"
  79      4019E775 
  79      3F3B4414 
  79      10B9A02C 
  79      61F22D38 
  80 0213 2A95A35F 		.ascii	"*\225\243_s\261\3547\203\2409\217\325\225F\265\274\270"
  80      73B1EC37 
  80      83A0398F 
  80      D59546B5 
  80      BCB8
  81 0225 E097FDCB 		.ascii	"\340\227\375\313A-\360\233\013\265\222O|\325\231\257"
ARM GAS  /tmp/ccGtGfPv.s 			page 6


  81      412DF09B 
  81      0BB5924F 
  81      7CD599AF 
  82 0235 5DBFF607 		.ascii	"]\277\366\007+x\345\036"
  82      2B78E51E 
  83              		.text
  84              		.section	.gnu.lto_chCoreAllocAlignedWithOffset.f34daf984d137dbe,"",%progbits
  85 0000 789C9D54 		.ascii	"x\234\235T]h\024W\024>\347\316\314f\263\233\2305?\245"
  85      5D681457 
  85      143EE7CE 
  85      CC66B39B 
  85      98353FA5 
  86 0014 4A898B50 		.ascii	"J\211\213P\260j\263\365\245}\350\203\225<\365!/\246"
  86      B06AB3F5 
  86      A57DE883 
  86      953CF521 
  86      2FA6
  87 0026 81F64926 		.ascii	"\201\366I&\343d3\220\315\206\235(j\037\274\273k\251"
  87      E3643390 
  87      CD869D28 
  87      6A1FBCBB 
  87      6BA9
  88 0038 60C12006 		.ascii	"`\301 \006D\021Mm\254Q\241\245-%\251\255\335R\221D1"
  88      44114D6D 
  88      AC51A1A5 
  88      2D25A9AD 
  88      DD529144 
  89 004d 554B1145 		.ascii	"UK\021E\351B@Z\"b\336\244-N\317\275wfv7\004\327vH\316"
  89      E942405A 
  89      2262DEA4 
  89      2D4ECFBD 
  89      77667637 
  90 0066 BDF79CF3 		.ascii	"\275\367\234\363\235\377=\014\030,\377\272\351\377v"
  90      9DFF3D0C 
  90      182CFFBA 
  90      E9FF76
  91 0075 04E0219D 		.ascii	"\004\340!\235\030\001dc\363\000\371(c\306\037\015\300"
  91      18016463 
  91      F300F928 
  91      63C61F0D 
  91      C0
  92 0086 63DAB9AB 		.ascii	"c\332\271\253\000\274I\363\237\272z\352h(5\003Q\\\000"
  92      00BC49F3 
  92      9FBA7AEA 
  92      68283503 
  92      515C00
  93 0099 613FD374 		.ascii	"a?\323t\003\367\177\200\302\250\266\036&8?R\376\350"
  93      03F77F80 
  93      C2A8B61E 
  93      26383F52 
  93      FEE8
  94 00ab C2CC1A7E 		.ascii	"\302\314\032~\2720\306\237y\036:H\3567#X\010\357\323"
  94      BA30C69F 
  94      791E3A48 
  94      EE372358 
  94      08EFD3
  95 00be 0393F260 		.ascii	"\003\223\362`zm<\012Y\272\363\361\321j\244\306`\313"
ARM GAS  /tmp/ccGtGfPv.s 			page 7


  95      7A6D3C0A 
  95      59BAF3F1 
  95      D16AA4C6 
  95      60CB
  96 00d0 8B21F9CC 		.ascii	"\213!\371\314\316Y~\240\344y[%\352\315z\250/X\251\354"
  96      CE597EA0 
  96      E4795B25 
  96      EACD7AA8 
  96      2F58A9EC 
  97 00e4 798F7EBB 		.ascii	"y\217~\273\270p\031[\327j\230A\320\211\240A\204E\301"
  97      B870195B 
  97      D76A9841 
  97      D089A041 
  97      8445C1
  98 00f7 41BD5190 		.ascii	"A\275Q\220\230 q0q\002\327C\023=\264fAV\011v\213 \011"
  98      98207130 
  98      7102D743 
  98      133DB466 
  98      41560976 
  99 010e 41560BD2 		.ascii	"AV\013\322JZ\223\244\325F\347\031:\333\205b\007\021"
  99      4A5A93A4 
  99      D546E719 
  99      3ADB8562 
  99      0711
 100 0120 83DC1970 		.ascii	"\203\334\031p\200\363\261\244\237\345\357\327>\251\316"
 100      80F3B1A4 
 100      9FE5EFD7 
 100      3EA9CE
 101 012f D230F12C 		.ascii	"\3220\361,\262:\001\203\220\323\367\036QQ\373>B\320"
 101      B23A0183 
 101      90D3F71E 
 101      5151FB3E 
 101      42D0
 102 0141 A9CD4121 		.ascii	"\251\315A!\032\024\241\2744u\343'<R\344\252\024\270"
 102      1A14A1BC 
 102      3475E327 
 102      3C52E4AA 
 102      14B8
 103 0153 CEC10883 		.ascii	"\316\301\010\203\201z\265\020\274H\222.\363PX\272_<"
 103      817AB510 
 103      BC48922E 
 103      F35058BA 
 103      5F3C
 104 0165 BBD68F36 		.ascii	"\273\326\2176\010\273\264\360\353\011m\203\211S\224"
 104      08BBB4F0 
 104      EB096D83 
 104      895394
 105 0174 55C8FB7B 		.ascii	"U\310\373{\374i\374\225\3605w\237F\314\304\317)Y\013"
 105      FC69FC95 
 105      F035779F 
 105      46CCC4CF 
 105      29590B
 106 0187 853F918E 		.ascii	"\205?\221\216\006rD\020.\323\225\344\232\232\303N\370"
 106      06724410 
 106      2ED395E4 
 106      9A9AC34E 
 106      F8
ARM GAS  /tmp/ccGtGfPv.s 			page 8


 107 0198 054FF263 		.ascii	"\005O\362c\3578\330P\343\275\"\277\355\313\243*>\225"
 107      EF38D850 
 107      E3BD22BF 
 107      EDCBA32A 
 107      3E95
 108 01aa A2EA415A 		.ascii	"\242\352AZX\255\316\271t\367\332u\244\376\347\237x^"
 108      58ADCEB9 
 108      74F7DA75 
 108      A4FEE79F 
 108      785E
 109 01bc 0BB581C1 		.ascii	"\013\265\201\301=\254\227p\032\365Z#\374+\316\033O\363"
 109      3DAC9770 
 109      1AF55A23 
 109      FC2BCE1B 
 109      4FF3
 110 01ce 7F3C4F93 		.ascii	"\177<O\223\343Z~\001\023\324\326\033P<X\\8\034\324K"
 110      E35A7E01 
 110      13D4D61B 
 110      503C585C 
 110      381CD44B 
 111 01e2 F55F753F 		.ascii	"\365_u?\250\014_\034\247\366~+\371\337H:!\245A\255t"
 111      A80C5F1C 
 111      A7F67E2B 
 111      F9DF483A 
 111      21A541AD 
 112 01f7 652C4A79 		.ascii	"e,Jy\311\250\002\223&N\223<\215\215$\023\376\301\243"
 112      C9A80293 
 112      264E933C 
 112      8D8D2413 
 112      FEC1A3
 113 020a AF058442 		.ascii	"\257\005\204BaJ\013\244\261\000s\251\330\037\360\342"
 113      614A0BA4 
 113      B10073A9 
 113      D81FF0E2 
 114 021a 12141309 		.ascii	"\022\024\023\0112\305\013*\027\227\350{\323\317n\262"
 114      32C50B2A 
 114      1797E87B 
 114      D3CF6EB2 
 115 022a 40B96913 		.ascii	"@\271i\023l\2441=\001\307\363\234'\034l\374\020\376"
 115      6CA4313D 
 115      01C7F39C 
 115      271C6CFC 
 115      10FE
 116 023c E207C52D 		.ascii	"\342\007\305-\226\221\375\023\276c2\343~\224a\317\310"
 116      9691FD13 
 116      BE6332E3 
 116      7E9461CF 
 116      C8
 117 024d 79163E0F 		.ascii	"y\026>\017\205a4\223!\277 \205\307!w\025\011TB!\253"
 117      85613493 
 117      21BF2085 
 117      C7217715 
 117      09544221 
 118 0262 85E225C1 		.ascii	"\205\342%\3012n\202\004\302\217^\311\261x)\224\256\226"
 118      326E8204 
 118      C28F5EC9 
 118      B1782994 
ARM GAS  /tmp/ccGtGfPv.s 			page 9


 118      AE96
 119 0274 6926A4F1 		.ascii	"i&\244\361\305\342K\001\273\225$59N\312\034[Uh\305\305"
 119      C5E24B01 
 119      BB952435 
 119      394ECA1C 
 119      5B5568C5 
 120 0289 C32F079A 		.ascii	"\303/\007\232mR9^\243|F*\267\371\005\361fCo\355\377"
 120      6D52395E 
 120      A37C462A 
 120      B7F905F1 
 120      66436FED 
 121 029e A5205855 		.ascii	"\245 XU\220Y\270\3620\337\\\345\263\2752,}\204\244\015"
 121      9059B8F2 
 121      30DF5CE5 
 121      B3BD322C 
 121      7D84A40D 
 122 02b2 AA499D71 		.ascii	"\252I\235q\014\213/#\250(\351\360\331V\215\002\232\233"
 122      0C8B2F23 
 122      A828E9F0 
 122      D9568D02 
 122      9A9B
 123 02c4 FE74C98F 		.ascii	"\376t\311\217t\023\234\347\364\275\375?z\024\032\357"
 123      74139CE7 
 123      F4BDFD3F 
 123      7A141AEF 
 124 02d4 A397BF29 		.ascii	"\243\227\277)\312\337M\242\232<\023\317\3119\254\375"
 124      CADF4DA2 
 124      9A3C13CF 
 124      C939ACFD 
 125 02e4 1D9497FE 		.ascii	"\035\224\227\376\234_\276@L<_w9\311\3370<o\203,\236"
 125      9C5FBE40 
 125      4C3C5F77 
 125      39C9DF30 
 125      3C6F832C 
 126 02f9 141BE4E7 		.ascii	"\024\033\344\347\332\015r\252\2713\\\215\225U\362\240"
 126      DA0D72AA 
 126      B9335C8D 
 126      9555F2A0 
 127 0309 6A95186A 		.ascii	"j\225\030j\361EV\330&&~I\227\320s\260=L\374\032;UT\267"
 127      F14556D8 
 127      26267E49 
 127      97D073B0 
 127      3D4CFC1A 
 128 0321 205FFEC1 		.ascii	" _\376\301V\246\322\330!Xw\241C \310,{\364c\273\177"
 128      56A6D2D8 
 128      215877A1 
 128      4320C82C 
 128      7BF463BB 
 129 0336 D5C4DCE8 		.ascii	"\325\304\334\350\337\337j\022\333\025E\255\204\245\327"
 129      DFDF6A12 
 129      DB1545AD 
 129      84A5D7
 130 0345 BABA52EA 		.ascii	"\272\272R\352/\353\246\254l&\223\035\246\333\220\323"
 130      2FEBA6AC 
 130      6C26931D 
 130      A6DB90D3 
 131 0355 9F727356 		.ascii	"\237rsV\312\032\314\330\031+\233\263\273,\320]g\237"
ARM GAS  /tmp/ccGtGfPv.s 			page 10


 131      CA1ACCD8 
 131      192B9BB3 
 131      BB2CD05D 
 131      679F
 132 0367 AD0FDB7B 		.ascii	"\255\017\333{Fq\344\365\025P#\331\334\250\233\332\266"
 132      4671E4F5 
 132      155023D9 
 132      DCA89BDA 
 132      B6
 133 0378 BDA7BB67 		.ascii	"\275\247\273g\017\001\005j\307\356\2672]\203`\3546\207"
 133      0F01056A 
 133      C7EEB732 
 133      5D8360EC 
 133      3687
 134 038a 76D95B56 		.ascii	"v\331[V\300\220\261TwO\357\273\275)g\330\032\332\265"
 134      C090B154 
 134      774FEFBB 
 134      BD2967D8 
 134      1ADAB5
 135 039d D34E5919 		.ascii	"\323NY\031\327qw\244-\213p\353\252\021\271\321\212\316"
 135      D77177A4 
 135      2D8B70EB 
 135      AA11B9D1 
 135      8ACE
 136 03af A0BBD725 		.ascii	"\240\273\327%y\242\247w{\262\337t\355\221\234\2639\371"
 136      79A2A777 
 136      7BB2DF74 
 136      ED919CB3 
 136      39F9
 137 03c1 EA1BC072 		.ascii	"\352\033\300r\320@\001gs{\3010\207\234\364p$;0\340\332"
 137      D0400167 
 137      737BC130 
 137      879CF470 
 137      243B30E0 
 138 03d6 A3FF02D4 		.ascii	"\243\377\002\324\025\331\210"
 138      15D988
 139              		.text
 140              		.section	.gnu.lto_chCoreGetStatusX.f34daf984d137dbe,"",%progbits
 141 0000 789C9590 		.ascii	"x\234\225\220\277J\003A\020\306\277\231\275MR\211\255"
 141      BF4A0341 
 141      10C6BF99 
 141      BD4D5289 
 141      AD
 142 0011 56B61AB8 		.ascii	"V\266\032\270{\023\253\010Z\232%\234\007Y\017\222\322"
 142      7B13AB08 
 142      5A9A259C 
 142      07590F92 
 142      D2
 143 0022 221BCF42 		.ascii	"\"\033\317B\273\324\012\212\017\340\237*\265\275F\260"
 143      BBD40A8A 
 143      0FE09F2A 
 143      B5BD46B0 
 144 0032 132B5B11 		.ascii	"\023+[\021|\000\2338\263\341R\210\215\313\356\314\307"
 144      7C009B38 
 144      B3E15288 
 144      8DCBEECC 
 144      C7
ARM GAS  /tmp/ccGtGfPv.s 			page 11


 145 0043 CCEC6F66 		.ascii	"\314\354of\227\301\370\275\326\344l\023\320\026O\006"
 145      97C1F8BD 
 145      D6E46C13 
 145      D0164F06 
 146 0053 C4936760 		.ascii	"\304\223g`\334b\"\025 \214\230F{\024k\357\370\341}>"
 146      DC622215 
 146      208C9846 
 146      7B146BEF 
 146      F8E17D3E 
 147 0067 BFBD7CBC 		.ascii	"\277\275|\274z\242\033n1\012\202\021C\211*\253\252\241"
 147      7AA21B6E 
 147      310A8211 
 147      43892AAB 
 147      AAA1
 148 0079 A629463B 		.ascii	"\246)F;Y\234\2040\331\000\\\274\337\021\253\320\035"
 148      599C8430 
 148      D9005CBC 
 148      DF11ABD0 
 148      1D
 149 008a 498A3733 		.ascii	"I\21273\034\277\275N?\314>]\223EN\334\306\226p.p>\016"
 149      1CBFBD4E 
 149      3FCC3E5D 
 149      93454EDC 
 149      C696702E 
 150 00a1 61B52073 		.ascii	"a\265 s\204\357p\252*\361\021\260K\"\343$]\252\347\027"
 150      84EF70AA 
 150      2AF111B0 
 150      4B22E324 
 150      5DAAE717 
 151 00b5 C86735E5 		.ascii	"\310g5\345\232ar\355\254\344\373\365:\226\374\207K\177"
 151      9A6172ED 
 151      ACE4FBF5 
 151      3A96FC87 
 151      4B7F
 152 00c7 736DAE15 		.ascii	"sm\256\0253Tg\313q\033\261\233\215\245_\325J\035nJ\006"
 152      335467CB 
 152      711BB19B 
 152      8DA55FD5 
 152      4A1D6E4A 
 153 00dc 78012D03 		.ascii	"x\001-\003\013`G\320\362j\375\227\3154\315\026\273\034"
 153      0B6047D0 
 153      F26AFD97 
 153      CD34CD16 
 153      BB1C
 154 00ee 66AEF4BE 		.ascii	"f\256\364\276<\024\325/\272\331p\3402w\340{\336\225"
 154      3C14D52F 
 154      BAD970E0 
 154      3277E07B 
 154      DE95
 155 0100 835EEAF0 		.ascii	"\203^\352\360\003\222fX\032"
 155      03926658 
 155      1A
 156              		.text
 157              		.section	.gnu.lto_.symbol_nodes.f34daf984d137dbe,"",%progbits
 158 0000 789C4D8A 		.ascii	"x\234M\212\273\015\200@\024\303\234\2407!\003\245\245"
 158      BB0D8040 
 158      14C39CA0 
ARM GAS  /tmp/ccGtGfPv.s 			page 12


 158      372103A5 
 158      A5
 159 0011 640226E1 		.ascii	"d\002&\341?\0003q\005\322\341\306\262dcF>\274)0?\220"
 159      3F003371 
 159      05D2E1C6 
 159      B2646346 
 159      3EBC2930 
 160 0027 2C936A15 		.ascii	",\223j\025\025\352\222h\272\345&\357\212\372\343C\361"
 160      15EA9268 
 160      BAE526EF 
 160      8AFAE343 
 160      F1
 161 0038 2F4F65E8 		.ascii	"/Oe\350\311\013\255a\027B"
 161      C90BAD61 
 161      1742
 162              		.text
 163              		.section	.gnu.lto_.refs.f34daf984d137dbe,"",%progbits
 164 0000 789C6362 		.ascii	"x\234cb`bPd\200\000\026\006FF&& ff\0062\201\034FfV\010"
 164      60625064 
 164      80001606 
 164      46462626 
 164      20666606 
 165 001b CDC406A2 		.ascii	"\315\304\006\242\031\000\011\276\000X"
 165      190009BE 
 165      0058
 166              		.text
 167              		.section	.gnu.lto_.decls.f34daf984d137dbe,"",%progbits
 168 0000 789CA556 		.ascii	"x\234\245Vol\024E\024\237\331\366\332;zE$\221`\024["
 168      6F6C1445 
 168      149FD9F6 
 168      DA3B7A45 
 168      24916014 
 169 0015 8C9848A4 		.ascii	"\214\230H\244k\375\023\353\027\2404\004\232P%4D>\261"
 169      6BFD13EB 
 169      17A03404 
 169      9A502534 
 169      443EB1
 170 0028 59B65BEE 		.ascii	"Y\266[\356\302\335-\271\335\"\365\013\323\242 jL!\221"
 170      C2DD2DB9 
 170      DD22F50B 
 170      D3A2206A 
 170      4C2191
 171 003b A0097A15 		.ascii	"\240\011z\025(4\012\264\305P1\210\007\321\026\013\321"
 171      28340AB4 
 171      C5503188 
 171      07D1160B 
 171      D1
 172 004c 2B508442 		.ascii	"+P\204B\223\265\200hMM\325\210\201\250\347\233\335\331"
 172      93B58068 
 172      4D4DD588 
 172      81A8E79B 
 172      DDD9
 173 005e DBDB65AF 		.ascii	"\333\333e\257\264q\322w\235\273}\357\367{\357\367ff"
 173      B471D277 
 173      9DBB7DEF 
 173      F77BEFF7 
 173      6666
ARM GAS  /tmp/ccGtGfPv.s 			page 13


 174 0070 87431CEA 		.ascii	"\207C\034\352\300\010\245a\254-F\350\"\207\220\017!"
 174      C008A561 
 174      AC2D46E8 
 174      2287900F 
 174      21
 175 0081 341FD923 		.ascii	"4\037\331#\037\254\025\254\015\354(\330q\260<\260$\330"
 175      1FAC15AC 
 175      0DEC28D8 
 175      71B03CB0 
 175      24D8
 176 0093 7760E790 		.ascii	"w`\347\220sP_\212\221\002\353\005;\011v\001l\000\014"
 176      73505F8A 
 176      9102EB05 
 176      3B097601 
 176      6C000C
 177 00a6 E0510FD8 		.ascii	"\340Q\017\330Y0\314|\307\303\242\234~\2063\025,\010"
 177      5930CC7C 
 177      C7C3A29C 
 177      7E863315 
 177      2C08
 178 00b8 B680E1B7 		.ascii	"\266\200\341\267ga\273q\333\230O'\330a\260#`\027\031"
 178      6761BB71 
 178      DB984F27 
 178      D861B023 
 178      601719
 179 00cb 4FF6A0F5 		.ascii	"O\366\240\365\0241,\013\277\227\305R\036\035\354\032"
 179      14312C0B 
 179      BF97C552 
 179      1E1DEC1A 
 180 00db D88D1C5C 		.ascii	"\330\215\034\\\205\014\343&\330\010\330(\343\276\005"
 180      850CE326 
 180      D808D828 
 180      E3BE05
 181 00ea 769B69F7 		.ascii	"v\233i\367\031\3301\260\317=\370\2173\256^\346\353\256"
 181      19D831B0 
 181      CF3DF88F 
 181      33AE5EE6 
 181      EBAE
 182 00fc E92CE3C2 		.ascii	"\351,\343\302\314\027{`\224\240\017HB\327\367\215t<"
 182      CC177B60 
 182      94A00F48 
 182      42D7F78D 
 182      743C
 183 010e 4812CDC9 		.ascii	"H\022\315\311tz\001\232\201\336%0\022[\010\301\232\210"
 183      747A019A 
 183      81DE2530 
 183      125B08C1 
 183      9A88
 184 0120 E73F8056 		.ascii	"\347?\200Va\021O\015\240Rc\022\014\030d\010\211\370"
 184      61114F0D 
 184      A0526312 
 184      0C186408 
 184      89F8
 185 0132 233C83CD 		.ascii	"#<\203\315V\346\231p\034z\022\243\271\250\035\342[\010"
 185      56E69970 
 185      1C7A12A3 
 185      B9A81DE2 
ARM GAS  /tmp/ccGtGfPv.s 			page 14


 185      5B08
 186 0144 197E0879 		.ascii	"\031~\010y\215\307\321>J@\016\220<\003\236\002\264\342"
 186      8DC7D13E 
 186      4A400E90 
 186      3C039E02 
 186      B4E2
 187 0156 926C1711 		.ascii	"\222l\027\021\357\301\234;O},\331\337{\006\223\035\344"
 187      EFC19C3B 
 187      4F7D2CD9 
 187      DF7B0693 
 187      1DE4
 188 0168 EF747AB3 		.ascii	"\357tz\263\337\235\350\202\242\234\211\356g\211\346"
 188      DF9DE882 
 188      A29C89EE 
 188      6789E6
 189 0177 19BAA000 		.ascii	"\031\272\240\000z\203\220f\032\270\36444\316+j\016\332"
 189      7A839066 
 189      1AB8F434 
 189      34CE2B6A 
 189      0EDA
 190 0189 0B25E8FF 		.ascii	"\013%\350\377t\356\346\011\361\213\270\035\007 \366"
 190      74EEE609 
 190      F18BB81D 
 190      0720F6
 191 0198 638C016D 		.ascii	"c\214\001m/\236\233I\323\027p\246\015\337-\007\212f"
 191      2F9E9B49 
 191      D31770A6 
 191      0DDF2D07 
 191      8A66
 192 01aa 3C6613BA 		.ascii	"<f\023\272M\356\313\344`\205f\276R\006\207\226\206\234"
 192      4DEECBE4 
 192      608566BE 
 192      52068796 
 192      869C
 193 01bc 5D2EC6C7 		.ascii	"].\306\307\320\036Bv\350\257\337\321}\357\221d\276\225"
 193      D01E4276 
 193      E8AFDFD1 
 193      7DEF9164 
 193      BE95
 194 01ce 58CA706B 		.ascii	"X\312pk\003\021\275\212a\340fl\362\374\326\303\320k"
 194      0311BD8A 
 194      61E0666C 
 194      F2FCD6C3 
 194      D06B
 195 01e0 CE488043 		.ascii	"\316H\200C\003\367\210\364\331\201\003[\017\231\201"
 195      03F788F4 
 195      D981035B 
 195      0F9981
 196 01ef 26E79589 		.ascii	"&\347\225\211p\262n7\323\316\265b2\335h\023\032'\216"
 196      70B26E37 
 196      D3CEB562 
 196      32DD6813 
 196      1A278E
 197 0202 E978E8EE 		.ascii	"\351x\350\356\366'\364\344\245\276`K\223\236N\227\230"
 197      F627F4E4 
 197      A5BE604B 
 197      939E4E97 
ARM GAS  /tmp/ccGtGfPv.s 			page 15


 197      98
 198 0213 2DE5D0B0 		.ascii	"-\345\320\260\247<\244[^j\362\213\270\003\200D|tB\312"
 198      A73CA45B 
 198      5E6AF28B 
 198      B8038044 
 198      7C7442CA 
 199 0227 5CE93B94 		.ascii	"\\\351;\224QF\304]\367\210\314Rf\250\357\240\255\214"
 199      5146C45D 
 199      F788CC52 
 199      66A8EFA0 
 199      AD8C
 200 0239 883F9D08 		.ascii	"\210?\235\010gF\231\313}Ner\3051e\272=\225\371\360\255"
 200      674699CB 
 200      7D4E6572 
 200      C53165BA 
 200      3D95F9F0 
 201 024e B7AD0DEC 		.ascii	"\267\255\015\354w\355\013\312\226kc|\341\261\203\323"
 201      77ED0BCA 
 201      966B637C 
 201      E1B183D3 
 202 025e 2E4DAD44 		.ascii	".M\255DI\327\001\022\260\222\027\361\361\361\323<\341"
 202      49D70112 
 202      B09217F1 
 202      F1F1D33C 
 202      E1
 203 026f 4CF351D4 		.ascii	"L\363Q\324J\022\251\344\237\243~h\017\031\203\2350\035"
 203      4A12A9E4 
 203      9FA37E68 
 203      0F19839D 
 203      301D
 204 0281 6D37B25C 		.ascii	"m7\262\\\230\265\005\027Z@~{\013\366\357\030*7\266\340"
 204      98B50517 
 204      5A407E7B 
 204      0BF6EF18 
 204      2A37B6E0 
 205 0295 493C1DB2 		.ascii	"I<\035\262;\3019\263\273'\014M\346+\0105\203\014P\222"
 205      3BC139B3 
 205      BB270C4D 
 205      E62B0835 
 205      830C5092 
 206 02a9 3CDF1324 		.ascii	"<\337\023$\371\346\357\310Ul\326\230\215\022\264AW\266"
 206      F9E6EFC8 
 206      556CD698 
 206      8D12B441 
 206      57B6
 207 02bb BC03DA9E 		.ascii	"\274\003\332\236\302E\350M\373\330`g\210\276\217\314"
 207      C245E84D 
 207      FBD86067 
 207      88BE8FCC 
 208 02cb DC6533FB 		.ascii	"\334e3\373-fl\027\320\271\363\240y\206\2346\266\315"
 208      2D666C17 
 208      D0B9F3A0 
 208      79869C36 
 208      B6CD
 209 02dd FE3CF719 		.ascii	"\376<\367\031\202]g\010v\236!8`O\322\330\373\270\242"
 209      825D6708 
 209      769E2138 
ARM GAS  /tmp/ccGtGfPv.s 			page 16


 209      604FD2D8 
 209      FBB8A2
 210 02f0 61BDB8C8 		.ascii	"a\275\270\310\302\340\320a\203\205\326\347\345\316\246"
 210      C2E0D061 
 210      8385D6E7 
 210      E5CEA6
 211 02ff E6600E8E 		.ascii	"\346`\016\216\232\365\376sWO\342\355\233\311\351\247"
 211      9AF5FE73 
 211      574FE2ED 
 211      9BC9E9A7 
 212 030f 4C600E75 		.ascii	"L`\016uO\032\261\324KS\253H\273%\"\376\032\317\201\317"
 212      4F1AB1D4 
 212      4B53AB48 
 212      BB2522FE 
 212      1ACF81CF 
 213 0323 1E3C1B3E 		.ascii	"\036<\033>\317\302gf@\2733j\345\352\355\267\366B\243"
 213      CFC26766 
 213      40BB336A 
 213      E5EAEDB7 
 213      F642A3
 214 0336 8B4C6FD1 		.ascii	"\213Lo\321o\214\244\270&r\252\211\320\367\004\306\367"
 214      6F8CA4B8 
 214      2672AA89 
 214      D0F704C6 
 214      F7
 215 0347 A316BA42 		.ascii	"\243\026\272BJwM5[`\347\220\202g(\233\355\233<\354H"
 215      4A774D35 
 215      5B60E790 
 215      8267289B 
 215      ED9B3CEC 
 216 035c B2DF8D9D 		.ascii	"\262\337\215\235\274\324\003\233\252\003\340\322\351"
 216      BCD4039B 
 216      AA03E0D2 
 216      E9
 217 0369 4D260087 		.ascii	"M&\000\207\276wE\235\267\243\034K\306\\\302\271\332"
 217      BE77459D 
 217      B7A31C4B 
 217      C65CC2B9 
 217      DA
 218 037a 77C16E9F 		.ascii	"w\301n\237+\212\262\344\212\032\260\243h\206\251Tr\250"
 218      2B8AB2E4 
 218      8A1AB0A3 
 218      6886A954 
 218      72A8
 219 038c 771BC164 		.ascii	"w\033\301d\013i\242\233\314\256=\263^\223\343\257W\372"
 219      0B69A29B 
 219      CCAE3DB3 
 219      5E93E3AF 
 219      57FA
 220 039e DEE6B216 		.ascii	"\336\346\262\026\367Lo_\021_6\2326\310\004\245\217\006"
 220      F74C6F5F 
 220      115F369A 
 220      36C804A5 
 220      8F06
 221 03b0 332B7590 		.ascii	"3+u\220-U\016]wh\343\220i\374PF:\206-\326G\014\347\354"
 221      2D550E5D 
 221      7768E390 
ARM GAS  /tmp/ccGtGfPv.s 			page 17


 221      69FC5046 
 221      3A862DD6 
 222 03c8 660EDA07 		.ascii	"f\016\332\007\233\333M\304WYo\215RHF\313`\356\263p("
 222      9BDB4DC4 
 222      57596F8D 
 222      524846CB 
 222      60EEB370 
 223 03dd 2B9F60C0 		.ascii	"+\237`\300\236\314rdmyAm?\347\271^\200\356,8\364;+_"
 223      9ECC7264 
 223      6D79416D 
 223      3FE7B95E 
 223      80EE2C38 
 224 03f5 C453F064 		.ascii	"\304S\360d\356\035\235;/\374\206\233a\251\211X7N\015"
 224      EE1D9D3B 
 224      2FFC869B 
 224      61A98958 
 224      374E0D
 225 0408 92EF3E35 		.ascii	"\222\357>5\012]\247F\241\363\324(\014\330\023v\363`"
 225      0A5DA746 
 225      A1F3D428 
 225      0CD81376 
 225      F360
 226 041a DA2516BA 		.ascii	"\332%\026\272\304\233f%\3001\250k\223\326\356z\016\355"
 226      C49B6625 
 226      C031A86B 
 226      93D6EE7A 
 226      0EED
 227 042c ACE6E768 		.ascii	"\254\346\347h[\205\345W\310pnL\232\371\307\034\314\005"
 227      5B85E557 
 227      C8706E4C 
 227      9AF9C71C 
 227      CC05
 228 043e 8C99BE1F 		.ascii	"\214\231\276\037\223c\372\221\341\261\325\237t\021\262"
 228      9363FA91 
 228      E1B1D59F 
 228      7411B2
 229 044d 8DFC9BDE 		.ascii	"\215\374\233\336\324\364\0326/\257\034j\317\367|\331"
 229      D4F41A36 
 229      2FAF1C6A 
 229      CFF77CD9 
 230 045d B96EA737 		.ascii	"\271n\2477\335\267\323\237\356~\011\003\311\305k\251"
 230      DDB7D39F 
 230      EE7E0903 
 230      C9C56BA9 
 231 046d F78D43D3 		.ascii	"\367\215C\323x\301%\374\026\311\017\023\"\031q\223\374"
 231      78C125FC 
 231      16C90F13 
 231      22197193 
 231      FC
 232 047e E249D27D 		.ascii	"\342I\322}sl\351m\273\222\331\023\277\256\377\352\274"
 232      736CE96D 
 232      BB92D913 
 232      BFAEFFEA 
 232      BC
 233 048f 059B4BCB 		.ascii	"\005\233K\313u\337\334\355\313N\325\360\204k\257\217"
 233      75DFDCED 
 233      CB4ED5F0 
ARM GAS  /tmp/ccGtGfPv.s 			page 18


 233      846BAF8F 
 234 049f F5915DAF 		.ascii	"\365\221]\257\372{\202-\231\225y\314\210\030\315y\331"
 234      FA7B822D 
 234      999579CC 
 234      8818CD79 
 234      D9
 235 04b0 D1B32E3B 		.ascii	"\321\263.;\204\374\321\264|f\246\342Qw\305c\236\025"
 235      84FCD1B4 
 235      7C66A6E2 
 235      5177C563 
 235      9E15
 236 04c2 1F194E85 		.ascii	"\037\031N\205\274z\367\245o\"\262\336r\223\374\225\253"
 236      BC7AF7A5 
 236      6F22B2DE 
 236      7293FC95 
 236      AB
 237 04d3 77BBBD7A 		.ascii	"w\273\275zwfB$\267\335$w\234$\350\211\2622\336\374S"
 237      77664224 
 237      B7DD2477 
 237      9C24E889 
 237      B232DEFC 
 238 04e8 545E52A2 		.ascii	"T^R\242Q%\006\263Hx\015\257\306%^\012E\345\250\244\304"
 238      512506B3 
 238      48780DAF 
 238      C6255E0A 
 238      45E5A8A4 
 239 04fd E532094D 		.ascii	"\3452\011M\021\350D\010\307\302Z\301\222\027W\226V\241"
 239      11E84408 
 239      C7C25AC1 
 239      92175796 
 239      56A1
 240 050f 081F52A2 		.ascii	"\010\037R\2422\257h\232\302\327\3101M\211/\211\213\353"
 240      32AF689A 
 240      C2D7C831 
 240      4D892F89 
 240      8BEB
 241 0521 436149E5 		.ascii	"CaI\345k\225\206\270$\307\033\205*\245N^$\307\244\220"
 241      6B9586B8 
 241      24C71B85 
 241      2AA54E5E 
 241      24C7A490 
 242 0535 B02CACC9 		.ascii	"\260,\254\311B\275\022\027*W\324\010\213+\027U\363\224"
 242      42BD1217 
 242      2A57D408 
 242      8B2B1755 
 242      F394
 243 0547 65AD24F1 		.ascii	"e\255$\361b<:/\246\304\344y\262\270&\314?[VQV\316\207"
 243      623C3A2F 
 243      A6C4E479 
 243      B2B826CC 
 243      3F5B5651 
 244 055e 6352A4A1 		.ascii	"cR\244\241N\346U\255\256N\256/\013\241\0025\374\252"
 244      4EE655AD 
 244      AE4EAE2F 
 244      0BA10235 
 244      FCAA
 245 0570 2C68B3A4 		.ascii	",h\263\244P\025\244Q\031\211(Re$\2746&\327\275\034\326"
ARM GAS  /tmp/ccGtGfPv.s 			page 19


 245      5015A451 
 245      19892852 
 245      6524BC36 
 245      26D7BD1C 
 246 0585 422FD5D7 		.ascii	"B/\325\327\253\262V\235O\235|\"\375\275@1~zx<\377i\346"
 246      ABB2569D 
 246      4F9D7C22 
 246      FDBD4031 
 246      7E7A783C 
 247 059c C325B256 		.ascii	"\303%\262V\253\211Z\203\272j^N5\254|lEB(\300\246\202"
 247      AB895A83 
 247      BA6A5E4E 
 247      35AC7C6C 
 247      454228C0 
 248 05b2 B6FA7F2A 		.ascii	"\266\372\177*\341T \253\366pL\003\242\302\006\370_!"
 248      E15420AB 
 248      F6704C03 
 248      A2C206F8 
 248      5F21
 249 05c4 68853179 		.ascii	"h\2051y\243\006\244\005r\254\016\376M\001,\226B\261"
 249      A306A405 
 249      72AC0EFE 
 249      4D012C96 
 249      42B1
 250 05d6 20846471 		.ascii	" \204dq\275\260FTeA\010\262o\340&\010\371RH\214\373"
 250      BDB04654 
 250      654108B2 
 250      6FE02608 
 250      F952488C 
 251 05eb 05A1BE21 		.ascii	"\005\241\276!&\011B\2615){\356\205\362\012?\005~\346"
 251      260942B1 
 251      35297BEE 
 251      85F20A3F 
 251      057EE6
 252 05fe 69412BC9 		.ascii	"iA+\311.<\256e\225\2536\252\264T)T\333\250.S\244u^\022"
 252      2E3CAE65 
 252      95AB36AA 
 252      B4542954 
 252      DBA82E53 
 253 0616 AD57E29A 		.ascii	"\255W\342\232\312C5U5\033!\304\320d\303\363Q\032G\037"
 253      CA433555 
 253      351B21C4 
 253      D064C3F3 
 253      511A471F 
 254 062a 09A0FDBA 		.ascii	"\011\240\375\272r\2178\250\206\257\252\251\255\256\265"
 254      728F38A8 
 254      86AFAAA9 
 254      ADAEB5
 255 0639 F9A26A58 		.ascii	"\371\242jX\025`Q@,\244\012=\022\026U\326.^\276\242\272"
 255      15605140 
 255      2CA40A3D 
 255      121655D6 
 255      2E5EBEA2 
 256 064e 588CBC22 		.ascii	"X\214\274\"6\252\260\376\"\341\230\354\333 F\032\344"
 256      36AAB0FE 
 256      22E198EC 
 256      DB20461A 
ARM GAS  /tmp/ccGtGfPv.s 			page 20


 256      E4
 257 065f 2223AB95 		.ascii	"\"#\253\2251\212_d05\030\363\377\000CF\321\233"
 257      318A5F64 
 257      303518F3 
 257      FF004346 
 257      D19B
 258              		.text
 259              		.section	.gnu.lto_.symtab.f34daf984d137dbe,"",%progbits
 260 0000 5F636F72 		.ascii	"_core_init\000\000\000\000\000\000\000\000\000\000\000"
 260      655F696E 
 260      69740000 
 260      00000000 
 260      00000000 
 261 0015 00A10000 		.ascii	"\000\241\000\000\000ch_memcore\000\000\000\000\000\000"
 261      0063685F 
 261      6D656D63 
 261      6F726500 
 261      00000000 
 262 002a 00000000 		.ascii	"\000\000\000\000\000\000\300\000\000\000chCoreAlloc"
 262      0000C000 
 262      00006368 
 262      436F7265 
 262      416C6C6F 
 263 003f 416C6967 		.ascii	"AlignedWithOffsetI\000\000\000\000\000\000\000\000\000"
 263      6E656457 
 263      6974684F 
 263      66667365 
 263      74490000 
 264 005a 000000A6 		.ascii	"\000\000\000\246\000\000\000chCoreAllocAlignedWithO"
 264      00000063 
 264      68436F72 
 264      65416C6C 
 264      6F63416C 
 265 0078 66667365 		.ascii	"ffset\000\000\000\000\000\000\000\000\000\000\000\000"
 265      74000000 
 265      00000000 
 265      00000000 
 265      00
 266 0089 B6000000 		.ascii	"\266\000\000\000chCoreGetStatusX\000\000\000\000\000"
 266      6368436F 
 266      72654765 
 266      74537461 
 266      74757358 
 267 00a2 00000000 		.ascii	"\000\000\000\000\000\000\000\274\000\000\000__heap_"
 267      000000BC 
 267      0000005F 
 267      5F686561 
 267      705F
 268 00b4 62617365 		.ascii	"base__\000\000\002\000\000\000\000\000\000\000\000\000"
 268      5F5F0000 
 268      02000000 
 268      00000000 
 268      0000
 269 00c6 CF000000 		.ascii	"\317\000\000\000__heap_end__\000\000\002\000\000\000"
 269      5F5F6865 
 269      61705F65 
 269      6E645F5F 
ARM GAS  /tmp/ccGtGfPv.s 			page 21


 269      00000200 
 270 00dc 00000000 		.ascii	"\000\000\000\000\000\000\322\000\000\000"
 270      0000D200 
 270      0000
 271              		.text
 272              		.section	.gnu.lto_.opts,"",%progbits
 273 0000 272D6D63 		.ascii	"'-mcpu=cortex-m3' '-mno-thumb-interwork' '-mthumb' "
 273      70753D63 
 273      6F727465 
 273      782D6D33 
 273      2720272D 
 274 0033 272D6767 		.ascii	"'-ggdb' '-O2' '-fomit-frame-pointer' '-falign-funct"
 274      64622720 
 274      272D4F32 
 274      2720272D 
 274      666F6D69 
 275 0066 696F6E73 		.ascii	"ions=16' '-ffunction-sections' '-fdata-sections' '-"
 275      3D313627 
 275      20272D66 
 275      66756E63 
 275      74696F6E 
 276 0099 666E6F2D 		.ascii	"fno-common' '-flto'\000"
 276      636F6D6D 
 276      6F6E2720 
 276      272D666C 
 276      746F2700 
 277              		.text
 278              		.cfi_sections	.debug_frame
 279              		.section	.text._core_init,"ax",%progbits
 280              		.align	2
 281              		.p2align 4,,15
 282              		.global	_core_init
 283              		.thumb
 284              		.thumb_func
 285              		.type	_core_init, %function
 286              	_core_init:
 287              	.LFB188:
 288              		.file 1 "../../../os/common/oslib/src/chmemcore.c"
 289              		.loc 1 81 0
 290              		.cfi_startproc
 291              		@ args = 0, pretend = 0, frame = 0
 292              		@ frame_needed = 0, uses_anonymous_args = 0
 293              		@ link register save eliminated.
 294              		.loc 1 87 0
 295 0000 40F20003 		movw	r3, #:lower16:.LANCHOR0
 296 0004 40F20001 		movw	r1, #:lower16:__heap_base__
 297              		.loc 1 88 0
 298 0008 40F20002 		movw	r2, #:lower16:__heap_end__
 299              		.loc 1 87 0
 300 000c C0F20003 		movt	r3, #:upper16:.LANCHOR0
 301 0010 C0F20001 		movt	r1, #:upper16:__heap_base__
 302              		.loc 1 88 0
 303 0014 C0F20002 		movt	r2, #:upper16:__heap_end__
 304 0018 83E80600 		stmia	r3, {r1, r2}
 305 001c 7047     		bx	lr
 306              		.cfi_endproc
 307              	.LFE188:
ARM GAS  /tmp/ccGtGfPv.s 			page 22


 308              		.size	_core_init, .-_core_init
 309 001e 00BF     		.section	.text.chCoreAllocAlignedWithOffsetI,"ax",%progbits
 310              		.align	2
 311              		.p2align 4,,15
 312              		.global	chCoreAllocAlignedWithOffsetI
 313              		.thumb
 314              		.thumb_func
 315              		.type	chCoreAllocAlignedWithOffsetI, %function
 316              	chCoreAllocAlignedWithOffsetI:
 317              	.LFB189:
 318              		.loc 1 114 0
 319              		.cfi_startproc
 320              		@ args = 0, pretend = 0, frame = 0
 321              		@ frame_needed = 0, uses_anonymous_args = 0
 322              		@ link register save eliminated.
 323              	.LVL0:
 324              		.loc 1 121 0
 325 0000 40F20003 		movw	r3, #:lower16:.LANCHOR0
 326 0004 C0F20003 		movt	r3, #:upper16:.LANCHOR0
 327              		.loc 1 114 0
 328 0008 30B4     		push	{r4, r5}
 329              		.cfi_def_cfa_offset 8
 330              		.cfi_offset 4, -8
 331              		.cfi_offset 5, -4
 332              		.loc 1 121 0
 333 000a 1C68     		ldr	r4, [r3]
 334              		.loc 1 120 0
 335 000c 0138     		subs	r0, r0, #1
 336              	.LVL1:
 337              		.loc 1 121 0
 338 000e 2244     		add	r2, r2, r4
 339              	.LVL2:
 340 0010 013A     		subs	r2, r2, #1
 341              		.loc 1 120 0
 342 0012 4518     		adds	r5, r0, r1
 343              		.loc 1 121 0
 344 0014 5018     		adds	r0, r2, r1
 345              	.LVL3:
 346              		.loc 1 120 0
 347 0016 4942     		negs	r1, r1
 348              	.LVL4:
 349              		.loc 1 121 0
 350 0018 0840     		ands	r0, r0, r1
 351              	.LVL5:
 352              		.loc 1 125 0
 353 001a 5A68     		ldr	r2, [r3, #4]
 354              		.loc 1 120 0
 355 001c 2940     		ands	r1, r1, r5
 356              	.LVL6:
 357              		.loc 1 122 0
 358 001e 0144     		add	r1, r1, r0
 359              	.LVL7:
 360              		.loc 1 125 0
 361 0020 9142     		cmp	r1, r2
 362 0022 04D8     		bhi	.L5
 363              		.loc 1 125 0 is_stmt 0 discriminator 1
 364 0024 8C42     		cmp	r4, r1
ARM GAS  /tmp/ccGtGfPv.s 			page 23


 365 0026 02D8     		bhi	.L5
 366              		.loc 1 132 0 is_stmt 1
 367 0028 30BC     		pop	{r4, r5}
 368              	.LVL8:
 369              		.loc 1 129 0
 370 002a 1960     		str	r1, [r3]
 371              		.loc 1 132 0
 372 002c 7047     		bx	lr
 373              	.LVL9:
 374              	.L5:
 375              		.loc 1 126 0
 376 002e 0020     		movs	r0, #0
 377              	.LVL10:
 378              		.loc 1 132 0
 379 0030 30BC     		pop	{r4, r5}
 380              	.LVL11:
 381 0032 7047     		bx	lr
 382              		.cfi_endproc
 383              	.LFE189:
 384              		.size	chCoreAllocAlignedWithOffsetI, .-chCoreAllocAlignedWithOffsetI
 385 0034 AFF30080 		.section	.text.chCoreAllocAlignedWithOffset,"ax",%progbits
 385      AFF30080 
 385      AFF30080 
 386              		.align	2
 387              		.p2align 4,,15
 388              		.global	chCoreAllocAlignedWithOffset
 389              		.thumb
 390              		.thumb_func
 391              		.type	chCoreAllocAlignedWithOffset, %function
 392              	chCoreAllocAlignedWithOffset:
 393              	.LFB190:
 394              		.loc 1 150 0
 395              		.cfi_startproc
 396              		@ args = 0, pretend = 0, frame = 0
 397              		@ frame_needed = 0, uses_anonymous_args = 0
 398              		@ link register save eliminated.
 399              	.LVL12:
 400 0000 30B4     		push	{r4, r5}
 401              		.cfi_def_cfa_offset 8
 402              		.cfi_offset 4, -8
 403              		.cfi_offset 5, -4
 404              	.LBB26:
 405              	.LBB27:
 406              	.LBB28:
 407              	.LBB29:
 408              		.file 2 "../../../os/common/ext/CMSIS/include/cmsis_gcc.h"
 409              		.loc 2 264 0
 410 0002 2023     		movs	r3, #32
 411              	@ 264 "../../../os/common/ext/CMSIS/include/cmsis_gcc.h" 1
 412 0004 83F31188 		MSR basepri, r3
 413              	@ 0 "" 2
 414              	.LVL13:
 415              		.thumb
 416              	.LBE29:
 417              	.LBE28:
 418              	.LBE27:
 419              	.LBE26:
ARM GAS  /tmp/ccGtGfPv.s 			page 24


 420              	.LBB30:
 421              	.LBB31:
 422              		.loc 1 121 0
 423 0008 40F20003 		movw	r3, #:lower16:.LANCHOR0
 424 000c C0F20003 		movt	r3, #:upper16:.LANCHOR0
 425 0010 1D68     		ldr	r5, [r3]
 426              		.loc 1 120 0
 427 0012 4C1E     		subs	r4, r1, #1
 428              		.loc 1 121 0
 429 0014 2A44     		add	r2, r2, r5
 430              	.LVL14:
 431 0016 2244     		add	r2, r2, r4
 432              		.loc 1 120 0
 433 0018 4942     		negs	r1, r1
 434              	.LVL15:
 435 001a 0444     		add	r4, r4, r0
 436              	.LVL16:
 437              		.loc 1 121 0
 438 001c 02EA0100 		and	r0, r2, r1
 439              	.LVL17:
 440              		.loc 1 120 0
 441 0020 2140     		ands	r1, r1, r4
 442              	.LVL18:
 443              		.loc 1 125 0
 444 0022 5A68     		ldr	r2, [r3, #4]
 445              		.loc 1 122 0
 446 0024 0144     		add	r1, r1, r0
 447              	.LVL19:
 448              		.loc 1 125 0
 449 0026 9142     		cmp	r1, r2
 450 0028 07D8     		bhi	.L10
 451 002a 8D42     		cmp	r5, r1
 452 002c 05D8     		bhi	.L10
 453              		.loc 1 129 0
 454 002e 1960     		str	r1, [r3]
 455              	.LVL20:
 456              	.LBE31:
 457              	.LBE30:
 458              	.LBB33:
 459              	.LBB34:
 460              	.LBB35:
 461              	.LBB36:
 462              	.LBB37:
 463              		.loc 2 264 0
 464 0030 0023     		movs	r3, #0
 465              	@ 264 "../../../os/common/ext/CMSIS/include/cmsis_gcc.h" 1
 466 0032 83F31188 		MSR basepri, r3
 467              	@ 0 "" 2
 468              		.thumb
 469              	.LBE37:
 470              	.LBE36:
 471              	.LBE35:
 472              	.LBE34:
 473              	.LBE33:
 474              		.loc 1 158 0
 475 0036 30BC     		pop	{r4, r5}
 476 0038 7047     		bx	lr
ARM GAS  /tmp/ccGtGfPv.s 			page 25


 477              	.LVL21:
 478              	.L10:
 479              	.LBB42:
 480              	.LBB32:
 481              		.loc 1 126 0
 482 003a 0020     		movs	r0, #0
 483              	.LVL22:
 484              	.LBE32:
 485              	.LBE42:
 486              	.LBB43:
 487              	.LBB41:
 488              	.LBB40:
 489              	.LBB39:
 490              	.LBB38:
 491              		.loc 2 264 0
 492 003c 0023     		movs	r3, #0
 493              	@ 264 "../../../os/common/ext/CMSIS/include/cmsis_gcc.h" 1
 494 003e 83F31188 		MSR basepri, r3
 495              	@ 0 "" 2
 496              		.thumb
 497              	.LBE38:
 498              	.LBE39:
 499              	.LBE40:
 500              	.LBE41:
 501              	.LBE43:
 502              		.loc 1 158 0
 503 0042 30BC     		pop	{r4, r5}
 504              	.LVL23:
 505 0044 7047     		bx	lr
 506              		.cfi_endproc
 507              	.LFE190:
 508              		.size	chCoreAllocAlignedWithOffset, .-chCoreAllocAlignedWithOffset
 509 0046 00BFAFF3 		.section	.text.chCoreGetStatusX,"ax",%progbits
 509      0080AFF3 
 509      0080
 510              		.align	2
 511              		.p2align 4,,15
 512              		.global	chCoreGetStatusX
 513              		.thumb
 514              		.thumb_func
 515              		.type	chCoreGetStatusX, %function
 516              	chCoreGetStatusX:
 517              	.LFB191:
 518              		.loc 1 167 0
 519              		.cfi_startproc
 520              		@ args = 0, pretend = 0, frame = 0
 521              		@ frame_needed = 0, uses_anonymous_args = 0
 522              		@ link register save eliminated.
 523              		.loc 1 170 0
 524 0000 40F20003 		movw	r3, #:lower16:.LANCHOR0
 525 0004 C0F20003 		movt	r3, #:upper16:.LANCHOR0
 526 0008 5868     		ldr	r0, [r3, #4]
 527 000a 1B68     		ldr	r3, [r3]
 528              		.loc 1 172 0
 529 000c C01A     		subs	r0, r0, r3
 530 000e 7047     		bx	lr
 531              		.cfi_endproc
ARM GAS  /tmp/ccGtGfPv.s 			page 26


 532              	.LFE191:
 533              		.size	chCoreGetStatusX, .-chCoreGetStatusX
 534              		.global	ch_memcore
 535              		.section	.bss.ch_memcore,"aw",%nobits
 536              		.align	2
 537              		.set	.LANCHOR0,. + 0
 538              		.type	ch_memcore, %object
 539              		.size	ch_memcore, 8
 540              	ch_memcore:
 541 0000 00000000 		.space	8
 541      00000000 
 542              		.text
 543              	.Letext0:
 544              		.file 3 "/home/otto/MentorGraphics/Sourcery_CodeBench_Lite_for_ARM_EABI/lib/gcc/arm-none-eabi/4.8.
 545              		.file 4 "/home/otto/MentorGraphics/Sourcery_CodeBench_Lite_for_ARM_EABI/arm-none-eabi/include/stdi
 546              		.file 5 "../../../os/common/ports/ARMCMx/compilers/GCC/chtypes.h"
 547              		.file 6 "../../../os/rt/include/chsystypes.h"
 548              		.file 7 "../../../os/rt/include/chschd.h"
 549              		.file 8 "../../../os/common/ports/ARMCMx/chcore.h"
 550              		.file 9 "../../../os/common/ports/ARMCMx/chcore_v7m.h"
 551              		.file 10 "../../../os/rt/include/chsem.h"
 552              		.file 11 "../../../os/rt/include/chmtx.h"
 553              		.file 12 "../../../os/common/oslib/include/chmemcore.h"
 554              		.file 13 "../../../os/rt/include/chsys.h"
 555              		.file 14 "../../../os/common/ext/CMSIS/include/core_cm3.h"