ARM GAS  /tmp/ccWwEFmK.s 			page 1


   1              		.syntax unified
   2              		.cpu cortex-m3
   3              		.fpu softvfp
   4              		.eabi_attribute 20, 1
   5              		.eabi_attribute 21, 1
   6              		.eabi_attribute 23, 3
   7              		.eabi_attribute 24, 1
   8              		.eabi_attribute 25, 1
   9              		.eabi_attribute 26, 1
  10              		.eabi_attribute 30, 2
  11              		.eabi_attribute 34, 1
  12              		.eabi_attribute 18, 4
  13              		.thumb
  14              		.file	"hal_st_lld.c"
  15              		.text
  16              	.Ltext0:
  17              		.section	.gnu.lto_.jmpfuncs.781b87cd693c10b4,"",%progbits
  18 0000 789C6362 		.ascii	"x\234cb`b\300\006\244\2414X\226\221\201\211)\2021\223"
  18      6062C006 
  18      A4A13458 
  18      96918189 
  18      29823193 
  19 0014 91410628 		.ascii	"\221A\006(\000fp\000E\001\031\363\001\323"
  19      00667000 
  19      450119F3 
  19      01D3
  20              		.text
  21              		.section	.gnu.lto_.inline.781b87cd693c10b4,"",%progbits
  22 0000 789C6362 		.ascii	"x\234cb`b\300\006\254\2404P\226G\224\221\201\211\357"
  22      6062C006 
  22      ACA03450 
  22      96479491 
  22      8189EF
  23 0013 5E0003DB 		.ascii	"^\000\003\333\002y\260bF.8\301 \"\003\224\224yp\213"
  23      0279B062 
  23      462E38C1 
  23      20220394 
  23      9479708B 
  24 0027 112ECBCC 		.ascii	"\021.\313\314\003\326\305\000\000\260\004\005a"
  24      03D6C500 
  24      00B00405 
  24      61
  25              		.text
  26              		.section	.gnu.lto_.pureconst.781b87cd693c10b4,"",%progbits
  27 0000 789C6362 		.ascii	"x\234cb`b`e\200\000&\006+F)\000\001f\000a"
  27      60626065 
  27      80002606 
  27      2B462900 
  27      01660061 
  28              		.text
  29              		.section	.gnu.lto_VectorB0.781b87cd693c10b4,"",%progbits
  30 0000 789C8D53 		.ascii	"x\234\215S_HSQ\030\377\276s\357\3344\007\372\332\303"
  30      5F485351 
  30      18FFBE73 
  30      EFDC3407 
  30      FADAC3
  31 0013 1C421494 		.ascii	"\034B\024\224\273\251\017\275\026\366\"\270\0277\241"
ARM GAS  /tmp/ccWwEFmK.s 			page 2


  31      BBA90FBD 
  31      16F622B8 
  31      1737A1
  32 0022 9EC6F53A 		.ascii	"\236\306\365:\334\205\315\311\356\024\245\007\317\334"
  32      DC85CDC9 
  32      EE14A507 
  32      CFDC
  33 0030 1E0283C4 		.ascii	"\036\002\203\304\210\"\321\360!\243\036\222\"\"\024"
  33      8822D1F0 
  33      21A31E92 
  33      222214
  34 003f 4A7B3242 		.ascii	"J{2BE\212\010)\230/\202\364O\361\241Hm}\347^ww\035R"
  34      458A0829 
  34      982F82F4 
  34      4FF1A148 
  34      6D7DE75E 
  35 0057 7DEC3BDF 		.ascii	"}\354;\337w\276\177\347w~\347\216\001\203ri\"\235\224"
  35      77BE7FE7 
  35      777EE78E 
  35      01837269 
  35      229D94
  36 006a 007E9045 		.ascii	"\000~\220E\027 \033]\006\310x\030\223f}\300\253\344"
  36      17201B5D 
  36      06C87818 
  36      93667DC0 
  36      ABE4
  37 007c F70AF06A 		.ascii	"\367\012\360j\011e+,#\012\007\020\206\230$\343\320e"
  37      09652B2C 
  37      230A0710 
  37      869824E3 
  37      D065
  38 008e 3487CCB0 		.ascii	"4\207\314\260\371|\241\360\350\305\365\273{\370\222"
  38      F97CA1F0 
  38      E8C5F5BB 
  38      7BF892
  39 009d 7925D011 		.ascii	"y%\320\021d\261\220\270 \307\371\250\037@3\267aZ\305"
  39      64B190B8 
  39      20C7F9A8 
  39      1F4033B7 
  39      615AC5
  40 00b0 880E64C2 		.ascii	"\210\016d\302JK\360j\355\303\356:Sq\212\216\357F\351"
  40      4A4BF06A 
  40      EDC3EE3A 
  40      53718A8E 
  40      EF46E9
  41 00c3 343CE439 		.ascii	"4<\3449\324\021\307\341\016\031v\211\026\211\223\310"
  41      D411C7E1 
  41      0E197689 
  41      168993C8 
  42 00d3 60BAE681 		.ascii	"`\272\346\201\235X\304\277\004\331\271\354\006\026\333"
  42      9D58C4BF 
  42      04D9B9EC 
  42      0616DB
  43 00e2 659A20CA 		.ascii	"e\232 \312\314\233.B\356K\306k\247\314\270S:h\332\254"
  43      CC9B2E42 
  43      EE4BC66B 
  43      A7CCB853 
ARM GAS  /tmp/ccWwEFmK.s 			page 3


  43      3A68DAAC 
  44 00f6 4F4078FE 		.ascii	"O@x\376sw\373\000\202y~\206\207\376\023\201\210\230"
  44      7377FB00 
  44      82797E86 
  44      87FE1381 
  44      8898
  45 0108 EE6B18F6 		.ascii	"\356k\030\366\000\324\303\024\347c\371O\017\226\026"
  45      00D4C314 
  45      E763F94F 
  45      0F9616
  46 0117 702CCB17 		.ascii	"p,\313\027yn\276P\300:\035e\006](8\020\015.\277i*\344"
  46      796EBE50 
  46      C03A1D65 
  46      065D2838 
  46      100D2EBF 
  47 012e C36F2162 		.ascii	"\303o!b21\005\3130\274\275\226\235>nsg9\363so\307\245"
  47      323105CB 
  47      30BCBD96 
  47      9D3E6E73 
  47      6739F373 
  48 0145 532A4E63 		.ascii	"S*Nc\275M,\377\276\262 \331\005;7\027\275\015\245\335"
  48      BD4D2CFF 
  48      BEB220D9 
  48      053B3717 
  48      BD0DA5DD 
  49 0159 AD91DAC7 		.ascii	"\255\221\332\307.{\373fo\2076\326-5\024`\030\251D*\223"
  49      2E7BFB66 
  49      6F8736D6 
  49      2D351460 
  49      18A9442A 
  50 016e BAC07C57 		.ascii	"\272\300|W\204\217\024\"\366$\353c\361\301W\234\340"
  50      848F1422 
  50      F624EB63 
  50      F1C1579C 
  50      E0
  51 017f B7CFEBE8 		.ascii	"\267\317\353\350>\004\261\224\337:\310{\254K\254@vk"
  51      3E04B194 
  51      DF3AC87B 
  51      AC4BAC40 
  51      766B
  52 0191 EFDEC6B5 		.ascii	"\357\336\306\265\206r\360#\373Yw\351\370\012\253\372"
  52      8672F023 
  52      FB5977E9 
  52      F80AABFA 
  53 01a1 0AFCE257 		.ascii	"\012\374\342Wy\215\216\225\032\272U|j\301\320\261\252"
  53      798D8E95 
  53      1ABA557C 
  53      6AC1D0B1 
  53      AA
  54 01b2 9CD0CDE5 		.ascii	"\234\320\315\345rBU\274o^\340\237\214\302\337\030\375"
  54      724255BC 
  54      6F5EE09F 
  54      8CC2DF18 
  54      FD
  55 01c3 3C21187D 		.ascii	"<!\030}\346dt\356\335\272\223\321o^\305\301\350d\355"
  55      E66474EE 
  55      DDBA93D1 
ARM GAS  /tmp/ccWwEFmK.s 			page 4


  55      6F5EC5C1 
  55      E864ED
  56 01d6 AA83D1FD 		.ascii	"\252\203\321\375\033\216+yH+I\253H\217\035\301\250\212"
  56      1B8E2B79 
  56      482B49AB 
  56      488F1DC1 
  56      A88A
  57 01e8 33E4D890 		.ascii	"3\344\330\220\212\014\252\370\004}\316\217R6\377\030"
  57      8A0CAAF8 
  57      047DCE8F 
  57      5236FF18 
  58 01f8 C463FE77 		.ascii	"\304c\376w\2675\3730O\325`s\264\012\231|\341d\261\310"
  58      B735FB30 
  58      4FD56073 
  58      B40A997C 
  58      E164B1C8 
  59 020c 92303D2D 		.ascii	"\2220=-\015\020\263\233\003\001\305\372%\015%\246\306"
  59      0D10B39B 
  59      0301C5FA 
  59      250D25A6 
  59      C6
  60 021d 95DE642A 		.ascii	"\225\336d*m(\241p\260\271Iik\273\250\204[\203\375\215"
  60      6D28A170 
  60      B0B94969 
  60      6BBBA884 
  60      5B83FD8D 
  61 0231 221331D2 		.ascii	"\"\0231\322\221x\274+\240A\203\263GK&\022\311\236\203"
  61      9178BC2B 
  61      A04183B3 
  61      474B2612 
  61      C99E83
  62 0244 B60BEDC1 		.ascii	"\266\013\355\301\226\340\200\242\305\264d*\032\351?"
  62      96E080A2 
  62      C5B4642A 
  62      1AE93F
  63 0253 9708C4C0 		.ascii	"\227\010\304\300\325\257\306\373\242\215G\364D\007\322"
  63      D5AFC6FB 
  63      A28D47F4 
  63      4407D2
  64 0262 4A4B30D4 		.ascii	"JK0\324\032R\364\036-\336\327\025U\264\204\241\033\221"
  64      1A52F41E 
  64      2DDED715 
  64      55B484A1 
  64      1B91
  65 0274 6E4DA3BE 		.ascii	"nM\243\276:gG*]\252\211\031\203Fy^ O\032\264P\241\260"
  65      3A67472A 
  65      5DAA8919 
  65      8346795E 
  65      204F1AB4 
  66 028b 94AF0986 		.ascii	"\224\257\011\206\332\375\235\252\021\355M\351g\374'"
  66      DAFD9DAA 
  66      11ED4DE9 
  66      67FC27
  67 029a CE024B81 		.ascii	"\316\002K\201;\021M$S\203\360\007h\2222f"
  67      3B114D24 
  67      5383F007 
  67      68923266 
ARM GAS  /tmp/ccWwEFmK.s 			page 5


  68              		.text
  69              		.section	.gnu.lto_st_lld_init.781b87cd693c10b4,"",%progbits
  70 0000 789C95D3 		.ascii	"x\234\225\323\275O\302@\024\000\360\367\356\332\362"
  70      BD4FC240 
  70      1400F0F7 
  70      EEDAF2
  71 000f A1313A4A 		.ascii	"\2411:J\034\\\215\221F\211\263\213\013\011L\326D&\202"
  71      1C5C8D91 
  71      4689B38B 
  71      0B094CD6 
  71      442682
  72 0022 98200909 		.ascii	"\230 \011\011F\210\213\003G\304\204\301\2018\021u\320"
  72      46888B03 
  72      47C484C1 
  72      81381175 
  72      D0
  73 0033 150C6CA6 		.ascii	"\025\014l\246\306A\302\346\000\306\21581\352\177@\\"
  73      C641C2E6 
  73      00C68D38 
  73      31EA7F40 
  73      5C
  74 0044 EA5D3F40 		.ascii	"\352]?@\300\220\364\322\276k{\367~}m\257\004\010L\266"
  74      C090F4D2 
  74      BE6B7BF7 
  74      7E7D6DAF 
  74      04084CB6 
  75 0058 65BE0724 		.ascii	"e\276\007$\200m\336#\005$\225.@\321K\020\305\001 \024"
  75      806DDE23 
  75      0524952E 
  75      40D14B10 
  75      C5012014 
  76 006c 08166268 		.ascii	"\010\026bh\316m\222V\3370\032O\327wW\330%K\004\322\010"
  76      CE6D9256 
  76      DF301A4F 
  76      D77757D8 
  76      254B04D2 
  77 0081 54045904 		.ascii	"T\004Y\004E\004\336d(1VY\005H\232\247\032\217\202\332"
  77      4504DE64 
  77      28315659 
  77      05489AA7 
  77      1A8F82DA 
  78 0095 47227ADA 		.ascii	"G\"z\332\201\366\247^\013$\360\001eH!Y\207\032+\025"
  78      81F6A75E 
  78      0B24F001 
  78      65482159 
  78      871A2B15 
  79 00a9 17D388B7 		.ascii	"\027\323\210\267p\203i$\007<Pv_f\022\230\207\346\255"
  79      70836924 
  79      073C5076 
  79      5F661298 
  79      87E6AD
  80 00bc 0FD129B8 		.ascii	"\017\321)\270\003\027\317\324\311\246)k>\2409\322\016"
  80      0317CFD4 
  80      C9A6296B 
  80      3EA039D2 
  80      0E
  81 00cd 5B03EECC 		.ascii	"[\003\356\314\2248\027e\225\353\304\201\345IB\022y2"
ARM GAS  /tmp/ccWwEFmK.s 			page 6


  81      94381765 
  81      95EBC481 
  81      E5494212 
  81      7932
  82 00df 6B55D882 		.ascii	"kU\330\202I\3106\201\377\225\245p\300,\213-\316\254"
  82      49C83681 
  82      FF95A570 
  82      C02C8B2D 
  82      CEAC
  83 00f1 6B36CA1D 		.ascii	"k6\312\0353Y\037\324\333\364/\300v\206\202\"\322<\214"
  83      33591FD4 
  83      DBF42FC0 
  83      76868222 
  83      D23C8C
  84 0104 37EBC93C 		.ascii	"7\353\311<\266`}hq\005__\354\227\243W\033\256\035:r"
  84      B6607D68 
  84      71055F5F 
  84      EC97A357 
  84      1BAE1D3A 
  85 0119 0C83DA8E 		.ascii	"\014\203\332\216\356\336\221F\016\330Jo\250l\300\243"
  85      EEDE9146 
  85      0ED84A6F 
  85      A86CC0A3 
  86 0129 50627C70 		.ascii	"Pb|p\004zg\203\362\020\364\015\327\362\030?p_\2442\255"
  86      047A6783 
  86      F210F40D 
  86      D7F2183F 
  86      705FA432 
  87 013e 549BAE15 		.ascii	"T\233\256\025\317\264\242\273W\274#\305\371|=\367\212"
  87      CFB4A2BB 
  87      57BC23C5 
  87      F97C3DF7 
  87      8A
  88 014f 6F5C7987 		.ascii	"o\\y\207\313\376\333\267\337B\000\316\341\207\225\031"
  88      CBFEDBB7 
  88      DF4200CE 
  88      E1879519 
  89 015f 5F8EFEA4 		.ascii	"_\216\376\244\275\344\304\314\271\025\253\363\362\377"
  89      BDE4C4CC 
  89      B915ABF3 
  89      F2FF
  90 016d 791EE003 		.ascii	"y\036\340\003\212\375\2575'\305j\032\237\316\377e\261"
  90      8AFDAF35 
  90      27C56A1A 
  90      9FCEFF65 
  90      B1
  91 017e C842C1A0 		.ascii	"\310B\301\240jm\331\234z\234\310\250'\331\323|N\335"
  91      6A6DD99C 
  91      7A9CC8A8 
  91      27D9D37C 
  91      4EDD
  92 0190 D3A2A12D 		.ascii	"\323\242\241-5\022\331U\265p\364lS\214\304s\371x&s\024"
  92      3512D955 
  92      B570F46C 
  92      538CC473 
  92      F9782673 
  93 01a5 4CC22F21 		.ascii	"L\302/!\316\367_"
ARM GAS  /tmp/ccWwEFmK.s 			page 7


  93      CEF75F
  94              		.text
  95              		.section	.gnu.lto_.symbol_nodes.781b87cd693c10b4,"",%progbits
  96 0000 789C6362 		.ascii	"x\234cb`bHd\200\002\246\333\214\365\014\014\023\316"
  96      60624864 
  96      8002A6DB 
  96      8CF50C0C 
  96      13CE
  97 0012 3130D4D7 		.ascii	"10\324\327\317\353`d\272\303X\317\210\3402\336e\254"
  97      CFEB6064 
  97      BAC358CF 
  97      88E032DE 
  97      65AC
  98 0024 6782701B 		.ascii	"g\202p\033\032\030\031\3571\3263#x\367\031\353Y\340"
  98      1A1819EF 
  98      31D63323 
  98      78F719EB 
  98      59E0
  99 0036 3C660666 		.ascii	"<f\006f\206\303[M\230\201f/n{#\317\314\310\302p\270"
  99      86C35B4D 
  99      9881662F 
  99      6E7B23CF 
  99      CCC8C270 
 100 004b FD8D3C03 		.ascii	"\375\215<\003\000\310\245\0350"
 100      00C8A51D 
 100      30
 101              		.text
 102              		.section	.gnu.lto_.refs.781b87cd693c10b4,"",%progbits
 103 0000 789C6362 		.ascii	"x\234cb`b`d\200\002\000\000F\000\006"
 103      60626064 
 103      80020000 
 103      460006
 104              		.text
 105              		.section	.gnu.lto_.decls.781b87cd693c10b4,"",%progbits
 106 0000 789C9D57 		.ascii	"x\234\235W{l\024\307\031\237\331\363\2636\216\343<\344"
 106      7B6C14C7 
 106      199FD9F3 
 106      B3368EE3 
 106      3CE4
 107 0012 F41F8CD4 		.ascii	"\364\037\214\324TQ*8?\2444j\253\010\373\356\260-q`\355"
 107      54512A38 
 107      3FA4346A 
 107      AB08FBEE 
 107      B02D7160 
 108 0027 9908A952 		.ascii	"\231\010\251R\267\313y\211O\275\007\275;S\363\027\353"
 108      B7CB7989 
 108      4FBD07BD 
 108      3B53F317 
 108      EB
 109 0038 98109234 		.ascii	"\230\020\2224\265c\342\326<\344\232\024S\214R\227\247"
 109      B563E2D6 
 109      3CE49A14 
 109      538C5297 
 109      A7
 110 0049 4DC02407 		.ascii	"M\300$\007(\201\010E\024\007Rd\242\366D\243@H\223\230"
 110      28810845 
 110      14075264 
ARM GAS  /tmp/ccWwEFmK.s 			page 8


 110      A2F644A3 
 110      40489398 
 111 005d 140C2181 		.ascii	"\024\014!\201\3537\263{\347\231\365\356\261\227\225"
 111      EB37B37B 
 111      E799F5EE 
 111      B19795
 112 006c BF6FE776 		.ascii	"\277o\347vg~\277\337|\337\354x>\001\011\310\215\021"
 112      677EBFDF 
 112      7CDFEC78 
 112      3E0109C8 
 112      8D11
 113 007e 4AC115AD 		.ascii	"J\301\025\255D\350\244\003!\370C\317\200\301c\264\003"
 113      44E8A403 
 113      21F843CF 
 113      80C163B4 
 113      03
 114 008f 69573ED8 		.ascii	"iW>\3300\330\010\330\233`\243`{\321\334\213\364)\001"
 114      30D808D8 
 114      9B60A360 
 114      7BD1DC8B 
 114      F42901
 115 00a2 2B043B04 		.ascii	"+\004;\0046\006\366\231\216S\006V\012v\015\354K\260"
 115      3606F699 
 115      8E530656 
 115      0A760DEC 
 115      4BB0
 116 00b4 69B05D3A 		.ascii	"i\260]:\317I\260y\372\370\353`7\300n\201\335\001\273"
 116      CF49B079 
 116      FAF8EB60 
 116      37C06E81 
 116      DD01BB
 117 00c7 0B568035 		.ascii	"\013V\2005\316b\270\227\202=\000V\2015-\306kD\307Jk"
 117      CE62B897 
 117      823D0056 
 117      81352DC6 
 117      6B44C74A 
 118 00dc 7804FAD5 		.ascii	"x\004\372\325\202\325\201\375\034\317j\372\010,\017"
 118      82D581FD 
 118      1CCF6AFA 
 118      082C0F
 119 00eb EC1758D3 		.ascii	"\354\027X\323\267\017\354\007`O\300\357\237\201\235"
 119      B70FEC07 
 119      604FC0EF 
 119      9F819D
 120 00fa 85F639B0 		.ascii	"\205\3669\260S`\027\300\216\203\035\003{\027\354(\230"
 120      536017C0 
 120      8E831D03 
 120      7B17EC28 
 120      98
 121 010b A07399C5 		.ascii	"\240s\231\305\241\030mR\325\347\325\241\215j\323i\230"
 121      A1186D52 
 121      D5E7D5A1 
 121      8D6AD369 
 121      98
 122 011c F74A2CE3 		.ascii	"\367J,\343\262bTE\033\245\305\224\366q\264SU{\223/\\"
 122      B2625445 
 122      1BA5C594 
ARM GAS  /tmp/ccWwEFmK.s 			page 9


 122      F671B453 
 122      557B932F 
 123 0131 BB2DA86A 		.ascii	"\273-\250j\221\214w\340b\200\2241z\022\215\250\360F"
 123      918C77E0 
 123      62809431 
 123      7A128DA8 
 123      F046
 124 0143 554F3C85 		.ascii	"UO<\205M\240e\\X<\347\267\214w\342'\221FD_\353\015\222"
 124      4DA0655C 
 124      583CE7B7 
 124      8C77E227 
 124      9146445F 
 125 015a D707109A 		.ascii	"\327\007\020\232\217\006\325\241d\362\303S_=\264EMl"
 125      8F06D5A1 
 125      64F2C353 
 125      5F3DB445 
 125      4D6C
 126 016c 5053A9F5 		.ascii	"PS\251\365\350Q\324\0174D\242\212\3432~\346\021S\225"
 126      E851D40F 
 126      3444A28A 
 126      E3327EE6 
 126      115395
 127 017f 047F177E 		.ascii	"\004\177\027~To\255ph\234\002\032\3068C\252]?F\303\004"
 127      546FAD70 
 127      689C021A 
 127      C63843AA 
 127      5D3F46C3 
 128 0194 4FDDAD3A 		.ascii	"O\335\255:(\032\351?\214\347\363R\377\212\005\366\201"
 128      281AE93F 
 128      8CE7F352 
 128      FF8A05F6 
 128      81
 129 01a5 A62B31DE 		.ascii	"\246+1\336w\006\253}\352w\251\224C\247\023\320\250-"
 129      7706AB7D 
 129      EA77A994 
 129      43A713D0 
 129      A82D
 130 01b7 821123C1 		.ascii	"\202\021#\301\236\271\004\311\336\344\315W\276x\021"
 130      9EB904C9 
 130      DEE4CD57 
 130      BE7811
 131 01c6 BFD63D74 		.ascii	"\277\326=tZ\235&\361Hs\\\235\303\241\201\374\315\024"
 131      5A9D26F1 
 131      48735C9D 
 131      C3A181FC 
 131      CD14
 132 01d8 64A66726 		.ascii	"d\246g&o\213zB\213^\032b\233`\016\361wS\210\211\315"
 132      6F8B7A42 
 132      8B5E1A62 
 132      9B600EF1 
 132      77538889 
 133 01ed 677106C2 		.ascii	"gq\006\302~\002\366\351\011p\3205\207\264\265\302\375"
 133      7E02F6E9 
 133      0970D035 
 133      87B4B5C2 
 133      FD
 134 01fe E0B24313 		.ascii	"\340\262C\0234e!\354 /\214.\324\356\254\013U\306o\340"
ARM GAS  /tmp/ccWwEFmK.s 			page 10


 134      346521EC 
 134      202F8C2E 
 134      D4EEAC0B 
 134      55C66FE0 
 135 0212 C76D2DB3 		.ascii	"\307m-\263\012\364\032\231Q\025\203\244\026\244\241"
 135      0AF41A99 
 135      511583A4 
 135      16A4A1
 136 0221 7E8D326B 		.ascii	"~\2152k~\374O\267\236\242k~\014W\200\324A\007/\365\276"
 136      7EFC4FB7 
 136      9EA26B7E 
 136      0C5780D4 
 136      41072FF5 
 137 0236 3044D35B 		.ascii	"0D\323[0T\033DA\325\304\346K\245j\236\366\034\231\314"
 137      30541B44 
 137      41D5C4E6 
 137      4BA56A9E 
 137      F61C99CC 
 138 024a 5CBF16A0 		.ascii	"\\\277\026\240!uCw\242\377\322\366\307\324\241\023\000"
 138      21754377 
 138      A2FFD2F6 
 138      C7D4A113 
 138      00
 139 025b 79887E76 		.ascii	"y\210~v{\250\0042\326,\002zS\273\364\016<\336\037/\225"
 139      7BA80432 
 139      D62C027A 
 139      53BBF40E 
 139      3CDE1F2F 
 140 0270 F6CA69B0 		.ascii	"\366\312i\260\321\234\301\2528\260\001\026l\277\035"
 140      D19CC1AA 
 140      38B00116 
 140      6CBF1D
 141 027f B0226B65 		.ascii	"\260\"ke[Y\260\361\234\301xe\333Y\260\011;`\345\326"
 141      5B59B0F1 
 141      9CC17865 
 141      DB59B009 
 141      3B60E5D6 
 142 0293 CA0659B0 		.ascii	"\312\006Y\260wr\006\343\225\355e\301N\332\001\253\264"
 142      777206E3 
 142      95ED65C1 
 142      4EDA01AB 
 142      B4
 143 02a4 56B69F05 		.ascii	"V\266\237\005{?g0^\331A\026\354\254\035\260*kec,\330"
 143      7B3F6730 
 143      5ED94116 
 143      ECAC1DB0 
 143      2A6B6563 
 144 02ba F99CC178 		.ascii	"\371\234\301xe\207Y\260\213v\300\236\260Vv\204\005\373"
 144      658759B0 
 144      8B76C09E 
 144      B0567684 
 144      05FB
 145 02cc 3867305E 		.ascii	"8g0^\331\004\013\226\264\003Vm\245\254+\361\366/{\345"
 145      D9040B96 
 145      B403566D 
 145      A5AC2BF1 
 145      F62F7BE5 
ARM GAS  /tmp/ccWwEFmK.s 			page 11


 146 02e0 0751AFBE 		.ascii	"\007Q\257\276\245h\250\351m\005\363K\213\355\266\303"
 146      A568A8E9 
 146      6D05F34B 
 146      8BEDB6C3 
 147 02f0 BA9B8CFF 		.ascii	"\272\233\214\377\211\037\244-\272}\252\372\366I{X\355"
 147      891FA42D 
 147      BA7DAAFA 
 147      F6497B58 
 147      ED
 148 0301 E117B55D 		.ascii	"\341\027\265]z\366\363\327\033\263{6\333\013\246\375"
 148      7AF6F3D7 
 148      1BB37B36 
 148      DB0BA6FD 
 149 0311 8971DABC 		.ascii	"\211q\332\274\012\263y\363A\374\007\033\304\253v\202"
 149      0AB379F3 
 149      41FC071B 
 149      C4AB7682 
 150 0321 B8D81A6C 		.ascii	"\270\330\032l\222\005\373\302\016X\223\365Z9\317\202"
 150      9205FBC2 
 150      0E5893F5 
 150      5A39CF82 
 151 0331 5DCF198C 		.ascii	"]\317\031\214W\366\021\0136c\007\254\305Z\331E\026\354"
 151      57F6110B 
 151      366307AC 
 151      C55AD945 
 151      16EC
 152 0343 9B9CC158 		.ascii	"\233\234\301Xe]\211\251\331\2057\264\330\260\362\026"
 152      655D89A9 
 152      D98537B4 
 152      D8B0F216 
 153 0353 F3BB2DD7 		.ascii	"\363\273-\327m\207e7\031\177\232\363\302\273b\261\360"
 153      6D876537 
 153      197F9AF3 
 153      C2BB62B1 
 153      F0
 154 0364 D8B3E56C 		.ascii	"\330\263\345l/\230v\3128mN\204\336\\i\022C\263\213\375"
 154      2F9876CA 
 154      386D4E84 
 154      DE5C6912 
 154      43B38BFD 
 155 0378 472DE323 		.ascii	"G-\343#\364 q\024/\000\177\214\372w\250?N\375I\352\337"
 155      F4207114 
 155      2F007F8C 
 155      FA77A83F 
 155      4EFD49EA 
 156 038d A5FE14F5 		.ascii	"\245\376\024\365\357S\177\206\372\017\250?K\3759\352"
 156      EF537F86 
 156      FA0FA83F 
 156      4BFD39EA 
 157 039d 3FA4FE02 		.ascii	"?\244\376\002\365S\324\177L\375\277\250OR\177\231\372"
 157      F553D47F 
 157      4CFDBFA8 
 157      4F527F99 
 157      FA
 158 03ae 4FC067AE 		.ascii	"O\300g\256\022\364\362\354\331\\;\203X\305\3563\\\222"
 158      12F4F2EC 
 158      D95C3B83 
ARM GAS  /tmp/ccWwEFmK.s 			page 12


 158      58C5EE33 
 158      5C92
 159 03c0 1E95C9D0 		.ascii	"\036\225\311\320@\231~\270O\016\253\225\225\231\030"
 159      40997EB8 
 159      4F0EAB95 
 159      959918
 160 03cf 14B171D5 		.ascii	"\024\261q\325\216$0@\220\361\347t-m\3103;\313S\222\317"
 160      8E243040 
 160      90F1E774 
 160      2D6DC833 
 160      3BCB5392 
 161 03e4 990469ED 		.ascii	"\231\004i\355t+\2053\360\345ixA\037uM_\010L\352\322"
 161      742B8533 
 161      F0E56978 
 161      411F754D 
 161      5F084CEA 
 162 03f9 BBD74099 		.ascii	"\273\327@\2316\\\037\372tzh\241>\340\313\234\327\320"
 162      365C1FFA 
 162      747A68A1 
 162      3EE0CB9C 
 162      D7D0
 163 040b 57166BA8 		.ascii	"W\026k\250\300<\244\344hl\0055\015!eNg\344`\234\230"
 163      C03CA4E4 
 163      686C0535 
 163      0D21654E 
 163      67E4609C 
 164 0420 4E1EB87C 		.ascii	"N\036\270|z\023>>\274Q\355\355J\246\326\3779Q\236>_"
 164      7A133E3E 
 164      BC51EDED 
 164      4AA6D6FF 
 164      39519E3E 
 165 0435 8FE4D929 		.ascii	"\217\344\331)\003\256\033\313\200\257\347\036\277\201"
 165      03AE1BCB 
 165      80AFE71E 
 165      BF81
 166 0443 65A6E7DF 		.ascii	"e\246\347\337\005\351\372gA\232a\302\026\303\015#\303"
 166      05E9FA67 
 166      419A61C2 
 166      16C30D23 
 166      C3
 167 0454 4D53861B 		.ascii	"MS\206\033g\276{l\016\303\007\266\030n\031\031n\233"
 167      67BE7B6C 
 167      0EC307B6 
 167      186E1919 
 167      6E9B
 168 0466 3124CE7F 		.ascii	"1$\316\177zZ\257\225\2727\011\2312$i\213\342\216\221"
 168      7A5AAF95 
 168      BA370999 
 168      3224698B 
 168      E28E91
 169 0479 E25BD349 		.ascii	"\342[\323I\034\2722\335\364\315~U}I\275\227Z\337\265"
 169      1CBA32DD 
 169      F4CD7E55 
 169      7D49BD97 
 169      5ADFB5
 170 048c 6181FD42 		.ascii	"a\201\375B\345\236Y\241b(L\266\347\263RiO8\177\347\353"
 170      E59E59A1 
ARM GAS  /tmp/ccWwEFmK.s 			page 13


 170      62284CB6 
 170      E7B35269 
 170      4F387FE7 
 171 04a1 9FC78FD0 		.ascii	"\237\307\217\320_T\230\336\271\367J{q\272&>LG\334\005"
 171      5F5498DE 
 171      B9F74A7B 
 171      71BA263E 
 171      4C47DC05 
 172 04b5 F1E6E589 		.ascii	"\361\346\345\211^\000\3513\376_WKef\306w\2153V\005\263"
 172      5E00E933 
 172      FE5F574B 
 172      6566C677 
 172      8D335605 
 173 04ca 191FB87C 		.ascii	"\031\037\270|{\300t\371\275\235o'\256\033\005\003\313"
 173      7BC074F9 
 173      BD9D6F27 
 173      AE1B0503 
 173      CB
 174 04db 8B662C89 		.ascii	"\213f,\211\303\227\315R7i\213\342%#\305\313\246\023"
 174      C397CD52 
 174      37698BE2 
 174      2523C5CB 
 174      A613
 175 04ed 99E9B939 		.ascii	"\231\351\2719w\205_\261\305\360{#\303\253\246\0147^"
 175      77855FB1 
 175      C5F07B23 
 175      C3ABA60C 
 175      375E
 176 04ff 79EF8773 		.ascii	"y\357\207s\030\356\330b\35012\364\232\206\351\340\025"
 176      18EED862 
 176      E83132F4 
 176      9A86E9E0 
 176      15
 177 0510 B330F514 		.ascii	"\2630\365\024\330\241\3503Rl\346)\314JK\007{\226\322"
 177      D8A1E833 
 177      526CE629 
 177      CC4A4B07 
 177      7B96D2
 178 0523 2BD45B5F 		.ascii	"+\324[__\015u\303r\227q\277@J\324\363\006\366\373\342"
 178      5F0D75C3 
 178      729771BF 
 178      404AD4F3 
 178      06F6FBE2 
 179 0537 10EE01C1 		.ascii	"\020\356\001\301P\242~;EKT\362\374\376%jj\352u\256D"
 179      50A27E3B 
 179      454B54F2 
 179      FCFE256A 
 179      6AEA75AE 
 180 054c 4D520964 		.ascii	"MR\011d\354\367+Q{\331\243\315\177r\006\253\342\300"
 180      ECF72B51 
 180      7BD9A3CD 
 180      7F7206AB 
 180      E2C0
 181 055e FAB8B3A5 		.ascii	"\372\270\263\245\035\260,%\352\353,\330\177s\006\343"
 181      1DB02C25 
 181      EAEB2CD8 
 181      7F7306E3 
ARM GAS  /tmp/ccWwEFmK.s 			page 14


 182 056e 957195F8 		.ascii	"\225q\225\370M;`YJT\256\022\277\2273\030\257\214\253"
 182      4D3B6059 
 182      4A54AE12 
 182      BF973318 
 182      AF8CAB
 183 0581 C45F28B4 		.ascii	"\304_(\264\001\226\245D\345*\361Ws\006\343\225q\225"
 183      0196A544 
 183      E52AF157 
 183      7306E395 
 183      7195
 184 0593 78BF1DB0 		.ascii	"x\277\035\260*ke\\%\2765g0F\231\372|b|\333\037\364\217"
 184      2A6B655C 
 184      25BE3567 
 184      304699FA 
 184      7C627CDB 
 185 05aa 40FB5730 		.ascii	"@\373W0h\007/K\225\372\326%\376\243\332\2353^\025\262"
 185      68072F4B 
 185      95FAD625 
 185      FEA3DA9D 
 185      335E15B2 
 186 05be BCD82F5E 		.ascii	"\274\330/^\306[\004r\326\335*\220\363\347v\352\007\251"
 186      C65B0472 
 186      D6DD2A90 
 186      F3E776EA 
 186      07A9
 187 05d0 1FA2FE0D 		.ascii	"\037\242\376\015\352wR\277\213\372\335\324\357\241\376"
 187      EA7752BF 
 187      8BFADDD4 
 187      EFA1FE
 188 05df 4DEA47A9 		.ascii	"M\352G\251\337+X\237]\373-\204\023-\373\205\314\331"
 188      DF2B589F 
 188      5DFB2D84 
 188      132DFB85 
 188      CCD9
 189 05f1 55DFAD48 		.ascii	"U\337\255Hu\221\231\007w\250\327v\275\304\205>\\%\343"
 189      75919907 
 189      77A8D776 
 189      BDC4853E 
 189      5C25E3
 190 0604 0374C71B 		.ascii	"\003t\307\033-4\335\361\2541\010\347\230q\307;6Iw\274"
 190      2D34DDF1 
 190      AC3108E7 
 190      9871C73B 
 190      364977BC 
 191 0618 315B3BDE 		.ascii	"1[;\336\271I>9\307\250\204\261\357\275\343MNfV\242\214"
 191      B9493E39 
 191      C7A884B1 
 191      EFBDE34D 
 191      4E6656A2 
 192 062d B709428E 		.ascii	"\267\011B\216`Y3=\306dz\234f\3720\315\326\221,\331:"
 192      6059333D 
 192      C6647A9C 
 192      66FA30CD 
 192      D6912CD9 
 193 0642 90255B47 		.ascii	"\220%[Gg\263e\030\265/\313azbv\024\372\225\263=\022"
 193      67B36518 
 193      B52FCB61 
ARM GAS  /tmp/ccWwEFmK.s 			page 15


 193      7A627614 
 193      FA95B33D 
 194 0657 529C9178 		.ascii	"R\234\221x<\342\364*\341x$\332\030\225\327\264\007\374"
 194      3CE2F42A 
 194      E17824DA 
 194      1895D7B4 
 194      07FC
 195 0669 31A72FD2 		.ascii	"1\247/\322\021\365+\321u\222+\322\2464(a\177\273\264"
 195      11F52BD1 
 195      75922BD2 
 195      A6342861 
 195      7FBBB4
 196 067c 341057A4 		.ascii	"4\020W\244\325\221\250T/z%O}C\263S\216\206\026\206#"
 196      D591A854 
 196      2F7A254F 
 196      7D43B353 
 196      8E861686 
 197 0691 6165A122 		.ascii	"ae\241\"\257\0128\003a\177\260\243Mq\306\342m\201p|"
 197      AF0A3803 
 197      617FB0A3 
 197      4D71C6E2 
 197      6D81707C 
 198 06a5 513B2AEA 		.ascii	"Q;*\352\200{]\255\024/h\\\266\242\312\205\352\026-r"
 198      807B5DAD 
 198      142F685C 
 198      B6A2CA85 
 198      EA162D72 
 199 06b9 6A7F9198 		.ascii	"j\177\221\230\263]\016:\327D\242q\240j\365\326\325:"
 199      B35D0E3A 
 199      D744A271 
 199      A06AF5D6 
 199      D53A
 200 06cb 972E753B 		.ascii	"\227.u;[\233\275kk\310\033)\026\227\202\301\266E~T\364"
 200      5B9BBD6B 
 200      6BC81B29 
 200      169782C1 
 200      B6457E54 
 201 06e0 ACE2075D 		.ascii	"\254\342\007]\015\325%\332#)\020\016\304\027\262@\376"
 201      0DD525DA 
 201      2329100E 
 201      C417B240 
 201      FE
 202 06f1 48281409 		.ascii	"H(\024\011\353X \315\345\355t\372\333\375\221\250\""
 202      EB5820CD 
 202      E5ED74FA 
 202      DBFD91A8 
 202      22
 203 0702 ADFD6908 		.ascii	"\255\375i\010dTH\344\235\024\210\376VR\326\004\202\221"
 203      645448E4 
 203      9D1488FE 
 203      5652D604 
 203      8291
 204 0714 E73A94F9 		.ascii	"\347:\224\371,@4\236\221\356o\217\255\213\221!\376v"
 204      2C40349E 
 204      91EE6F8F 
 204      AD8B9121 
 204      FE76
ARM GAS  /tmp/ccWwEFmK.s 			page 16


 205 0726 DFBA586B 		.ascii	"\337\272Xk \244D\233\344p[P\2116\377\304\\\274\316\256"
 205      20A4449B 
 205      E4705B50 
 205      8936FFC4 
 205      5CBCCEAE 
 206 073a F386D706 		.ascii	"\363\206\327\006\3740\274\234\334=ayUP\321\344\327\332"
 206      FC30BC9C 
 206      DC3D6179 
 206      5550D1E4 
 206      D7DA
 207 074c 9B792C1E 		.ascii	"\233y,\036\"\341\012\020\325%\231\037R\334\341\022k"
 207      22E10A10 
 207      D525991F 
 207      52DCE112 
 207      6B
 208 075d C06AF37C 		.ascii	"\300j\363|^\227\230\347n\366\210\202Otx\032\305|\227"
 208      5E9798E7 
 208      6EF68882 
 208      4F74781A 
 208      C57C97
 209 0770 CB2BD650 		.ascii	"\313+\326P_\233\347ryD\207kY\253\243\305\347r\324\213"
 209      5F9BE772 
 209      7944876B 
 209      59ABA3C5 
 209      E772D48B 
 210 0784 A24374C1 		.ascii	"\242Ct\301o\030\320\340n\025\035n2\322[/\012\313\265"
 210      6F18D0E0 
 210      6E151D6E 
 210      32D25B2F 
 210      0ACBB5
 211 0797 5175D07F 		.ascii	"Qu\320\177\245\230\347o\227\243\363\215\352\"1p\020"
 211      A598E76F 
 211      97A3F38D 
 211      EA223170 
 211      10
 212 07a8 167227D1 		.ascii	"\026r'\321 w\210\307\322\210\3777K\242\221P\263O,\247"
 212      207788C7 
 212      D288FF37 
 212      4BA29150 
 212      B34F2CA7 
 213 07bc 01621E54 		.ascii	"\001b\036T\320\030\007\341\201\264\032\236H\201X\264"
 213      D01807E1 
 213      81B41A9E 
 213      488158B4 
 214 07cc 38F3A8C6 		.ascii	"8\363\250\306"
 215 07d0 245F4A67 		.ascii	"$_Jg\334\351\362\372\232}\263\301\017\305\0021\3519"
 215      DCE9F2FA 
 215      9A7DB3C1 
 215      0FC50231 
 215      E939
 216 07e2 3F89E03C 		.ascii	"?\211\340<I\212)q\251\241\336\347i\021\233\347\311\301"
 216      498A2971 
 216      A9A1DEE7 
 216      69119BE7 
 216      C9C1
 217 07f4 DFC9EB62 		.ascii	"\337\311\353b\220\373` \254\344\257\225\203\035\312"
 217      90FB6020 
ARM GAS  /tmp/ccWwEFmK.s 			page 17


 217      ACE4AF95 
 217      831DCA
 218 0803 4344D472 		.ascii	"CD\324r>G\017\353BW\204\203\2142*\225{\3640U\326\021"
 218      3E470FEB 
 218      42578483 
 218      8C322A95 
 218      7BF43055 
 219 0819 E6E49630 		.ascii	"\346\344\2260\017\237\316*\330\327\252enIMg\247\226"
 219      0F9FCE2A 
 219      D8D7AA65 
 219      6E494D67 
 219      A796
 220 082b B3D535D5 		.ascii	"\263\3255\325\325\235\253H\326D\227Kj]\267Fq+\253\005"
 220      D59DAB48 
 220      D644974B 
 220      6A5DB746 
 220      712BAB05 
 221 083f 88B86B49 		.ascii	"\210\270kI#\344\240Y,\252oi\250\025}\255\264QC\032\005"
 221      23E4A059 
 221      2CAA6F69 
 221      A8157DAD 
 221      B451431A 
 222 0854 F54D0D9E 		.ascii	"\365M\015\236eb!y\241\337k\340\016\311\"Y\363\211\305"
 222      65622179 
 222      A1DF6BE0 
 222      0EC92259 
 222      F389C5
 223 0867 A2C7E711 		.ascii	"\242\307\347\021\237\365\270\253\363\011Hm\231\273\241"
 223      9FF5B8AB 
 223      F309486D 
 223      99BBA1
 224 0876 D1EB5A91 		.ascii	"\321\353Z\221\006/hv\273\226\273=\377\007N\247\276\000"
 224      062F6876 
 224      BB96BB3D 
 224      FF074EA7 
 224      BE00
 225              		.text
 226              		.section	.gnu.lto_.symtab.781b87cd693c10b4,"",%progbits
 227 0000 56656374 		.ascii	"VectorB0\000\000\000\000\000\000\000\000\000\000\000"
 227      6F724230 
 227      00000000 
 227      00000000 
 227      000000
 228 0013 00A50000 		.ascii	"\000\245\000\000\000st_lld_init\000\000\000\000\000"
 228      0073745F 
 228      6C6C645F 
 228      696E6974 
 228      00000000 
 229 0028 00000000 		.ascii	"\000\000\000\000\000\000\000\251\000\000\000_port_i"
 229      000000A9 
 229      0000005F 
 229      706F7274 
 229      5F69
 230 003a 72715F65 		.ascii	"rq_epilogue\000\000\002\000\000\000\000\000\000\000"
 230      70696C6F 
 230      67756500 
 230      00020000 
ARM GAS  /tmp/ccWwEFmK.s 			page 18


 230      00000000 
 231 004f 0000AC00 		.ascii	"\000\000\254\000\000\000chSysTimerHandlerI\000\000\002"
 231      00006368 
 231      53797354 
 231      696D6572 
 231      48616E64 
 232 006a 00000000 		.ascii	"\000\000\000\000\000\000\000\000\000\256\000\000\000"
 232      00000000 
 232      00AE0000 
 232      00
 233 0077 6E766963 		.ascii	"nvicEnableVector\000\000\002\000\000\000\000\000\000"
 233      456E6162 
 233      6C655665 
 233      63746F72 
 233      00000200 
 234 0090 000000B0 		.ascii	"\000\000\000\260\000\000\000"
 234      000000
 235              		.text
 236              		.section	.gnu.lto_.opts,"",%progbits
 237 0000 272D6D63 		.ascii	"'-mcpu=cortex-m3' '-mno-thumb-interwork' '-mthumb' "
 237      70753D63 
 237      6F727465 
 237      782D6D33 
 237      2720272D 
 238 0033 272D6767 		.ascii	"'-ggdb' '-O2' '-fomit-frame-pointer' '-falign-funct"
 238      64622720 
 238      272D4F32 
 238      2720272D 
 238      666F6D69 
 239 0066 696F6E73 		.ascii	"ions=16' '-ffunction-sections' '-fdata-sections' '-"
 239      3D313627 
 239      20272D66 
 239      66756E63 
 239      74696F6E 
 240 0099 666E6F2D 		.ascii	"fno-common' '-flto'\000"
 240      636F6D6D 
 240      6F6E2720 
 240      272D666C 
 240      746F2700 
 241              		.text
 242              		.cfi_sections	.debug_frame
 243              		.section	.text.VectorB0,"ax",%progbits
 244              		.align	2
 245              		.p2align 4,,15
 246              		.global	VectorB0
 247              		.thumb
 248              		.thumb_func
 249              		.type	VectorB0, %function
 250              	VectorB0:
 251              	.LFB219:
 252              		.file 1 "../../../os/hal/ports/STM32/LLD/TIMv1/hal_st_lld.c"
 253              		.loc 1 239 0
 254              		.cfi_startproc
 255              		@ args = 0, pretend = 0, frame = 0
 256              		@ frame_needed = 0, uses_anonymous_args = 0
 257 0000 08B5     		push	{r3, lr}
 258              		.cfi_def_cfa_offset 8
ARM GAS  /tmp/ccWwEFmK.s 			page 19


 259              		.cfi_offset 3, -8
 260              		.cfi_offset 14, -4
 261              		.loc 1 246 0
 262 0002 4FF08043 		mov	r3, #1073741824
 263 0006 1A69     		ldr	r2, [r3, #16]
 264 0008 9207     		lsls	r2, r2, #30
 265 000a 09D5     		bpl	.L2
 266              		.loc 1 247 0
 267 000c 0022     		movs	r2, #0
 268 000e 1A61     		str	r2, [r3, #16]
 269              	.LVL0:
 270              	.LBB52:
 271              	.LBB53:
 272              	.LBB54:
 273              	.LBB55:
 274              	.LBB56:
 275              	.LBB57:
 276              		.file 2 "../../../os/common/ext/CMSIS/include/cmsis_gcc.h"
 277              		.loc 2 264 0
 278 0010 2023     		movs	r3, #32
 279              	@ 264 "../../../os/common/ext/CMSIS/include/cmsis_gcc.h" 1
 280 0012 83F31188 		MSR basepri, r3
 281              	@ 0 "" 2
 282              		.thumb
 283              	.LBE57:
 284              	.LBE56:
 285              	.LBE55:
 286              	.LBE54:
 287              	.LBE53:
 288              	.LBE52:
 289              	.LBB58:
 290              	.LBB59:
 291              		.file 3 "../../../os/hal/osal/rt/osal.h"
 292              		.loc 3 585 0
 293 0016 FFF7FEFF 		bl	chSysTimerHandlerI
 294              	.LVL1:
 295              	.LBE59:
 296              	.LBE58:
 297              	.LBB60:
 298              	.LBB61:
 299              	.LBB62:
 300              	.LBB63:
 301              	.LBB64:
 302              	.LBB65:
 303              		.loc 2 264 0
 304 001a 0023     		movs	r3, #0
 305              	@ 264 "../../../os/common/ext/CMSIS/include/cmsis_gcc.h" 1
 306 001c 83F31188 		MSR basepri, r3
 307              	@ 0 "" 2
 308              	.LVL2:
 309              		.thumb
 310              	.L2:
 311              	.LBE65:
 312              	.LBE64:
 313              	.LBE63:
 314              	.LBE62:
 315              	.LBE61:
ARM GAS  /tmp/ccWwEFmK.s 			page 20


 316              	.LBE60:
 317              		.loc 1 255 0
 318 0020 BDE80840 		pop	{r3, lr}
 319              		.loc 1 254 0
 320 0024 FFF7FEBF 		b	_port_irq_epilogue
 321              	.LVL3:
 322              		.cfi_endproc
 323              	.LFE219:
 324              		.size	VectorB0, .-VectorB0
 325 0028 AFF30080 		.section	.text.st_lld_init,"ax",%progbits
 325      AFF30080 
 326              		.align	2
 327              		.p2align 4,,15
 328              		.global	st_lld_init
 329              		.thumb
 330              		.thumb_func
 331              		.type	st_lld_init, %function
 332              	st_lld_init:
 333              	.LFB220:
 334              		.loc 1 267 0
 335              		.cfi_startproc
 336              		@ args = 0, pretend = 0, frame = 0
 337              		@ frame_needed = 0, uses_anonymous_args = 0
 338              		@ link register save eliminated.
 339              		.loc 1 273 0
 340 0000 4FF48053 		mov	r3, #4096
 341 0004 C4F20203 		movt	r3, 16386
 342 0008 DA69     		ldr	r2, [r3, #28]
 343              		.loc 1 267 0
 344 000a 70B4     		push	{r4, r5, r6}
 345              		.cfi_def_cfa_offset 12
 346              		.cfi_offset 4, -12
 347              		.cfi_offset 5, -8
 348              		.cfi_offset 6, -4
 349              		.loc 1 273 0
 350 000c 42F00102 		orr	r2, r2, #1
 351              		.loc 1 276 0
 352 0010 4FF40051 		mov	r1, #8192
 353              		.loc 1 273 0
 354 0014 DA61     		str	r2, [r3, #28]
 355              		.loc 1 276 0
 356 0016 CEF20401 		movt	r1, 57348
 357 001a 4868     		ldr	r0, [r1, #4]
 358              		.loc 1 279 0
 359 001c 4FF08043 		mov	r3, #1073741824
 360              		.loc 1 281 0
 361 0020 0022     		movs	r2, #0
 362              		.loc 1 285 0
 363 0022 0124     		movs	r4, #1
 364              		.loc 1 276 0
 365 0024 40F40060 		orr	r0, r0, #2048
 366              		.loc 1 279 0
 367 0028 45F6BF56 		movw	r6, #23999
 368              		.loc 1 280 0
 369 002c 4FF6FF75 		movw	r5, #65535
 370              		.loc 1 276 0
 371 0030 4860     		str	r0, [r1, #4]
ARM GAS  /tmp/ccWwEFmK.s 			page 21


 372              		.loc 1 279 0
 373 0032 9E62     		str	r6, [r3, #40]
 374              		.loc 1 289 0
 375 0034 1C20     		movs	r0, #28
 376              		.loc 1 280 0
 377 0036 DD62     		str	r5, [r3, #44]
 378              		.loc 1 289 0
 379 0038 0821     		movs	r1, #8
 380              		.loc 1 281 0
 381 003a 9A61     		str	r2, [r3, #24]
 382              		.loc 1 282 0
 383 003c 5A63     		str	r2, [r3, #52]
 384              		.loc 1 283 0
 385 003e DA60     		str	r2, [r3, #12]
 386              		.loc 1 284 0
 387 0040 5A60     		str	r2, [r3, #4]
 388              		.loc 1 285 0
 389 0042 5C61     		str	r4, [r3, #20]
 390              		.loc 1 286 0
 391 0044 1C60     		str	r4, [r3]
 392              		.loc 1 304 0
 393 0046 70BC     		pop	{r4, r5, r6}
 394              		.loc 1 289 0
 395 0048 FFF7FEBF 		b	nvicEnableVector
 396              	.LVL4:
 397              		.cfi_endproc
 398              	.LFE220:
 399              		.size	st_lld_init, .-st_lld_init
 400 004c AFF30080 		.text
 401              	.Letext0:
 402              		.file 4 "/home/otto/MentorGraphics/Sourcery_CodeBench_Lite_for_ARM_EABI/arm-none-eabi/include/stdi
 403              		.file 5 "../../../os/common/ports/ARMCMx/compilers/GCC/chtypes.h"
 404              		.file 6 "../../../os/rt/include/chsystypes.h"
 405              		.file 7 "../../../os/rt/include/chschd.h"
 406              		.file 8 "../../../os/common/ext/CMSIS/ST/STM32F1xx/stm32f100xb.h"
 407              		.file 9 "../../../os/common/ports/ARMCMx/chcore.h"
 408              		.file 10 "../../../os/common/ports/ARMCMx/chcore_v7m.h"
 409              		.file 11 "../../../os/hal/ports/STM32/LLD/TIMv1/stm32_tim.h"
 410              		.file 12 "../../../os/rt/include/chsem.h"
 411              		.file 13 "../../../os/rt/include/chmtx.h"
 412              		.file 14 "../../../os/rt/include/chsys.h"
 413              		.file 15 "../../../os/common/ext/CMSIS/include/core_cm3.h"
 414              		.file 16 "../../../os/hal/ports/common/ARMCMx/nvic.h"
 415              		.section	.debug_info,"",%progbits
 416              	.Ldebug_info0:
 417 0000 9A090000 		.4byte	0x99a
 418 0004 0400     		.2byte	0x4
 419 0006 00000000 		.4byte	.Ldebug_abbrev0
 420 000a 04       		.byte	0x4
 421 000b 01       		.uleb128 0x1
 422 000c C0020000 		.4byte	.LASF120
 423 0010 01       		.byte	0x1
 424 0011 6D050000 		.4byte	.LASF121
 425 0015 33000000 		.4byte	.LASF122
 426 0019 00000000 		.4byte	.Ldebug_ranges0+0
 427 001d 00000000 		.4byte	0
 428 0021 00000000 		.4byte	.Ldebug_line0
ARM GAS  /tmp/ccWwEFmK.s 			page 22


 429 0025 02       		.uleb128 0x2
 430 0026 04       		.byte	0x4
 431 0027 05       		.byte	0x5
 432 0028 696E7400 		.ascii	"int\000"
 433 002c 03       		.uleb128 0x3
 434 002d 04       		.byte	0x4
 435 002e 07       		.byte	0x7
 436 002f D8000000 		.4byte	.LASF0
 437 0033 03       		.uleb128 0x3
 438 0034 01       		.byte	0x1
 439 0035 06       		.byte	0x6
 440 0036 D2050000 		.4byte	.LASF1
 441 003a 04       		.uleb128 0x4
 442 003b A5030000 		.4byte	.LASF4
 443 003f 04       		.byte	0x4
 444 0040 2A       		.byte	0x2a
 445 0041 45000000 		.4byte	0x45
 446 0045 03       		.uleb128 0x3
 447 0046 01       		.byte	0x1
 448 0047 08       		.byte	0x8
 449 0048 41050000 		.4byte	.LASF2
 450 004c 03       		.uleb128 0x3
 451 004d 02       		.byte	0x2
 452 004e 05       		.byte	0x5
 453 004f 59040000 		.4byte	.LASF3
 454 0053 04       		.uleb128 0x4
 455 0054 30040000 		.4byte	.LASF5
 456 0058 04       		.byte	0x4
 457 0059 36       		.byte	0x36
 458 005a 5E000000 		.4byte	0x5e
 459 005e 03       		.uleb128 0x3
 460 005f 02       		.byte	0x2
 461 0060 07       		.byte	0x7
 462 0061 E4050000 		.4byte	.LASF6
 463 0065 04       		.uleb128 0x4
 464 0066 16050000 		.4byte	.LASF7
 465 006a 04       		.byte	0x4
 466 006b 4F       		.byte	0x4f
 467 006c 70000000 		.4byte	0x70
 468 0070 03       		.uleb128 0x3
 469 0071 04       		.byte	0x4
 470 0072 05       		.byte	0x5
 471 0073 63040000 		.4byte	.LASF8
 472 0077 04       		.uleb128 0x4
 473 0078 B2010000 		.4byte	.LASF9
 474 007c 04       		.byte	0x4
 475 007d 50       		.byte	0x50
 476 007e 82000000 		.4byte	0x82
 477 0082 03       		.uleb128 0x3
 478 0083 04       		.byte	0x4
 479 0084 07       		.byte	0x7
 480 0085 F1040000 		.4byte	.LASF10
 481 0089 03       		.uleb128 0x3
 482 008a 08       		.byte	0x8
 483 008b 05       		.byte	0x5
 484 008c D4030000 		.4byte	.LASF11
 485 0090 04       		.uleb128 0x4
ARM GAS  /tmp/ccWwEFmK.s 			page 23


 486 0091 B2040000 		.4byte	.LASF12
 487 0095 04       		.byte	0x4
 488 0096 78       		.byte	0x78
 489 0097 9B000000 		.4byte	0x9b
 490 009b 03       		.uleb128 0x3
 491 009c 08       		.byte	0x8
 492 009d 07       		.byte	0x7
 493 009e 0C020000 		.4byte	.LASF13
 494 00a2 04       		.uleb128 0x4
 495 00a3 1D040000 		.4byte	.LASF14
 496 00a7 05       		.byte	0x5
 497 00a8 3C       		.byte	0x3c
 498 00a9 3A000000 		.4byte	0x3a
 499 00ad 04       		.uleb128 0x4
 500 00ae 95030000 		.4byte	.LASF15
 501 00b2 05       		.byte	0x5
 502 00b3 3D       		.byte	0x3d
 503 00b4 3A000000 		.4byte	0x3a
 504 00b8 04       		.uleb128 0x4
 505 00b9 E9040000 		.4byte	.LASF16
 506 00bd 05       		.byte	0x5
 507 00be 3E       		.byte	0x3e
 508 00bf 3A000000 		.4byte	0x3a
 509 00c3 04       		.uleb128 0x4
 510 00c4 E1010000 		.4byte	.LASF17
 511 00c8 05       		.byte	0x5
 512 00c9 40       		.byte	0x40
 513 00ca 77000000 		.4byte	0x77
 514 00ce 04       		.uleb128 0x4
 515 00cf E9030000 		.4byte	.LASF18
 516 00d3 05       		.byte	0x5
 517 00d4 41       		.byte	0x41
 518 00d5 65000000 		.4byte	0x65
 519 00d9 04       		.uleb128 0x4
 520 00da C3010000 		.4byte	.LASF19
 521 00de 05       		.byte	0x5
 522 00df 43       		.byte	0x43
 523 00e0 77000000 		.4byte	0x77
 524 00e4 04       		.uleb128 0x4
 525 00e5 23020000 		.4byte	.LASF20
 526 00e9 05       		.byte	0x5
 527 00ea 45       		.byte	0x45
 528 00eb 65000000 		.4byte	0x65
 529 00ef 04       		.uleb128 0x4
 530 00f0 BC000000 		.4byte	.LASF21
 531 00f4 06       		.byte	0x6
 532 00f5 35       		.byte	0x35
 533 00f6 53000000 		.4byte	0x53
 534 00fa 04       		.uleb128 0x4
 535 00fb 64020000 		.4byte	.LASF22
 536 00ff 06       		.byte	0x6
 537 0100 3F       		.byte	0x3f
 538 0101 05010000 		.4byte	0x105
 539 0105 05       		.uleb128 0x5
 540 0106 BB030000 		.4byte	.LASF40
 541 010a 44       		.byte	0x44
 542 010b 07       		.byte	0x7
ARM GAS  /tmp/ccWwEFmK.s 			page 24


 543 010c 9A       		.byte	0x9a
 544 010d E3010000 		.4byte	0x1e3
 545 0111 06       		.uleb128 0x6
 546 0112 10050000 		.4byte	.LASF23
 547 0116 07       		.byte	0x7
 548 0117 9B       		.byte	0x9b
 549 0118 18020000 		.4byte	0x218
 550 011c 00       		.byte	0
 551 011d 06       		.uleb128 0x6
 552 011e 6C030000 		.4byte	.LASF24
 553 0122 07       		.byte	0x7
 554 0123 9C       		.byte	0x9c
 555 0124 C3000000 		.4byte	0xc3
 556 0128 08       		.byte	0x8
 557 0129 07       		.uleb128 0x7
 558 012a 63747800 		.ascii	"ctx\000"
 559 012e 07       		.byte	0x7
 560 012f 9D       		.byte	0x9d
 561 0130 09050000 		.4byte	0x509
 562 0134 0C       		.byte	0xc
 563 0135 06       		.uleb128 0x6
 564 0136 26050000 		.4byte	.LASF25
 565 013a 07       		.byte	0x7
 566 013b 9F       		.byte	0x9f
 567 013c EE010000 		.4byte	0x1ee
 568 0140 10       		.byte	0x10
 569 0141 06       		.uleb128 0x6
 570 0142 16060000 		.4byte	.LASF26
 571 0146 07       		.byte	0x7
 572 0147 A0       		.byte	0xa0
 573 0148 EE010000 		.4byte	0x1ee
 574 014c 14       		.byte	0x14
 575 014d 06       		.uleb128 0x6
 576 014e DB040000 		.4byte	.LASF27
 577 0152 07       		.byte	0x7
 578 0153 A7       		.byte	0xa7
 579 0154 90070000 		.4byte	0x790
 580 0158 18       		.byte	0x18
 581 0159 06       		.uleb128 0x6
 582 015a 8E030000 		.4byte	.LASF28
 583 015e 07       		.byte	0x7
 584 015f B0       		.byte	0xb0
 585 0160 A2070000 		.4byte	0x7a2
 586 0164 1C       		.byte	0x1c
 587 0165 06       		.uleb128 0x6
 588 0166 B3050000 		.4byte	.LASF29
 589 016a 07       		.byte	0x7
 590 016b B5       		.byte	0xb5
 591 016c AD000000 		.4byte	0xad
 592 0170 20       		.byte	0x20
 593 0171 06       		.uleb128 0x6
 594 0172 B6000000 		.4byte	.LASF30
 595 0176 07       		.byte	0x7
 596 0177 B9       		.byte	0xb9
 597 0178 A2000000 		.4byte	0xa2
 598 017c 21       		.byte	0x21
 599 017d 06       		.uleb128 0x6
ARM GAS  /tmp/ccWwEFmK.s 			page 25


 600 017e FE000000 		.4byte	.LASF31
 601 0182 07       		.byte	0x7
 602 0183 BE       		.byte	0xbe
 603 0184 B8000000 		.4byte	0xb8
 604 0188 22       		.byte	0x22
 605 0189 08       		.uleb128 0x8
 606 018a 7500     		.ascii	"u\000"
 607 018c 07       		.byte	0x7
 608 018d 0F01     		.2byte	0x10f
 609 018f C5060000 		.4byte	0x6c5
 610 0193 24       		.byte	0x24
 611 0194 09       		.uleb128 0x9
 612 0195 4F050000 		.4byte	.LASF32
 613 0199 07       		.byte	0x7
 614 019a 1401     		.2byte	0x114
 615 019c F4010000 		.4byte	0x1f4
 616 01a0 28       		.byte	0x28
 617 01a1 09       		.uleb128 0x9
 618 01a2 AD030000 		.4byte	.LASF33
 619 01a6 07       		.byte	0x7
 620 01a7 1A01     		.2byte	0x11a
 621 01a9 18020000 		.4byte	0x218
 622 01ad 2C       		.byte	0x2c
 623 01ae 09       		.uleb128 0x9
 624 01af CF000000 		.4byte	.LASF34
 625 01b3 07       		.byte	0x7
 626 01b4 2001     		.2byte	0x120
 627 01b6 D9000000 		.4byte	0xd9
 628 01ba 34       		.byte	0x34
 629 01bb 09       		.uleb128 0x9
 630 01bc 45020000 		.4byte	.LASF35
 631 01c0 07       		.byte	0x7
 632 01c1 2701     		.2byte	0x127
 633 01c3 8A070000 		.4byte	0x78a
 634 01c7 38       		.byte	0x38
 635 01c8 09       		.uleb128 0x9
 636 01c9 C6000000 		.4byte	.LASF36
 637 01cd 07       		.byte	0x7
 638 01ce 2B01     		.2byte	0x12b
 639 01d0 C3000000 		.4byte	0xc3
 640 01d4 3C       		.byte	0x3c
 641 01d5 09       		.uleb128 0x9
 642 01d6 25060000 		.4byte	.LASF37
 643 01da 07       		.byte	0x7
 644 01db 3201     		.2byte	0x132
 645 01dd CB020000 		.4byte	0x2cb
 646 01e1 40       		.byte	0x40
 647 01e2 00       		.byte	0
 648 01e3 04       		.uleb128 0x4
 649 01e4 7B030000 		.4byte	.LASF38
 650 01e8 06       		.byte	0x6
 651 01e9 44       		.byte	0x44
 652 01ea EE010000 		.4byte	0x1ee
 653 01ee 0A       		.uleb128 0xa
 654 01ef 04       		.byte	0x4
 655 01f0 FA000000 		.4byte	0xfa
 656 01f4 04       		.uleb128 0x4
ARM GAS  /tmp/ccWwEFmK.s 			page 26


 657 01f5 EA000000 		.4byte	.LASF39
 658 01f9 06       		.byte	0x6
 659 01fa 49       		.byte	0x49
 660 01fb FF010000 		.4byte	0x1ff
 661 01ff 05       		.uleb128 0x5
 662 0200 00000000 		.4byte	.LASF41
 663 0204 04       		.byte	0x4
 664 0205 07       		.byte	0x7
 665 0206 88       		.byte	0x88
 666 0207 18020000 		.4byte	0x218
 667 020b 06       		.uleb128 0x6
 668 020c E5000000 		.4byte	.LASF42
 669 0210 07       		.byte	0x7
 670 0211 89       		.byte	0x89
 671 0212 EE010000 		.4byte	0x1ee
 672 0216 00       		.byte	0
 673 0217 00       		.byte	0
 674 0218 04       		.uleb128 0x4
 675 0219 2F020000 		.4byte	.LASF43
 676 021d 06       		.byte	0x6
 677 021e 50       		.byte	0x50
 678 021f 23020000 		.4byte	0x223
 679 0223 05       		.uleb128 0x5
 680 0224 5A010000 		.4byte	.LASF44
 681 0228 08       		.byte	0x8
 682 0229 07       		.byte	0x7
 683 022a 8F       		.byte	0x8f
 684 022b 48020000 		.4byte	0x248
 685 022f 06       		.uleb128 0x6
 686 0230 E5000000 		.4byte	.LASF42
 687 0234 07       		.byte	0x7
 688 0235 90       		.byte	0x90
 689 0236 EE010000 		.4byte	0x1ee
 690 023a 00       		.byte	0
 691 023b 06       		.uleb128 0x6
 692 023c 55010000 		.4byte	.LASF45
 693 0240 07       		.byte	0x7
 694 0241 91       		.byte	0x91
 695 0242 EE010000 		.4byte	0x1ee
 696 0246 04       		.byte	0x4
 697 0247 00       		.byte	0
 698 0248 04       		.uleb128 0x4
 699 0249 03050000 		.4byte	.LASF46
 700 024d 06       		.byte	0x6
 701 024e 57       		.byte	0x57
 702 024f 53020000 		.4byte	0x253
 703 0253 0B       		.uleb128 0xb
 704 0254 3B010000 		.4byte	.LASF47
 705 0258 1C       		.byte	0x1c
 706 0259 07       		.byte	0x7
 707 025a 6A01     		.2byte	0x16a
 708 025c AF020000 		.4byte	0x2af
 709 0260 09       		.uleb128 0x9
 710 0261 10050000 		.4byte	.LASF23
 711 0265 07       		.byte	0x7
 712 0266 6B01     		.2byte	0x16b
 713 0268 18020000 		.4byte	0x218
ARM GAS  /tmp/ccWwEFmK.s 			page 27


 714 026c 00       		.byte	0
 715 026d 09       		.uleb128 0x9
 716 026e 6C030000 		.4byte	.LASF24
 717 0272 07       		.byte	0x7
 718 0273 6C01     		.2byte	0x16c
 719 0275 C3000000 		.4byte	0xc3
 720 0279 08       		.byte	0x8
 721 027a 08       		.uleb128 0x8
 722 027b 63747800 		.ascii	"ctx\000"
 723 027f 07       		.byte	0x7
 724 0280 6E01     		.2byte	0x16e
 725 0282 09050000 		.4byte	0x509
 726 0286 0C       		.byte	0xc
 727 0287 09       		.uleb128 0x9
 728 0288 26050000 		.4byte	.LASF25
 729 028c 07       		.byte	0x7
 730 028d 7101     		.2byte	0x171
 731 028f EE010000 		.4byte	0x1ee
 732 0293 10       		.byte	0x10
 733 0294 09       		.uleb128 0x9
 734 0295 16060000 		.4byte	.LASF26
 735 0299 07       		.byte	0x7
 736 029a 7201     		.2byte	0x172
 737 029c EE010000 		.4byte	0x1ee
 738 02a0 14       		.byte	0x14
 739 02a1 09       		.uleb128 0x9
 740 02a2 02060000 		.4byte	.LASF48
 741 02a6 07       		.byte	0x7
 742 02a7 7501     		.2byte	0x175
 743 02a9 EE010000 		.4byte	0x1ee
 744 02ad 18       		.byte	0x18
 745 02ae 00       		.byte	0
 746 02af 04       		.uleb128 0x4
 747 02b0 99010000 		.4byte	.LASF49
 748 02b4 06       		.byte	0x6
 749 02b5 5C       		.byte	0x5c
 750 02b6 BA020000 		.4byte	0x2ba
 751 02ba 0A       		.uleb128 0xa
 752 02bb 04       		.byte	0x4
 753 02bc C0020000 		.4byte	0x2c0
 754 02c0 0C       		.uleb128 0xc
 755 02c1 CB020000 		.4byte	0x2cb
 756 02c5 0D       		.uleb128 0xd
 757 02c6 CB020000 		.4byte	0x2cb
 758 02ca 00       		.byte	0
 759 02cb 0E       		.uleb128 0xe
 760 02cc 04       		.byte	0x4
 761 02cd 04       		.uleb128 0x4
 762 02ce EF030000 		.4byte	.LASF50
 763 02d2 06       		.byte	0x6
 764 02d3 61       		.byte	0x61
 765 02d4 D8020000 		.4byte	0x2d8
 766 02d8 0B       		.uleb128 0xb
 767 02d9 E9010000 		.4byte	.LASF51
 768 02dd 14       		.byte	0x14
 769 02de 07       		.byte	0x7
 770 02df 4501     		.2byte	0x145
ARM GAS  /tmp/ccWwEFmK.s 			page 28


 771 02e1 27030000 		.4byte	0x327
 772 02e5 09       		.uleb128 0x9
 773 02e6 E5000000 		.4byte	.LASF42
 774 02ea 07       		.byte	0x7
 775 02eb 4601     		.2byte	0x146
 776 02ed A8070000 		.4byte	0x7a8
 777 02f1 00       		.byte	0
 778 02f2 09       		.uleb128 0x9
 779 02f3 55010000 		.4byte	.LASF45
 780 02f7 07       		.byte	0x7
 781 02f8 4701     		.2byte	0x147
 782 02fa A8070000 		.4byte	0x7a8
 783 02fe 04       		.byte	0x4
 784 02ff 09       		.uleb128 0x9
 785 0300 DE050000 		.4byte	.LASF52
 786 0304 07       		.byte	0x7
 787 0305 4801     		.2byte	0x148
 788 0307 EF000000 		.4byte	0xef
 789 030b 08       		.byte	0x8
 790 030c 09       		.uleb128 0x9
 791 030d 49010000 		.4byte	.LASF53
 792 0311 07       		.byte	0x7
 793 0312 4901     		.2byte	0x149
 794 0314 AF020000 		.4byte	0x2af
 795 0318 0C       		.byte	0xc
 796 0319 08       		.uleb128 0x8
 797 031a 70617200 		.ascii	"par\000"
 798 031e 07       		.byte	0x7
 799 031f 4B01     		.2byte	0x14b
 800 0321 CB020000 		.4byte	0x2cb
 801 0325 10       		.byte	0x10
 802 0326 00       		.byte	0
 803 0327 04       		.uleb128 0x4
 804 0328 57050000 		.4byte	.LASF54
 805 032c 06       		.byte	0x6
 806 032d 66       		.byte	0x66
 807 032e 32030000 		.4byte	0x332
 808 0332 0B       		.uleb128 0xb
 809 0333 4D020000 		.4byte	.LASF55
 810 0337 0C       		.byte	0xc
 811 0338 07       		.byte	0x7
 812 0339 5501     		.2byte	0x155
 813 033b 74030000 		.4byte	0x374
 814 033f 09       		.uleb128 0x9
 815 0340 E5000000 		.4byte	.LASF42
 816 0344 07       		.byte	0x7
 817 0345 5601     		.2byte	0x156
 818 0347 A8070000 		.4byte	0x7a8
 819 034b 00       		.byte	0
 820 034c 09       		.uleb128 0x9
 821 034d 55010000 		.4byte	.LASF45
 822 0351 07       		.byte	0x7
 823 0352 5801     		.2byte	0x158
 824 0354 A8070000 		.4byte	0x7a8
 825 0358 04       		.byte	0x4
 826 0359 09       		.uleb128 0x9
 827 035a DE050000 		.4byte	.LASF52
ARM GAS  /tmp/ccWwEFmK.s 			page 29


 828 035e 07       		.byte	0x7
 829 035f 5A01     		.2byte	0x15a
 830 0361 EF000000 		.4byte	0xef
 831 0365 08       		.byte	0x8
 832 0366 09       		.uleb128 0x9
 833 0367 A9040000 		.4byte	.LASF56
 834 036b 07       		.byte	0x7
 835 036c 6201     		.2byte	0x162
 836 036e EF000000 		.4byte	0xef
 837 0372 0A       		.byte	0xa
 838 0373 00       		.byte	0
 839 0374 04       		.uleb128 0x4
 840 0375 C5030000 		.4byte	.LASF57
 841 0379 06       		.byte	0x6
 842 037a 6B       		.byte	0x6b
 843 037b 7F030000 		.4byte	0x37f
 844 037f 0B       		.uleb128 0xb
 845 0380 A2010000 		.4byte	.LASF58
 846 0384 04       		.byte	0x4
 847 0385 07       		.byte	0x7
 848 0386 7C01     		.2byte	0x17c
 849 0388 9A030000 		.4byte	0x39a
 850 038c 09       		.uleb128 0x9
 851 038d 0D040000 		.4byte	.LASF59
 852 0391 07       		.byte	0x7
 853 0392 8401     		.2byte	0x184
 854 0394 AE070000 		.4byte	0x7ae
 855 0398 00       		.byte	0
 856 0399 00       		.byte	0
 857 039a 04       		.uleb128 0x4
 858 039b B9050000 		.4byte	.LASF60
 859 039f 06       		.byte	0x6
 860 03a0 70       		.byte	0x70
 861 03a1 A5030000 		.4byte	0x3a5
 862 03a5 0B       		.uleb128 0xb
 863 03a6 85040000 		.4byte	.LASF61
 864 03aa 70       		.byte	0x70
 865 03ab 07       		.byte	0x7
 866 03ac 9C01     		.2byte	0x19c
 867 03ae E7030000 		.4byte	0x3e7
 868 03b2 09       		.uleb128 0x9
 869 03b3 C0040000 		.4byte	.LASF62
 870 03b7 07       		.byte	0x7
 871 03b8 A001     		.2byte	0x1a0
 872 03ba 48020000 		.4byte	0x248
 873 03be 00       		.byte	0
 874 03bf 09       		.uleb128 0x9
 875 03c0 14010000 		.4byte	.LASF63
 876 03c4 07       		.byte	0x7
 877 03c5 A401     		.2byte	0x1a4
 878 03c7 27030000 		.4byte	0x327
 879 03cb 1C       		.byte	0x1c
 880 03cc 08       		.uleb128 0x8
 881 03cd 64626700 		.ascii	"dbg\000"
 882 03d1 07       		.byte	0x7
 883 03d2 A801     		.2byte	0x1a8
 884 03d4 74030000 		.4byte	0x374
ARM GAS  /tmp/ccWwEFmK.s 			page 30


 885 03d8 28       		.byte	0x28
 886 03d9 09       		.uleb128 0x9
 887 03da 25040000 		.4byte	.LASF64
 888 03de 07       		.byte	0x7
 889 03df AC01     		.2byte	0x1ac
 890 03e1 FA000000 		.4byte	0xfa
 891 03e5 2C       		.byte	0x2c
 892 03e6 00       		.byte	0
 893 03e7 03       		.uleb128 0x3
 894 03e8 04       		.byte	0x4
 895 03e9 07       		.byte	0x7
 896 03ea E0040000 		.4byte	.LASF65
 897 03ee 0F       		.uleb128 0xf
 898 03ef 77000000 		.4byte	0x77
 899 03f3 10       		.uleb128 0x10
 900 03f4 77000000 		.4byte	0x77
 901 03f8 03040000 		.4byte	0x403
 902 03fc 11       		.uleb128 0x11
 903 03fd E7030000 		.4byte	0x3e7
 904 0401 01       		.byte	0x1
 905 0402 00       		.byte	0
 906 0403 10       		.uleb128 0x10
 907 0404 77000000 		.4byte	0x77
 908 0408 13040000 		.4byte	0x413
 909 040c 11       		.uleb128 0x11
 910 040d E7030000 		.4byte	0x3e7
 911 0411 03       		.byte	0x3
 912 0412 00       		.byte	0
 913 0413 12       		.uleb128 0x12
 914 0414 08       		.byte	0x8
 915 0415 08       		.byte	0x8
 916 0416 0E01     		.2byte	0x10e
 917 0418 36040000 		.4byte	0x436
 918 041c 09       		.uleb128 0x9
 919 041d E2030000 		.4byte	.LASF66
 920 0421 08       		.byte	0x8
 921 0422 1001     		.2byte	0x110
 922 0424 EE030000 		.4byte	0x3ee
 923 0428 00       		.byte	0
 924 0429 08       		.uleb128 0x8
 925 042a 435200   		.ascii	"CR\000"
 926 042d 08       		.byte	0x8
 927 042e 1101     		.2byte	0x111
 928 0430 EE030000 		.4byte	0x3ee
 929 0434 04       		.byte	0x4
 930 0435 00       		.byte	0
 931 0436 13       		.uleb128 0x13
 932 0437 81010000 		.4byte	.LASF67
 933 043b 08       		.byte	0x8
 934 043c 1201     		.2byte	0x112
 935 043e 13040000 		.4byte	0x413
 936 0442 12       		.uleb128 0x12
 937 0443 30       		.byte	0x30
 938 0444 08       		.byte	0x8
 939 0445 9D01     		.2byte	0x19d
 940 0447 E7040000 		.4byte	0x4e7
 941 044b 08       		.uleb128 0x8
ARM GAS  /tmp/ccWwEFmK.s 			page 31


 942 044c 435200   		.ascii	"CR\000"
 943 044f 08       		.byte	0x8
 944 0450 9F01     		.2byte	0x19f
 945 0452 EE030000 		.4byte	0x3ee
 946 0456 00       		.byte	0
 947 0457 09       		.uleb128 0x9
 948 0458 BB040000 		.4byte	.LASF68
 949 045c 08       		.byte	0x8
 950 045d A001     		.2byte	0x1a0
 951 045f EE030000 		.4byte	0x3ee
 952 0463 04       		.byte	0x4
 953 0464 08       		.uleb128 0x8
 954 0465 43495200 		.ascii	"CIR\000"
 955 0469 08       		.byte	0x8
 956 046a A101     		.2byte	0x1a1
 957 046c EE030000 		.4byte	0x3ee
 958 0470 08       		.byte	0x8
 959 0471 09       		.uleb128 0x9
 960 0472 AD000000 		.4byte	.LASF69
 961 0476 08       		.byte	0x8
 962 0477 A201     		.2byte	0x1a2
 963 0479 EE030000 		.4byte	0x3ee
 964 047d 0C       		.byte	0xc
 965 047e 09       		.uleb128 0x9
 966 047f 63030000 		.4byte	.LASF70
 967 0483 08       		.byte	0x8
 968 0484 A301     		.2byte	0x1a3
 969 0486 EE030000 		.4byte	0x3ee
 970 048a 10       		.byte	0x10
 971 048b 09       		.uleb128 0x9
 972 048c 9E030000 		.4byte	.LASF71
 973 0490 08       		.byte	0x8
 974 0491 A401     		.2byte	0x1a4
 975 0493 EE030000 		.4byte	0x3ee
 976 0497 14       		.byte	0x14
 977 0498 09       		.uleb128 0x9
 978 0499 05040000 		.4byte	.LASF72
 979 049d 08       		.byte	0x8
 980 049e A501     		.2byte	0x1a5
 981 04a0 EE030000 		.4byte	0x3ee
 982 04a4 18       		.byte	0x18
 983 04a5 09       		.uleb128 0x9
 984 04a6 10000000 		.4byte	.LASF73
 985 04aa 08       		.byte	0x8
 986 04ab A601     		.2byte	0x1a6
 987 04ad EE030000 		.4byte	0x3ee
 988 04b1 1C       		.byte	0x1c
 989 04b2 09       		.uleb128 0x9
 990 04b3 F9000000 		.4byte	.LASF74
 991 04b7 08       		.byte	0x8
 992 04b8 A701     		.2byte	0x1a7
 993 04ba EE030000 		.4byte	0x3ee
 994 04be 20       		.byte	0x20
 995 04bf 08       		.uleb128 0x8
 996 04c0 43535200 		.ascii	"CSR\000"
 997 04c4 08       		.byte	0x8
 998 04c5 A801     		.2byte	0x1a8
ARM GAS  /tmp/ccWwEFmK.s 			page 32


 999 04c7 EE030000 		.4byte	0x3ee
 1000 04cb 24       		.byte	0x24
 1001 04cc 09       		.uleb128 0x9
 1002 04cd 4F040000 		.4byte	.LASF75
 1003 04d1 08       		.byte	0x8
 1004 04d2 AB01     		.2byte	0x1ab
 1005 04d4 77000000 		.4byte	0x77
 1006 04d8 28       		.byte	0x28
 1007 04d9 09       		.uleb128 0x9
 1008 04da FF030000 		.4byte	.LASF76
 1009 04de 08       		.byte	0x8
 1010 04df AC01     		.2byte	0x1ac
 1011 04e1 EE030000 		.4byte	0x3ee
 1012 04e5 2C       		.byte	0x2c
 1013 04e6 00       		.byte	0
 1014 04e7 13       		.uleb128 0x13
 1015 04e8 A6020000 		.4byte	.LASF77
 1016 04ec 08       		.byte	0x8
 1017 04ed AD01     		.2byte	0x1ad
 1018 04ef 42040000 		.4byte	0x442
 1019 04f3 04       		.uleb128 0x4
 1020 04f4 A4000000 		.4byte	.LASF78
 1021 04f8 09       		.byte	0x9
 1022 04f9 65       		.byte	0x65
 1023 04fa CB020000 		.4byte	0x2cb
 1024 04fe 04       		.uleb128 0x4
 1025 04ff F7050000 		.4byte	.LASF79
 1026 0503 09       		.byte	0x9
 1027 0504 6D       		.byte	0x6d
 1028 0505 90000000 		.4byte	0x90
 1029 0509 05       		.uleb128 0x5
 1030 050a 1B010000 		.4byte	.LASF80
 1031 050e 04       		.byte	0x4
 1032 050f 09       		.byte	0x9
 1033 0510 89       		.byte	0x89
 1034 0511 21050000 		.4byte	0x521
 1035 0515 07       		.uleb128 0x7
 1036 0516 737000   		.ascii	"sp\000"
 1037 0519 09       		.byte	0x9
 1038 051a 8A       		.byte	0x8a
 1039 051b 9D050000 		.4byte	0x59d
 1040 051f 00       		.byte	0
 1041 0520 00       		.byte	0
 1042 0521 0B       		.uleb128 0xb
 1043 0522 6C040000 		.4byte	.LASF81
 1044 0526 24       		.byte	0x24
 1045 0527 0A       		.byte	0xa
 1046 0528 5901     		.2byte	0x159
 1047 052a 9D050000 		.4byte	0x59d
 1048 052e 08       		.uleb128 0x8
 1049 052f 723400   		.ascii	"r4\000"
 1050 0532 0A       		.byte	0xa
 1051 0533 6C01     		.2byte	0x16c
 1052 0535 F3040000 		.4byte	0x4f3
 1053 0539 00       		.byte	0
 1054 053a 08       		.uleb128 0x8
 1055 053b 723500   		.ascii	"r5\000"
ARM GAS  /tmp/ccWwEFmK.s 			page 33


 1056 053e 0A       		.byte	0xa
 1057 053f 6D01     		.2byte	0x16d
 1058 0541 F3040000 		.4byte	0x4f3
 1059 0545 04       		.byte	0x4
 1060 0546 08       		.uleb128 0x8
 1061 0547 723600   		.ascii	"r6\000"
 1062 054a 0A       		.byte	0xa
 1063 054b 6E01     		.2byte	0x16e
 1064 054d F3040000 		.4byte	0x4f3
 1065 0551 08       		.byte	0x8
 1066 0552 08       		.uleb128 0x8
 1067 0553 723700   		.ascii	"r7\000"
 1068 0556 0A       		.byte	0xa
 1069 0557 6F01     		.2byte	0x16f
 1070 0559 F3040000 		.4byte	0x4f3
 1071 055d 0C       		.byte	0xc
 1072 055e 08       		.uleb128 0x8
 1073 055f 723800   		.ascii	"r8\000"
 1074 0562 0A       		.byte	0xa
 1075 0563 7001     		.2byte	0x170
 1076 0565 F3040000 		.4byte	0x4f3
 1077 0569 10       		.byte	0x10
 1078 056a 08       		.uleb128 0x8
 1079 056b 723900   		.ascii	"r9\000"
 1080 056e 0A       		.byte	0xa
 1081 056f 7101     		.2byte	0x171
 1082 0571 F3040000 		.4byte	0x4f3
 1083 0575 14       		.byte	0x14
 1084 0576 08       		.uleb128 0x8
 1085 0577 72313000 		.ascii	"r10\000"
 1086 057b 0A       		.byte	0xa
 1087 057c 7201     		.2byte	0x172
 1088 057e F3040000 		.4byte	0x4f3
 1089 0582 18       		.byte	0x18
 1090 0583 08       		.uleb128 0x8
 1091 0584 72313100 		.ascii	"r11\000"
 1092 0588 0A       		.byte	0xa
 1093 0589 7301     		.2byte	0x173
 1094 058b F3040000 		.4byte	0x4f3
 1095 058f 1C       		.byte	0x1c
 1096 0590 08       		.uleb128 0x8
 1097 0591 6C7200   		.ascii	"lr\000"
 1098 0594 0A       		.byte	0xa
 1099 0595 7401     		.2byte	0x174
 1100 0597 F3040000 		.4byte	0x4f3
 1101 059b 20       		.byte	0x20
 1102 059c 00       		.byte	0
 1103 059d 0A       		.uleb128 0xa
 1104 059e 04       		.byte	0x4
 1105 059f 21050000 		.4byte	0x521
 1106 05a3 12       		.uleb128 0x12
 1107 05a4 60       		.byte	0x60
 1108 05a5 0B       		.byte	0xb
 1109 05a6 A101     		.2byte	0x1a1
 1110 05a8 AF060000 		.4byte	0x6af
 1111 05ac 08       		.uleb128 0x8
 1112 05ad 43523100 		.ascii	"CR1\000"
ARM GAS  /tmp/ccWwEFmK.s 			page 34


 1113 05b1 0B       		.byte	0xb
 1114 05b2 A201     		.2byte	0x1a2
 1115 05b4 EE030000 		.4byte	0x3ee
 1116 05b8 00       		.byte	0
 1117 05b9 08       		.uleb128 0x8
 1118 05ba 43523200 		.ascii	"CR2\000"
 1119 05be 0B       		.byte	0xb
 1120 05bf A301     		.2byte	0x1a3
 1121 05c1 EE030000 		.4byte	0x3ee
 1122 05c5 04       		.byte	0x4
 1123 05c6 09       		.uleb128 0x9
 1124 05c7 B6030000 		.4byte	.LASF82
 1125 05cb 0B       		.byte	0xb
 1126 05cc A401     		.2byte	0x1a4
 1127 05ce EE030000 		.4byte	0x3ee
 1128 05d2 08       		.byte	0x8
 1129 05d3 09       		.uleb128 0x9
 1130 05d4 BB020000 		.4byte	.LASF83
 1131 05d8 0B       		.byte	0xb
 1132 05d9 A501     		.2byte	0x1a5
 1133 05db EE030000 		.4byte	0x3ee
 1134 05df 0C       		.byte	0xc
 1135 05e0 08       		.uleb128 0x8
 1136 05e1 535200   		.ascii	"SR\000"
 1137 05e4 0B       		.byte	0xb
 1138 05e5 A601     		.2byte	0x1a6
 1139 05e7 EE030000 		.4byte	0x3ee
 1140 05eb 10       		.byte	0x10
 1141 05ec 08       		.uleb128 0x8
 1142 05ed 45475200 		.ascii	"EGR\000"
 1143 05f1 0B       		.byte	0xb
 1144 05f2 A701     		.2byte	0x1a7
 1145 05f4 EE030000 		.4byte	0x3ee
 1146 05f8 14       		.byte	0x14
 1147 05f9 09       		.uleb128 0x9
 1148 05fa FA010000 		.4byte	.LASF84
 1149 05fe 0B       		.byte	0xb
 1150 05ff A801     		.2byte	0x1a8
 1151 0601 EE030000 		.4byte	0x3ee
 1152 0605 18       		.byte	0x18
 1153 0606 09       		.uleb128 0x9
 1154 0607 00020000 		.4byte	.LASF85
 1155 060b 0B       		.byte	0xb
 1156 060c A901     		.2byte	0x1a9
 1157 060e EE030000 		.4byte	0x3ee
 1158 0612 1C       		.byte	0x1c
 1159 0613 09       		.uleb128 0x9
 1160 0614 71030000 		.4byte	.LASF86
 1161 0618 0B       		.byte	0xb
 1162 0619 AA01     		.2byte	0x1aa
 1163 061b EE030000 		.4byte	0x3ee
 1164 061f 20       		.byte	0x20
 1165 0620 08       		.uleb128 0x8
 1166 0621 434E5400 		.ascii	"CNT\000"
 1167 0625 0B       		.byte	0xb
 1168 0626 AB01     		.2byte	0x1ab
 1169 0628 EE030000 		.4byte	0x3ee
ARM GAS  /tmp/ccWwEFmK.s 			page 35


 1170 062c 24       		.byte	0x24
 1171 062d 08       		.uleb128 0x8
 1172 062e 50534300 		.ascii	"PSC\000"
 1173 0632 0B       		.byte	0xb
 1174 0633 AC01     		.2byte	0x1ac
 1175 0635 EE030000 		.4byte	0x3ee
 1176 0639 28       		.byte	0x28
 1177 063a 08       		.uleb128 0x8
 1178 063b 41525200 		.ascii	"ARR\000"
 1179 063f 0B       		.byte	0xb
 1180 0640 AD01     		.2byte	0x1ad
 1181 0642 EE030000 		.4byte	0x3ee
 1182 0646 2C       		.byte	0x2c
 1183 0647 08       		.uleb128 0x8
 1184 0648 52435200 		.ascii	"RCR\000"
 1185 064c 0B       		.byte	0xb
 1186 064d AE01     		.2byte	0x1ae
 1187 064f EE030000 		.4byte	0x3ee
 1188 0653 30       		.byte	0x30
 1189 0654 08       		.uleb128 0x8
 1190 0655 43435200 		.ascii	"CCR\000"
 1191 0659 0B       		.byte	0xb
 1192 065a AF01     		.2byte	0x1af
 1193 065c AF060000 		.4byte	0x6af
 1194 0660 34       		.byte	0x34
 1195 0661 09       		.uleb128 0x9
 1196 0662 CF010000 		.4byte	.LASF87
 1197 0666 0B       		.byte	0xb
 1198 0667 B001     		.2byte	0x1b0
 1199 0669 EE030000 		.4byte	0x3ee
 1200 066d 44       		.byte	0x44
 1201 066e 08       		.uleb128 0x8
 1202 066f 44435200 		.ascii	"DCR\000"
 1203 0673 0B       		.byte	0xb
 1204 0674 B101     		.2byte	0x1b1
 1205 0676 EE030000 		.4byte	0x3ee
 1206 067a 48       		.byte	0x48
 1207 067b 09       		.uleb128 0x9
 1208 067c 7C010000 		.4byte	.LASF88
 1209 0680 0B       		.byte	0xb
 1210 0681 B201     		.2byte	0x1b2
 1211 0683 EE030000 		.4byte	0x3ee
 1212 0687 4C       		.byte	0x4c
 1213 0688 08       		.uleb128 0x8
 1214 0689 4F5200   		.ascii	"OR\000"
 1215 068c 0B       		.byte	0xb
 1216 068d B301     		.2byte	0x1b3
 1217 068f EE030000 		.4byte	0x3ee
 1218 0693 50       		.byte	0x50
 1219 0694 09       		.uleb128 0x9
 1220 0695 06020000 		.4byte	.LASF89
 1221 0699 0B       		.byte	0xb
 1222 069a B401     		.2byte	0x1b4
 1223 069c EE030000 		.4byte	0x3ee
 1224 06a0 54       		.byte	0x54
 1225 06a1 09       		.uleb128 0x9
 1226 06a2 4A040000 		.4byte	.LASF90
ARM GAS  /tmp/ccWwEFmK.s 			page 36


 1227 06a6 0B       		.byte	0xb
 1228 06a7 B501     		.2byte	0x1b5
 1229 06a9 B4060000 		.4byte	0x6b4
 1230 06ad 58       		.byte	0x58
 1231 06ae 00       		.byte	0
 1232 06af 0F       		.uleb128 0xf
 1233 06b0 03040000 		.4byte	0x403
 1234 06b4 0F       		.uleb128 0xf
 1235 06b5 F3030000 		.4byte	0x3f3
 1236 06b9 13       		.uleb128 0x13
 1237 06ba 9A020000 		.4byte	.LASF91
 1238 06be 0B       		.byte	0xb
 1239 06bf B601     		.2byte	0x1b6
 1240 06c1 A3050000 		.4byte	0x5a3
 1241 06c5 14       		.uleb128 0x14
 1242 06c6 04       		.byte	0x4
 1243 06c7 07       		.byte	0x7
 1244 06c8 D2       		.byte	0xd2
 1245 06c9 28070000 		.4byte	0x728
 1246 06cd 15       		.uleb128 0x15
 1247 06ce 80020000 		.4byte	.LASF92
 1248 06d2 07       		.byte	0x7
 1249 06d3 D9       		.byte	0xd9
 1250 06d4 CE000000 		.4byte	0xce
 1251 06d8 15       		.uleb128 0x15
 1252 06d9 1C060000 		.4byte	.LASF93
 1253 06dd 07       		.byte	0x7
 1254 06de E0       		.byte	0xe0
 1255 06df CE000000 		.4byte	0xce
 1256 06e3 15       		.uleb128 0x15
 1257 06e4 03010000 		.4byte	.LASF94
 1258 06e8 07       		.byte	0x7
 1259 06e9 E7       		.byte	0xe7
 1260 06ea CB020000 		.4byte	0x2cb
 1261 06ee 15       		.uleb128 0x15
 1262 06ef CC050000 		.4byte	.LASF95
 1263 06f3 07       		.byte	0x7
 1264 06f4 EE       		.byte	0xee
 1265 06f5 28070000 		.4byte	0x728
 1266 06f9 15       		.uleb128 0x15
 1267 06fa BB010000 		.4byte	.LASF96
 1268 06fe 07       		.byte	0x7
 1269 06ff F3       		.byte	0xf3
 1270 0700 CE000000 		.4byte	0xce
 1271 0704 15       		.uleb128 0x15
 1272 0705 C5050000 		.4byte	.LASF97
 1273 0709 07       		.byte	0x7
 1274 070a FC       		.byte	0xfc
 1275 070b 53070000 		.4byte	0x753
 1276 070f 16       		.uleb128 0x16
 1277 0710 18000000 		.4byte	.LASF98
 1278 0714 07       		.byte	0x7
 1279 0715 0501     		.2byte	0x105
 1280 0717 8A070000 		.4byte	0x78a
 1281 071b 16       		.uleb128 0x16
 1282 071c 4E010000 		.4byte	.LASF99
 1283 0720 07       		.byte	0x7
ARM GAS  /tmp/ccWwEFmK.s 			page 37


 1284 0721 0D01     		.2byte	0x10d
 1285 0723 D9000000 		.4byte	0xd9
 1286 0727 00       		.byte	0
 1287 0728 0A       		.uleb128 0xa
 1288 0729 04       		.byte	0x4
 1289 072a E3010000 		.4byte	0x1e3
 1290 072e 05       		.uleb128 0x5
 1291 072f D4010000 		.4byte	.LASF100
 1292 0733 0C       		.byte	0xc
 1293 0734 0C       		.byte	0xc
 1294 0735 34       		.byte	0x34
 1295 0736 53070000 		.4byte	0x753
 1296 073a 06       		.uleb128 0x6
 1297 073b 10050000 		.4byte	.LASF23
 1298 073f 0C       		.byte	0xc
 1299 0740 35       		.byte	0x35
 1300 0741 18020000 		.4byte	0x218
 1301 0745 00       		.byte	0
 1302 0746 07       		.uleb128 0x7
 1303 0747 636E7400 		.ascii	"cnt\000"
 1304 074b 0C       		.byte	0xc
 1305 074c 37       		.byte	0x37
 1306 074d E4000000 		.4byte	0xe4
 1307 0751 08       		.byte	0x8
 1308 0752 00       		.byte	0
 1309 0753 0A       		.uleb128 0xa
 1310 0754 04       		.byte	0x4
 1311 0755 2E070000 		.4byte	0x72e
 1312 0759 05       		.uleb128 0x5
 1313 075a B2020000 		.4byte	.LASF101
 1314 075e 10       		.byte	0x10
 1315 075f 0D       		.byte	0xd
 1316 0760 39       		.byte	0x39
 1317 0761 8A070000 		.4byte	0x78a
 1318 0765 06       		.uleb128 0x6
 1319 0766 10050000 		.4byte	.LASF23
 1320 076a 0D       		.byte	0xd
 1321 076b 3A       		.byte	0x3a
 1322 076c 18020000 		.4byte	0x218
 1323 0770 00       		.byte	0
 1324 0771 06       		.uleb128 0x6
 1325 0772 29020000 		.4byte	.LASF102
 1326 0776 0D       		.byte	0xd
 1327 0777 3C       		.byte	0x3c
 1328 0778 EE010000 		.4byte	0x1ee
 1329 077c 08       		.byte	0x8
 1330 077d 06       		.uleb128 0x6
 1331 077e E5000000 		.4byte	.LASF42
 1332 0782 0D       		.byte	0xd
 1333 0783 3E       		.byte	0x3e
 1334 0784 BE070000 		.4byte	0x7be
 1335 0788 0C       		.byte	0xc
 1336 0789 00       		.byte	0
 1337 078a 0A       		.uleb128 0xa
 1338 078b 04       		.byte	0x4
 1339 078c 59070000 		.4byte	0x759
 1340 0790 0A       		.uleb128 0xa
ARM GAS  /tmp/ccWwEFmK.s 			page 38


 1341 0791 04       		.byte	0x4
 1342 0792 96070000 		.4byte	0x796
 1343 0796 17       		.uleb128 0x17
 1344 0797 9B070000 		.4byte	0x79b
 1345 079b 03       		.uleb128 0x3
 1346 079c 01       		.byte	0x1
 1347 079d 08       		.byte	0x8
 1348 079e 76030000 		.4byte	.LASF103
 1349 07a2 0A       		.uleb128 0xa
 1350 07a3 04       		.byte	0x4
 1351 07a4 FE040000 		.4byte	0x4fe
 1352 07a8 0A       		.uleb128 0xa
 1353 07a9 04       		.byte	0x4
 1354 07aa CD020000 		.4byte	0x2cd
 1355 07ae 0F       		.uleb128 0xf
 1356 07af 90070000 		.4byte	0x790
 1357 07b3 04       		.uleb128 0x4
 1358 07b4 1E050000 		.4byte	.LASF104
 1359 07b8 0D       		.byte	0xd
 1360 07b9 34       		.byte	0x34
 1361 07ba 59070000 		.4byte	0x759
 1362 07be 0A       		.uleb128 0xa
 1363 07bf 04       		.byte	0x4
 1364 07c0 B3070000 		.4byte	0x7b3
 1365 07c4 03       		.uleb128 0x3
 1366 07c5 01       		.byte	0x1
 1367 07c6 02       		.byte	0x2
 1368 07c7 17040000 		.4byte	.LASF105
 1369 07cb 18       		.uleb128 0x18
 1370 07cc 8F040000 		.4byte	.LASF123
 1371 07d0 02       		.byte	0x2
 1372 07d1 0601     		.2byte	0x106
 1373 07d3 03       		.byte	0x3
 1374 07d4 E5070000 		.4byte	0x7e5
 1375 07d8 19       		.uleb128 0x19
 1376 07d9 3F020000 		.4byte	.LASF124
 1377 07dd 02       		.byte	0x2
 1378 07de 0601     		.2byte	0x106
 1379 07e0 77000000 		.4byte	0x77
 1380 07e4 00       		.byte	0
 1381 07e5 1A       		.uleb128 0x1a
 1382 07e6 0A010000 		.4byte	.LASF106
 1383 07ea 0A       		.byte	0xa
 1384 07eb 5202     		.2byte	0x252
 1385 07ed 03       		.byte	0x3
 1386 07ee 1A       		.uleb128 0x1a
 1387 07ef 0A060000 		.4byte	.LASF107
 1388 07f3 0A       		.byte	0xa
 1389 07f4 6A02     		.2byte	0x26a
 1390 07f6 03       		.byte	0x3
 1391 07f7 1A       		.uleb128 0x1a
 1392 07f8 28010000 		.4byte	.LASF108
 1393 07fc 0A       		.byte	0xa
 1394 07fd 7902     		.2byte	0x279
 1395 07ff 03       		.byte	0x3
 1396 0800 1A       		.uleb128 0x1a
 1397 0801 2C050000 		.4byte	.LASF109
ARM GAS  /tmp/ccWwEFmK.s 			page 39


 1398 0805 0A       		.byte	0xa
 1399 0806 8402     		.2byte	0x284
 1400 0808 03       		.byte	0x3
 1401 0809 1A       		.uleb128 0x1a
 1402 080a 6B010000 		.4byte	.LASF110
 1403 080e 0E       		.byte	0xe
 1404 080f 9E01     		.2byte	0x19e
 1405 0811 03       		.byte	0x3
 1406 0812 1A       		.uleb128 0x1a
 1407 0813 6D020000 		.4byte	.LASF111
 1408 0817 0E       		.byte	0xe
 1409 0818 B201     		.2byte	0x1b2
 1410 081a 03       		.byte	0x3
 1411 081b 1A       		.uleb128 0x1a
 1412 081c 87020000 		.4byte	.LASF112
 1413 0820 03       		.byte	0x3
 1414 0821 0102     		.2byte	0x201
 1415 0823 03       		.byte	0x3
 1416 0824 1A       		.uleb128 0x1a
 1417 0825 1F000000 		.4byte	.LASF113
 1418 0829 03       		.byte	0x3
 1419 082a 4702     		.2byte	0x247
 1420 082c 03       		.byte	0x3
 1421 082d 1A       		.uleb128 0x1a
 1422 082e C6040000 		.4byte	.LASF114
 1423 0832 03       		.byte	0x3
 1424 0833 0C02     		.2byte	0x20c
 1425 0835 03       		.byte	0x3
 1426 0836 1B       		.uleb128 0x1b
 1427 0837 90010000 		.4byte	.LASF115
 1428 083b 01       		.byte	0x1
 1429 083c EF       		.byte	0xef
 1430 083d 00000000 		.4byte	.LFB219
 1431 0841 28000000 		.4byte	.LFE219-.LFB219
 1432 0845 01       		.uleb128 0x1
 1433 0846 9C       		.byte	0x9c
 1434 0847 34090000 		.4byte	0x934
 1435 084b 1C       		.uleb128 0x1c
 1436 084c 1B080000 		.4byte	0x81b
 1437 0850 10000000 		.4byte	.LBB52
 1438 0854 06000000 		.4byte	.LBE52-.LBB52
 1439 0858 01       		.byte	0x1
 1440 0859 F9       		.byte	0xf9
 1441 085a AC080000 		.4byte	0x8ac
 1442 085e 1D       		.uleb128 0x1d
 1443 085f 09080000 		.4byte	0x809
 1444 0863 10000000 		.4byte	.LBB53
 1445 0867 06000000 		.4byte	.LBE53-.LBB53
 1446 086b 03       		.byte	0x3
 1447 086c 0302     		.2byte	0x203
 1448 086e 1D       		.uleb128 0x1d
 1449 086f F7070000 		.4byte	0x7f7
 1450 0873 10000000 		.4byte	.LBB54
 1451 0877 06000000 		.4byte	.LBE54-.LBB54
 1452 087b 0E       		.byte	0xe
 1453 087c A001     		.2byte	0x1a0
 1454 087e 1D       		.uleb128 0x1d
ARM GAS  /tmp/ccWwEFmK.s 			page 40


 1455 087f E5070000 		.4byte	0x7e5
 1456 0883 10000000 		.4byte	.LBB55
 1457 0887 06000000 		.4byte	.LBE55-.LBB55
 1458 088b 0A       		.byte	0xa
 1459 088c 7B02     		.2byte	0x27b
 1460 088e 1D       		.uleb128 0x1d
 1461 088f CB070000 		.4byte	0x7cb
 1462 0893 10000000 		.4byte	.LBB56
 1463 0897 06000000 		.4byte	.LBE56-.LBB56
 1464 089b 0A       		.byte	0xa
 1465 089c 5A02     		.2byte	0x25a
 1466 089e 1E       		.uleb128 0x1e
 1467 089f D8070000 		.4byte	0x7d8
 1468 08a3 00000000 		.4byte	.LLST0
 1469 08a7 00       		.byte	0
 1470 08a8 00       		.byte	0
 1471 08a9 00       		.byte	0
 1472 08aa 00       		.byte	0
 1473 08ab 00       		.byte	0
 1474 08ac 1C       		.uleb128 0x1c
 1475 08ad 24080000 		.4byte	0x824
 1476 08b1 16000000 		.4byte	.LBB58
 1477 08b5 04000000 		.4byte	.LBE58-.LBB58
 1478 08b9 01       		.byte	0x1
 1479 08ba FA       		.byte	0xfa
 1480 08bb C9080000 		.4byte	0x8c9
 1481 08bf 1F       		.uleb128 0x1f
 1482 08c0 1A000000 		.4byte	.LVL1
 1483 08c4 7B090000 		.4byte	0x97b
 1484 08c8 00       		.byte	0
 1485 08c9 1C       		.uleb128 0x1c
 1486 08ca 2D080000 		.4byte	0x82d
 1487 08ce 1A000000 		.4byte	.LBB60
 1488 08d2 06000000 		.4byte	.LBE60-.LBB60
 1489 08d6 01       		.byte	0x1
 1490 08d7 FB       		.byte	0xfb
 1491 08d8 2A090000 		.4byte	0x92a
 1492 08dc 1D       		.uleb128 0x1d
 1493 08dd 12080000 		.4byte	0x812
 1494 08e1 1A000000 		.4byte	.LBB61
 1495 08e5 06000000 		.4byte	.LBE61-.LBB61
 1496 08e9 03       		.byte	0x3
 1497 08ea 0E02     		.2byte	0x20e
 1498 08ec 1D       		.uleb128 0x1d
 1499 08ed 00080000 		.4byte	0x800
 1500 08f1 1A000000 		.4byte	.LBB62
 1501 08f5 06000000 		.4byte	.LBE62-.LBB62
 1502 08f9 0E       		.byte	0xe
 1503 08fa B601     		.2byte	0x1b6
 1504 08fc 1D       		.uleb128 0x1d
 1505 08fd EE070000 		.4byte	0x7ee
 1506 0901 1A000000 		.4byte	.LBB63
 1507 0905 06000000 		.4byte	.LBE63-.LBB63
 1508 0909 0A       		.byte	0xa
 1509 090a 8602     		.2byte	0x286
 1510 090c 1D       		.uleb128 0x1d
 1511 090d CB070000 		.4byte	0x7cb
ARM GAS  /tmp/ccWwEFmK.s 			page 41


 1512 0911 1A000000 		.4byte	.LBB64
 1513 0915 06000000 		.4byte	.LBE64-.LBB64
 1514 0919 0A       		.byte	0xa
 1515 091a 6D02     		.2byte	0x26d
 1516 091c 1E       		.uleb128 0x1e
 1517 091d D8070000 		.4byte	0x7d8
 1518 0921 15000000 		.4byte	.LLST1
 1519 0925 00       		.byte	0
 1520 0926 00       		.byte	0
 1521 0927 00       		.byte	0
 1522 0928 00       		.byte	0
 1523 0929 00       		.byte	0
 1524 092a 20       		.uleb128 0x20
 1525 092b 28000000 		.4byte	.LVL3
 1526 092f 83090000 		.4byte	0x983
 1527 0933 00       		.byte	0
 1528 0934 21       		.uleb128 0x21
 1529 0935 9D040000 		.4byte	.LASF116
 1530 0939 01       		.byte	0x1
 1531 093a 0B01     		.2byte	0x10b
 1532 093c 00000000 		.4byte	.LFB220
 1533 0940 4C000000 		.4byte	.LFE220-.LFB220
 1534 0944 01       		.uleb128 0x1
 1535 0945 9C       		.byte	0x9c
 1536 0946 5F090000 		.4byte	0x95f
 1537 094a 22       		.uleb128 0x22
 1538 094b 4C000000 		.4byte	.LVL4
 1539 094f 8B090000 		.4byte	0x98b
 1540 0953 23       		.uleb128 0x23
 1541 0954 01       		.uleb128 0x1
 1542 0955 51       		.byte	0x51
 1543 0956 01       		.uleb128 0x1
 1544 0957 38       		.byte	0x38
 1545 0958 23       		.uleb128 0x23
 1546 0959 01       		.uleb128 0x1
 1547 095a 50       		.byte	0x50
 1548 095b 01       		.uleb128 0x1
 1549 095c 4C       		.byte	0x4c
 1550 095d 00       		.byte	0
 1551 095e 00       		.byte	0
 1552 095f 24       		.uleb128 0x24
 1553 0960 78040000 		.4byte	.LASF117
 1554 0964 0F       		.byte	0xf
 1555 0965 9606     		.2byte	0x696
 1556 0967 6B090000 		.4byte	0x96b
 1557 096b 0F       		.uleb128 0xf
 1558 096c 65000000 		.4byte	0x65
 1559 0970 25       		.uleb128 0x25
 1560 0971 636800   		.ascii	"ch\000"
 1561 0974 07       		.byte	0x7
 1562 0975 D201     		.2byte	0x1d2
 1563 0977 9A030000 		.4byte	0x39a
 1564 097b 26       		.uleb128 0x26
 1565 097c 91000000 		.4byte	.LASF118
 1566 0980 0E       		.byte	0xe
 1567 0981 3401     		.2byte	0x134
 1568 0983 26       		.uleb128 0x26
ARM GAS  /tmp/ccWwEFmK.s 			page 42


 1569 0984 A0050000 		.4byte	.LASF119
 1570 0988 0A       		.byte	0xa
 1571 0989 EA01     		.2byte	0x1ea
 1572 098b 27       		.uleb128 0x27
 1573 098c 39040000 		.4byte	.LASF125
 1574 0990 10       		.byte	0x10
 1575 0991 4E       		.byte	0x4e
 1576 0992 0D       		.uleb128 0xd
 1577 0993 77000000 		.4byte	0x77
 1578 0997 0D       		.uleb128 0xd
 1579 0998 77000000 		.4byte	0x77
 1580 099c 00       		.byte	0
 1581 099d 00       		.byte	0
 1582              		.section	.debug_abbrev,"",%progbits
 1583              	.Ldebug_abbrev0:
 1584 0000 01       		.uleb128 0x1
 1585 0001 11       		.uleb128 0x11
 1586 0002 01       		.byte	0x1
 1587 0003 25       		.uleb128 0x25
 1588 0004 0E       		.uleb128 0xe
 1589 0005 13       		.uleb128 0x13
 1590 0006 0B       		.uleb128 0xb
 1591 0007 03       		.uleb128 0x3
 1592 0008 0E       		.uleb128 0xe
 1593 0009 1B       		.uleb128 0x1b
 1594 000a 0E       		.uleb128 0xe
 1595 000b 55       		.uleb128 0x55
 1596 000c 17       		.uleb128 0x17
 1597 000d 11       		.uleb128 0x11
 1598 000e 01       		.uleb128 0x1
 1599 000f 10       		.uleb128 0x10
 1600 0010 17       		.uleb128 0x17
 1601 0011 00       		.byte	0
 1602 0012 00       		.byte	0
 1603 0013 02       		.uleb128 0x2
 1604 0014 24       		.uleb128 0x24
 1605 0015 00       		.byte	0
 1606 0016 0B       		.uleb128 0xb
 1607 0017 0B       		.uleb128 0xb
 1608 0018 3E       		.uleb128 0x3e
 1609 0019 0B       		.uleb128 0xb
 1610 001a 03       		.uleb128 0x3
 1611 001b 08       		.uleb128 0x8
 1612 001c 00       		.byte	0
 1613 001d 00       		.byte	0
 1614 001e 03       		.uleb128 0x3
 1615 001f 24       		.uleb128 0x24
 1616 0020 00       		.byte	0
 1617 0021 0B       		.uleb128 0xb
 1618 0022 0B       		.uleb128 0xb
 1619 0023 3E       		.uleb128 0x3e
 1620 0024 0B       		.uleb128 0xb
 1621 0025 03       		.uleb128 0x3
 1622 0026 0E       		.uleb128 0xe
 1623 0027 00       		.byte	0
 1624 0028 00       		.byte	0
 1625 0029 04       		.uleb128 0x4
ARM GAS  /tmp/ccWwEFmK.s 			page 43


 1626 002a 16       		.uleb128 0x16
 1627 002b 00       		.byte	0
 1628 002c 03       		.uleb128 0x3
 1629 002d 0E       		.uleb128 0xe
 1630 002e 3A       		.uleb128 0x3a
 1631 002f 0B       		.uleb128 0xb
 1632 0030 3B       		.uleb128 0x3b
 1633 0031 0B       		.uleb128 0xb
 1634 0032 49       		.uleb128 0x49
 1635 0033 13       		.uleb128 0x13
 1636 0034 00       		.byte	0
 1637 0035 00       		.byte	0
 1638 0036 05       		.uleb128 0x5
 1639 0037 13       		.uleb128 0x13
 1640 0038 01       		.byte	0x1
 1641 0039 03       		.uleb128 0x3
 1642 003a 0E       		.uleb128 0xe
 1643 003b 0B       		.uleb128 0xb
 1644 003c 0B       		.uleb128 0xb
 1645 003d 3A       		.uleb128 0x3a
 1646 003e 0B       		.uleb128 0xb
 1647 003f 3B       		.uleb128 0x3b
 1648 0040 0B       		.uleb128 0xb
 1649 0041 01       		.uleb128 0x1
 1650 0042 13       		.uleb128 0x13
 1651 0043 00       		.byte	0
 1652 0044 00       		.byte	0
 1653 0045 06       		.uleb128 0x6
 1654 0046 0D       		.uleb128 0xd
 1655 0047 00       		.byte	0
 1656 0048 03       		.uleb128 0x3
 1657 0049 0E       		.uleb128 0xe
 1658 004a 3A       		.uleb128 0x3a
 1659 004b 0B       		.uleb128 0xb
 1660 004c 3B       		.uleb128 0x3b
 1661 004d 0B       		.uleb128 0xb
 1662 004e 49       		.uleb128 0x49
 1663 004f 13       		.uleb128 0x13
 1664 0050 38       		.uleb128 0x38
 1665 0051 0B       		.uleb128 0xb
 1666 0052 00       		.byte	0
 1667 0053 00       		.byte	0
 1668 0054 07       		.uleb128 0x7
 1669 0055 0D       		.uleb128 0xd
 1670 0056 00       		.byte	0
 1671 0057 03       		.uleb128 0x3
 1672 0058 08       		.uleb128 0x8
 1673 0059 3A       		.uleb128 0x3a
 1674 005a 0B       		.uleb128 0xb
 1675 005b 3B       		.uleb128 0x3b
 1676 005c 0B       		.uleb128 0xb
 1677 005d 49       		.uleb128 0x49
 1678 005e 13       		.uleb128 0x13
 1679 005f 38       		.uleb128 0x38
 1680 0060 0B       		.uleb128 0xb
 1681 0061 00       		.byte	0
 1682 0062 00       		.byte	0
ARM GAS  /tmp/ccWwEFmK.s 			page 44


 1683 0063 08       		.uleb128 0x8
 1684 0064 0D       		.uleb128 0xd
 1685 0065 00       		.byte	0
 1686 0066 03       		.uleb128 0x3
 1687 0067 08       		.uleb128 0x8
 1688 0068 3A       		.uleb128 0x3a
 1689 0069 0B       		.uleb128 0xb
 1690 006a 3B       		.uleb128 0x3b
 1691 006b 05       		.uleb128 0x5
 1692 006c 49       		.uleb128 0x49
 1693 006d 13       		.uleb128 0x13
 1694 006e 38       		.uleb128 0x38
 1695 006f 0B       		.uleb128 0xb
 1696 0070 00       		.byte	0
 1697 0071 00       		.byte	0
 1698 0072 09       		.uleb128 0x9
 1699 0073 0D       		.uleb128 0xd
 1700 0074 00       		.byte	0
 1701 0075 03       		.uleb128 0x3
 1702 0076 0E       		.uleb128 0xe
 1703 0077 3A       		.uleb128 0x3a
 1704 0078 0B       		.uleb128 0xb
 1705 0079 3B       		.uleb128 0x3b
 1706 007a 05       		.uleb128 0x5
 1707 007b 49       		.uleb128 0x49
 1708 007c 13       		.uleb128 0x13
 1709 007d 38       		.uleb128 0x38
 1710 007e 0B       		.uleb128 0xb
 1711 007f 00       		.byte	0
 1712 0080 00       		.byte	0
 1713 0081 0A       		.uleb128 0xa
 1714 0082 0F       		.uleb128 0xf
 1715 0083 00       		.byte	0
 1716 0084 0B       		.uleb128 0xb
 1717 0085 0B       		.uleb128 0xb
 1718 0086 49       		.uleb128 0x49
 1719 0087 13       		.uleb128 0x13
 1720 0088 00       		.byte	0
 1721 0089 00       		.byte	0
 1722 008a 0B       		.uleb128 0xb
 1723 008b 13       		.uleb128 0x13
 1724 008c 01       		.byte	0x1
 1725 008d 03       		.uleb128 0x3
 1726 008e 0E       		.uleb128 0xe
 1727 008f 0B       		.uleb128 0xb
 1728 0090 0B       		.uleb128 0xb
 1729 0091 3A       		.uleb128 0x3a
 1730 0092 0B       		.uleb128 0xb
 1731 0093 3B       		.uleb128 0x3b
 1732 0094 05       		.uleb128 0x5
 1733 0095 01       		.uleb128 0x1
 1734 0096 13       		.uleb128 0x13
 1735 0097 00       		.byte	0
 1736 0098 00       		.byte	0
 1737 0099 0C       		.uleb128 0xc
 1738 009a 15       		.uleb128 0x15
 1739 009b 01       		.byte	0x1
ARM GAS  /tmp/ccWwEFmK.s 			page 45


 1740 009c 27       		.uleb128 0x27
 1741 009d 19       		.uleb128 0x19
 1742 009e 01       		.uleb128 0x1
 1743 009f 13       		.uleb128 0x13
 1744 00a0 00       		.byte	0
 1745 00a1 00       		.byte	0
 1746 00a2 0D       		.uleb128 0xd
 1747 00a3 05       		.uleb128 0x5
 1748 00a4 00       		.byte	0
 1749 00a5 49       		.uleb128 0x49
 1750 00a6 13       		.uleb128 0x13
 1751 00a7 00       		.byte	0
 1752 00a8 00       		.byte	0
 1753 00a9 0E       		.uleb128 0xe
 1754 00aa 0F       		.uleb128 0xf
 1755 00ab 00       		.byte	0
 1756 00ac 0B       		.uleb128 0xb
 1757 00ad 0B       		.uleb128 0xb
 1758 00ae 00       		.byte	0
 1759 00af 00       		.byte	0
 1760 00b0 0F       		.uleb128 0xf
 1761 00b1 35       		.uleb128 0x35
 1762 00b2 00       		.byte	0
 1763 00b3 49       		.uleb128 0x49
 1764 00b4 13       		.uleb128 0x13
 1765 00b5 00       		.byte	0
 1766 00b6 00       		.byte	0
 1767 00b7 10       		.uleb128 0x10
 1768 00b8 01       		.uleb128 0x1
 1769 00b9 01       		.byte	0x1
 1770 00ba 49       		.uleb128 0x49
 1771 00bb 13       		.uleb128 0x13
 1772 00bc 01       		.uleb128 0x1
 1773 00bd 13       		.uleb128 0x13
 1774 00be 00       		.byte	0
 1775 00bf 00       		.byte	0
 1776 00c0 11       		.uleb128 0x11
 1777 00c1 21       		.uleb128 0x21
 1778 00c2 00       		.byte	0
 1779 00c3 49       		.uleb128 0x49
 1780 00c4 13       		.uleb128 0x13
 1781 00c5 2F       		.uleb128 0x2f
 1782 00c6 0B       		.uleb128 0xb
 1783 00c7 00       		.byte	0
 1784 00c8 00       		.byte	0
 1785 00c9 12       		.uleb128 0x12
 1786 00ca 13       		.uleb128 0x13
 1787 00cb 01       		.byte	0x1
 1788 00cc 0B       		.uleb128 0xb
 1789 00cd 0B       		.uleb128 0xb
 1790 00ce 3A       		.uleb128 0x3a
 1791 00cf 0B       		.uleb128 0xb
 1792 00d0 3B       		.uleb128 0x3b
 1793 00d1 05       		.uleb128 0x5
 1794 00d2 01       		.uleb128 0x1
 1795 00d3 13       		.uleb128 0x13
 1796 00d4 00       		.byte	0
ARM GAS  /tmp/ccWwEFmK.s 			page 46


 1797 00d5 00       		.byte	0
 1798 00d6 13       		.uleb128 0x13
 1799 00d7 16       		.uleb128 0x16
 1800 00d8 00       		.byte	0
 1801 00d9 03       		.uleb128 0x3
 1802 00da 0E       		.uleb128 0xe
 1803 00db 3A       		.uleb128 0x3a
 1804 00dc 0B       		.uleb128 0xb
 1805 00dd 3B       		.uleb128 0x3b
 1806 00de 05       		.uleb128 0x5
 1807 00df 49       		.uleb128 0x49
 1808 00e0 13       		.uleb128 0x13
 1809 00e1 00       		.byte	0
 1810 00e2 00       		.byte	0
 1811 00e3 14       		.uleb128 0x14
 1812 00e4 17       		.uleb128 0x17
 1813 00e5 01       		.byte	0x1
 1814 00e6 0B       		.uleb128 0xb
 1815 00e7 0B       		.uleb128 0xb
 1816 00e8 3A       		.uleb128 0x3a
 1817 00e9 0B       		.uleb128 0xb
 1818 00ea 3B       		.uleb128 0x3b
 1819 00eb 0B       		.uleb128 0xb
 1820 00ec 01       		.uleb128 0x1
 1821 00ed 13       		.uleb128 0x13
 1822 00ee 00       		.byte	0
 1823 00ef 00       		.byte	0
 1824 00f0 15       		.uleb128 0x15
 1825 00f1 0D       		.uleb128 0xd
 1826 00f2 00       		.byte	0
 1827 00f3 03       		.uleb128 0x3
 1828 00f4 0E       		.uleb128 0xe
 1829 00f5 3A       		.uleb128 0x3a
 1830 00f6 0B       		.uleb128 0xb
 1831 00f7 3B       		.uleb128 0x3b
 1832 00f8 0B       		.uleb128 0xb
 1833 00f9 49       		.uleb128 0x49
 1834 00fa 13       		.uleb128 0x13
 1835 00fb 00       		.byte	0
 1836 00fc 00       		.byte	0
 1837 00fd 16       		.uleb128 0x16
 1838 00fe 0D       		.uleb128 0xd
 1839 00ff 00       		.byte	0
 1840 0100 03       		.uleb128 0x3
 1841 0101 0E       		.uleb128 0xe
 1842 0102 3A       		.uleb128 0x3a
 1843 0103 0B       		.uleb128 0xb
 1844 0104 3B       		.uleb128 0x3b
 1845 0105 05       		.uleb128 0x5
 1846 0106 49       		.uleb128 0x49
 1847 0107 13       		.uleb128 0x13
 1848 0108 00       		.byte	0
 1849 0109 00       		.byte	0
 1850 010a 17       		.uleb128 0x17
 1851 010b 26       		.uleb128 0x26
 1852 010c 00       		.byte	0
 1853 010d 49       		.uleb128 0x49
ARM GAS  /tmp/ccWwEFmK.s 			page 47


 1854 010e 13       		.uleb128 0x13
 1855 010f 00       		.byte	0
 1856 0110 00       		.byte	0
 1857 0111 18       		.uleb128 0x18
 1858 0112 2E       		.uleb128 0x2e
 1859 0113 01       		.byte	0x1
 1860 0114 03       		.uleb128 0x3
 1861 0115 0E       		.uleb128 0xe
 1862 0116 3A       		.uleb128 0x3a
 1863 0117 0B       		.uleb128 0xb
 1864 0118 3B       		.uleb128 0x3b
 1865 0119 05       		.uleb128 0x5
 1866 011a 27       		.uleb128 0x27
 1867 011b 19       		.uleb128 0x19
 1868 011c 20       		.uleb128 0x20
 1869 011d 0B       		.uleb128 0xb
 1870 011e 01       		.uleb128 0x1
 1871 011f 13       		.uleb128 0x13
 1872 0120 00       		.byte	0
 1873 0121 00       		.byte	0
 1874 0122 19       		.uleb128 0x19
 1875 0123 05       		.uleb128 0x5
 1876 0124 00       		.byte	0
 1877 0125 03       		.uleb128 0x3
 1878 0126 0E       		.uleb128 0xe
 1879 0127 3A       		.uleb128 0x3a
 1880 0128 0B       		.uleb128 0xb
 1881 0129 3B       		.uleb128 0x3b
 1882 012a 05       		.uleb128 0x5
 1883 012b 49       		.uleb128 0x49
 1884 012c 13       		.uleb128 0x13
 1885 012d 00       		.byte	0
 1886 012e 00       		.byte	0
 1887 012f 1A       		.uleb128 0x1a
 1888 0130 2E       		.uleb128 0x2e
 1889 0131 00       		.byte	0
 1890 0132 03       		.uleb128 0x3
 1891 0133 0E       		.uleb128 0xe
 1892 0134 3A       		.uleb128 0x3a
 1893 0135 0B       		.uleb128 0xb
 1894 0136 3B       		.uleb128 0x3b
 1895 0137 05       		.uleb128 0x5
 1896 0138 27       		.uleb128 0x27
 1897 0139 19       		.uleb128 0x19
 1898 013a 20       		.uleb128 0x20
 1899 013b 0B       		.uleb128 0xb
 1900 013c 00       		.byte	0
 1901 013d 00       		.byte	0
 1902 013e 1B       		.uleb128 0x1b
 1903 013f 2E       		.uleb128 0x2e
 1904 0140 01       		.byte	0x1
 1905 0141 3F       		.uleb128 0x3f
 1906 0142 19       		.uleb128 0x19
 1907 0143 03       		.uleb128 0x3
 1908 0144 0E       		.uleb128 0xe
 1909 0145 3A       		.uleb128 0x3a
 1910 0146 0B       		.uleb128 0xb
ARM GAS  /tmp/ccWwEFmK.s 			page 48


 1911 0147 3B       		.uleb128 0x3b
 1912 0148 0B       		.uleb128 0xb
 1913 0149 27       		.uleb128 0x27
 1914 014a 19       		.uleb128 0x19
 1915 014b 11       		.uleb128 0x11
 1916 014c 01       		.uleb128 0x1
 1917 014d 12       		.uleb128 0x12
 1918 014e 06       		.uleb128 0x6
 1919 014f 40       		.uleb128 0x40
 1920 0150 18       		.uleb128 0x18
 1921 0151 9742     		.uleb128 0x2117
 1922 0153 19       		.uleb128 0x19
 1923 0154 01       		.uleb128 0x1
 1924 0155 13       		.uleb128 0x13
 1925 0156 00       		.byte	0
 1926 0157 00       		.byte	0
 1927 0158 1C       		.uleb128 0x1c
 1928 0159 1D       		.uleb128 0x1d
 1929 015a 01       		.byte	0x1
 1930 015b 31       		.uleb128 0x31
 1931 015c 13       		.uleb128 0x13
 1932 015d 11       		.uleb128 0x11
 1933 015e 01       		.uleb128 0x1
 1934 015f 12       		.uleb128 0x12
 1935 0160 06       		.uleb128 0x6
 1936 0161 58       		.uleb128 0x58
 1937 0162 0B       		.uleb128 0xb
 1938 0163 59       		.uleb128 0x59
 1939 0164 0B       		.uleb128 0xb
 1940 0165 01       		.uleb128 0x1
 1941 0166 13       		.uleb128 0x13
 1942 0167 00       		.byte	0
 1943 0168 00       		.byte	0
 1944 0169 1D       		.uleb128 0x1d
 1945 016a 1D       		.uleb128 0x1d
 1946 016b 01       		.byte	0x1
 1947 016c 31       		.uleb128 0x31
 1948 016d 13       		.uleb128 0x13
 1949 016e 11       		.uleb128 0x11
 1950 016f 01       		.uleb128 0x1
 1951 0170 12       		.uleb128 0x12
 1952 0171 06       		.uleb128 0x6
 1953 0172 58       		.uleb128 0x58
 1954 0173 0B       		.uleb128 0xb
 1955 0174 59       		.uleb128 0x59
 1956 0175 05       		.uleb128 0x5
 1957 0176 00       		.byte	0
 1958 0177 00       		.byte	0
 1959 0178 1E       		.uleb128 0x1e
 1960 0179 05       		.uleb128 0x5
 1961 017a 00       		.byte	0
 1962 017b 31       		.uleb128 0x31
 1963 017c 13       		.uleb128 0x13
 1964 017d 02       		.uleb128 0x2
 1965 017e 17       		.uleb128 0x17
 1966 017f 00       		.byte	0
 1967 0180 00       		.byte	0
ARM GAS  /tmp/ccWwEFmK.s 			page 49


 1968 0181 1F       		.uleb128 0x1f
 1969 0182 898201   		.uleb128 0x4109
 1970 0185 00       		.byte	0
 1971 0186 11       		.uleb128 0x11
 1972 0187 01       		.uleb128 0x1
 1973 0188 31       		.uleb128 0x31
 1974 0189 13       		.uleb128 0x13
 1975 018a 00       		.byte	0
 1976 018b 00       		.byte	0
 1977 018c 20       		.uleb128 0x20
 1978 018d 898201   		.uleb128 0x4109
 1979 0190 00       		.byte	0
 1980 0191 11       		.uleb128 0x11
 1981 0192 01       		.uleb128 0x1
 1982 0193 9542     		.uleb128 0x2115
 1983 0195 19       		.uleb128 0x19
 1984 0196 31       		.uleb128 0x31
 1985 0197 13       		.uleb128 0x13
 1986 0198 00       		.byte	0
 1987 0199 00       		.byte	0
 1988 019a 21       		.uleb128 0x21
 1989 019b 2E       		.uleb128 0x2e
 1990 019c 01       		.byte	0x1
 1991 019d 3F       		.uleb128 0x3f
 1992 019e 19       		.uleb128 0x19
 1993 019f 03       		.uleb128 0x3
 1994 01a0 0E       		.uleb128 0xe
 1995 01a1 3A       		.uleb128 0x3a
 1996 01a2 0B       		.uleb128 0xb
 1997 01a3 3B       		.uleb128 0x3b
 1998 01a4 05       		.uleb128 0x5
 1999 01a5 27       		.uleb128 0x27
 2000 01a6 19       		.uleb128 0x19
 2001 01a7 11       		.uleb128 0x11
 2002 01a8 01       		.uleb128 0x1
 2003 01a9 12       		.uleb128 0x12
 2004 01aa 06       		.uleb128 0x6
 2005 01ab 40       		.uleb128 0x40
 2006 01ac 18       		.uleb128 0x18
 2007 01ad 9742     		.uleb128 0x2117
 2008 01af 19       		.uleb128 0x19
 2009 01b0 01       		.uleb128 0x1
 2010 01b1 13       		.uleb128 0x13
 2011 01b2 00       		.byte	0
 2012 01b3 00       		.byte	0
 2013 01b4 22       		.uleb128 0x22
 2014 01b5 898201   		.uleb128 0x4109
 2015 01b8 01       		.byte	0x1
 2016 01b9 11       		.uleb128 0x11
 2017 01ba 01       		.uleb128 0x1
 2018 01bb 9542     		.uleb128 0x2115
 2019 01bd 19       		.uleb128 0x19
 2020 01be 31       		.uleb128 0x31
 2021 01bf 13       		.uleb128 0x13
 2022 01c0 00       		.byte	0
 2023 01c1 00       		.byte	0
 2024 01c2 23       		.uleb128 0x23
ARM GAS  /tmp/ccWwEFmK.s 			page 50


 2025 01c3 8A8201   		.uleb128 0x410a
 2026 01c6 00       		.byte	0
 2027 01c7 02       		.uleb128 0x2
 2028 01c8 18       		.uleb128 0x18
 2029 01c9 9142     		.uleb128 0x2111
 2030 01cb 18       		.uleb128 0x18
 2031 01cc 00       		.byte	0
 2032 01cd 00       		.byte	0
 2033 01ce 24       		.uleb128 0x24
 2034 01cf 34       		.uleb128 0x34
 2035 01d0 00       		.byte	0
 2036 01d1 03       		.uleb128 0x3
 2037 01d2 0E       		.uleb128 0xe
 2038 01d3 3A       		.uleb128 0x3a
 2039 01d4 0B       		.uleb128 0xb
 2040 01d5 3B       		.uleb128 0x3b
 2041 01d6 05       		.uleb128 0x5
 2042 01d7 49       		.uleb128 0x49
 2043 01d8 13       		.uleb128 0x13
 2044 01d9 3F       		.uleb128 0x3f
 2045 01da 19       		.uleb128 0x19
 2046 01db 3C       		.uleb128 0x3c
 2047 01dc 19       		.uleb128 0x19
 2048 01dd 00       		.byte	0
 2049 01de 00       		.byte	0
 2050 01df 25       		.uleb128 0x25
 2051 01e0 34       		.uleb128 0x34
 2052 01e1 00       		.byte	0
 2053 01e2 03       		.uleb128 0x3
 2054 01e3 08       		.uleb128 0x8
 2055 01e4 3A       		.uleb128 0x3a
 2056 01e5 0B       		.uleb128 0xb
 2057 01e6 3B       		.uleb128 0x3b
 2058 01e7 05       		.uleb128 0x5
 2059 01e8 49       		.uleb128 0x49
 2060 01e9 13       		.uleb128 0x13
 2061 01ea 3F       		.uleb128 0x3f
 2062 01eb 19       		.uleb128 0x19
 2063 01ec 3C       		.uleb128 0x3c
 2064 01ed 19       		.uleb128 0x19
 2065 01ee 00       		.byte	0
 2066 01ef 00       		.byte	0
 2067 01f0 26       		.uleb128 0x26
 2068 01f1 2E       		.uleb128 0x2e
 2069 01f2 00       		.byte	0
 2070 01f3 3F       		.uleb128 0x3f
 2071 01f4 19       		.uleb128 0x19
 2072 01f5 03       		.uleb128 0x3
 2073 01f6 0E       		.uleb128 0xe
 2074 01f7 3A       		.uleb128 0x3a
 2075 01f8 0B       		.uleb128 0xb
 2076 01f9 3B       		.uleb128 0x3b
 2077 01fa 05       		.uleb128 0x5
 2078 01fb 27       		.uleb128 0x27
 2079 01fc 19       		.uleb128 0x19
 2080 01fd 3C       		.uleb128 0x3c
 2081 01fe 19       		.uleb128 0x19
ARM GAS  /tmp/ccWwEFmK.s 			page 51


 2082 01ff 00       		.byte	0
 2083 0200 00       		.byte	0
 2084 0201 27       		.uleb128 0x27
 2085 0202 2E       		.uleb128 0x2e
 2086 0203 01       		.byte	0x1
 2087 0204 3F       		.uleb128 0x3f
 2088 0205 19       		.uleb128 0x19
 2089 0206 03       		.uleb128 0x3
 2090 0207 0E       		.uleb128 0xe
 2091 0208 3A       		.uleb128 0x3a
 2092 0209 0B       		.uleb128 0xb
 2093 020a 3B       		.uleb128 0x3b
 2094 020b 0B       		.uleb128 0xb
 2095 020c 27       		.uleb128 0x27
 2096 020d 19       		.uleb128 0x19
 2097 020e 3C       		.uleb128 0x3c
 2098 020f 19       		.uleb128 0x19
 2099 0210 00       		.byte	0
 2100 0211 00       		.byte	0
 2101 0212 00       		.byte	0
 2102              		.section	.debug_loc,"",%progbits
 2103              	.Ldebug_loc0:
 2104              	.LLST0:
 2105 0000 10000000 		.4byte	.LVL0
 2106 0004 20000000 		.4byte	.LVL2
 2107 0008 0300     		.2byte	0x3
 2108 000a 08       		.byte	0x8
 2109 000b 20       		.byte	0x20
 2110 000c 9F       		.byte	0x9f
 2111 000d 00000000 		.4byte	0
 2112 0011 00000000 		.4byte	0
 2113              	.LLST1:
 2114 0015 1A000000 		.4byte	.LVL1
 2115 0019 20000000 		.4byte	.LVL2
 2116 001d 0200     		.2byte	0x2
 2117 001f 30       		.byte	0x30
 2118 0020 9F       		.byte	0x9f
 2119 0021 00000000 		.4byte	0
 2120 0025 00000000 		.4byte	0
 2121              		.section	.debug_aranges,"",%progbits
 2122 0000 24000000 		.4byte	0x24
 2123 0004 0200     		.2byte	0x2
 2124 0006 00000000 		.4byte	.Ldebug_info0
 2125 000a 04       		.byte	0x4
 2126 000b 00       		.byte	0
 2127 000c 0000     		.2byte	0
 2128 000e 0000     		.2byte	0
 2129 0010 00000000 		.4byte	.LFB219
 2130 0014 28000000 		.4byte	.LFE219-.LFB219
 2131 0018 00000000 		.4byte	.LFB220
 2132 001c 4C000000 		.4byte	.LFE220-.LFB220
 2133 0020 00000000 		.4byte	0
 2134 0024 00000000 		.4byte	0
 2135              		.section	.debug_ranges,"",%progbits
 2136              	.Ldebug_ranges0:
 2137 0000 00000000 		.4byte	.LFB219
 2138 0004 28000000 		.4byte	.LFE219
ARM GAS  /tmp/ccWwEFmK.s 			page 52


 2139 0008 00000000 		.4byte	.LFB220
 2140 000c 4C000000 		.4byte	.LFE220
 2141 0010 00000000 		.4byte	0
 2142 0014 00000000 		.4byte	0
 2143              		.section	.debug_line,"",%progbits
 2144              	.Ldebug_line0:
 2145 0000 B9020000 		.section	.debug_str,"MS",%progbits,1
 2145      02005102 
 2145      00000201 
 2145      FB0E0D00 
 2145      01010101 
 2146              	.LASF41:
 2147 0000 63685F74 		.ascii	"ch_threads_list\000"
 2147      68726561 
 2147      64735F6C 
 2147      69737400 
 2148              	.LASF73:
 2149 0010 41504231 		.ascii	"APB1ENR\000"
 2149      454E5200 
 2150              	.LASF98:
 2151 0018 77746D74 		.ascii	"wtmtxp\000"
 2151      787000
 2152              	.LASF113:
 2153 001f 6F73616C 		.ascii	"osalOsTimerHandlerI\000"
 2153      4F735469 
 2153      6D657248 
 2153      616E646C 
 2153      65724900 
 2154              	.LASF122:
 2155 0033 2F686F6D 		.ascii	"/home/otto/Escritorio/Semestre12/Embebidos/ChibiOS_"
 2155      652F6F74 
 2155      746F2F45 
 2155      73637269 
 2155      746F7269 
 2156 0066 31372E36 		.ascii	"17.6.2/demos/STM32/NIL-STM32F100-DISCOVERY\000"
 2156      2E322F64 
 2156      656D6F73 
 2156      2F53544D 
 2156      33322F4E 
 2157              	.LASF118:
 2158 0091 63685379 		.ascii	"chSysTimerHandlerI\000"
 2158      7354696D 
 2158      65724861 
 2158      6E646C65 
 2158      724900
 2159              	.LASF78:
 2160 00a4 72656761 		.ascii	"regarm_t\000"
 2160      726D5F74 
 2160      00
 2161              	.LASF69:
 2162 00ad 41504232 		.ascii	"APB2RSTR\000"
 2162      52535452 
 2162      00
 2163              	.LASF30:
 2164 00b6 666C6167 		.ascii	"flags\000"
 2164      7300
 2165              	.LASF21:
ARM GAS  /tmp/ccWwEFmK.s 			page 53


 2166 00bc 73797374 		.ascii	"systime_t\000"
 2166      696D655F 
 2166      7400
 2167              	.LASF36:
 2168 00c6 7265616C 		.ascii	"realprio\000"
 2168      7072696F 
 2168      00
 2169              	.LASF34:
 2170 00cf 6570656E 		.ascii	"epending\000"
 2170      64696E67 
 2170      00
 2171              	.LASF0:
 2172 00d8 756E7369 		.ascii	"unsigned int\000"
 2172      676E6564 
 2172      20696E74 
 2172      00
 2173              	.LASF42:
 2174 00e5 6E657874 		.ascii	"next\000"
 2174      00
 2175              	.LASF39:
 2176 00ea 74687265 		.ascii	"threads_list_t\000"
 2176      6164735F 
 2176      6C697374 
 2176      5F7400
 2177              	.LASF74:
 2178 00f9 42444352 		.ascii	"BDCR\000"
 2178      00
 2179              	.LASF31:
 2180 00fe 72656673 		.ascii	"refs\000"
 2180      00
 2181              	.LASF94:
 2182 0103 77746F62 		.ascii	"wtobjp\000"
 2182      6A7000
 2183              	.LASF106:
 2184 010a 706F7274 		.ascii	"port_lock\000"
 2184      5F6C6F63 
 2184      6B00
 2185              	.LASF63:
 2186 0114 76746C69 		.ascii	"vtlist\000"
 2186      737400
 2187              	.LASF80:
 2188 011b 706F7274 		.ascii	"port_context\000"
 2188      5F636F6E 
 2188      74657874 
 2188      00
 2189              	.LASF108:
 2190 0128 706F7274 		.ascii	"port_lock_from_isr\000"
 2190      5F6C6F63 
 2190      6B5F6672 
 2190      6F6D5F69 
 2190      737200
 2191              	.LASF47:
 2192 013b 63685F72 		.ascii	"ch_ready_list\000"
 2192      65616479 
 2192      5F6C6973 
 2192      7400
 2193              	.LASF53:
ARM GAS  /tmp/ccWwEFmK.s 			page 54


 2194 0149 66756E63 		.ascii	"func\000"
 2194      00
 2195              	.LASF99:
 2196 014e 65776D61 		.ascii	"ewmask\000"
 2196      736B00
 2197              	.LASF45:
 2198 0155 70726576 		.ascii	"prev\000"
 2198      00
 2199              	.LASF44:
 2200 015a 63685F74 		.ascii	"ch_threads_queue\000"
 2200      68726561 
 2200      64735F71 
 2200      75657565 
 2200      00
 2201              	.LASF110:
 2202 016b 63685379 		.ascii	"chSysLockFromISR\000"
 2202      734C6F63 
 2202      6B46726F 
 2202      6D495352 
 2202      00
 2203              	.LASF88:
 2204 017c 444D4152 		.ascii	"DMAR\000"
 2204      00
 2205              	.LASF67:
 2206 0181 4442474D 		.ascii	"DBGMCU_TypeDef\000"
 2206      43555F54 
 2206      79706544 
 2206      656600
 2207              	.LASF115:
 2208 0190 56656374 		.ascii	"VectorB0\000"
 2208      6F724230 
 2208      00
 2209              	.LASF49:
 2210 0199 76746675 		.ascii	"vtfunc_t\000"
 2210      6E635F74 
 2210      00
 2211              	.LASF58:
 2212 01a2 63685F73 		.ascii	"ch_system_debug\000"
 2212      79737465 
 2212      6D5F6465 
 2212      62756700 
 2213              	.LASF9:
 2214 01b2 75696E74 		.ascii	"uint32_t\000"
 2214      33325F74 
 2214      00
 2215              	.LASF96:
 2216 01bb 73656E74 		.ascii	"sentmsg\000"
 2216      6D736700 
 2217              	.LASF19:
 2218 01c3 6576656E 		.ascii	"eventmask_t\000"
 2218      746D6173 
 2218      6B5F7400 
 2219              	.LASF87:
 2220 01cf 42445452 		.ascii	"BDTR\000"
 2220      00
 2221              	.LASF100:
 2222 01d4 63685F73 		.ascii	"ch_semaphore\000"
ARM GAS  /tmp/ccWwEFmK.s 			page 55


 2222      656D6170 
 2222      686F7265 
 2222      00
 2223              	.LASF17:
 2224 01e1 74707269 		.ascii	"tprio_t\000"
 2224      6F5F7400 
 2225              	.LASF51:
 2226 01e9 63685F76 		.ascii	"ch_virtual_timer\000"
 2226      69727475 
 2226      616C5F74 
 2226      696D6572 
 2226      00
 2227              	.LASF84:
 2228 01fa 43434D52 		.ascii	"CCMR1\000"
 2228      3100
 2229              	.LASF85:
 2230 0200 43434D52 		.ascii	"CCMR2\000"
 2230      3200
 2231              	.LASF89:
 2232 0206 43434D52 		.ascii	"CCMR3\000"
 2232      3300
 2233              	.LASF13:
 2234 020c 6C6F6E67 		.ascii	"long long unsigned int\000"
 2234      206C6F6E 
 2234      6720756E 
 2234      7369676E 
 2234      65642069 
 2235              	.LASF20:
 2236 0223 636E745F 		.ascii	"cnt_t\000"
 2236      7400
 2237              	.LASF102:
 2238 0229 6F776E65 		.ascii	"owner\000"
 2238      7200
 2239              	.LASF43:
 2240 022f 74687265 		.ascii	"threads_queue_t\000"
 2240      6164735F 
 2240      71756575 
 2240      655F7400 
 2241              	.LASF124:
 2242 023f 76616C75 		.ascii	"value\000"
 2242      6500
 2243              	.LASF35:
 2244 0245 6D74786C 		.ascii	"mtxlist\000"
 2244      69737400 
 2245              	.LASF55:
 2246 024d 63685F76 		.ascii	"ch_virtual_timers_list\000"
 2246      69727475 
 2246      616C5F74 
 2246      696D6572 
 2246      735F6C69 
 2247              	.LASF22:
 2248 0264 74687265 		.ascii	"thread_t\000"
 2248      61645F74 
 2248      00
 2249              	.LASF111:
 2250 026d 63685379 		.ascii	"chSysUnlockFromISR\000"
 2250      73556E6C 
ARM GAS  /tmp/ccWwEFmK.s 			page 56


 2250      6F636B46 
 2250      726F6D49 
 2250      535200
 2251              	.LASF92:
 2252 0280 7264796D 		.ascii	"rdymsg\000"
 2252      736700
 2253              	.LASF112:
 2254 0287 6F73616C 		.ascii	"osalSysLockFromISR\000"
 2254      5379734C 
 2254      6F636B46 
 2254      726F6D49 
 2254      535200
 2255              	.LASF91:
 2256 029a 73746D33 		.ascii	"stm32_tim_t\000"
 2256      325F7469 
 2256      6D5F7400 
 2257              	.LASF77:
 2258 02a6 5243435F 		.ascii	"RCC_TypeDef\000"
 2258      54797065 
 2258      44656600 
 2259              	.LASF101:
 2260 02b2 63685F6D 		.ascii	"ch_mutex\000"
 2260      75746578 
 2260      00
 2261              	.LASF83:
 2262 02bb 44494552 		.ascii	"DIER\000"
 2262      00
 2263              	.LASF120:
 2264 02c0 474E5520 		.ascii	"GNU C 4.8.1 -mcpu=cortex-m3 -mno-thumb-interwork -m"
 2264      4320342E 
 2264      382E3120 
 2264      2D6D6370 
 2264      753D636F 
 2265 02f3 7468756D 		.ascii	"thumb -ggdb -O2 -fomit-frame-pointer -falign-functi"
 2265      62202D67 
 2265      67646220 
 2265      2D4F3220 
 2265      2D666F6D 
 2266 0326 6F6E733D 		.ascii	"ons=16 -ffunction-sections -fdata-sections -fno-com"
 2266      3136202D 
 2266      6666756E 
 2266      6374696F 
 2266      6E2D7365 
 2267 0359 6D6F6E20 		.ascii	"mon -flto\000"
 2267      2D666C74 
 2267      6F00
 2268              	.LASF70:
 2269 0363 41504231 		.ascii	"APB1RSTR\000"
 2269      52535452 
 2269      00
 2270              	.LASF24:
 2271 036c 7072696F 		.ascii	"prio\000"
 2271      00
 2272              	.LASF86:
 2273 0371 43434552 		.ascii	"CCER\000"
 2273      00
 2274              	.LASF103:
ARM GAS  /tmp/ccWwEFmK.s 			page 57


 2275 0376 63686172 		.ascii	"char\000"
 2275      00
 2276              	.LASF38:
 2277 037b 74687265 		.ascii	"thread_reference_t\000"
 2277      61645F72 
 2277      65666572 
 2277      656E6365 
 2277      5F7400
 2278              	.LASF28:
 2279 038e 77616261 		.ascii	"wabase\000"
 2279      736500
 2280              	.LASF15:
 2281 0395 74737461 		.ascii	"tstate_t\000"
 2281      74655F74 
 2281      00
 2282              	.LASF71:
 2283 039e 41484245 		.ascii	"AHBENR\000"
 2283      4E5200
 2284              	.LASF4:
 2285 03a5 75696E74 		.ascii	"uint8_t\000"
 2285      385F7400 
 2286              	.LASF33:
 2287 03ad 6D736771 		.ascii	"msgqueue\000"
 2287      75657565 
 2287      00
 2288              	.LASF82:
 2289 03b6 534D4352 		.ascii	"SMCR\000"
 2289      00
 2290              	.LASF40:
 2291 03bb 63685F74 		.ascii	"ch_thread\000"
 2291      68726561 
 2291      6400
 2292              	.LASF57:
 2293 03c5 73797374 		.ascii	"system_debug_t\000"
 2293      656D5F64 
 2293      65627567 
 2293      5F7400
 2294              	.LASF11:
 2295 03d4 6C6F6E67 		.ascii	"long long int\000"
 2295      206C6F6E 
 2295      6720696E 
 2295      7400
 2296              	.LASF66:
 2297 03e2 4944434F 		.ascii	"IDCODE\000"
 2297      444500
 2298              	.LASF18:
 2299 03e9 6D73675F 		.ascii	"msg_t\000"
 2299      7400
 2300              	.LASF50:
 2301 03ef 76697274 		.ascii	"virtual_timer_t\000"
 2301      75616C5F 
 2301      74696D65 
 2301      725F7400 
 2302              	.LASF76:
 2303 03ff 43464752 		.ascii	"CFGR2\000"
 2303      3200
 2304              	.LASF72:
ARM GAS  /tmp/ccWwEFmK.s 			page 58


 2305 0405 41504232 		.ascii	"APB2ENR\000"
 2305      454E5200 
 2306              	.LASF59:
 2307 040d 70616E69 		.ascii	"panic_msg\000"
 2307      635F6D73 
 2307      6700
 2308              	.LASF105:
 2309 0417 5F426F6F 		.ascii	"_Bool\000"
 2309      6C00
 2310              	.LASF14:
 2311 041d 746D6F64 		.ascii	"tmode_t\000"
 2311      655F7400 
 2312              	.LASF64:
 2313 0425 6D61696E 		.ascii	"mainthread\000"
 2313      74687265 
 2313      616400
 2314              	.LASF5:
 2315 0430 75696E74 		.ascii	"uint16_t\000"
 2315      31365F74 
 2315      00
 2316              	.LASF125:
 2317 0439 6E766963 		.ascii	"nvicEnableVector\000"
 2317      456E6162 
 2317      6C655665 
 2317      63746F72 
 2317      00
 2318              	.LASF90:
 2319 044a 43435852 		.ascii	"CCXR\000"
 2319      00
 2320              	.LASF75:
 2321 044f 52455345 		.ascii	"RESERVED0\000"
 2321      52564544 
 2321      3000
 2322              	.LASF3:
 2323 0459 73686F72 		.ascii	"short int\000"
 2323      7420696E 
 2323      7400
 2324              	.LASF8:
 2325 0463 6C6F6E67 		.ascii	"long int\000"
 2325      20696E74 
 2325      00
 2326              	.LASF81:
 2327 046c 706F7274 		.ascii	"port_intctx\000"
 2327      5F696E74 
 2327      63747800 
 2328              	.LASF117:
 2329 0478 49544D5F 		.ascii	"ITM_RxBuffer\000"
 2329      52784275 
 2329      66666572 
 2329      00
 2330              	.LASF61:
 2331 0485 63685F73 		.ascii	"ch_system\000"
 2331      79737465 
 2331      6D00
 2332              	.LASF123:
 2333 048f 5F5F7365 		.ascii	"__set_BASEPRI\000"
 2333      745F4241 
ARM GAS  /tmp/ccWwEFmK.s 			page 59


 2333      53455052 
 2333      4900
 2334              	.LASF116:
 2335 049d 73745F6C 		.ascii	"st_lld_init\000"
 2335      6C645F69 
 2335      6E697400 
 2336              	.LASF56:
 2337 04a9 6C617374 		.ascii	"lasttime\000"
 2337      74696D65 
 2337      00
 2338              	.LASF12:
 2339 04b2 75696E74 		.ascii	"uint64_t\000"
 2339      36345F74 
 2339      00
 2340              	.LASF68:
 2341 04bb 43464752 		.ascii	"CFGR\000"
 2341      00
 2342              	.LASF62:
 2343 04c0 726C6973 		.ascii	"rlist\000"
 2343      7400
 2344              	.LASF114:
 2345 04c6 6F73616C 		.ascii	"osalSysUnlockFromISR\000"
 2345      53797355 
 2345      6E6C6F63 
 2345      6B46726F 
 2345      6D495352 
 2346              	.LASF27:
 2347 04db 6E616D65 		.ascii	"name\000"
 2347      00
 2348              	.LASF65:
 2349 04e0 73697A65 		.ascii	"sizetype\000"
 2349      74797065 
 2349      00
 2350              	.LASF16:
 2351 04e9 74726566 		.ascii	"trefs_t\000"
 2351      735F7400 
 2352              	.LASF10:
 2353 04f1 6C6F6E67 		.ascii	"long unsigned int\000"
 2353      20756E73 
 2353      69676E65 
 2353      6420696E 
 2353      7400
 2354              	.LASF46:
 2355 0503 72656164 		.ascii	"ready_list_t\000"
 2355      795F6C69 
 2355      73745F74 
 2355      00
 2356              	.LASF23:
 2357 0510 71756575 		.ascii	"queue\000"
 2357      6500
 2358              	.LASF7:
 2359 0516 696E7433 		.ascii	"int32_t\000"
 2359      325F7400 
 2360              	.LASF104:
 2361 051e 6D757465 		.ascii	"mutex_t\000"
 2361      785F7400 
 2362              	.LASF25:
ARM GAS  /tmp/ccWwEFmK.s 			page 60


 2363 0526 6E657765 		.ascii	"newer\000"
 2363      7200
 2364              	.LASF109:
 2365 052c 706F7274 		.ascii	"port_unlock_from_isr\000"
 2365      5F756E6C 
 2365      6F636B5F 
 2365      66726F6D 
 2365      5F697372 
 2366              	.LASF2:
 2367 0541 756E7369 		.ascii	"unsigned char\000"
 2367      676E6564 
 2367      20636861 
 2367      7200
 2368              	.LASF32:
 2369 054f 77616974 		.ascii	"waiting\000"
 2369      696E6700 
 2370              	.LASF54:
 2371 0557 76697274 		.ascii	"virtual_timers_list_t\000"
 2371      75616C5F 
 2371      74696D65 
 2371      72735F6C 
 2371      6973745F 
 2372              	.LASF121:
 2373 056d 2E2E2F2E 		.ascii	"../../../os/hal/ports/STM32/LLD/TIMv1/hal_st_lld.c\000"
 2373      2E2F2E2E 
 2373      2F6F732F 
 2373      68616C2F 
 2373      706F7274 
 2374              	.LASF119:
 2375 05a0 5F706F72 		.ascii	"_port_irq_epilogue\000"
 2375      745F6972 
 2375      715F6570 
 2375      696C6F67 
 2375      756500
 2376              	.LASF29:
 2377 05b3 73746174 		.ascii	"state\000"
 2377      6500
 2378              	.LASF60:
 2379 05b9 63685F73 		.ascii	"ch_system_t\000"
 2379      79737465 
 2379      6D5F7400 
 2380              	.LASF97:
 2381 05c5 77747365 		.ascii	"wtsemp\000"
 2381      6D7000
 2382              	.LASF95:
 2383 05cc 77747472 		.ascii	"wttrp\000"
 2383      7000
 2384              	.LASF1:
 2385 05d2 7369676E 		.ascii	"signed char\000"
 2385      65642063 
 2385      68617200 
 2386              	.LASF52:
 2387 05de 64656C74 		.ascii	"delta\000"
 2387      6100
 2388              	.LASF6:
 2389 05e4 73686F72 		.ascii	"short unsigned int\000"
 2389      7420756E 
ARM GAS  /tmp/ccWwEFmK.s 			page 61


 2389      7369676E 
 2389      65642069 
 2389      6E7400
 2390              	.LASF79:
 2391 05f7 73746B61 		.ascii	"stkalign_t\000"
 2391      6C69676E 
 2391      5F7400
 2392              	.LASF48:
 2393 0602 63757272 		.ascii	"current\000"
 2393      656E7400 
 2394              	.LASF107:
 2395 060a 706F7274 		.ascii	"port_unlock\000"
 2395      5F756E6C 
 2395      6F636B00 
 2396              	.LASF26:
 2397 0616 6F6C6465 		.ascii	"older\000"
 2397      7200
 2398              	.LASF93:
 2399 061c 65786974 		.ascii	"exitcode\000"
 2399      636F6465 
 2399      00
 2400              	.LASF37:
 2401 0625 6D706F6F 		.ascii	"mpool\000"
 2401      6C00
 2402              		.comm	__gnu_lto_v1,1,1
 2403              		.ident	"GCC: (Sourcery CodeBench Lite 2013.11-24) 4.8.1"
ARM GAS  /tmp/ccWwEFmK.s 			page 62


DEFINED SYMBOLS
                            *ABS*:00000000 hal_st_lld.c
     /tmp/ccWwEFmK.s:244    .text.VectorB0:00000000 $t
     /tmp/ccWwEFmK.s:250    .text.VectorB0:00000000 VectorB0
     /tmp/ccWwEFmK.s:326    .text.st_lld_init:00000000 $t
     /tmp/ccWwEFmK.s:332    .text.st_lld_init:00000000 st_lld_init
                            *COM*:00000001 __gnu_lto_v1
                     .debug_frame:00000010 $d

UNDEFINED SYMBOLS
chSysTimerHandlerI
_port_irq_epilogue
nvicEnableVector
