ARM GAS  /tmp/ccWwEFmK.s 			page 1


   1              		.syntax unified
   2              		.cpu cortex-m3
   3              		.fpu softvfp
   4              		.eabi_attribute 20, 1
   5              		.eabi_attribute 21, 1
   6              		.eabi_attribute 23, 3
   7              		.eabi_attribute 24, 1
   8              		.eabi_attribute 25, 1
   9              		.eabi_attribute 26, 1
  10              		.eabi_attribute 30, 2
  11              		.eabi_attribute 34, 1
  12              		.eabi_attribute 18, 4
  13              		.thumb
  14              		.file	"hal_st_lld.c"
  15              		.text
  16              	.Ltext0:
  17              		.section	.gnu.lto_.jmpfuncs.781b87cd693c10b4,"",%progbits
  18 0000 789C6362 		.ascii	"x\234cb`b\300\006\244\2414X\226\221\201\211)\2021\223"
  18      6062C006 
  18      A4A13458 
  18      96918189 
  18      29823193 
  19 0014 91410628 		.ascii	"\221A\006(\000fp\000E\001\031\363\001\323"
  19      00667000 
  19      450119F3 
  19      01D3
  20              		.text
  21              		.section	.gnu.lto_.inline.781b87cd693c10b4,"",%progbits
  22 0000 789C6362 		.ascii	"x\234cb`b\300\006\254\2404P\226G\224\221\201\211\357"
  22      6062C006 
  22      ACA03450 
  22      96479491 
  22      8189EF
  23 0013 5E0003DB 		.ascii	"^\000\003\333\002y\260bF.8\301 \"\003\224\224yp\213"
  23      0279B062 
  23      462E38C1 
  23      20220394 
  23      9479708B 
  24 0027 112ECBCC 		.ascii	"\021.\313\314\003\326\305\000\000\260\004\005a"
  24      03D6C500 
  24      00B00405 
  24      61
  25              		.text
  26              		.section	.gnu.lto_.pureconst.781b87cd693c10b4,"",%progbits
  27 0000 789C6362 		.ascii	"x\234cb`b`e\200\000&\006+F)\000\001f\000a"
  27      60626065 
  27      80002606 
  27      2B462900 
  27      01660061 
  28              		.text
  29              		.section	.gnu.lto_VectorB0.781b87cd693c10b4,"",%progbits
  30 0000 789C8D53 		.ascii	"x\234\215S_HSQ\030\377\276s\357\3344\007\372\332\303"
  30      5F485351 
  30      18FFBE73 
  30      EFDC3407 
  30      FADAC3
  31 0013 1C421494 		.ascii	"\034B\024\224\273\251\017\275\026\366\"\270\0277\241"
ARM GAS  /tmp/ccWwEFmK.s 			page 2


  31      BBA90FBD 
  31      16F622B8 
  31      1737A1
  32 0022 9EC6F53A 		.ascii	"\236\306\365:\334\205\315\311\356\024\245\007\317\334"
  32      DC85CDC9 
  32      EE14A507 
  32      CFDC
  33 0030 1E0283C4 		.ascii	"\036\002\203\304\210\"\321\360!\243\036\222\"\"\024"
  33      8822D1F0 
  33      21A31E92 
  33      222214
  34 003f 4A7B3242 		.ascii	"J{2BE\212\010)\230/\202\364O\361\241Hm}\347^ww\035R"
  34      458A0829 
  34      982F82F4 
  34      4FF1A148 
  34      6D7DE75E 
  35 0057 7DEC3BDF 		.ascii	"}\354;\337w\276\177\347w~\347\216\001\203ri\"\235\224"
  35      77BE7FE7 
  35      777EE78E 
  35      01837269 
  35      229D94
  36 006a 007E9045 		.ascii	"\000~\220E\027 \033]\006\310x\030\223f}\300\253\344"
  36      17201B5D 
  36      06C87818 
  36      93667DC0 
  36      ABE4
  37 007c F70AF06A 		.ascii	"\367\012\360j\011e+,#\012\007\020\206\230$\343\320e"
  37      09652B2C 
  37      230A0710 
  37      869824E3 
  37      D065
  38 008e 3487CCB0 		.ascii	"4\207\314\260\371|\241\360\350\305\365\273{\370\222"
  38      F97CA1F0 
  38      E8C5F5BB 
  38      7BF892
  39 009d 7925D011 		.ascii	"y%\320\021d\261\220\270 \307\371\250\037@3\267aZ\305"
  39      64B190B8 
  39      20C7F9A8 
  39      1F4033B7 
  39      615AC5
  40 00b0 880E64C2 		.ascii	"\210\016d\302JK\360j\355\303\356:Sq\212\216\357F\351"
  40      4A4BF06A 
  40      EDC3EE3A 
  40      53718A8E 
  40      EF46E9
  41 00c3 343CE439 		.ascii	"4<\3449\324\021\307\341\016\031v\211\026\211\223\310"
  41      D411C7E1 
  41      0E197689 
  41      168993C8 
  42 00d3 60BAE681 		.ascii	"`\272\346\201\235X\304\277\004\331\271\354\006\026\333"
  42      9D58C4BF 
  42      04D9B9EC 
  42      0616DB
  43 00e2 659A20CA 		.ascii	"e\232 \312\314\233.B\356K\306k\247\314\270S:h\332\254"
  43      CC9B2E42 
  43      EE4BC66B 
  43      A7CCB853 
ARM GAS  /tmp/ccWwEFmK.s 			page 3


  43      3A68DAAC 
  44 00f6 4F4078FE 		.ascii	"O@x\376sw\373\000\202y~\206\207\376\023\201\210\230"
  44      7377FB00 
  44      82797E86 
  44      87FE1381 
  44      8898
  45 0108 EE6B18F6 		.ascii	"\356k\030\366\000\324\303\024\347c\371O\017\226\026"
  45      00D4C314 
  45      E763F94F 
  45      0F9616
  46 0117 702CCB17 		.ascii	"p,\313\027yn\276P\300:\035e\006](8\020\015.\277i*\344"
  46      796EBE50 
  46      C03A1D65 
  46      065D2838 
  46      100D2EBF 
  47 012e C36F2162 		.ascii	"\303o!b21\005\3130\274\275\226\235>nsg9\363so\307\245"
  47      323105CB 
  47      30BCBD96 
  47      9D3E6E73 
  47      6739F373 
  48 0145 532A4E63 		.ascii	"S*Nc\275M,\377\276\262 \331\005;7\027\275\015\245\335"
  48      BD4D2CFF 
  48      BEB220D9 
  48      053B3717 
  48      BD0DA5DD 
  49 0159 AD91DAC7 		.ascii	"\255\221\332\307.{\373fo\2076\326-5\024`\030\251D*\223"
  49      2E7BFB66 
  49      6F8736D6 
  49      2D351460 
  49      18A9442A 
  50 016e BAC07C57 		.ascii	"\272\300|W\204\217\024\"\366$\353c\361\301W\234\340"
  50      848F1422 
  50      F624EB63 
  50      F1C1579C 
  50      E0
  51 017f B7CFEBE8 		.ascii	"\267\317\353\350>\004\261\224\337:\310{\254K\254@vk"
  51      3E04B194 
  51      DF3AC87B 
  51      AC4BAC40 
  51      766B
  52 0191 EFDEC6B5 		.ascii	"\357\336\306\265\206r\360#\373Yw\351\370\012\253\372"
  52      8672F023 
  52      FB5977E9 
  52      F80AABFA 
  53 01a1 0AFCE257 		.ascii	"\012\374\342Wy\215\216\225\032\272U|j\301\320\261\252"
  53      798D8E95 
  53      1ABA557C 
  53      6AC1D0B1 
  53      AA
  54 01b2 9CD0CDE5 		.ascii	"\234\320\315\345rBU\274o^\340\237\214\302\337\030\375"
  54      724255BC 
  54      6F5EE09F 
  54      8CC2DF18 
  54      FD
  55 01c3 3C21187D 		.ascii	"<!\030}\346dt\356\335\272\223\321o^\305\301\350d\355"
  55      E66474EE 
  55      DDBA93D1 
ARM GAS  /tmp/ccWwEFmK.s 			page 4


  55      6F5EC5C1 
  55      E864ED
  56 01d6 AA83D1FD 		.ascii	"\252\203\321\375\033\216+yH+I\253H\217\035\301\250\212"
  56      1B8E2B79 
  56      482B49AB 
  56      488F1DC1 
  56      A88A
  57 01e8 33E4D890 		.ascii	"3\344\330\220\212\014\252\370\004}\316\217R6\377\030"
  57      8A0CAAF8 
  57      047DCE8F 
  57      5236FF18 
  58 01f8 C463FE77 		.ascii	"\304c\376w\2675\3730O\325`s\264\012\231|\341d\261\310"
  58      B735FB30 
  58      4FD56073 
  58      B40A997C 
  58      E164B1C8 
  59 020c 92303D2D 		.ascii	"\2220=-\015\020\263\233\003\001\305\372%\015%\246\306"
  59      0D10B39B 
  59      0301C5FA 
  59      250D25A6 
  59      C6
  60 021d 95DE642A 		.ascii	"\225\336d*m(\241p\260\271Iik\273\250\204[\203\375\215"
  60      6D28A170 
  60      B0B94969 
  60      6BBBA884 
  60      5B83FD8D 
  61 0231 221331D2 		.ascii	"\"\0231\322\221x\274+\240A\203\263GK&\022\311\236\203"
  61      9178BC2B 
  61      A04183B3 
  61      474B2612 
  61      C99E83
  62 0244 B60BEDC1 		.ascii	"\266\013\355\301\226\340\200\242\305\264d*\032\351?"
  62      96E080A2 
  62      C5B4642A 
  62      1AE93F
  63 0253 9708C4C0 		.ascii	"\227\010\304\300\325\257\306\373\242\215G\364D\007\322"
  63      D5AFC6FB 
  63      A28D47F4 
  63      4407D2
  64 0262 4A4B30D4 		.ascii	"JK0\324\032R\364\036-\336\327\025U\264\204\241\033\221"
  64      1A52F41E 
  64      2DDED715 
  64      55B484A1 
  64      1B91
  65 0274 6E4DA3BE 		.ascii	"nM\243\276:gG*]\252\211\031\203Fy^ O\032\264P\241\260"
  65      3A67472A 
  65      5DAA8919 
  65      8346795E 
  65      204F1AB4 
  66 028b 94AF0986 		.ascii	"\224\257\011\206\332\375\235\252\021\355M\351g\374'"
  66      DAFD9DAA 
  66      11ED4DE9 
  66      67FC27
  67 029a CE024B81 		.ascii	"\316\002K\201;\021M$S\203\360\007h\2222f"
  67      3B114D24 
  67      5383F007 
  67      68923266 
ARM GAS  /tmp/ccWwEFmK.s 			page 5


  68              		.text
  69              		.section	.gnu.lto_st_lld_init.781b87cd693c10b4,"",%progbits
  70 0000 789C95D3 		.ascii	"x\234\225\323\275O\302@\024\000\360\367\356\332\362"
  70      BD4FC240 
  70      1400F0F7 
  70      EEDAF2
  71 000f A1313A4A 		.ascii	"\2411:J\034\\\215\221F\211\263\213\013\011L\326D&\202"
  71      1C5C8D91 
  71      4689B38B 
  71      0B094CD6 
  71      442682
  72 0022 98200909 		.ascii	"\230 \011\011F\210\213\003G\304\204\301\2018\021u\320"
  72      46888B03 
  72      47C484C1 
  72      81381175 
  72      D0
  73 0033 150C6CA6 		.ascii	"\025\014l\246\306A\302\346\000\306\21581\352\177@\\"
  73      C641C2E6 
  73      00C68D38 
  73      31EA7F40 
  73      5C
  74 0044 EA5D3F40 		.ascii	"\352]?@\300\220\364\322\276k{\367~}m\257\004\010L\266"
  74      C090F4D2 
  74      BE6B7BF7 
  74      7E7D6DAF 
  74      04084CB6 
  75 0058 65BE0724 		.ascii	"e\276\007$\200m\336#\005$\225.@\321K\020\305\001 \024"
  75      806DDE23 
  75      0524952E 
  75      40D14B10 
  75      C5012014 
  76 006c 08166268 		.ascii	"\010\026bh\316m\222V\3370\032O\327wW\330%K\004\322\010"
  76      CE6D9256 
  76      DF301A4F 
  76      D77757D8 
  76      254B04D2 
  77 0081 54045904 		.ascii	"T\004Y\004E\004\336d(1VY\005H\232\247\032\217\202\332"
  77      4504DE64 
  77      28315659 
  77      05489AA7 
  77      1A8F82DA 
  78 0095 47227ADA 		.ascii	"G\"z\332\201\366\247^\013$\360\001eH!Y\207\032+\025"
  78      81F6A75E 
  78      0B24F001 
  78      65482159 
  78      871A2B15 
  79 00a9 17D388B7 		.ascii	"\027\323\210\267p\203i$\007<Pv_f\022\230\207\346\255"
  79      70836924 
  79      073C5076 
  79      5F661298 
  79      87E6AD
  80 00bc 0FD129B8 		.ascii	"\017\321)\270\003\027\317\324\311\246)k>\2409\322\016"
  80      0317CFD4 
  80      C9A6296B 
  80      3EA039D2 
  80      0E
  81 00cd 5B03EECC 		.ascii	"[\003\356\314\2248\027e\225\353\304\201\345IB\022y2"
ARM GAS  /tmp/ccWwEFmK.s 			page 6


  81      94381765 
  81      95EBC481 
  81      E5494212 
  81      7932
  82 00df 6B55D882 		.ascii	"kU\330\202I\3106\201\377\225\245p\300,\213-\316\254"
  82      49C83681 
  82      FF95A570 
  82      C02C8B2D 
  82      CEAC
  83 00f1 6B36CA1D 		.ascii	"k6\312\0353Y\037\324\333\364/\300v\206\202\"\322<\214"
  83      33591FD4 
  83      DBF42FC0 
  83      76868222 
  83      D23C8C
  84 0104 37EBC93C 		.ascii	"7\353\311<\266`}hq\005__\354\227\243W\033\256\035:r"
  84      B6607D68 
  84      71055F5F 
  84      EC97A357 
  84      1BAE1D3A 
  85 0119 0C83DA8E 		.ascii	"\014\203\332\216\356\336\221F\016\330Jo\250l\300\243"
  85      EEDE9146 
  85      0ED84A6F 
  85      A86CC0A3 
  86 0129 50627C70 		.ascii	"Pb|p\004zg\203\362\020\364\015\327\362\030?p_\2442\255"
  86      047A6783 
  86      F210F40D 
  86      D7F2183F 
  86      705FA432 
  87 013e 549BAE15 		.ascii	"T\233\256\025\317\264\242\273W\274#\305\371|=\367\212"
  87      CFB4A2BB 
  87      57BC23C5 
  87      F97C3DF7 
  87      8A
  88 014f 6F5C7987 		.ascii	"o\\y\207\313\376\333\267\337B\000\316\341\207\225\031"
  88      CBFEDBB7 
  88      DF4200CE 
  88      E1879519 
  89 015f 5F8EFEA4 		.ascii	"_\216\376\244\275\344\304\314\271\025\253\363\362\377"
  89      BDE4C4CC 
  89      B915ABF3 
  89      F2FF
  90 016d 791EE003 		.ascii	"y\036\340\003\212\375\2575'\305j\032\237\316\377e\261"
  90      8AFDAF35 
  90      27C56A1A 
  90      9FCEFF65 
  90      B1
  91 017e C842C1A0 		.ascii	"\310B\301\240jm\331\234z\234\310\250'\331\323|N\335"
  91      6A6DD99C 
  91      7A9CC8A8 
  91      27D9D37C 
  91      4EDD
  92 0190 D3A2A12D 		.ascii	"\323\242\241-5\022\331U\265p\364lS\214\304s\371x&s\024"
  92      3512D955 
  92      B570F46C 
  92      538CC473 
  92      F9782673 
  93 01a5 4CC22F21 		.ascii	"L\302/!\316\367_"
ARM GAS  /tmp/ccWwEFmK.s 			page 7


  93      CEF75F
  94              		.text
  95              		.section	.gnu.lto_.symbol_nodes.781b87cd693c10b4,"",%progbits
  96 0000 789C6362 		.ascii	"x\234cb`bHd\200\002\246\333\214\365\014\014\023\316"
  96      60624864 
  96      8002A6DB 
  96      8CF50C0C 
  96      13CE
  97 0012 3130D4D7 		.ascii	"10\324\327\317\353`d\272\303X\317\210\3402\336e\254"
  97      CFEB6064 
  97      BAC358CF 
  97      88E032DE 
  97      65AC
  98 0024 6782701B 		.ascii	"g\202p\033\032\030\031\3571\3263#x\367\031\353Y\340"
  98      1A1819EF 
  98      31D63323 
  98      78F719EB 
  98      59E0
  99 0036 3C660666 		.ascii	"<f\006f\206\303[M\230\201f/n{#\317\314\310\302p\270"
  99      86C35B4D 
  99      9881662F 
  99      6E7B23CF 
  99      CCC8C270 
 100 004b FD8D3C03 		.ascii	"\375\215<\003\000\310\245\0350"
 100      00C8A51D 
 100      30
 101              		.text
 102              		.section	.gnu.lto_.refs.781b87cd693c10b4,"",%progbits
 103 0000 789C6362 		.ascii	"x\234cb`b`d\200\002\000\000F\000\006"
 103      60626064 
 103      80020000 
 103      460006
 104              		.text
 105              		.section	.gnu.lto_.decls.781b87cd693c10b4,"",%progbits
 106 0000 789C9D57 		.ascii	"x\234\235W{l\024\307\031\237\331\363\2636\216\343<\344"
 106      7B6C14C7 
 106      199FD9F3 
 106      B3368EE3 
 106      3CE4
 107 0012 F41F8CD4 		.ascii	"\364\037\214\324TQ*8?\2444j\253\010\373\356\260-q`\355"
 107      54512A38 
 107      3FA4346A 
 107      AB08FBEE 
 107      B02D7160 
 108 0027 9908A952 		.ascii	"\231\010\251R\267\313y\211O\275\007\275;S\363\027\353"
 108      B7CB7989 
 108      4FBD07BD 
 108      3B53F317 
 108      EB
 109 0038 98109234 		.ascii	"\230\020\2224\265c\342\326<\344\232\024S\214R\227\247"
 109      B563E2D6 
 109      3CE49A14 
 109      538C5297 
 109      A7
 110 0049 4DC02407 		.ascii	"M\300$\007(\201\010E\024\007Rd\242\366D\243@H\223\230"
 110      28810845 
 110      14075264 
ARM GAS  /tmp/ccWwEFmK.s 			page 8


 110      A2F644A3 
 110      40489398 
 111 005d 140C2181 		.ascii	"\024\014!\201\3537\263{\347\231\365\356\261\227\225"
 111      EB37B37B 
 111      E799F5EE 
 111      B19795
 112 006c BF6FE776 		.ascii	"\277o\347vg~\277\337|\337\354x>\001\011\310\215\021"
 112      677EBFDF 
 112      7CDFEC78 
 112      3E0109C8 
 112      8D11
 113 007e 4AC115AD 		.ascii	"J\301\025\255D\350\244\003!\370C\317\200\301c\264\003"
 113      44E8A403 
 113      21F843CF 
 113      80C163B4 
 113      03
 114 008f 69573ED8 		.ascii	"iW>\3300\330\010\330\233`\243`{\321\334\213\364)\001"
 114      30D808D8 
 114      9B60A360 
 114      7BD1DC8B 
 114      F42901
 115 00a2 2B043B04 		.ascii	"+\004;\0046\006\366\231\216S\006V\012v\015\354K\260"
 115      3606F699 
 115      8E530656 
 115      0A760DEC 
 115      4BB0
 116 00b4 69B05D3A 		.ascii	"i\260]:\317I\260y\372\370\353`7\300n\201\335\001\273"
 116      CF49B079 
 116      FAF8EB60 
 116      37C06E81 
 116      DD01BB
 117 00c7 0B568035 		.ascii	"\013V\2005\316b\270\227\202=\000V\2015-\306kD\307Jk"
 117      CE62B897 
 117      823D0056 
 117      81352DC6 
 117      6B44C74A 
 118 00dc 7804FAD5 		.ascii	"x\004\372\325\202\325\201\375\034\317j\372\010,\017"
 118      82D581FD 
 118      1CCF6AFA 
 118      082C0F
 119 00eb EC1758D3 		.ascii	"\354\027X\323\267\017\354\007`O\300\357\237\201\235"
 119      B70FEC07 
 119      604FC0EF 
 119      9F819D
 120 00fa 85F639B0 		.ascii	"\205\3669\260S`\027\300\216\203\035\003{\027\354(\230"
 120      536017C0 
 120      8E831D03 
 120      7B17EC28 
 120      98
 121 010b A07399C5 		.ascii	"\240s\231\305\241\030mR\325\347\325\241\215j\323i\230"
 121      A1186D52 
 121      D5E7D5A1 
 121      8D6AD369 
 121      98
 122 011c F74A2CE3 		.ascii	"\367J,\343\262bTE\033\245\305\224\366q\264SU{\223/\\"
 122      B2625445 
 122      1BA5C594 
ARM GAS  /tmp/ccWwEFmK.s 			page 9


 122      F671B453 
 122      557B932F 
 123 0131 BB2DA86A 		.ascii	"\273-\250j\221\214w\340b\200\2241z\022\215\250\360F"
 123      918C77E0 
 123      62809431 
 123      7A128DA8 
 123      F046
 124 0143 554F3C85 		.ascii	"UO<\205M\240e\\X<\347\267\214w\342'\221FD_\353\015\222"
 124      4DA0655C 
 124      583CE7B7 
 124      8C77E227 
 124      9146445F 
 125 015a D707109A 		.ascii	"\327\007\020\232\217\006\325\241d\362\303S_=\264EMl"
 125      8F06D5A1 
 125      64F2C353 
 125      5F3DB445 
 125      4D6C
 126 016c 5053A9F5 		.ascii	"PS\251\365\350Q\324\0174D\242\212\3432~\346\021S\225"
 126      E851D40F 
 126      3444A28A 
 126      E3327EE6 
 126      115395
 127 017f 047F177E 		.ascii	"\004\177\027~To\255ph\234\002\032\3068C\252]?F\303\004"
 127      546FAD70 
 127      689C021A 
 127      C63843AA 
 127      5D3F46C3 
 128 0194 4FDDAD3A 		.ascii	"O\335\255:(\032\351?\214\347\363R\377\212\005\366\201"
 128      281AE93F 
 128      8CE7F352 
 128      FF8A05F6 
 128      81
 129 01a5 A62B31DE 		.ascii	"\246+1\336w\006\253}\352w\251\224C\247\023\320\250-"
 129      7706AB7D 
 129      EA77A994 
 129      43A713D0 
 129      A82D
 130 01b7 821123C1 		.ascii	"\202\021#\301\236\271\004\311\336\344\315W\276x\021"
 130      9EB904C9 
 130      DEE4CD57 
 130      BE7811
 131 01c6 BFD63D74 		.ascii	"\277\326=tZ\235&\361Hs\\\235\303\241\201\374\315\024"
 131      5A9D26F1 
 131      48735C9D 
 131      C3A181FC 
 131      CD14
 132 01d8 64A66726 		.ascii	"d\246g&o\213zB\213^\032b\233`\016\361wS\210\211\315"
 132      6F8B7A42 
 132      8B5E1A62 
 132      9B600EF1 
 132      77538889 
 133 01ed 677106C2 		.ascii	"gq\006\302~\002\366\351\011p\3205\207\264\265\302\375"
 133      7E02F6E9 
 133      0970D035 
 133      87B4B5C2 
 133      FD
 134 01fe E0B24313 		.ascii	"\340\262C\0234e!\354 /\214.\324\356\254\013U\306o\340"
ARM GAS  /tmp/ccWwEFmK.s 			page 10


 134      346521EC 
 134      202F8C2E 
 134      D4EEAC0B 
 134      55C66FE0 
 135 0212 C76D2DB3 		.ascii	"\307m-\263\012\364\032\231Q\025\203\244\026\244\241"
 135      0AF41A99 
 135      511583A4 
 135      16A4A1
 136 0221 7E8D326B 		.ascii	"~\2152k~\374O\267\236\242k~\014W\200\324A\007/\365\276"
 136      7EFC4FB7 
 136      9EA26B7E 
 136      0C5780D4 
 136      41072FF5 
 137 0236 3044D35B 		.ascii	"0D\323[0T\033DA\325\304\346K\245j\236\366\034\231\314"
 137      30541B44 
 137      41D5C4E6 
 137      4BA56A9E 
 137      F61C99CC 
 138 024a 5CBF16A0 		.ascii	"\\\277\026\240!uCw\242\377\322\366\307\324\241\023\000"
 138      21754377 
 138      A2FFD2F6 
 138      C7D4A113 
 138      00
 139 025b 79887E76 		.ascii	"y\210~v{\250\0042\326,\002zS\273\364\016<\336\037/\225"
 139      7BA80432 
 139      D62C027A 
 139      53BBF40E 
 139      3CDE1F2F 
 140 0270 F6CA69B0 		.ascii	"\366\312i\260\321\234\301\2528\260\001\026l\277\035"
 140      D19CC1AA 
 140      38B00116 
 140      6CBF1D
 141 027f B0226B65 		.ascii	"\260\"ke[Y\260\361\234\301xe\333Y\260\011;`\345\326"
 141      5B59B0F1 
 141      9CC17865 
 141      DB59B009 
 141      3B60E5D6 
 142 0293 CA0659B0 		.ascii	"\312\006Y\260wr\006\343\225\355e\301N\332\001\253\264"
 142      777206E3 
 142      95ED65C1 
 142      4EDA01AB 
 142      B4
 143 02a4 56B69F05 		.ascii	"V\266\237\005{?g0^\331A\026\354\254\035\260*kec,\330"
 143      7B3F6730 
 143      5ED94116 
 143      ECAC1DB0 
 143      2A6B6563 
 144 02ba F99CC178 		.ascii	"\371\234\301xe\207Y\260\213v\300\236\260Vv\204\005\373"
 144      658759B0 
 144      8B76C09E 
 144      B0567684 
 144      05FB
 145 02cc 3867305E 		.ascii	"8g0^\331\004\013\226\264\003Vm\245\254+\361\366/{\345"
 145      D9040B96 
 145      B403566D 
 145      A5AC2BF1 
 145      F62F7BE5 
ARM GAS  /tmp/ccWwEFmK.s 			page 11


 146 02e0 0751AFBE 		.ascii	"\007Q\257\276\245h\250\351m\005\363K\213\355\266\303"
 146      A568A8E9 
 146      6D05F34B 
 146      8BEDB6C3 
 147 02f0 BA9B8CFF 		.ascii	"\272\233\214\377\211\037\244-\272}\252\372\366I{X\355"
 147      891FA42D 
 147      BA7DAAFA 
 147      F6497B58 
 147      ED
 148 0301 E117B55D 		.ascii	"\341\027\265]z\366\363\327\033\263{6\333\013\246\375"
 148      7AF6F3D7 
 148      1BB37B36 
 148      DB0BA6FD 
 149 0311 8971DABC 		.ascii	"\211q\332\274\012\263y\363A\374\007\033\304\253v\202"
 149      0AB379F3 
 149      41FC071B 
 149      C4AB7682 
 150 0321 B8D81A6C 		.ascii	"\270\330\032l\222\005\373\302\016X\223\365Z9\317\202"
 150      9205FBC2 
 150      0E5893F5 
 150      5A39CF82 
 151 0331 5DCF198C 		.ascii	"]\317\031\214W\366\021\0136c\007\254\305Z\331E\026\354"
 151      57F6110B 
 151      366307AC 
 151      C55AD945 
 151      16EC
 152 0343 9B9CC158 		.ascii	"\233\234\301Xe]\211\251\331\2057\264\330\260\362\026"
 152      655D89A9 
 152      D98537B4 
 152      D8B0F216 
 153 0353 F3BB2DD7 		.ascii	"\363\273-\327m\207e7\031\177\232\363\302\273b\261\360"
 153      6D876537 
 153      197F9AF3 
 153      C2BB62B1 
 153      F0
 154 0364 D8B3E56C 		.ascii	"\330\263\345l/\230v\3128mN\204\336\\i\022C\263\213\375"
 154      2F9876CA 
 154      386D4E84 
 154      DE5C6912 
 154      43B38BFD 
 155 0378 472DE323 		.ascii	"G-\343#\364 q\024/\000\177\214\372w\250?N\375I\352\337"
 155      F4207114 
 155      2F007F8C 
 155      FA77A83F 
 155      4EFD49EA 
 156 038d A5FE14F5 		.ascii	"\245\376\024\365\357S\177\206\372\017\250?K\3759\352"
 156      EF537F86 
 156      FA0FA83F 
 156      4BFD39EA 
 157 039d 3FA4FE02 		.ascii	"?\244\376\002\365S\324\177L\375\277\250OR\177\231\372"
 157      F553D47F 
 157      4CFDBFA8 
 157      4F527F99 
 157      FA
 158 03ae 4FC067AE 		.ascii	"O\300g\256\022\364\362\354\331\\;\203X\305\3563\\\222"
 158      12F4F2EC 
 158      D95C3B83 
ARM GAS  /tmp/ccWwEFmK.s 			page 12


 158      58C5EE33 
 158      5C92
 159 03c0 1E95C9D0 		.ascii	"\036\225\311\320@\231~\270O\016\253\225\225\231\030"
 159      40997EB8 
 159      4F0EAB95 
 159      959918
 160 03cf 14B171D5 		.ascii	"\024\261q\325\216$0@\220\361\347t-m\3103;\313S\222\317"
 160      8E243040 
 160      90F1E774 
 160      2D6DC833 
 160      3BCB5392 
 161 03e4 990469ED 		.ascii	"\231\004i\355t+\2053\360\345ixA\037uM_\010L\352\322"
 161      742B8533 
 161      F0E56978 
 161      411F754D 
 161      5F084CEA 
 162 03f9 BBD74099 		.ascii	"\273\327@\2316\\\037\372tzh\241>\340\313\234\327\320"
 162      365C1FFA 
 162      747A68A1 
 162      3EE0CB9C 
 162      D7D0
 163 040b 57166BA8 		.ascii	"W\026k\250\300<\244\344hl\0055\015!eNg\344`\234\230"
 163      C03CA4E4 
 163      686C0535 
 163      0D21654E 
 163      67E4609C 
 164 0420 4E1EB87C 		.ascii	"N\036\270|z\023>>\274Q\355\355J\246\326\3779Q\236>_"
 164      7A133E3E 
 164      BC51EDED 
 164      4AA6D6FF 
 164      39519E3E 
 165 0435 8FE4D929 		.ascii	"\217\344\331)\003\256\033\313\200\257\347\036\277\201"
 165      03AE1BCB 
 165      80AFE71E 
 165      BF81
 166 0443 65A6E7DF 		.ascii	"e\246\347\337\005\351\372gA\232a\302\026\303\015#\303"
 166      05E9FA67 
 166      419A61C2 
 166      16C30D23 
 166      C3
 167 0454 4D53861B 		.ascii	"MS\206\033g\276{l\016\303\007\266\030n\031\031n\233"
 167      67BE7B6C 
 167      0EC307B6 
 167      186E1919 
 167      6E9B
 168 0466 3124CE7F 		.ascii	"1$\316\177zZ\257\225\2727\011\2312$i\213\342\216\221"
 168      7A5AAF95 
 168      BA370999 
 168      3224698B 
 168      E28E91
 169 0479 E25BD349 		.ascii	"\342[\323I\034\2722\335\364\315~U}I\275\227Z\337\265"
 169      1CBA32DD 
 169      F4CD7E55 
 169      7D49BD97 
 169      5ADFB5
 170 048c 6181FD42 		.ascii	"a\201\375B\345\236Y\241b(L\266\347\263RiO8\177\347\353"
 170      E59E59A1 
ARM GAS  /tmp/ccWwEFmK.s 			page 13


 170      62284CB6 
 170      E7B35269 
 170      4F387FE7 
 171 04a1 9FC78FD0 		.ascii	"\237\307\217\320_T\230\336\271\367J{q\272&>LG\334\005"
 171      5F5498DE 
 171      B9F74A7B 
 171      71BA263E 
 171      4C47DC05 
 172 04b5 F1E6E589 		.ascii	"\361\346\345\211^\000\3513\376_WKef\306w\2153V\005\263"
 172      5E00E933 
 172      FE5F574B 
 172      6566C677 
 172      8D335605 
 173 04ca 191FB87C 		.ascii	"\031\037\270|{\300t\371\275\235o'\256\033\005\003\313"
 173      7BC074F9 
 173      BD9D6F27 
 173      AE1B0503 
 173      CB
 174 04db 8B662C89 		.ascii	"\213f,\211\303\227\315R7i\213\342%#\305\313\246\023"
 174      C397CD52 
 174      37698BE2 
 174      2523C5CB 
 174      A613
 175 04ed 99E9B939 		.ascii	"\231\351\2719w\205_\261\305\360{#\303\253\246\0147^"
 175      77855FB1 
 175      C5F07B23 
 175      C3ABA60C 
 175      375E
 176 04ff 79EF8773 		.ascii	"y\357\207s\030\356\330b\35012\364\232\206\351\340\025"
 176      18EED862 
 176      E83132F4 
 176      9A86E9E0 
 176      15
 177 0510 B330F514 		.ascii	"\2630\365\024\330\241\3503Rl\346)\314JK\007{\226\322"
 177      D8A1E833 
 177      526CE629 
 177      CC4A4B07 
 177      7B96D2
 178 0523 2BD45B5F 		.ascii	"+\324[__\015u\303r\227q\277@J\324\363\006\366\373\342"
 178      5F0D75C3 
 178      729771BF 
 178      404AD4F3 
 178      06F6FBE2 
 179 0537 10EE01C1 		.ascii	"\020\356\001\301P\242~;EKT\362\374\376%jj\352u\256D"
 179      50A27E3B 
 179      454B54F2 
 179      FCFE256A 
 179      6AEA75AE 
 180 054c 4D520964 		.ascii	"MR\011d\354\367+Q{\331\243\315\177r\006\253\342\300"
 180      ECF72B51 
 180      7BD9A3CD 
 180      7F7206AB 
 180      E2C0
 181 055e FAB8B3A5 		.ascii	"\372\270\263\245\035\260,%\352\353,\330\177s\006\343"
 181      1DB02C25 
 181      EAEB2CD8 
 181      7F7306E3 
ARM GAS  /tmp/ccWwEFmK.s 			page 14


 182 056e 957195F8 		.ascii	"\225q\225\370M;`YJT\256\022\277\2273\030\257\214\253"
 182      4D3B6059 
 182      4A54AE12 
 182      BF973318 
 182      AF8CAB
 183 0581 C45F28B4 		.ascii	"\304_(\264\001\226\245D\345*\361Ws\006\343\225q\225"
 183      0196A544 
 183      E52AF157 
 183      7306E395 
 183      7195
 184 0593 78BF1DB0 		.ascii	"x\277\035\260*ke\\%\2765g0F\231\372|b|\333\037\364\217"
 184      2A6B655C 
 184      25BE3567 
 184      304699FA 
 184      7C627CDB 
 185 05aa 40FB5730 		.ascii	"@\373W0h\007/K\225\372\326%\376\243\332\2353^\025\262"
 185      68072F4B 
 185      95FAD625 
 185      FEA3DA9D 
 185      335E15B2 
 186 05be BCD82F5E 		.ascii	"\274\330/^\306[\004r\326\335*\220\363\347v\352\007\251"
 186      C65B0472 
 186      D6DD2A90 
 186      F3E776EA 
 186      07A9
 187 05d0 1FA2FE0D 		.ascii	"\037\242\376\015\352wR\277\213\372\335\324\357\241\376"
 187      EA7752BF 
 187      8BFADDD4 
 187      EFA1FE
 188 05df 4DEA47A9 		.ascii	"M\352G\251\337+X\237]\373-\204\023-\373\205\314\331"
 188      DF2B589F 
 188      5DFB2D84 
 188      132DFB85 
 188      CCD9
 189 05f1 55DFAD48 		.ascii	"U\337\255Hu\221\231\007w\250\327v\275\304\205>\\%\343"
 189      75919907 
 189      77A8D776 
 189      BDC4853E 
 189      5C25E3
 190 0604 0374C71B 		.ascii	"\003t\307\033-4\335\361\2541\010\347\230q\307;6Iw\274"
 190      2D34DDF1 
 190      AC3108E7 
 190      9871C73B 
 190      364977BC 
 191 0618 315B3BDE 		.ascii	"1[;\336\271I>9\307\250\204\261\357\275\343MNfV\242\214"
 191      B9493E39 
 191      C7A884B1 
 191      EFBDE34D 
 191      4E6656A2 
 192 062d B709428E 		.ascii	"\267\011B\216`Y3=\306dz\234f\3720\315\326\221,\331:"
 192      6059333D 
 192      C6647A9C 
 192      66FA30CD 
 192      D6912CD9 
 193 0642 90255B47 		.ascii	"\220%[Gg\263e\030\265/\313azbv\024\372\225\263=\022"
 193      67B36518 
 193      B52FCB61 
ARM GAS  /tmp/ccWwEFmK.s 			page 15


 193      7A627614 
 193      FA95B33D 
 194 0657 529C9178 		.ascii	"R\234\221x<\342\364*\341x$\332\030\225\327\264\007\374"
 194      3CE2F42A 
 194      E17824DA 
 194      1895D7B4 
 194      07FC
 195 0669 31A72FD2 		.ascii	"1\247/\322\021\365+\321u\222+\322\2464(a\177\273\264"
 195      11F52BD1 
 195      75922BD2 
 195      A6342861 
 195      7FBBB4
 196 067c 341057A4 		.ascii	"4\020W\244\325\221\250T/z%O}C\263S\216\206\026\206#"
 196      D591A854 
 196      2F7A254F 
 196      7D43B353 
 196      8E861686 
 197 0691 6165A122 		.ascii	"ae\241\"\257\0128\003a\177\260\243Mq\306\342m\201p|"
 197      AF0A3803 
 197      617FB0A3 
 197      4D71C6E2 
 197      6D81707C 
 198 06a5 513B2AEA 		.ascii	"Q;*\352\200{]\255\024/h\\\266\242\312\205\352\026-r"
 198      807B5DAD 
 198      142F685C 
 198      B6A2CA85 
 198      EA162D72 
 199 06b9 6A7F9198 		.ascii	"j\177\221\230\263]\016:\327D\242q\240j\365\326\325:"
 199      B35D0E3A 
 199      D744A271 
 199      A06AF5D6 
 199      D53A
 200 06cb 972E753B 		.ascii	"\227.u;[\233\275kk\310\033)\026\227\202\301\266E~T\364"
 200      5B9BBD6B 
 200      6BC81B29 
 200      169782C1 
 200      B6457E54 
 201 06e0 ACE2075D 		.ascii	"\254\342\007]\015\325%\332#)\020\016\304\027\262@\376"
 201      0DD525DA 
 201      2329100E 
 201      C417B240 
 201      FE
 202 06f1 48281409 		.ascii	"H(\024\011\353X \315\345\355t\372\333\375\221\250\""
 202      EB5820CD 
 202      E5ED74FA 
 202      DBFD91A8 
 202      22
 203 0702 ADFD6908 		.ascii	"\255\375i\010dTH\344\235\024\210\376VR\326\004\202\221"
 203      645448E4 
 203      9D1488FE 
 203      5652D604 
 203      8291
 204 0714 E73A94F9 		.ascii	"\347:\224\371,@4\236\221\356o\217\255\213\221!\376v"
 204      2C40349E 
 204      91EE6F8F 
 204      AD8B9121 
 204      FE76
ARM GAS  /tmp/ccWwEFmK.s 			page 16


 205 0726 DFBA586B 		.ascii	"\337\272Xk \244D\233\344p[P\2116\377\304\\\274\316\256"
 205      20A4449B 
 205      E4705B50 
 205      8936FFC4 
 205      5CBCCEAE 
 206 073a F386D706 		.ascii	"\363\206\327\006\3740\274\234\334=ayUP\321\344\327\332"
 206      FC30BC9C 
 206      DC3D6179 
 206      5550D1E4 
 206      D7DA
 207 074c 9B792C1E 		.ascii	"\233y,\036\"\341\012\020\325%\231\037R\334\341\022k"
 207      22E10A10 
 207      D525991F 
 207      52DCE112 
 207      6B
 208 075d C06AF37C 		.ascii	"\300j\363|^\227\230\347n\366\210\202Otx\032\305|\227"
 208      5E9798E7 
 208      6EF68882 
 208      4F74781A 
 208      C57C97
 209 0770 CB2BD650 		.ascii	"\313+\326P_\233\347ryD\207kY\253\243\305\347r\324\213"
 209      5F9BE772 
 209      7944876B 
 209      59ABA3C5 
 209      E772D48B 
 210 0784 A24374C1 		.ascii	"\242Ct\301o\030\320\340n\025\035n2\322[/\012\313\265"
 210      6F18D0E0 
 210      6E151D6E 
 210      32D25B2F 
 210      0ACBB5
 211 0797 5175D07F 		.ascii	"Qu\320\177\245\230\347o\227\243\363\215\352\"1p\020"
 211      A598E76F 
 211      97A3F38D 
 211      EA223170 
 211      10
 212 07a8 167227D1 		.ascii	"\026r'\321 w\210\307\322\210\3777K\242\221P\263O,\247"
 212      207788C7 
 212      D288FF37 
 212      4BA29150 
 212      B34F2CA7 
 213 07bc 01621E54 		.ascii	"\001b\036T\320\030\007\341\201\264\032\236H\201X\264"
 213      D01807E1 
 213      81B41A9E 
 213      488158B4 
 214 07cc 38F3A8C6 		.ascii	"8\363\250\306"
 215 07d0 245F4A67 		.ascii	"$_Jg\334\351\362\372\232}\263\301\017\305\0021\3519"
 215      DCE9F2FA 
 215      9A7DB3C1 
 215      0FC50231 
 215      E939
 216 07e2 3F89E03C 		.ascii	"?\211\340<I\212)q\251\241\336\347i\021\233\347\311\301"
 216      498A2971 
 216      A9A1DEE7 
 216      69119BE7 
 216      C9C1
 217 07f4 DFC9EB62 		.ascii	"\337\311\353b\220\373` \254\344\257\225\203\035\312"
 217      90FB6020 
ARM GAS  /tmp/ccWwEFmK.s 			page 17


 217      ACE4AF95 
 217      831DCA
 218 0803 4344D472 		.ascii	"CD\324r>G\017\353BW\204\203\2142*\225{\3640U\326\021"
 218      3E470FEB 
 218      42578483 
 218      8C322A95 
 218      7BF43055 
 219 0819 E6E49630 		.ascii	"\346\344\2260\017\237\316*\330\327\252enIMg\247\226"
 219      0F9FCE2A 
 219      D8D7AA65 
 219      6E494D67 
 219      A796
 220 082b B3D535D5 		.ascii	"\263\3255\325\325\235\253H\326D\227Kj]\267Fq+\253\005"
 220      D59DAB48 
 220      D644974B 
 220      6A5DB746 
 220      712BAB05 
 221 083f 88B86B49 		.ascii	"\210\270kI#\344\240Y,\252oi\250\025}\255\264QC\032\005"
 221      23E4A059 
 221      2CAA6F69 
 221      A8157DAD 
 221      B451431A 
 222 0854 F54D0D9E 		.ascii	"\365M\015\236eb!y\241\337k\340\016\311\"Y\363\211\305"
 222      65622179 
 222      A1DF6BE0 
 222      0EC92259 
 222      F389C5
 223 0867 A2C7E711 		.ascii	"\242\307\347\021\237\365\270\253\363\011Hm\231\273\241"
 223      9FF5B8AB 
 223      F309486D 
 223      99BBA1
 224 0876 D1EB5A91 		.ascii	"\321\353Z\221\006/hv\273\226\273=\377\007N\247\276\000"
 224      062F6876 
 224      BB96BB3D 
 224      FF074EA7 
 224      BE00
 225              		.text
 226              		.section	.gnu.lto_.symtab.781b87cd693c10b4,"",%progbits
 227 0000 56656374 		.ascii	"VectorB0\000\000\000\000\000\000\000\000\000\000\000"
 227      6F724230 
 227      00000000 
 227      00000000 
 227      000000
 228 0013 00A50000 		.ascii	"\000\245\000\000\000st_lld_init\000\000\000\000\000"
 228      0073745F 
 228      6C6C645F 
 228      696E6974 
 228      00000000 
 229 0028 00000000 		.ascii	"\000\000\000\000\000\000\000\251\000\000\000_port_i"
 229      000000A9 
 229      0000005F 
 229      706F7274 
 229      5F69
 230 003a 72715F65 		.ascii	"rq_epilogue\000\000\002\000\000\000\000\000\000\000"
 230      70696C6F 
 230      67756500 
 230      00020000 
ARM GAS  /tmp/ccWwEFmK.s 			page 18


 230      00000000 
 231 004f 0000AC00 		.ascii	"\000\000\254\000\000\000chSysTimerHandlerI\000\000\002"
 231      00006368 
 231      53797354 
 231      696D6572 
 231      48616E64 
 232 006a 00000000 		.ascii	"\000\000\000\000\000\000\000\000\000\256\000\000\000"
 232      00000000 
 232      00AE0000 
 232      00
 233 0077 6E766963 		.ascii	"nvicEnableVector\000\000\002\000\000\000\000\000\000"
 233      456E6162 
 233      6C655665 
 233      63746F72 
 233      00000200 
 234 0090 000000B0 		.ascii	"\000\000\000\260\000\000\000"
 234      000000
 235              		.text
 236              		.section	.gnu.lto_.opts,"",%progbits
 237 0000 272D6D63 		.ascii	"'-mcpu=cortex-m3' '-mno-thumb-interwork' '-mthumb' "
 237      70753D63 
 237      6F727465 
 237      782D6D33 
 237      2720272D 
 238 0033 272D6767 		.ascii	"'-ggdb' '-O2' '-fomit-frame-pointer' '-falign-funct"
 238      64622720 
 238      272D4F32 
 238      2720272D 
 238      666F6D69 
 239 0066 696F6E73 		.ascii	"ions=16' '-ffunction-sections' '-fdata-sections' '-"
 239      3D313627 
 239      20272D66 
 239      66756E63 
 239      74696F6E 
 240 0099 666E6F2D 		.ascii	"fno-common' '-flto'\000"
 240      636F6D6D 
 240      6F6E2720 
 240      272D666C 
 240      746F2700 
 241              		.text
 242              		.cfi_sections	.debug_frame
 243              		.section	.text.VectorB0,"ax",%progbits
 244              		.align	2
 245              		.p2align 4,,15
 246              		.global	VectorB0
 247              		.thumb
 248              		.thumb_func
 249              		.type	VectorB0, %function
 250              	VectorB0:
 251              	.LFB219:
 252              		.file 1 "../../../os/hal/ports/STM32/LLD/TIMv1/hal_st_lld.c"
 253              		.loc 1 239 0
 254              		.cfi_startproc
 255              		@ args = 0, pretend = 0, frame = 0
 256              		@ frame_needed = 0, uses_anonymous_args = 0
 257 0000 08B5     		push	{r3, lr}
 258              		.cfi_def_cfa_offset 8
ARM GAS  /tmp/ccWwEFmK.s 			page 19


 259              		.cfi_offset 3, -8
 260              		.cfi_offset 14, -4
 261              		.loc 1 246 0
 262 0002 4FF08043 		mov	r3, #1073741824
 263 0006 1A69     		ldr	r2, [r3, #16]
 264 0008 9207     		lsls	r2, r2, #30
 265 000a 09D5     		bpl	.L2
 266              		.loc 1 247 0
 267 000c 0022     		movs	r2, #0
 268 000e 1A61     		str	r2, [r3, #16]
 269              	.LVL0:
 270              	.LBB52:
 271              	.LBB53:
 272              	.LBB54:
 273              	.LBB55:
 274              	.LBB56:
 275              	.LBB57:
 276              		.file 2 "../../../os/common/ext/CMSIS/include/cmsis_gcc.h"
 277              		.loc 2 264 0
 278 0010 2023     		movs	r3, #32
 279              	@ 264 "../../../os/common/ext/CMSIS/include/cmsis_gcc.h" 1
 280 0012 83F31188 		MSR basepri, r3
 281              	@ 0 "" 2
 282              		.thumb
 283              	.LBE57:
 284              	.LBE56:
 285              	.LBE55:
 286              	.LBE54:
 287              	.LBE53:
 288              	.LBE52:
 289              	.LBB58:
 290              	.LBB59:
 291              		.file 3 "../../../os/hal/osal/rt/osal.h"
 292              		.loc 3 585 0
 293 0016 FFF7FEFF 		bl	chSysTimerHandlerI
 294              	.LVL1:
 295              	.LBE59:
 296              	.LBE58:
 297              	.LBB60:
 298              	.LBB61:
 299              	.LBB62:
 300              	.LBB63:
 301              	.LBB64:
 302              	.LBB65:
 303              		.loc 2 264 0
 304 001a 0023     		movs	r3, #0
 305              	@ 264 "../../../os/common/ext/CMSIS/include/cmsis_gcc.h" 1
 306 001c 83F31188 		MSR basepri, r3
 307              	@ 0 "" 2
 308              	.LVL2:
 309              		.thumb
 310              	.L2:
 311              	.LBE65:
 312              	.LBE64:
 313              	.LBE63:
 314              	.LBE62:
 315              	.LBE61:
ARM GAS  /tmp/ccWwEFmK.s 			page 20


 316              	.LBE60:
 317              		.loc 1 255 0
 318 0020 BDE80840 		pop	{r3, lr}
 319              		.loc 1 254 0
 320 0024 FFF7FEBF 		b	_port_irq_epilogue
 321              	.LVL3:
 322              		.cfi_endproc
 323              	.LFE219:
 324              		.size	VectorB0, .-VectorB0
 325 0028 AFF30080 		.section	.text.st_lld_init,"ax",%progbits
 325      AFF30080 
 326              		.align	2
 327              		.p2align 4,,15
 328              		.global	st_lld_init
 329              		.thumb
 330              		.thumb_func
 331              		.type	st_lld_init, %function
 332              	st_lld_init:
 333              	.LFB220:
 334              		.loc 1 267 0
 335              		.cfi_startproc
 336              		@ args = 0, pretend = 0, frame = 0
 337              		@ frame_needed = 0, uses_anonymous_args = 0
 338              		@ link register save eliminated.
 339              		.loc 1 273 0
 340 0000 4FF48053 		mov	r3, #4096
 341 0004 C4F20203 		movt	r3, 16386
 342 0008 DA69     		ldr	r2, [r3, #28]
 343              		.loc 1 267 0
 344 000a 70B4     		push	{r4, r5, r6}
 345              		.cfi_def_cfa_offset 12
 346              		.cfi_offset 4, -12
 347              		.cfi_offset 5, -8
 348              		.cfi_offset 6, -4
 349              		.loc 1 273 0
 350 000c 42F00102 		orr	r2, r2, #1
 351              		.loc 1 276 0
 352 0010 4FF40051 		mov	r1, #8192
 353              		.loc 1 273 0
 354 0014 DA61     		str	r2, [r3, #28]
 355              		.loc 1 276 0
 356 0016 CEF20401 		movt	r1, 57348
 357 001a 4868     		ldr	r0, [r1, #4]
 358              		.loc 1 279 0
 359 001c 4FF08043 		mov	r3, #1073741824
 360              		.loc 1 281 0
 361 0020 0022     		movs	r2, #0
 362              		.loc 1 285 0
 363 0022 0124     		movs	r4, #1
 364              		.loc 1 276 0
 365 0024 40F40060 		orr	r0, r0, #2048
 366              		.loc 1 279 0
 367 0028 45F6BF56 		movw	r6, #23999
 368              		.loc 1 280 0
 369 002c 4FF6FF75 		movw	r5, #65535
 370              		.loc 1 276 0
 371 0030 4860     		str	r0, [r1, #4]
ARM GAS  /tmp/ccWwEFmK.s 			page 21


 372              		.loc 1 279 0
 373 0032 9E62     		str	r6, [r3, #40]
 374              		.loc 1 289 0
 375 0034 1C20     		movs	r0, #28
 376              		.loc 1 280 0
 377 0036 DD62     		str	r5, [r3, #44]
 378              		.loc 1 289 0
 379 0038 0821     		movs	r1, #8
 380              		.loc 1 281 0
 381 003a 9A61     		str	r2, [r3, #24]
 382              		.loc 1 282 0
 383 003c 5A63     		str	r2, [r3, #52]
 384              		.loc 1 283 0
 385 003e DA60     		str	r2, [r3, #12]
 386              		.loc 1 284 0
 387 0040 5A60     		str	r2, [r3, #4]
 388              		.loc 1 285 0
 389 0042 5C61     		str	r4, [r3, #20]
 390              		.loc 1 286 0
 391 0044 1C60     		str	r4, [r3]
 392              		.loc 1 304 0
 393 0046 70BC     		pop	{r4, r5, r6}
 394              		.loc 1 289 0
 395 0048 FFF7FEBF 		b	nvicEnableVector
 396              	.LVL4:
 397              		.cfi_endproc
 398              	.LFE220:
 399              		.size	st_lld_init, .-st_lld_init
 400 004c AFF30080 		.text
 401              	.Letext0:
 402              		.file 4 "/home/otto/MentorGraphics/Sourcery_CodeBench_Lite_for_ARM_EABI/arm-none-eabi/include/stdi
 403              		.file 5 "../../../os/common/ports/ARMCMx/compilers/GCC/chtypes.h"
 404              		.file 6 "../../../os/rt/include/chsystypes.h"
 405              		.file 7 "../../../os/rt/include/chschd.h"
 406              		.file 8 "../../../os/common/ext/CMSIS/ST/STM32F1xx/stm32f100xb.h"
 407              		.file 9 "../../../os/common/ports/ARMCMx/chcore.h"
 408              		.file 10 "../../../os/common/ports/ARMCMx/chcore_v7m.h"
 409              		.file 11 "../../../os/hal/ports/STM32/LLD/TIMv1/stm32_tim.h"
 410              		.file 12 "../../../os/rt/include/chsem.h"
 411              		.file 13 "../../../os/rt/include/chmtx.h"
 412              		.file 14 "../../../os/rt/include/chsys.h"
 413              		.file 15 "../../../os/common/ext/CMSIS/include/core_cm3.h"
 414              		.file 16 "../../../os/hal/ports/common/ARMCMx/nvic.h"