ARM GAS  /tmp/ccoaoEYU.s 			page 1


   1              		.syntax unified
   2              		.cpu cortex-m3
   3              		.fpu softvfp
   4              		.eabi_attribute 20, 1
   5              		.eabi_attribute 21, 1
   6              		.eabi_attribute 23, 3
   7              		.eabi_attribute 24, 1
   8              		.eabi_attribute 25, 1
   9              		.eabi_attribute 26, 1
  10              		.eabi_attribute 30, 2
  11              		.eabi_attribute 34, 1
  12              		.eabi_attribute 18, 4
  13              		.thumb
  14              		.file	"test_sequence_007.c"
  15              		.text
  16              	.Ltext0:
  17              		.section	.gnu.lto_.jmpfuncs.b304f0a7e3315865,"",%progbits
  18 0000 789C6362 		.ascii	"x\234cb`b\300\006\326\000\261\004\020\003e\231\230\252"
  18      6062C006 
  18      D600B104 
  18      10036599 
  18      98AA
  19 0012 197E35CC 		.ascii	"\031~5\314h\020\310dd\220c`\234\3330\303!\223\221\021"
  19      6810C864 
  19      64906360 
  19      9CDB30C3 
  19      21939111 
  20 0026 AC0A21C3 		.ascii	"\254\012!\303$\307\300\016\221a\206\030\300\310\000"
  20      24C7C00E 
  20      91618618 
  20      C0C800
  21 0035 359915C8 		.ascii	"5\231\025\310\210`\314dd9\301\004\327\322\001\322\302"
  21      8860CC64 
  21      6439C104 
  21      D7D201D2 
  21      C2
  22 0046 9ACC08B5 		.ascii	"\232\314\010\265\214\205\221\011\244\253\014\252\222"
  22      8C859109 
  22      A4AB0CAA 
  22      92
  23 0053 CD05C840 		.ascii	"\315\005\310@\021pF\027pB\027p\004\331\344\350\344\354"
  23      11704617 
  23      70421770 
  23      04D9E4E8 
  23      E4EC
  24 0065 C2209899 		.ascii	"\302 \230\231W\226\230\223\231\242P\234ZX\232\232\227"
  24      57969893 
  24      99A2509C 
  24      5A589A9A 
  24      97
  25 0076 9CCA0000 		.ascii	"\234\312\000\000\333\023 \013"
  25      DB13200B 
  26              		.text
  27              		.section	.gnu.lto_.inline.b304f0a7e3315865,"",%progbits
  28 0000 789C6362 		.ascii	"x\234cb`b\300\006\312\2414PV\341$##\003\223\330\205"
  28      6062C006 
  28      CAA13450 
ARM GAS  /tmp/ccoaoEYU.s 			page 2


  28      56E12423 
  28      230393D8 
  29 0015 366606B6 		.ascii	"6f\006\266\005\362`\345\314<`\031F.\220\012nF\006\306"
  29      05F260E5 
  29      CC3C6019 
  29      462E900A 
  29      6E4606C6 
  30 0029 097ECC3C 		.ascii	"\011~\314<@E\023\374&\370\201\370\014\354\002\014\014"
  30      404513FC 
  30      26F881F8 
  30      0CEC020C 
  30      0C
  31 003a AC13FC18 		.ascii	"\254\023\374\030\300\210\205\201\337\210\021l\017\212"
  31      C0888581 
  31      DF88116C 
  31      0F8A
  32 0048 7EA01C2E 		.ascii	"~\240\034.\232\001\000ot\016\007"
  32      9A01006F 
  32      740E07
  33              		.text
  34              		.section	.gnu.lto_.pureconst.b304f0a7e3315865,"",%progbits
  35 0000 789C6362 		.ascii	"x\234cb`b`e\200\000&\006I\026\011\000\001\007\000A"
  35      60626065 
  35      80002606 
  35      49160900 
  35      01070041 
  36              		.text
  37              		.section	.gnu.lto_test_007_001_execute.b304f0a7e3315865,"",%progbits
  38 0000 789C9554 		.ascii	"x\234\225T[kSY\024^k\237s\3224M\215\321V\353\255\255"
  38      5B6B5359 
  38      145E6B9F 
  38      73D2344D 
  38      8DD156EB 
  39 0016 B7979149 		.ascii	"\267\227\221I\024\004)\210x\373\011\012\372$\3614\244"
  39      14042988 
  39      78FB090A 
  39      FA24F134 
  39      A4
  40 0027 079A3A36 		.ascii	"\007\232:6\351\274\314\203\273M\035}\360\022\364\245"
  40      E9BCCC83 
  40      BB4D1D7D 
  40      F012F4A5 
  41 0037 2AE2A554 		.ascii	"*\342\245TA\304\013\202\212x\211\024$\245j\355\203\240"
  41      41C40B82 
  41      8A788914 
  41      24A56AED 
  41      83A0
  42 0049 224C1807 		.ascii	"\"L\030\007\025\005\025_\2523\203\235\265\366>\373L"
  42      1505155F 
  42      AA33839D 
  42      B5F63EFB 
  42      4C
  43 005a B5E38887 		.ascii	"\265\343\210\207d\237u\326Z\337\267\327e\257-@\300\227"
  43      649F75D6 
  43      5ADFB7D7 
  43      65AF2D40 
  43      C097
ARM GAS  /tmp/ccoaoEYU.s 			page 3


  44 006c CF4AFA4F 		.ascii	"\317J\372O\013\001\364\321\033C\200\242x\037\240;,\320"
  44      0B01F4D1 
  44      1B4380A2 
  44      781FA03B 
  44      2CD0
  45 007e D682A585 		.ascii	"\326\202\245\205\333a[X\245U #\316\203\030\310\250\203"
  45      DB615B58 
  45      A5552023 
  45      CE8318C8 
  45      A883
  46 0090 C86A40D8 		.ascii	"\310j@\330!,\333\301\035\233\221\331\304\0028!\345\201"
  46      212CDBC1 
  46      1D9B91D9 
  46      C4023821 
  46      E581
  47 00a2 CAC08B97 		.ascii	"\312\300\213\227xH\226z\217\313\277\307\307\021=\244"
  47      7848967A 
  47      8FCBBFC7 
  47      C7113DA4 
  48 00b2 9D9723B8 		.ascii	"\235\227#\270\010\233\350\003\233\325K\330\237\207\242"
  48      089BE803 
  48      9BD54BD8 
  48      9F87A2
  49 00c1 B1A5B15F 		.ascii	"\261\245\261_\367\317\222\307{\212\362\023A=\264\004"
  49      F7CF92C7 
  49      7B8AF213 
  49      413DB404 
  50 00d1 ACF816F2 		.ascii	"\254\370\026\362\274(U\306\307\357^\252\374~\037\343"
  50      BC2855C6 
  50      C7EF5EAA 
  50      FC7E1FE3 
  51 00e1 331052D8 		.ascii	"3\020R\330\217\013\300\001\017\355\020-N\230\026\210"
  51      8F0BC001 
  51      0FED102D 
  51      4E981688 
  52 00f1 92FA04A9 		.ascii	"\222\372\004\251k\351#\024\243\245*\356;\326\261\271"
  52      6BE92314 
  52      A3A52AEE 
  52      3BD6B1B9 
  53 0101 9E963071 		.ascii	"\236\2260q9\320+e\261Y\373\252\220\212\245\033w\366"
  53      39D02B65 
  53      B159FBAA 
  53      908AA51B 
  53      77F6
  54 0113 4C0CA95A 		.ascii	"L\014\251Z@\313\267B\002\266\323\263\201V\252\330F\024"
  54      40CBB742 
  54      02B6D3B3 
  54      8156AAD8 
  54      4614
  55 0125 F4B2EE41 		.ascii	"\364\262\356A\317\325\253\257\032R8\200\016\034\201"
  55      CFD5ABAF 
  55      1A523880 
  55      0E1C81
  56 0134 C3DD524E 		.ascii	"\303\335RN\245\024\177\201?\345n\226\"Y\005b\302\010"
  56      A5147F81 
  56      3FE56E96 
  56      22590562 
ARM GAS  /tmp/ccoaoEYU.s 			page 4


  56      C208
  57 0146 18C9621D 		.ascii	"\030\311b\035!\237~x\365\310\326\320\014:?\302YF\324"
  57      219F7E78 
  57      F5C8D6D0 
  57      0C3A3FC2 
  57      5946D4
  58 0159 304B91A5 		.ascii	"0K\221\245(\263\364\261T\233E\364\261\265\001\313\224"
  58      28B3F4B1 
  58      549B45F4 
  58      B1B501CB 
  58      94
  59 016a 09A111D9 		.ascii	"\011\241\021\331\223\353\307~[\356\347j\222\226oO%\203"
  59      93EBC77E 
  59      5BEEE76A 
  59      92966F4F 
  59      2583
  60 017c 0218A134 		.ascii	"\002\030\2414\374p4NtzcW1\323K\235\244\014\326-\201"
  60      FC70344E 
  60      747A6357 
  60      31D34B9D 
  60      A40CD62D 
  61 0191 3352CACA 		.ascii	"3R\312\312_\037\007~\240\"\352/\331\342a,\310nj\220"
  61      5F1F077E 
  61      A022EA2F 
  61      D9E2612C 
  61      C86E6A90 
  62 01a5 5D3CAB60 		.ascii	"]<\253`\034M\\\305\261\225\311Rx\216\210I\306@\326\021"
  62      1C4D5CC5 
  62      B195C952 
  62      788E8849 
  62      C640D611 
  63 01b9 7EB83C3B 		.ascii	"~\270<;\205\347U\266\365>q\216z\024\020O\243\355\231"
  63      85E755B6 
  63      F53E718E 
  63      7A14104F 
  63      A3ED99
  64 01cc 0B7C2EC1 		.ascii	"\013|.\301\370\013\006_\330=8\374\360b\265\251W\210"
  64      F80B065F 
  64      D83D38FC 
  64      F062B5A9 
  64      5788
  65 01de 48D8D961 		.ascii	"H\330\331a\367\021h0\372p\020\335t\027-\320Y9\252\354"
  65      F7116830 
  65      FA7010DD 
  65      74172DD0 
  65      5939AAEC 
  66 01f2 65C138B6 		.ascii	"e\3018\266\207=\254s\321\257=g\355a\275\212q\250\030"
  66      873DAC73 
  66      D1AF3D67 
  66      ED61BD8A 
  66      71A818
  67 0205 D14AEE86 		.ascii	"\321J\356\206N\374\337\266\316\010\250gf\0255\263\316"
  67      4EFCDFB6 
  67      CE08A867 
  67      661535B3 
  67      CE
  68 0216 FC8F8664 		.ascii	"\374\217\206d\370\340\251\243\361\346{\217\006\327s"
ARM GAS  /tmp/ccoaoEYU.s 			page 5


  68      F8E0A9A3 
  68      F1E67B8F 
  68      06D773
  69 0225 087A2A37 		.ascii	"\010z*7\012U\301\301\345#m\372\245\004V(o\263\341F\022"
  69      0A55C1C1 
  69      E5236DFA 
  69      A5045628 
  69      6FB3E146 
  70 023a 4BABAC11 		.ascii	"K\253\254\021(Tn\016\206RxS\225\"\032\354\325\340j("
  70      28546E0E 
  70      86527853 
  70      95221AEC 
  70      D5E06A28 
  71 024e 8DC42CE6 		.ascii	"\215\304,\346\027\332E\317\0049\252h\257\355\034\333"
  71      17DA45CF 
  71      0439AA68 
  71      AFED1CDB 
  72 025e 338F83AF 		.ascii	"3\217\203\257\245hy*\310\240\332\261Ho\302a\335z\346"
  72      A568792A 
  72      C8A0DAB1 
  72      486FC261 
  72      DD7AE6
  73 0271 B367D156 		.ascii	"\263g\321V8R\206\315\244W\016\356\372c\024\017\024d"
  73      385286CD 
  73      A4570EEE 
  73      FA63140F 
  73      1464
  74 0283 59F69668 		.ascii	"Y\366\226h\260\232<\236\334\223\324\307\377\037-\342"
  74      B09A3C9E 
  74      DC93D4C7 
  74      FF1F2DE2 
  75 0293 5244EFDE 		.ascii	"RD\357\336_i7\201\235R9sgwV\312\317\"Z\015\020d4\333"
  75      5F693781 
  75      9D523973 
  75      677756CA 
  75      CF225A0D 
  76 02ab A5CB4DD7 		.ascii	"\245\313M\327:J\021{8G\345\360\272pz_\302\344\037\313"
  76      3A4A117B 
  76      3847E5F0 
  76      BA707A5F 
  76      C2E41FCB 
  77 02bf F0B88C80 		.ascii	"\360\270\214\200=\011=\327\305*\037\035\363p\236>^\205"
  77      3D093DD7 
  77      C52A1F1D 
  77      F3709E3E 
  77      5E85
  78 02d1 B1BD2D06 		.ascii	"\261\275-\006\032\317 \006\243:\241^\375\252^qSu\033"
  78      1ACF2006 
  78      A33AA15E 
  78      FDAA5E71 
  78      53751B
  79 02e4 E8D2B474 		.ascii	"\350\322\264t\015\214\221\020e\350}\336]c\2704Q\320"
  79      0D8C9110 
  79      65E87DDE 
  79      5D63B834 
  79      51D0
  80 02f6 2B780CE8 		.ascii	"+x\014\3507O\224-\"\263\372\252\230\313\341\373\204"
ARM GAS  /tmp/ccoaoEYU.s 			page 6


  80      374F942D 
  80      22B3FAAA 
  80      98CBE1FB 
  80      84
  81 0307 3B383C58 		.ascii	";8<X3)\340FW\335e\334\300&]\224\273\3758\311\253\331"
  81      3329E046 
  81      57DD65DC 
  81      C0265D94 
  81      BBFD38C9 
  82 031d C56AE5C5 		.ascii	"\305j\345\305\232\006\017\3477B7\036\225}\253=\212\314"
  82      9A060FE7 
  82      3742371E 
  82      957DAB3D 
  82      8ACC
  83 032f F7F64D0B 		.ascii	"\367\366M\013\033a\227oZdL\036.\006\030\205\200W?\033"
  83      1B61976F 
  83      5A644C1E 
  83      2E061885 
  83      80573F1B 
  84 0343 28A30731 		.ascii	"(\243\0071>\227\313\022\211\244\376\345\323\271|\262"
  84      3E97CB12 
  84      89A4FEE5 
  84      D3B97CB2 
  85 0353 339FCC6D 		.ascii	"3\237\314m\353\352t\323\372\223\227-\271\364\366\256"
  85      EBEA74D3 
  85      FA93972D 
  85      B9F4F6AE 
  86 0363 74879BDE 		.ascii	"t\207\233\336\262t\351\212\204\013\"\377\023zV6\227"
  86      B274E98A 
  86      840B22FF 
  86      137A5636 
  86      97
  87 0374 591840B7 		.ascii	"Y\030@\267\345\030\350u\270\355]\255\351\244\333\226"
  87      E518E875 
  87      B8ED5DAD 
  87      E9A4DB96 
  88 0384 6FEB4CA7 		.ascii	"o\353L\247Zs\2116h\372\252\017\021\220\335Y\263v\335"
  88      5A738936 
  88      68FAAA0F 
  88      1190DD59 
  88      B376DD
  89 0397 7A887B1D 		.ascii	"z\210{\035?\247\332\275\326f\263\025\374\003\271r\232"
  89      3FA7DABD 
  89      D666B315 
  89      FC03B972 
  89      9A
  90 03a8 36       		.ascii	"6"
  91              		.text
  92              		.section	.gnu.lto_msg_thread1.b304f0a7e3315865,"",%progbits
  93 0000 789C6362 		.ascii	"x\234cb`b@\007\222@,\304\310\300`\014\244\031\231\031"
  93      60624007 
  93      92402CC4 
  93      C8C0600C 
  93      A4199919 
  94 0014 1899269C 		.ascii	"\030\231&\234c`h\344`bd\0041\030\030\031\352\231\030"
  94      636068E4 
  94      60626404 
ARM GAS  /tmp/ccoaoEYU.s 			page 7


  94      31181819 
  94      EA9918
  95 0027 EB2319C1 		.ascii	"\353#\031\301j\3273\035x\360\377\377\272+[\037U0\262"
  95      6AD7331D 
  95      78F0FFFF 
  95      BA2B5B1F 
  95      5530B2
  96 003a 3331E682 		.ascii	"31\346\202EY\031Z\032\032&(00$\203\271!@\022\2443\224"
  96      4559195A 
  96      1A1A2628 
  96      30302483 
  96      B9214012 
  97 0051 91094433 		.ascii	"\221\011D3\237gh}\360\306\"\221q!#+P\266\232\341WCG"
  97      9F67687D 
  97      F0C62291 
  97      7121232B 
  97      50B69AE1 
  98 0068 83402623 		.ascii	"\203@&#P5\304\314tF\246\010\306LFFG\206L\240\016\006"
  98      5035C4CC 
  98      7446A608 
  98      C64C4646 
  98      47864CA0 
  99 007e A0F205B9 		.ascii	"\240\362\005\271\204U;!T\347\021V\355\214P\235OX\265"
  99      84553B21 
  99      54E71156 
  99      ED8C509D 
  99      4F58B5
 100 0091 0B44F545 		.ascii	"\013D\365E\206\306\007?\230`\312! \004\250\024\350)"
 100      86C6073F 
 100      9860CA21 
 100      2004A814 
 100      E829
 101 00a3 50281AEA 		.ascii	"P(\032\352\351\351CPIjq\211~Q\211~q~iQr*\204\013\"\342"
 101      E9E94350 
 101      496A7189 
 101      7E51897E 
 101      717E6951 
 102 00bd 8B530B4B 		.ascii	"\213S\013KS\363\222S\343\015\014\314\365\222\031\000"
 102      53F39253 
 102      E30D0CCC 
 102      F5921900 
 103 00cd 7CCE4F65 		.ascii	"|\316Oe"
 104              		.text
 105              		.section	.gnu.lto_.symbol_nodes.b304f0a7e3315865,"",%progbits
 106 0000 789C4DCA 		.ascii	"x\234M\312\311\015\3020\024\204\341\031/\020\326\026"
 106      C90DC230 
 106      1484E119 
 106      2F10D616 
 107 0010 A88D4678 		.ascii	"\250\215Fx\221\220@\300\205\002\270\271\224\334i\200"
 107      919040C0 
 107      8502B8B9 
 107      94DC6980 
 108 0020 2DC16193 		.ascii	"-\301a\223(\001!l\021a|\371\374\353\215\202\302\013"
 108      2801216C 
 108      11617CF9 
 108      FCEB8D82 
 108      C20B
ARM GAS  /tmp/ccoaoEYU.s 			page 8


 109 0032 CD537B0A 		.ascii	"\315S{\012\261\336\002\"\233\305\330\236\030~\260%\031"
 109      B1DE0222 
 109      9BC5D89E 
 109      187EB025 
 109      19
 110 0043 795005D4 		.ascii	"yP\005\324\216\202\277\315\231:\036\21746p\2405\242"
 110      8E82BFCD 
 110      993A1E8F 
 110      343670A0 
 110      35A2
 111 0055 79A3A8EF 		.ascii	"y\243\250\357&\317\311+E\247\272PL\252\232bSyJ+UEi\247"
 111      26CFC92B 
 111      45A7BA50 
 111      4CAA9A62 
 111      53794A2B 
 112 006d BA53B25F 		.ascii	"\272S\262_i\014\340\252w\260\0177\253'\032=\370y\264"
 112      690CE0AA 
 112      77B00F37 
 112      AB271A3D 
 112      F879B4
 113 0080 0BB78C76 		.ascii	"\013\267\214vP\254\236#\215\014>j\206\230\226a\037t"
 113      50AC9E23 
 113      8D0C3E6A 
 113      86989661 
 113      1F74
 114 0092 8D45A30F 		.ascii	"\215E\243\017\342\003\201\272L%"
 114      E20381BA 
 114      4C25
 115              		.text
 116              		.section	.gnu.lto_.refs.b304f0a7e3315865,"",%progbits
 117 0000 789C6362 		.ascii	"x\234cb`b\020g\200\0006\006FF \227\231\211\205\221\225"
 117      60621067 
 117      80003606 
 117      46462097 
 117      99898591 
 118 0015 9191918D 		.ascii	"\221\221\221\215\211\235\221\235\211\201\001\000\005"
 118      899D919D 
 118      89810100 
 118      05
 119 0022 C70051   		.ascii	"\307\000Q"
 120              		.text
 121              		.section	.gnu.lto_.decls.b304f0a7e3315865,"",%progbits
 122 0000 789CAD5B 		.ascii	"x\234\255[yp\024Wz\177\3353\243\231A\342\362\032\027"
 122      79701457 
 122      7A7FDD33 
 122      A39941E2 
 122      F21A17
 123 0013 5439B69C 		.ascii	"T9\266\234x\023\333UF(ql\262\251\330\330d\213\244*l"
 123      7813DB55 
 123      4628716C 
 123      B2A9D8D8 
 123      648BA42A 
 124 0028 6D2DD98A 		.ascii	"m-\331\212\253\266vg\233Q#M,\315\314\366\264\020$\177"
 124      ABB67667 
 124      9B51234D 
 124      2CCDCCF6 
 124      B410247F 
ARM GAS  /tmp/ccoaoEYU.s 			page 9


 125 003c B81120CB 		.ascii	"\270\021 \313\340\265%\201\215\270,\0110\010-\307r\231"
 125      E0B52581 
 125      8DB82C09 
 125      30082DC7 
 125      7299
 126 004e CBA0F13A 		.ascii	"\313\240\361:\010\031\261\022\022\030,0B\306\010\343"
 126      0819B112 
 126      12182C30 
 126      42C608E3 
 127 005e 83986561 		.ascii	"\203\230ea\261Y@\371\336\321=}\316tC\272\364\236\272"
 127      B15940F9 
 127      DED13D7D 
 127      CE7443BA 
 127      F49EBA
 128 0071 7BDEF77B 		.ascii	"{\336\367{\337\375\256\031\036\361h'\207\3200\\\261"
 128      DFFDAE19 
 128      1EF16827 
 128      87D0305C 
 128      B1
 129 0082 7F446820 		.ascii	"\177Dh \017!\037B\350Y(A(-P\326@\331\000\245\025J\000"
 129      0F211F42 
 129      E8592841 
 129      282D50D6 
 129      40D900A5 
 130 0099 4A1B942D 		.ascii	"J\033\224-\210^a(;\241\354\205r\000J'\224#P\272\241"
 130      885E6128 
 130      3BA1EC85 
 130      72004A27 
 130      942350BA 
 131 00ae A4007736 		.ascii	"\244\000w6\224\005P\000\026\275\012\377\027C\251\203"
 131      94055000 
 131      16BD0AFF 
 131      1743A983 
 132 00be D20FE513 		.ascii	"\322\017\345\023(\3278d\2700\316_C\351\2052\012J\001"
 132      28D73864 
 132      B830CE5F 
 132      43E98532 
 132      0A4A01
 133 00d1 EBF339C6 		.ascii	"\353\3639\306\017\306Y\013e\210\361p\033\350\177\015"
 133      0FC6590B 
 133      6588F170 
 133      1BE87F0D 
 134 00e1 E5352877 		.ascii	"\3455(w\240\370\341]#\374\257\3072A\351\303\240<\345"
 134      A0F8E15D 
 134      23FCAFC7 
 134      3241E9C3 
 134      A03CE5
 135 00f4 B90A9E4F 		.ascii	"\271\012\236OC\341\340\231\207\"\303\275\017\376\367"
 135      43E1E099 
 135      8722C3BD 
 135      0FFEF7
 136 0103 C0677EF8 		.ascii	"\300g~\370\337\005\377/\302\273}\270O\336*\373ADu\263"
 136      DF05FF2F 
 136      C2BB7DB8 
 136      4FDE2AFB 
 136      414475B3 
 137 0117 0CDAAC85 		.ascii	"\014\332\254\205r\001\356G0\236\363\240\375\010\236"
ARM GAS  /tmp/ccoaoEYU.s 			page 10


 137      7201EE47 
 137      309EF3A0 
 137      FD089E
 138 0126 CABB93C9 		.ascii	"\312\273\223\311\336\315t\321\311t\023\260\321\301H"
 138      DECD74D1 
 138      C97413B0 
 138      D1C148
 139 0135 DE28FF4E 		.ascii	"\336(\377N\326\307(\236\312\267\220\351\207g\237a]\342"
 139      D6C7289E 
 139      CAB790E9 
 139      87679F61 
 139      5DE2
 140 0147 57EF1AC9 		.ascii	"W\357\032\311P>Z\244(\325Js\215\362/\235\243\306\242"
 140      503E5AA4 
 140      28D54A73 
 140      8DF22F9D 
 140      A3C6A2
 141 015a 3A05AEC2 		.ascii	":\005\256\302\306QaT\213_\017\276\243\214\037\217\320"
 141      C6516154 
 141      8B5F0FBE 
 141      A38C1F8F 
 141      D0
 142 016b 8B9CC0C1 		.ascii	"\213\234\300\301\253\020\271)\010\023\240\357\243u\320"
 142      AB10B929 
 142      0813A0EF 
 142      A375D0
 143 017a 14DAF302 		.ascii	"\024\332\363\002\267\226\013CG\274\311$\352E?\307\027"
 143      B7960B43 
 143      47BCC924 
 143      EA453FC7 
 143      17
 144 018b 26A7F7EA 		.ascii	"&\247\367\352\035V5C\177LE\0170\2525\334X\346*\265\230"
 144      1D563543 
 144      7F4C450F 
 144      30AA35DC 
 144      58E62AB5 
 145 01a0 2BCA2269 		.ascii	"+\312\"i\301(\012U\012?\243X\257\353\247 \234\271\361"
 145      C1280A55 
 145      0A3FA358 
 145      AFEBA720 
 145      9CB9F1
 146 01b3 334E9CE8 		.ascii	"3N\234\350Z\270\374\034\372\240\3342\372ZN\005\030\313"
 146      5AB8FC1C 
 146      FAA0DC32 
 146      FA5A4E05 
 146      18CB
 147 01c5 005A3DB3 		.ascii	"\000Z=\263\272\321\201\32519X\335\340\300\352\003\350"
 147      BAD181D5 
 147      313958DD 
 147      E0C0EA03 
 147      E8
 148 01d6 4DD6B3C2 		.ascii	"M\326\263\302\311\002\367\3548G\204\337p\017\220;\037"
 148      C902F7EC 
 148      384784DF 
 148      700F903B 
 148      1F
 149 01e7 F10D78F1 		.ascii	"\361\015x\361\\>T?\365i\366r\"l\203\256\237@\033\251"
ARM GAS  /tmp/ccoaoEYU.s 			page 11


 149      5C3E543F 
 149      F569F672 
 149      226C83AE 
 149      9F401BA9 
 150 01fb D5CFDB18 		.ascii	"\325\317\333\030\333 \275=\016\361\232\272\301\003\353"
 150      DB20BD3D 
 150      0EF19ABA 
 150      C103EB
 151 020a 5EFB2745 		.ascii	"^\373'E\011\011\334\026\3429\3238\200\337\314=\341\031"
 151      0909DC16 
 151      E239D338 
 151      80DFCC3D 
 151      E119
 152 021c 677F474F 		.ascii	"g\177GO/W\015\"\013\3346\202\264\2113B\011\\^\330\350"
 152      2F570D22 
 152      0BDC3682 
 152      B4893342 
 152      095C5ED8 
 153 0231 8BF0AC36 		.ascii	"\213\360\2546\300x\360\210\373\372\026\3471\356e\366"
 153      C078F088 
 153      FBFA16E7 
 153      31EE65F6 
 154 0241 063F04D1 		.ascii	"\006?\004\321]\323=\214\336V\322W\006\373\027\357\032"
 154      5DD33D8C 
 154      DE56D257 
 154      06FB17EF 
 154      1A
 155 0252 BF5C492F 		.ascii	"\277\\I/P\206\207_fz\347!O\030\031|\024\255U\224\006"
 155      5086875F 
 155      667AE721 
 155      4F18197C 
 155      14AD5594 
 156 0267 65BBA284 		.ascii	"e\273\242\204\211%xt\225\264\330\311=l+8i\204p\256{"
 156      89257874 
 156      95B4D8C9 
 156      3D6C2B38 
 156      698470AE 
 157 027c 07F7AFB4 		.ascii	"\007\367\257\264*>bm\304h\014<\357\342\014Y\202\362"
 157      2A3E626D 
 157      C4680C3C 
 157      EFE20C59 
 157      82F2
 158 028e 95DEDBF1 		.ascii	"\225\336\333\361\372\004\245\271:=<\374\034r\3576\373"
 158      FA04A5B9 
 158      3A3D3CFC 
 158      1C72EF36 
 158      FB
 159 029f 98DB645C 		.ascii	"\230\333d\\\205\207$l\024\306\236\255\275f\266\366["
 159      8587246C 
 159      14C69EAD 
 159      BD66B6F6 
 159      5B
 160 02b0 D91AAC1B 		.ascii	"\331\032\254\033\334\321\367y5W?\277\271S\2712<<\332"
 160      DCD1F779 
 160      35573FBF 
 160      B953B932 
 160      3C3CDA
ARM GAS  /tmp/ccoaoEYU.s 			page 12


 161 02c3 C85908BD 		.ascii	"\310Y\010\275B\322\321Be\036\367\253\334\371\250\235"
 161      42D2D142 
 161      651EF7AB 
 161      DCF9A89D 
 162 02d3 0B0177EB 		.ascii	"\013\001w\353\235\023\022n\200\230%\351\275z\3079\373"
 162      9D13126E 
 162      809825E9 
 162      BD7AC739 
 162      FB
 163 02e4 FF4163E0 		.ascii	"\377Ac\340\030\302\317\220\037,\224\037d\202\326\216"
 163      18C2CF90 
 163      1F2C941F 
 163      6482D68E 
 164 02f4 584BB6E9 		.ascii	"XK\266\351\361\215\243\354\245\023\270u\334\367\335"
 164      F18DA3EC 
 164      A513B875 
 164      DCF7DD
 165 0303 66524BFF 		.ascii	"fRK\377\2072\375\033,H\214\270\2117\033\2216:lk\245"
 165      8732FD1B 
 165      2C488CB8 
 165      89371B91 
 165      363A6C6B 
 166 0318 374F5E10 		.ascii	"7O^\020\226+\277S\235z\037q\352\257\035 >\2647t\303"
 166      962BBF53 
 166      9D7A1F71 
 166      EAAF1D20 
 166      3EB43774 
 167 032d 378E86CE 		.ascii	"7\216\206\316\352\202]\346\314\205\3456Is\307\201\225"
 167      EA825DE6 
 167      CC85E536 
 167      4973C781 
 167      95
 168 033e DFDBB2F2 		.ascii	"\337\333\262\362\336\212\366\011J\213\327P\350\311\342"
 168      DE8AF609 
 168      4A8BD750 
 168      E8C9E2
 169 034d 08F7A17A 		.ascii	"\010\367\241z2d\350\022W\263_\005\370g\224\311\200g"
 169      3264E812 
 169      57B35F05 
 169      F86794C9 
 169      8067
 170 035f DA7F4032 		.ascii	"\332\177@2`\037w\037\300\034\367\031\331\316\011\303"
 170      601F771F 
 170      C01CF719 
 170      D9CE09C3 
 171 036f A34F08C9 		.ascii	"\243O\010\311G@N\011i\000\014\256n:[\315\315#)\021\177"
 171      47404E09 
 171      69000CAE 
 171      6E3A5BCD 
 171      CD232911 
 172 0384 866CB4C1 		.ascii	"\206l\264\301\256GP3\020\244o\034Y\305)\315\277\343"
 172      AE475033 
 172      10A46F1C 
 172      59C529CD 
 172      BFE3
 173 0396 6CBA9CA2 		.ascii	"l\272\234\242\366\030\3221\276\362D=\267\200\340\367"
 173      F618D231 
ARM GAS  /tmp/ccoaoEYU.s 			page 13


 173      BEF2443D 
 173      B780E0F7 
 174 03a6 13D65FF1 		.ascii	"\023\326_\361\333\262\336<\305\011\210G\313\010\311"
 174      DBB2DE3C 
 174      C5098847 
 174      CB08C9
 175 03b5 2716D6CF 		.ascii	"'\026\326\317\365\250\254\177\342\202\365\352t\357\242"
 175      F5A8AC7F 
 175      E282F5EA 
 175      74EFA2
 176 03c4 D51330EB 		.ascii	"\325\0230\353\002\327\313\341\324\331\252\341\332\231"
 176      02D7CBE1 
 176      D4D9AAE1 
 176      DA99
 177 03d2 4E1B6A11 		.ascii	"N\033j\021\322\0303\342\365\035)\250\023T\260\315\236"
 177      D21833E2 
 177      F51D29A8 
 177      1354B0CD 
 177      9E
 178 03e3 C10AED58 		.ascii	"\301\012\355XU\0350#\255\300\015\220X>\307=\002\365"
 178      551D3023 
 178      ADC00D90 
 178      583EC73D 
 178      02F5
 179 03f5 A7506B17 		.ascii	"\247Pk\027\217\266\373U\253\332\251.\267\010\337\035"
 179      8FB6FB55 
 179      ABDAA92E 
 179      B708DF1D 
 180 0405 594554C2 		.ascii	"YET\302r\212\233\261\270\231\215\305Cd\004\335\343\267"
 180      728A9BB1 
 180      B8998DC5 
 180      436404DD 
 180      E3B7
 181 0417 198C5D01 		.ascii	"\031\214]\001\355\2579\361\0076\030_\"Pi\277y0\016\232"
 181      EDAF39F1 
 181      0736185F 
 181      225069BF 
 181      79300E9A 
 182 042b 06E3A071 		.ascii	"\006\343\240qP\015\20637x,\035\215\2746\347\321\207"
 182      500D8633 
 182      37782C1D 
 182      8DBC36E7 
 182      D187
 183 043d 6605DA99 		.ascii	"f\005\332\231-\223\375M\012\304N8\320\300-\231\257t"
 183      2D93FD4D 
 183      0AC44E38 
 183      D0C02D99 
 183      AF74
 184 044f 4E521D39 		.ascii	"NR\0359\317In\036u\223\316.\233\035\371\306\305\316"
 184      CF496E1E 
 184      7593CE2E 
 184      9B1DF9C6 
 184      C5CE
 185 0461 C71B1565 		.ascii	"\307\033\025e\014\375(\267\037\357:\262\214\030-g&\341"
 185      0CFD28B7 
 185      1FEF3AB2 
 185      8C182D67 
ARM GAS  /tmp/ccoaoEYU.s 			page 14


 185      26E1
 186 0473 D5EE1F25 		.ascii	"\325\356\037%\335/\014\340\356\257\232\273?\376e\347"
 186      DD2F0CE0 
 186      EEAF9ABB 
 186      3FFE65E7 
 187 0483 CF68F757 		.ascii	"\317h\367W]u\277\367\324Rk\367\216\031\220Y\373\306"
 187      5D75BFF7 
 187      D4526BF7 
 187      8E199059 
 187      FBC6
 188 0495 C54B0F36 		.ascii	"\305K\0176\221N\376D\302\245=`6\366s\372AG\235gj\015"
 188      914EFE44 
 188      C2A53D60 
 188      36F673FA 
 188      41479D67 
 189 04ab 78D4A971 		.ascii	"x\324\251q\177W\321\012b^\372\371F\2308\275\232\247"
 189      7F57D10A 
 189      625EFAF9 
 189      469838BD 
 189      9AA7
 190 04bd F2D0E519 		.ascii	"\362\320\345\031\261\320\240\210\367N\221\370\247`\335"
 190      B1D0A088 
 190      F74E91F8 
 190      A760DD
 191 04cc 6EC01C1D 		.ascii	"n\300\034\035\251:}P\017\326\353\031\314\310\3311=\330"
 191      A93A7D50 
 191      0FD6EB19 
 191      CCC8D931 
 191      3DD8
 192 04de 09376063 		.ascii	"\0117`c\2349\353\323\203\235\362\014f\344\354\204\036"
 192      9C39EBD3 
 192      839DF20C 
 192      66E4EC84 
 192      1E
 193 04ef ECB41BB0 		.ascii	"\354\264\033\260\361\316\234\235\324\203\015x\0063r"
 193      F1CE9C9D 
 193      D4830D78 
 193      063372
 194 04fe F6B11EEC 		.ascii	"\366\261\036\354\274\033\260B\033\316\264\313i6\360"
 194      BC1BB042 
 194      1BCEB4CB 
 194      6936F0
 195 050d 87CCE48A 		.ascii	"\207\314\344\212GC\0015!x\364i\224\301\270\024\360\232"
 195      47430135 
 195      2178F469 
 195      94C1B814 
 195      F09A
 196 051f C10C7243 		.ascii	"\301\014rC\006;\267\206f0u(\373\332\015b\026\207\251"
 196      063BB786 
 196      66307528 
 196      FBDA0D62 
 196      1687A9
 197 0532 EBD28D8B 		.ascii	"\353\322\215\213W=\203\031\315\3626\005;D\300\276u\003"
 197      573D8319 
 197      CDF23605 
 197      3B44C0BE 
 197      7503
ARM GAS  /tmp/ccoaoEYU.s 			page 15


 198 0544 96C5618E 		.ascii	"\226\305a\216a0\273\311t\272F\251\345\346m{0\353\\\006"
 198      6130BBC9 
 198      74BA46A9 
 198      E5E66D7B 
 198      30EB5C06 
 199 0558 72D85FB4 		.ascii	"r\330_\264\221\034\266\224\307\003\326\355\200\355\330"
 199      911CB694 
 199      C703D6ED 
 199      80EDD8
 200 0567 E70A6B7F 		.ascii	"\347\012k\177\315\255\367\271\371d\364[F\300j\363\314"
 200      CDADF7B9 
 200      F964F45B 
 200      46C06AF3 
 200      CC
 201 0578 09316C1A 		.ascii	"\0111l\032\375\302\306\341,\034\316\334\014\253\227"
 201      FDC2C6E1 
 201      2C1CCEDC 
 201      0CAB97
 202 0587 7109E39A 		.ascii	"q\011\343\232\306\311Y\227\360:g\255\317\363\252|\263"
 202      C6C95997 
 202      F03A67AD 
 202      CFF3AA7C 
 202      B3
 203 0598 A3FDA981 		.ascii	"\243\375\251\201\373c\265\3228I\267]\344\264\202Qg\033"
 203      FB63B5D2 
 203      3849B75D 
 203      E4B48251 
 203      671B
 204 05aa D7BEF291 		.ascii	"\327\276\362\221\331\306*\242\244\306<[\215\273\000"
 204      D9C62AA2 
 204      A4C63C5B 
 204      8DBB00
 205 05b9 DA5FB3B9 		.ascii	"\332_\263\271\210\0005\021\240\026\213\2669\223\266"
 205      88003511 
 205      A0168BB6 
 205      3993B6
 206 05c8 39A3E6B4 		.ascii	"9\243\346\264\305\023[;yi\313\243\215f\325\031X\314"
 206      C5135B3B 
 206      7969CBA3 
 206      8D66D519 
 206      58CC
 207 05da 924E34D5 		.ascii	"\222N4\325\335\362\256\272+Lu\353\210\304[-\022cMx\023"
 207      DDF2AEBA 
 207      2B4C75EB 
 207      88C45B2D 
 207      12634D78 
 208 05ef 63B76731 		.ascii	"c\267g1BF1\232\206\275\213\361-\023c#\021\343\300\377"
 208      4246319A 
 208      86BD8BF1 
 208      2D136323 
 208      11E3C0FF 
 209 0603 8318873C 		.ascii	"\203\030\207<\2131F'\006Yx,\245\031\363{\250!\373\234"
 209      8B314627 
 209      0659782C 
 209      A519F37B 
 209      A821FB9C 
 210 0617 0FF3B385 		.ascii	"\017\363\263\205\377\236a\302\225\376\250\233+\244\257"
ARM GAS  /tmp/ccoaoEYU.s 			page 16


 210      FF9E61C2 
 210      95FEA89B 
 210      2BA4AF
 211 0626 732FB7FE 		.ascii	"s/\267\376\330\275\212\255Y\350\336\327\021\302;\246"
 211      D8BD8AAD 
 211      59E8DED7 
 211      11C23BA6 
 212 0636 BD9B5990 		.ascii	"\275\233Y\220\222\256\353!\351\224\202\365\336\023X"
 212      92AEEB21 
 212      E99482F5 
 212      DE1358
 213 0645 75BAE90D 		.ascii	"u\272\351\015uAE\266\242N\337#\334{=\346\354l\232b\366"
 213      754145B6 
 213      A24EDF23 
 213      DC7B3DE6 
 213      EC6C9A62 
 214 065a 39E41E6D 		.ascii	"9\344\036m\255\331\361>[Q\354\3411C\237Z\234\245\227"
 214      ADD9F13E 
 214      5B51ECE1 
 214      31439F5A 
 214      9CA597
 215 066d 33CD32F1 		.ascii	"3\3152\361\013]\023'\033\356\326'\302k\367f\003\360"
 215      0B5D1327 
 215      1BEED627 
 215      C26BF766 
 215      03F0
 216 067f 9FEB4BD4 		.ascii	"\237\353K\324\021\227\032\342\346=j\356;f\210\\+\202"
 216      11971AE2 
 216      E63D6AEE 
 216      3B66885C 
 216      2B82
 217 0691 5FAA5805 		.ascii	"_\252X\005D\220\352 \3566\315\233\026\004\3557\007k"
 217      4490EA20 
 217      EE36CD9B 
 217      1604ED37 
 217      076B
 218 06a3 981EF167 		.ascii	"\230\036\361g\271\235\364\314PXi(\240+|\201\373\214"
 218      B99DF4CC 
 218      50586928 
 218      A02B7C81 
 218      FB8C
 219 06b5 E319AADD 		.ascii	"\343\031\252\335\370\227\333E\007\304\316I\036\366\206"
 219      F897DB45 
 219      07C4CE49 
 219      1EF686
 220 06c4 77B2F5E8 		.ascii	"w\262\365\350!\232\346\202f\223o3gv\017[\263<\332\245"
 220      219AE682 
 220      66936F33 
 220      67760F5B 
 220      B33CDAA5 
 221 06d8 A9C8E3B4 		.ascii	"\251\310\343\264^\273\234\\\252]\357R{\203\367\344\000"
 221      5EBB9C5C 
 221      AA5DEF52 
 221      7B83F7E4 
 221      00
 222 06e9 E0521DEB 		.ascii	"\340R\035\353\250K\345r\001E;\215\030CzN\223\236\217"
 222      A84BE572 
ARM GAS  /tmp/ccoaoEYU.s 			page 17


 222      01453B8D 
 222      18437A4E 
 222      939E8F
 223 06fc 9A7D60C7 		.ascii	"\232}`\307\235\316W\330\346\312QW>p\335\306\007\216"
 223      9DCE57D8 
 223      E6CA5157 
 223      3E70DDC6 
 223      078E
 224 070e DEA50F80 		.ascii	"\336\245\017\200C\177\361!G\340\350$\362\013\215I\217"
 224      437FF121 
 224      47E0E824 
 224      F20B8D49 
 224      8F
 225 071f 566070B7 		.ascii	"V`p\267D\257\212\241\336\225\356\037\302\251\372\004"
 225      44AF8AA1 
 225      DE95EE1F 
 225      C2A9FA04 
 226 072f 8F77AEBE 		.ascii	"\217w\256\276\261\270\026\325\214\316\2652j\024\270"
 226      B1B816D5 
 226      8CCEB532 
 226      6A14B8
 227 073e 6E1EEFDA 		.ascii	"n\036\357\332\364\360x\327\346\030\251\373x\335\336"
 227      F4F078D7 
 227      E618A9FB 
 227      78DDDE
 228 074d 8D935B1C 		.ascii	"\215\223[\034\317\270\205\300\015\232\325\350vn\237"
 228      CFB885C0 
 228      0D9AD5E8 
 228      766E9F
 229 075c B39B2EBD 		.ascii	"\263\233.\275\367\335\270G\357[u\256\333\217\217.|\036"
 229      F7DDB847 
 229      EF5B75AE 
 229      DB8F8F2E 
 229      7C1E
 230 076e B69136B1 		.ascii	"\266\2216\261\260\355'a{\307\242\333K\346\260u\263\233"
 230      B0ED2761 
 230      7BC7A2DB 
 230      4BE6B075 
 230      B39B
 231 0780 B3287497 		.ascii	"\263(t\227\202h\027LsC.\246\271\2056:W\263{\323\311"
 231      8268174C 
 231      73432EA6 
 231      B985363A 
 231      57B37BD3 
 232 0795 A52E7784 		.ascii	"\245.w\204\264\315\335\243\363\330\036\3519\342iKB\366"
 232      B4CDDDA3 
 232      F3D81EE9 
 232      39E2694B 
 232      42F6
 233 07a7 7BA459B6 		.ascii	"{\244Y\266\226\326\020\222\363\3460^\335tT\335#=\357"
 233      96D61092 
 233      F3E6305E 
 233      DD7454DD 
 233      233DEF
 234 07ba 228CABD3 		.ascii	"\"\214\253\323;\014{\244\252\007\236\317\356\201Y5j"
 234      3B0C7BA4 
 234      AA079ECF 
ARM GAS  /tmp/ccoaoEYU.s 			page 18


 234      EE815935 
 234      6A
 235 07cb 30E2795D 		.ascii	"0\342y]\200"
 235      80
 236 07d0 5C200132 		.ascii	"\\ \0012\244\017\012\036mw\243\375\307\234\\\021\322"
 236      A40F0A1E 
 236      6D77A3FD 
 236      C79C5C11 
 236      D2
 237 07e1 501FDD9E 		.ascii	"P\037\335\236V\267\233\367\231\361\354\022\221\001O"
 237      56B79BF7 
 237      99F1EC12 
 237      91014F
 238 07f0 6F4D58CB 		.ascii	"oMX\313\036'\363%\352\245\037\270an\2223X\323\022U\271"
 238      1E27F325 
 238      EAA51FB8 
 238      616E9233 
 238      58D31255 
 239 0805 5D647E72 		.ascii	"]d~r\324\015\336d'a\253\323\273\217\253\223C\272\031"
 239      D40DDE64 
 239      2761ABD3 
 239      BB8FAB93 
 239      43BA19
 240 0818 7BC2339E 		.ascii	"{\3023\236\221\277\217\226\030\346sg\335\300Mqm\373"
 240      91BF8F96 
 240      18E67367 
 240      DDC04D71 
 240      6DFB
 241 082a CCD983C0 		.ascii	"\314\331\203\300\235\"[\332\037\223-\355\013\244\376"
 241      9D225BDA 
 241      1F932DED 
 241      0BA4FE
 242 0839 9AD4AF91 		.ascii	"\232\324\257\221D\371:\251\353H\335@\352\225\244^K\352"
 242      44F93AA9 
 242      EB48DD40 
 242      EA95A45E 
 242      4BEA
 243 084b 56526F26 		.ascii	"VRo&\365\000\251?'\365\027\244\376\212\324\227I\375"
 243      F500A93F 
 243      27F517A4 
 243      FE8AD497 
 243      49FD
 244 085d 8D9B846B 		.ascii	"\215\233\204k\232\001j\247E[h\0022\035\030}f\012MU\270"
 244      9A016AA7 
 244      455B6802 
 244      321D187D 
 244      660A4D55 
 245 0872 ABBCDD81 		.ascii	"\253\274\335\201\321\201\323\007\037\322\216\277L'F"
 245      D181D307 
 245      1FD28EBF 
 245      4C2746
 246 0881 B85F279E 		.ascii	"\270_'\236\256\361\326\323\323+\016=_\267\355\371\372"
 246      AEF1D6D3 
 246      D32B0E3D 
 246      5FB7EDF9 
 246      FA
 247 0892 86FE6757 		.ascii	"\206\376gWoW\026\274\252\334\031~\231\363\320\365\015"
ARM GAS  /tmp/ccoaoEYU.s 			page 19


 247      6F5716BC 
 247      AADC197E 
 247      99F3D0F5 
 247      0D
 248 08a3 DE7ADECF 		.ascii	"\336z\336\317\356\335g\367\333m\237\376`+\331)\271I"
 248      EEDD67F7 
 248      DB6D9FFE 
 248      602BD929 
 248      B949
 249 08b5 0267F108 		.ascii	"\002g\361\010sz\017\230\262{\300\230\335\003\341\314"
 249      737A0F98 
 249      B27BC098 
 249      DD03E1CC 
 250 08c5 4D666B5F 		.ascii	"Mfk_\343i\210\332\306\376h\025\237\234g\341\355\372"
 250      E36988DA 
 250      C6FE6815 
 250      9F9C67E1 
 250      EDFA
 251 08d7 86F7C7B7 		.ascii	"\206\367\307\267\022\336\206I\0206Xxk3/\022\332\214"
 251      12DE8649 
 251      10365878 
 251      6B332F12 
 251      DA8C
 252 08e9 2E62D28E 		.ascii	".b\322\216\325IV\214\2607\325|\237\255\223\25488\301"
 252      D549568C 
 252      B037D57C 
 252      9FAD93AC 
 252      3838C1
 253 08fc C949B664 		.ascii	"\311I\266d9&^\3503Y\012\2335\207\373nr\340\254\326\310"
 253      39265EE8 
 253      33590A9B 
 253      3587FB6E 
 253      72E0ACD6 
 254 0911 D95FA216 		.ascii	"\331_\242\026\245\271apG\303\271\006\256\001\037\275"
 254      A5B96170 
 254      47C3B906 
 254      AE011FBD 
 255 0921 2A69981C 		.ascii	"*i\230\034?L\314\301\243w5\020'\326\026e\3400\324o\361"
 255      3F4CCCC1 
 255      A3773510 
 255      27D61665 
 255      E030D46F 
 256 0936 41F0C03C 		.ascii	"A\360\300<n\211\242A\251\337\225\321\255\361\322\331"
 256      6E89A241 
 256      A9DF95D1 
 256      ADF1D2D9 
 257 0946 8E11AC27 		.ascii	"\216\021\254'\002\254U\2636m\273\237\274\316\000\023"
 257      02AC55B3 
 257      366DBB9F 
 257      BCCE0013 
 258 0956 02875690 		.ascii	"\002\207V\220c|\352\267q\326\353g\032\272G\230\033\233"
 258      637CEAB7 
 258      71D6EB67 
 258      1ABA4798 
 258      1B9B
 259 0968 05B5C2BC 		.ascii	"\005\265\302\274a\224\024\314\271\272\351\243\303\\"
 259      619414CC 
ARM GAS  /tmp/ccoaoEYU.s 			page 20


 259      B9BAE9A3 
 259      C35C
 260 0976 434652BB 		.ascii	"CFR\273\251fP\205I\"\335\352\365Z\013\333\021\254\367"
 260      A9665085 
 260      4922DDEA 
 260      F55A0BDB 
 260      11ACF7
 261 0989 E1A1EB83 		.ascii	"\341\241\353\203\021\266\263\000g \036\365\020\222\245"
 261      11B6B300 
 261      67201EF5 
 261      1092A5
 262 0998 3ECB2C60 		.ascii	">\313,`\240\206\315\002\360g\271'\363\365g\034\017y"
 262      A086CD02 
 262      F067B927 
 262      F3F5671C 
 262      0F79
 263 09aa 0735153C 		.ascii	"\0075\025<\250\343\375\314\251O\031\357\215\204\367"
 263      A8E3FDCC 
 263      A94F19EF 
 263      8D84F7
 264 09b9 FEDCBC1B 		.ascii	"\376\334\274\033\201xt\221\220\254\264\362~y!\343}\245"
 264      81787491 
 264      90ACB4F2 
 264      7E7921E3 
 264      7DA5
 265 09cb 2BDE779F 		.ascii	"+\336w\237\322\317\000\324\245\010\246\275\273\245\310"
 265      D2CF00D4 
 265      A508A6BD 
 265      BBA5C8
 266 09da 1E7A2E30 		.ascii	"\036z.0D\266\225\2762\203yZ\210(\352\221\021=\002\\"
 266      44B695BE 
 266      3283795A 
 266      8828EA91 
 266      113D025C 
 267 09ee CC7B052B 		.ascii	"\314{\005+4pv|\231q\256\366k7xY\366\355\331\331\014"
 267      3470767C 
 267      9971AEF6 
 267      6B377859 
 267      F6EDD9D9 
 268 0a03 057BC333 		.ascii	"\005{\3033\230\221\271\323\247t\207\000\3274\333f\001"
 268      9891B9D3 
 268      A7748700 
 268      D734DB66 
 268      01
 269 0a14 B3DBB7B7 		.ascii	"\263\333\267\267\273\364N\"p\253}x&\361\266\017\217"
 269      BBF44E22 
 269      70AB7D78 
 269      26F1B60F 
 269      8F
 270 0a25 F74DA46E 		.ascii	"\367M\244n&u\013\251\327\220z\255\3170\307\274\245E"
 270      26750BA9 
 270      D7907AAD 
 270      CF30C7BC 
 270      A545
 271 0a37 89AD2BE6 		.ascii	"\211\255+\346r\011%\275\3349<\014;,Zd\177>\217[H\\x"
 271      720925BD 
 271      DC393C0C 
ARM GAS  /tmp/ccoaoEYU.s 			page 21


 271      3B2C5A64 
 271      7F3E8F5B 
 272 0a4e 03898EEA 		.ascii	"\003\211\216\352\374\234\321a\332\251i$\024m\226\340"
 272      FC9CD161 
 272      DAA96924 
 272      146D96E0 
 273 0a5e 3877520D 		.ascii	"8wR\015\2166\027\301Q\235>\373\226\273\215\"c\242\323"
 273      8E3617C1 
 273      519D3EFB 
 273      96BB8D22 
 273      63A2D3
 274 0a71 A2FC82FA 		.ascii	"\242\374\202\372]\216\255D\216\255\271\3450\002\361"
 274      5D8EAD44 
 274      8EADB9E5 
 274      3002F1
 275 0a80 A89D906C 		.ascii	"\250\235\220l\267\012\322\241\012\262\335\225 \253\337"
 275      B70AD2A1 
 275      0AB2DD95 
 275      20ABDF
 276 0a8f 527D7F8B 		.ascii	"R}\177\213/\263N\331\236\335\303\034MZ\235~\373$\335"
 276      2FB34ED9 
 276      9EDDC31C 
 276      4D5A9D7E 
 276      FB24DD
 277 0aa2 172560E7 		.ascii	"\027%`\347=\203\031}\177\333\311U\343\225\346\367\325"
 277      3D83197D 
 277      7FDBC955 
 277      E395E6F7 
 277      D5
 278 0ab3 6F552835 		.ascii	"oU(5\312c\255\031\225\214Q\021x\275j\337}\202,\207\367"
 278      CA63AD19 
 278      958C5111 
 278      78BD6ADF 
 278      7D822C87 
 279 0ac8 F8F0FB63 		.ascii	"\370\360\373c&\305\272\007\332_\263{2\001\332O\200N"
 279      26C5BA07 
 279      DA5FB37B 
 279      3201DA4F 
 279      804E
 280 0ada E79B2737 		.ascii	"\347\233'7>\323\304\313g\234x\371\302\231\233\341a\037"
 280      3ED3C4CB 
 280      679C78F9 
 280      C2999BE1 
 280      611F
 281 0aec F2D618E6 		.ascii	"\362\326\030\346\307\232}\355\230\314\225 \361F\326"
 281      C79A7DED 
 281      98CC9520 
 281      F146D6
 282 0afb D1376D36 		.ascii	"\3217m6\262r\316\352\016\254\204\371\005\333\263\364"
 282      B272CEEA 
 282      0EAC84F9 
 282      05DBB3F4 
 283 0b0b 912D238B 		.ascii	"\221-#\213\344\271\246u<\272jf\336[B\006\346\177\377"
 283      E4B9A675 
 283      3CBA6A66 
 283      DE5B4206 
 283      E67FFF
ARM GAS  /tmp/ccoaoEYU.s 			page 22


 284 0b1e 8EBAB14B 		.ascii	"\216\272\261KVP7\334\000\332ed\273K\0376\002\267\223"
 284      565037DC 
 284      00DA6564 
 284      BB4B1F36 
 284      02B793
 285 0b31 E4BD5D24 		.ascii	"\344\275]$\277\275K\352\335\244n'\365\377\370\\\254"
 285      BFBD4BEA 
 285      DDA46E27 
 285      F5FFF85C 
 285      AC
 286 0b42 7CB0B36B 		.ascii	"|\260\263k\3304\200\332\356:\200\256X\003\310\013\230"
 286      D83480DA 
 286      EE3A80AE 
 286      5803C80B 
 286      98
 287 0b53 4191E9EB 		.ascii	"A\221\351\353,\200h<\010\334A\237\011\317\233W\245\227"
 287      2C80683C 
 287      08DC419F 
 287      09CF9B57 
 287      A597
 288 0b65 2E2B38F6 		.ascii	".+8\366K5\270\376\254\345R\267`\352\267\254m\215\322"
 288      4B35B8FE 
 288      ACE552B7 
 288      60EAB7AC 
 288      6D8DD2
 289 0b78 A633CA26 		.ascii	"\2463\312&b\224\315\304\004\035\244>L\352N\343\000\264"
 289      6294CDC4 
 289      041DA43E 
 289      4CEA4EE3 
 289      00B4
 290 0b8a A0C03400 		.ascii	"\240\3004\000\031\262\275\335p\250W\217\222\376\355"
 290      19B2BDDD 
 290      70A8578F 
 290      92FEED
 291 0b99 19D0B5FB 		.ascii	"\031\320\265\373\335\245\313\352\356\322Q\222\265\027"
 291      DDA5CBEA 
 291      EED25192 
 291      B517
 292 0ba7 1778DE5D 		.ascii	"\027x\336]ZAHz\254s\263;j\326\356\311\235\265\027\314"
 292      5A41487A 
 292      AC73B33B 
 292      6AD6EEC9 
 292      9DB517CC 
 293 0bbb 4F2F5FB1 		.ascii	"O/_\261>3\374\314\327b\273#\313*\347\220\376\373\022"
 293      3E33FCCC 
 293      D762BB23 
 293      CB2AE790 
 293      FEFB12
 294 0bce 6D1A1F1E 		.ascii	"m\032\037\036\235\324\336t=:\323\365\022\323\365\031"
 294      9DD4DE74 
 294      3D3AD3F5 
 294      12D3F519 
 295 0bde 0DB5D36C 		.ascii	"\015\265\323l(\217\273Q{\317\250sQ\372\275\315=f<\343"
 295      288FBB51 
 295      7BCFA873 
 295      51FABDCD 
 295      3D663CE3 
ARM GAS  /tmp/ccoaoEYU.s 			page 23


 296 0bf2 B734ED00 		.ascii	"\2674\355\000\013\263\011\260T'\300[D\200e\304\337\326"
 296      0BB309B0 
 296      5427C05B 
 296      448065C4 
 296      DFD6
 297 0c04 93BA8BD4 		.ascii	"\223\272\213\324'\215\"}\240Y\337v\015\201Q?6\256i\232"
 297      278D227D 
 297      A059DF76 
 297      0D81513F 
 297      36AE699A 
 298 0c18 61F5F6D6 		.ascii	"a\365\366\326@\213~M\243_d\3516\023\254\313\243\323"
 298      408B7E4D 
 298      A35F64E9 
 298      3613ACCB 
 298      A3D3
 299 0c2a D655168F 		.ascii	"\326U\026\217:\314,X\351\316\230\026\220\351\301\376"
 299      3ACC2C58 
 299      E9CE9816 
 299      90E9C1FE 
 300 0c3a C5375A60 		.ascii	"\3057Z`\001\251\230X\300\337\0335\254 Uo\006\257\314"
 300      01A99858 
 300      C0DF1B35 
 300      AC20556F 
 300      06AFCC
 301 0c4d B1B90FCB 		.ascii	"\261\271\017\313\333C\3050V\346<\013\200\344\010\272"
 301      DB43C530 
 301      56E63C0B 
 301      80E408BA 
 302 0c5d CDD98CEC 		.ascii	"\315\331\214\354o\232B$\375g\261\220\276\315=\245\271"
 302      6F9A4224 
 302      FD67B190 
 302      BECD3DA5 
 302      B9
 303 0c6e 7DBB939E 		.ascii	"}\273\223\236y\034\"\343R=\231\200\237\277\353\204<"
 303      791C22E3 
 303      523D9980 
 303      9FBFEB84 
 303      3C
 304 0c7f FC058133 		.ascii	"\374\005\2013\015\243\373\034\206Q\314\336E\237i<\354"
 304      0DA3FB1C 
 304      8651CCDE 
 304      459F693C 
 304      EC
 305 0c90 2686F2C2 		.ascii	"&\206\362\302B\241\201\205\272\0162&\\$\003\362\011"
 305      42A18185 
 305      BA0E3226 
 305      5C2403F2 
 305      09
 306 0ca1 37605972 		.ascii	"7`Yrx\203\036\354\254g\260BK\360\320\260\371\214\204"
 306      78831EEC 
 306      AC67B042 
 306      4BF0D0B0 
 306      F98C84
 307 0cb4 CD05122A 		.ascii	"\315\005\022*C\244\276D\352/\215a3T`\236NP\243\352\360"
 307      43A4BE44 
 307      EA2F8D61 
 307      3354609E 
ARM GAS  /tmp/ccoaoEYU.s 			page 24


 307      4E50A3EA 
 308 0cc9 32B647B9 		.ascii	"2\266G\271\021\355m`2\3269\007\3710\376e\237a6\223\201"
 308      11ED6D60 
 308      32D63907 
 308      F930FE65 
 308      9F613693 
 309 0cde 9C62145F 		.ascii	"\234b\024_\027'\224\310\276\231\300\375\257\317\353"
 309      172794C8 
 309      BE99C0FD 
 309      AFCFEB
 310 0ced 8F92BEF1 		.ascii	"\217\222\276\361\331\377(I\377\365\230L+\274\205i\016"
 310      D9FF2849 
 310      FFF5984C 
 310      2BBC8569 
 310      0E
 311 0cfe 7C0B1357 		.ascii	"|\013\023W \356\037B\325#W+\364\315Sh\207R\233\206\020"
 311      20EE1F42 
 311      D523572B 
 311      F4CD5368 
 311      87529B86 
 312 0d13 3A0BDC69 		.ascii	":\013\334in\361\337\350\246\322\250\014\366w\335(\246"
 312      6EF1DFE8 
 312      A6D2A80C 
 312      F677DD28 
 312      A6
 313 0d24 32E11C71 		.ascii	"2\341\034q\354Xz\333a\234na\026x\0072\004U\037\217V"
 313      EC587ADB 
 313      619C6E61 
 313      16780732 
 313      04551F8F 
 314 0d39 8D34273C 		.ascii	"\2154'<K\324^g\331\206\3666\205RR\023\322\256\322;\016"
 314      4BD45E67 
 314      D986F636 
 314      85525213 
 314      D2AED23B 
 315 0d4e 736E7EEA 		.ascii	"sn~\352\325\252A\217c\320\337y\326\352M\007\255\336"
 315      D5AA418F 
 315      63D0DF79 
 315      D6EA4D07 
 315      ADDE
 316 0d60 9FD57304 		.ascii	"\237\325s\004\356\333\214C<\2046\202\006\033\247d\272"
 316      EEDB8C43 
 316      3C843682 
 316      061BA764 
 316      BA
 317 0d71 A79E8829 		.ascii	"\247\236\210).\222f\324'\365\317_2ak\225\364\236\240"
 317      2E9266D4 
 317      27F5CF5F 
 317      32616B95 
 317      F49EA0
 318 0d84 9A0BF4BF 		.ascii	"\232\013\364\277\305a\375R\011U\35739l\300Y\254\333"
 318      C561FD52 
 318      0955EF33 
 318      396CC059 
 318      ACDB
 319 0d96 3EFB5FA2 		.ascii	">\373_\242\011\334k\031\323Z\250\3568R\325g\211\215"
 319      09DC6B19 
ARM GAS  /tmp/ccoaoEYU.s 			page 25


 319      D35AA8EE 
 319      3852D567 
 319      898D
 320 0da8 61472ABC 		.ascii	"aG*\274\273\355D\245\370\235\250Ng\341p\236#\325\265"
 320      BBED44A5 
 320      F89DA84E 
 320      67E1709E 
 320      23D5B5
 321 0dbb 2C7D553B 		.ascii	",}U;R\365dI\320\363\035\251\272\262P-p\244:\230\205"
 321      52F56449 
 321      D0F31DA9 
 321      BAB2502D 
 321      70A43A98 
 322 0dd0 6A61868A 		.ascii	"ja\206\212\375@\355\372\206\017\247o\305_\240\306G\012"
 322      FD40EDFA 
 322      860FA76F 
 322      C55FA0C6 
 322      470A
 323 0de2 F3163C6F 		.ascii	"\363\026<o\332\252\036\3122\211{\305o=\317h\037i\314"
 323      DAAA1ECA 
 323      32897BC5 
 323      6F3DCF68 
 323      1F69CC
 324 0df5 A8ECD760 		.ascii	"\250\354\327`\325\312\366V\374\3436\272\305/p5~\373"
 324      D5CAF656 
 324      FCE336BA 
 324      C52F7035 
 324      7EFB
 325 0e07 5FB631BC 		.ascii	"_\2661\274Z\277\335o\326\276\353[\305~\263\326\256<"
 325      5ABFDD6F 
 325      D6BEEB5B 
 325      C57EB3D6 
 325      AE3C
 326 0e19 12A2A6E0 		.ascii	"\022\242\246\340Qo\366\036\351w\203\004nQ\366\036\027"
 326      516FF61E 
 326      E9778304 
 326      6E51F61E 
 326      17
 327 0e2a 1B7BFC1B 		.ascii	"\033{\374\033\264\036O\205\373\273n\215]^\027\262|\303"
 327      B41E4F85 
 327      FBBB6E8D 
 327      5D5E17B2 
 327      7CC3
 328 0e3c C8A273BC 		.ascii	"\310\242s\274k\357\244\246\3273:G\376h\231 \345M\373"
 328      6BEFA4A6 
 328      D7333A47 
 328      FE689920 
 328      E54DFB
 329 0e4f D14F0BA7 		.ascii	"\321O\013\247\242\311\023'\026\321\277D\252(\232\250"
 329      A2C91327 
 329      16D1BF44 
 329      AA289AA8 
 330 0e5f A848C48B 		.ascii	"\250H\304\213\222\011IN\025=\377\223\351S\247\317\301"
 330      9209494E 
 330      153DFF93 
 330      E953A7CF 
 330      C1
ARM GAS  /tmp/ccoaoEYU.s 			page 26


 331 0e70 EF92B172 		.ascii	"\357\222\261rQJ\025M\233:\265(Z&\317M\212\251\211e("
 331      514A154D 
 331      9B3AB528 
 331      5A26CF4D 
 331      8AA98965 
 332 0e85 50912A8D 		.ascii	"P\221*\215\310\277(*KT\210E\011YN\024M\027\343rB\232"
 332      C8BF282A 
 332      4B548845 
 332      09594E14 
 332      4D17E372 
 333 0e9b 2609C9B2 		.ascii	"&\011\311\262X4U4#Q)EEindj\242D|A\214G\313\"\377\026"
 333      58345534 
 333      23512945 
 333      45696E64 
 333      6AA2447C 
 334 0eb6 93C5C8AC 		.ascii	"\223\305\310\254\204\024\001\354\310\017\237\177\341"
 334      841401EC 
 334      C80F9F7F 
 334      E1
 335 0ec3 5F8B04A9 		.ascii	"_\213\004\251\342\311x\".>)\0123cE\261x\264\274\262"
 335      E2C97822 
 335      2E3E290A 
 335      336345B1 
 335      78B4BCB2 
 336 0ed7 442C4AC9 		.ascii	"D,J\311%\261\270\014\235\004\341\337\337\375mD.\326"
 336      25B1B80C 
 336      9D04E1DF 
 336      DFFD6D44 
 336      2ED6
 337 0ee9 B894C594 		.ascii	"\270\224\305\224\\$\311E)\202N\037q\025I\211\277\252"
 337      5C24C945 
 337      29824E1F 
 337      71154989 
 337      BFAA
 338 0efb 844EC4C8 		.ascii	"\204N\304\310\244I\317L\214\242|\302^\231$\012%\305"
 338      A449CF4C 
 338      8CA27CC2 
 338      5E99240A 
 338      25C5
 339 0f0d 5CF27ED2 		.ascii	"\\\362~\322\004>\201R\034\021\347\210\321JY|\320\010"
 339      043E8152 
 339      1C11E788 
 339      D14A597C 
 339      D008
 340 0f1f 5A1E9B09 		.ascii	"Z\036\233\011\342E\360=\026/\362B\"Q>\216<F\204TJ\224"
 340      E245F03D 
 340      162FF242 
 340      22513E8E 
 340      3C468454 
 341 0f35 325D3C9E 		.ascii	"2]<\236\233\033)\221\300(c\311C\225\020\223\031/\251"
 341      9B1B2991 
 341      C02863C9 
 341      43951093 
 341      192FA9
 342 0f48 D1E48D58 		.ascii	"\321\344\215X\201\337$^\022\343\017\353\365\017H\252"
 342      81DF245E 
 342      12E30FEB 
ARM GAS  /tmp/ccoaoEYU.s 			page 27


 342      F50F48AA 
 343 0f58 0AA26520 		.ascii	"\012\242e \000 <\352\370yjnJ\265E\210\202G\3440\026"
 343      00203CEA 
 343      F8796A6E 
 343      4AB54588 
 343      8247E430 
 344 0f6d 80DC173A 		.ascii	"\200\334\027:\323E\313J\200f4c(\0022U\212\021y\214F"
 344      D345CB4A 
 344      80663463 
 344      28023255 
 344      8A11798C 
 345 0f82 CA5EF9E3 		.ascii	"\312^\371\343\342\034\331\237\224\304\331\001\362\034"
 345      E21CD99F 
 345      94C4D901 
 345      F21C
 346 0f90 9493522C 		.ascii	"\224\223R,\021\221C\225\314(~\374\\\200\235%"
 346      11914395 
 346      CC287EFC 
 346      5C809D25 
 347 0fa0 124DC465 		.ascii	"\022M\304eh\375xNg*\213&$\021z\317'd\000\024\225\347"
 347      68FD784E 
 347      672A8B26 
 347      24117ACF 
 347      27640014 
 348 0fb6 3CE98E2A 		.ascii	"<\351\216*2\373\231\012,\253$\226\202\327Dd^z\212\227"
 348      32FB990A 
 348      2CAB2496 
 348      82D74464 
 348      5E7A8A97 
 349 0fca FE9E979E 		.ascii	"\376\236\227\236\346\245gxi2/\375\203O*\236\004\245"
 349      E6A56778 
 349      69322FFD 
 349      834F2A9E 
 349      04A5
 350 0fdc 982F97F8 		.ascii	"\230/\227\370T\322\007\320\201\270X%J\201Dy\211(\371"
 350      54D207D0 
 350      81B85825 
 350      4A814479 
 350      8928F9
 351 0fef E3428538 		.ascii	"\343B\2058\"%\277$\224\307J\343L\216\247\237\212"
 351      2225BF24 
 351      94C74AE3 
 351      4C8EA79F 
 351      8A
 352 1000 C87955C2 		.ascii	"\310yU\302L!%\206\344\224,\200\177\312A\374\301\344"
 352      4C212586 
 352      E4942C80 
 352      7FCA41FC 
 352      C1E4
 353 1012 881C20CF 		.ascii	"\210\034 \317A\271\002\374\027\236f\225\013\245\251"
 353      41B902FC 
 353      179E6695 
 353      0BA5A9
 354 1021 A02C89B3 		.ascii	"\240,\211\263R ;\376\227'\225\314\005+\205\304919\012"
 354      52203BFE 
 354      972795CC 
 354      052B85C4 
ARM GAS  /tmp/ccoaoEYU.s 			page 28


 354      3931390A 
 355 1035 8DF2AAE4 		.ascii	"\215\362\252\344\304\314\377L\336\307\254\001MD\211"
 355      C4CCFF4C 
 355      DEC7AC01 
 355      4D4489
 356 1044 B8A41CA8 		.ascii	"\270\244\034\250\222e)\031LA\204\000A\001\250:%V@\234"
 356      92652919 
 356      4C418400 
 356      4101A83A 
 356      2556409C 
 357 1058 8058CE0E 		.ascii	"\200X\316\016\000M\260#F\343\340*>\250\001\036^%C@]"
 357      004DB023 
 357      46E3E02A 
 357      3EA8011E 
 357      5E254340 
 358 106d 01EE3B27 		.ascii	"\001\356;'\213\353\310s0e\242*.JA\322\026K)\303\353"
 358      8BEBC873 
 358      3065A22A 
 358      2E4A41D2 
 358      164B29C3 
 359 1082 64BE381B 		.ascii	"d\2768\0333!\244^\202Wb\025\276\341*G\251\206/\217\201"
 359      3321A45E 
 359      82576215 
 359      BEE12A47 
 359      A9862F8F 
 360 1097 73CAA375 		.ascii	"s\312\243u\256\200\337\004\261\003\307\342\245!\340"
 360      AE80DF04 
 360      B103C7E2 
 360      A521E0
 361 10a6 9DB84248 		.ascii	"\235\270BHL\212q\010\321\322 @\342\026`\024\241\034"
 361      4C8A7108 
 361      D1D22040 
 361      E2166014 
 361      A11C
 362 10b8 BB43A022 		.ascii	"\273C\240\"\011a\003\002NO\225\376D,\027A\257a\362\360"
 362      09610302 
 362      4E4F95FE 
 362      442C1741 
 362      AF61F2F0 
 363 10cc 1F00F157 		.ascii	"\037\000\361W\216\014\263\336\200\351\362{L(8\212K\243"
 363      8E0CB3DE 
 363      80E9F27B 
 363      4C28388A 
 363      4BA3
 364 10de 51536279 		.ascii	"QSbyj\342\344\211\305\372\364R\"\316\202\316\362R\261"
 364      6AE2E489 
 364      C5FAF452 
 364      22CE82CE 
 364      F252B1
 365 10f1 FFC20697 		.ascii	"\377\302\006\227gU\306\243\021yl\264\354\337\313J\246"
 365      6755C6A3 
 365      11796CB4 
 365      ECDFCB4A 
 365      A6
 366 1102 022BB238 		.ascii	"\002+\2628\003l\037\213R\336g\200\260a\232dd1\311W\011"
 366      036C1F8B 
 366      52DE6780 
ARM GAS  /tmp/ccoaoEYU.s 			page 29


 366      B0619A64 
 366      6431C957 
 367 1117 F9D88010 		.ascii	"\371\330\200\020~b\005\0159z_\200e\230\313t8\022^g\236"
 367      7E62050D 
 367      397A5F80 
 367      6598CB74 
 367      38125E67 
 368 112c 83D14A09 		.ascii	"\203\321J\011\\A\016H\370i\334\354\230$W\012\345\021"
 368      5C410E48 
 368      F869DCEC 
 368      9824570A 
 368      E511
 369 113e 39560189 		.ascii	"9V\001\211\225Q<\000\0246\037\2146\274\243qjx\025\306"
 369      95513C00 
 369      14361F8C 
 369      36BCA371 
 369      6A7815C6 
 370 1152 BDC30DF3 		.ascii	"\275\303\015\363\350\342\247\301\335J\304rY\010\315"
 370      E8E2A7C1 
 370      DD4AC472 
 370      5908CD
 371 1161 6672F9F1 		.ascii	"fr\371\361?_R\220B\345BJ\306m\363f\313\030{\024\023"
 371      3F5F5290 
 371      42E5424A 
 371      C66DF366 
 371      CB187B14 
 372 1176 A2449C59 		.ascii	"\242D\234YYJ\355\256\177\023N\012\361X4\002V\367\225"
 372      594AEDAE 
 372      7F134E0A 
 372      F1583402 
 372      56F795
 373 1189 CC2C1D51 		.ascii	"\314,\035Q!\000<1\024\037-\0132\223\005R\242\\\231\014"
 373      21003C31 
 373      141F2D0B 
 373      32930552 
 373      A25C990C 
 374 119d C9A22095 		.ascii	"\311\242 \225\200\277\005Yn\035\201\325\025\005\353"
 374      80BF0559 
 374      6E1D81D5 
 374      1505EB
 375 11ac 83562DE9 		.ascii	"\203V-\351y\302D)Q\"\310\302D\313'\005\372<=n\272\230"
 375      79C24429 
 375      5122C8C2 
 375      44CB2705 
 375      FA3C3D6E 
 376 11c2 4A09A562 		.ascii	"J\011\245b\252p\206(\315\026\245\302\362D\"\211\250"
 376      AA708628 
 376      CD16A5C2 
 376      F2442289 
 376      A8
 377 11d3 91A689F2 		.ascii	"\221\246\211\362\217\301\335\244\230<\367\305\221\352"
 377      8FC1DDA4 
 377      983CF7C5 
 377      91EA
 378 11e1 9B1962F9 		.ascii	"\233\031b\371\254\027\377\017\340c\206\262"
 378      AC17FF0F 
 378      E06386B2 
ARM GAS  /tmp/ccoaoEYU.s 			page 30


 379              		.text
 380              		.section	.gnu.lto_.symtab.b304f0a7e3315865,"",%progbits
 381 0000 74657374 		.ascii	"test_sequence_007\000\000\000\000\000\000\000\000\000"
 381      5F736571 
 381      75656E63 
 381      655F3030 
 381      37000000 
 382 001a 000000DC 		.ascii	"\000\000\000\334\001\000\000test_step\000\000\002\000"
 382      01000074 
 382      6573745F 
 382      73746570 
 382      00000200 
 383 002e 00000000 		.ascii	"\000\000\000\000\000\000\000\000\211\001\000\000wa\000"
 383      00000000 
 383      89010000 
 383      776100
 384 003d 00020000 		.ascii	"\000\002\000\000\000\000\000\000\000\000\000\213\001"
 384      00000000 
 384      0000008B 
 384      01
 385 004a 00006368 		.ascii	"\000\000ch\000\000\002\000\000\000\000\000\000\000\000"
 385      00000200 
 385      00000000 
 385      000000
 386 0059 00900100 		.ascii	"\000\220\001\000\000threads\000\000\002\000\000\000"
 386      00746872 
 386      65616473 
 386      00000200 
 386      0000
 387 006b 00000000 		.ascii	"\000\000\000\000\000\000\331\001\000\000_test_asser"
 387      0000D901 
 387      00005F74 
 387      6573745F 
 387      61737365 
 388 0080 745F7365 		.ascii	"t_sequence\000\000\002\000\000\000\000\000\000\000\000"
 388      7175656E 
 388      63650000 
 388      02000000 
 388      00000000 
 389 0095 00BD0000 		.ascii	"\000\275\000\000\000test_wait_threads\000\000\002\000"
 389      00746573 
 389      745F7761 
 389      69745F74 
 389      68726561 
 390 00af 00000000 		.ascii	"\000\000\000\000\000\000\000\000\310\000\000\000tes"
 390      00000000 
 390      C8000000 
 390      746573
 391 00be 745F656D 		.ascii	"t_emit_token\000\000\002\000\000\000\000\000\000\000"
 391      69745F74 
 391      6F6B656E 
 391      00000200 
 391      00000000 
 392 00d4 0000CA00 		.ascii	"\000\000\312\000\000\000chMsgRelease\000\000\002\000"
 392      00006368 
 392      4D736752 
 392      656C6561 
ARM GAS  /tmp/ccoaoEYU.s 			page 31


 392      73650000 
 393 00ea 00000000 		.ascii	"\000\000\000\000\000\000\000\000\316\000\000\000chM"
 393      00000000 
 393      CE000000 
 393      63684D
 394 00f9 73675761 		.ascii	"sgWait\000\000\002\000\000\000\000\000\000\000\000\000"
 394      69740000 
 394      02000000 
 394      00000000 
 394      0000
 395 010b 73010000 		.ascii	"s\001\000\000chThdCreateStatic\000\000\002\000\000\000"
 395      63685468 
 395      64437265 
 395      61746553 
 395      74617469 
 396 0126 00000000 		.ascii	"\000\000\000\000\000\000v\001\000\000chMsgSend\000\000"
 396      00007601 
 396      00006368 
 396      4D736753 
 396      656E6400 
 397 013b 02000000 		.ascii	"\002\000\000\000\000\000\000\000\000\000\204\001\000"
 397      00000000 
 397      00008401 
 397      00
 398 0148 00       		.ascii	"\000"
 399              		.text
 400              		.section	.gnu.lto_.opts,"",%progbits
 401 0000 272D6D63 		.ascii	"'-mcpu=cortex-m3' '-mno-thumb-interwork' '-mthumb' "
 401      70753D63 
 401      6F727465 
 401      782D6D33 
 401      2720272D 
 402 0033 272D6767 		.ascii	"'-ggdb' '-O2' '-fomit-frame-pointer' '-falign-funct"
 402      64622720 
 402      272D4F32 
 402      2720272D 
 402      666F6D69 
 403 0066 696F6E73 		.ascii	"ions=16' '-ffunction-sections' '-fdata-sections' '-"
 403      3D313627 
 403      20272D66 
 403      66756E63 
 403      74696F6E 
 404 0099 666E6F2D 		.ascii	"fno-common' '-flto'\000"
 404      636F6D6D 
 404      6F6E2720 
 404      272D666C 
 404      746F2700 
 405              		.text
 406              		.cfi_sections	.debug_frame
 407              		.section	.text.test_007_001_execute,"ax",%progbits
 408              		.align	2
 409              		.p2align 4,,15
 410              		.thumb
 411              		.thumb_func
 412              		.type	test_007_001_execute, %function
 413              	test_007_001_execute:
 414              	.LFB220:
ARM GAS  /tmp/ccoaoEYU.s 			page 32


 415              		.file 1 "../../../test/rt/source/test/test_sequence_007.c"
 416              		.loc 1 76 0
 417              		.cfi_startproc
 418              		@ args = 0, pretend = 0, frame = 0
 419              		@ frame_needed = 0, uses_anonymous_args = 0
 420 0000 30B5     		push	{r4, r5, lr}
 421              		.cfi_def_cfa_offset 12
 422              		.cfi_offset 4, -12
 423              		.cfi_offset 5, -8
 424              		.cfi_offset 14, -4
 425              	.LBB13:
 426              	.LBB14:
 427              	.LBB15:
 428              	.LBB16:
 429              		.file 2 "../../../os/rt/include/chthreads.h"
 430              		.loc 2 286 0
 431 0002 40F20003 		movw	r3, #:lower16:ch
 432 0006 C0F20003 		movt	r3, #:upper16:ch
 433 000a 9969     		ldr	r1, [r3, #24]
 434              	.LBE16:
 435              	.LBE15:
 436              	.LBE14:
 437              	.LBE13:
 438              		.loc 1 83 0
 439 000c 40F20003 		movw	r3, #:lower16:wa
 440 0010 8A68     		ldr	r2, [r1, #8]
 441 0012 C0F20003 		movt	r3, #:upper16:wa
 442              		.loc 1 81 0
 443 0016 40F20004 		movw	r4, #:lower16:test_step
 444 001a C0F20004 		movt	r4, #:upper16:test_step
 445              		.loc 1 76 0
 446 001e 83B0     		sub	sp, sp, #12
 447              		.cfi_def_cfa_offset 24
 448              		.loc 1 83 0
 449 0020 1868     		ldr	r0, [r3]
 450              		.loc 1 81 0
 451 0022 0125     		movs	r5, #1
 452              		.loc 1 83 0
 453 0024 40F20003 		movw	r3, #:lower16:msg_thread1
 454 0028 0091     		str	r1, [sp]
 455 002a 0132     		adds	r2, r2, #1
 456 002c C0F20003 		movt	r3, #:upper16:msg_thread1
 457              		.loc 1 81 0
 458 0030 2560     		str	r5, [r4]
 459              		.loc 1 83 0
 460 0032 4FF4A471 		mov	r1, #328
 461 0036 FFF7FEFF 		bl	chThdCreateStatic
 462              	.LVL0:
 463 003a 40F20003 		movw	r3, #:lower16:threads
 464 003e C0F20003 		movt	r3, #:upper16:threads
 465              		.loc 1 89 0
 466 0042 0222     		movs	r2, #2
 467 0044 2260     		str	r2, [r4]
 468              	.LVL1:
 469              		.loc 1 83 0
 470 0046 1860     		str	r0, [r3]
 471              		.loc 1 89 0
ARM GAS  /tmp/ccoaoEYU.s 			page 33


 472 0048 0424     		movs	r4, #4
 473              	.LVL2:
 474              	.L3:
 475              	.LBB17:
 476              		.loc 1 94 0 discriminator 2
 477 004a FFF7FEFF 		bl	chMsgWait
 478              	.LVL3:
 479              	.LBE17:
 480              		.loc 1 77 0 discriminator 2
 481 004e 456A     		ldr	r5, [r0, #36]
 482              	.LVL4:
 483              	.LBB18:
 484              		.loc 1 96 0 discriminator 2
 485 0050 2946     		mov	r1, r5
 486 0052 FFF7FEFF 		bl	chMsgRelease
 487              	.LVL5:
 488              		.loc 1 97 0 discriminator 2
 489 0056 E8B2     		uxtb	r0, r5
 490 0058 FFF7FEFF 		bl	test_emit_token
 491              	.LVL6:
 492              		.loc 1 93 0 discriminator 2
 493 005c 013C     		subs	r4, r4, #1
 494              	.LVL7:
 495 005e F4D1     		bne	.L3
 496              		.loc 1 99 0
 497 0060 FFF7FEFF 		bl	test_wait_threads
 498              	.LVL8:
 499              		.loc 1 100 0
 500 0064 40F20000 		movw	r0, #:lower16:.LC0
 501 0068 40F20001 		movw	r1, #:lower16:.LC1
 502 006c C0F20000 		movt	r0, #:upper16:.LC0
 503 0070 C0F20001 		movt	r1, #:upper16:.LC1
 504              	.LBE18:
 505              		.loc 1 102 0
 506 0074 03B0     		add	sp, sp, #12
 507              		@ sp needed
 508 0076 BDE83040 		pop	{r4, r5, lr}
 509              	.LVL9:
 510              	.LBB19:
 511              		.loc 1 100 0
 512 007a FFF7FEBF 		b	_test_assert_sequence
 513              	.LVL10:
 514              	.LBE19:
 515              		.cfi_endproc
 516              	.LFE220:
 517              		.size	test_007_001_execute, .-test_007_001_execute
 518 007e 00BF     		.section	.text.msg_thread1,"ax",%progbits
 519              		.align	2
 520              		.p2align 4,,15
 521              		.thumb
 522              		.thumb_func
 523              		.type	msg_thread1, %function
 524              	msg_thread1:
 525              	.LFB219:
 526              		.loc 1 50 0
 527              		.cfi_startproc
 528              		@ args = 0, pretend = 0, frame = 0
ARM GAS  /tmp/ccoaoEYU.s 			page 34


 529              		@ frame_needed = 0, uses_anonymous_args = 0
 530              	.LVL11:
 531 0000 10B5     		push	{r4, lr}
 532              		.cfi_def_cfa_offset 8
 533              		.cfi_offset 4, -8
 534              		.cfi_offset 14, -4
 535              		.loc 1 52 0
 536 0002 4121     		movs	r1, #65
 537              		.loc 1 50 0
 538 0004 0446     		mov	r4, r0
 539              		.loc 1 52 0
 540 0006 FFF7FEFF 		bl	chMsgSend
 541              	.LVL12:
 542              		.loc 1 53 0
 543 000a 2046     		mov	r0, r4
 544 000c 4221     		movs	r1, #66
 545 000e FFF7FEFF 		bl	chMsgSend
 546              	.LVL13:
 547              		.loc 1 54 0
 548 0012 2046     		mov	r0, r4
 549 0014 4321     		movs	r1, #67
 550 0016 FFF7FEFF 		bl	chMsgSend
 551              	.LVL14:
 552              		.loc 1 55 0
 553 001a 2046     		mov	r0, r4
 554 001c 4421     		movs	r1, #68
 555              		.loc 1 56 0
 556 001e BDE81040 		pop	{r4, lr}
 557              	.LVL15:
 558              		.loc 1 55 0
 559 0022 FFF7FEBF 		b	chMsgSend
 560              	.LVL16:
 561              		.cfi_endproc
 562              	.LFE219:
 563              		.size	msg_thread1, .-msg_thread1
 564              		.global	test_sequence_007
 565 0026 00BFAFF3 		.section	.rodata.test_007_001,"a",%progbits
 565      0080AFF3 
 565      0080
 566              		.align	2
 567              		.type	test_007_001, %object
 568              		.size	test_007_001, 16
 569              	test_007_001:
 570 0000 1C000000 		.word	.LC2
 571 0004 00000000 		.word	0
 572 0008 00000000 		.word	0
 573 000c 00000000 		.word	test_007_001_execute
 574              		.section	.rodata.test_sequence_007,"a",%progbits
 575              		.align	2
 576              		.type	test_sequence_007, %object
 577              		.size	test_sequence_007, 8
 578              	test_sequence_007:
 579 0000 00000000 		.word	test_007_001
 580 0004 00000000 		.word	0
 581              		.section	.rodata.str1.4,"aMS",%progbits,1
 582              		.align	2
 583              	.LC0:
ARM GAS  /tmp/ccoaoEYU.s 			page 35


 584 0000 41424344 		.ascii	"ABCD\000"
 584      00
 585 0005 000000   		.space	3
 586              	.LC1:
 587 0008 696E7661 		.ascii	"invalid sequence\000"
 587      6C696420 
 587      73657175 
 587      656E6365 
 587      00
 588 0019 000000   		.space	3
 589              	.LC2:
 590 001c 4D657373 		.ascii	"Messages Server loop\000"
 590      61676573 
 590      20536572 
 590      76657220 
 590      6C6F6F70 
 591 0031 000000   		.text
 592              	.Letext0:
 593              		.file 3 "/home/otto/MentorGraphics/Sourcery_CodeBench_Lite_for_ARM_EABI/lib/gcc/arm-none-eabi/4.8.
 594              		.file 4 "/home/otto/MentorGraphics/Sourcery_CodeBench_Lite_for_ARM_EABI/arm-none-eabi/include/stdi
 595              		.file 5 "../../../os/common/ports/ARMCMx/compilers/GCC/chtypes.h"
 596              		.file 6 "../../../os/rt/include/chsystypes.h"
 597              		.file 7 "../../../os/rt/include/chschd.h"
 598              		.file 8 "../../../os/common/ports/ARMCMx/chcore.h"
 599              		.file 9 "../../../os/common/ports/ARMCMx/chcore_v7m.h"
 600              		.file 10 "../../../os/rt/include/chsem.h"
 601              		.file 11 "../../../os/rt/include/chmtx.h"
 602              		.file 12 "../../../test/lib/ch_test.h"
 603              		.file 13 "../../../os/common/ext/CMSIS/include/core_cm3.h"
 604              		.file 14 "../../../test/rt/source/test/test_root.h"
 605              		.file 15 "../../../os/rt/include/chmsg.h"