ARM GAS  /tmp/ccTgQrGI.s 			page 1


   1              		.syntax unified
   2              		.cpu cortex-m3
   3              		.fpu softvfp
   4              		.eabi_attribute 20, 1
   5              		.eabi_attribute 21, 1
   6              		.eabi_attribute 23, 3
   7              		.eabi_attribute 24, 1
   8              		.eabi_attribute 25, 1
   9              		.eabi_attribute 26, 1
  10              		.eabi_attribute 30, 2
  11              		.eabi_attribute 34, 1
  12              		.eabi_attribute 18, 4
  13              		.thumb
  14              		.file	"test_sequence_011.c"
  15              		.text
  16              	.Ltext0:
  17              		.section	.gnu.lto_.jmpfuncs.108778a77f70d2a9,"",%progbits
  18 0000 789CC554 		.ascii	"x\234\305T\275N\3030\020>'\245\224\376\246E\252`\261"
  18      BD4EC330 
  18      103E27A5 
  18      94FEA645 
  18      AA60B1
  19 0013 BCF3046C 		.ascii	"\274\363\004l\314\354H\254&qS\213\304\211H@@\227\214"
  19      CCEC48AC 
  19      2671538B 
  19      C4894840 
  19      40978C
  20 0026 B03077E1 		.ascii	"\2600w\341\235x\014\236\241\003\305\211\003$\220\266"
  20      9D780C9E 
  20      A103C589 
  20      032490B6 
  21 0036 A912952C 		.ascii	"\251\022\225,\261\357\356\3739\237t\032hP\364=7\001"
  21      B1EFEEFB 
  21      399F741A 
  21      6850F43D 
  21      3701
  22 0048 5EE45F87 		.ascii	"^\344_\207\270@\233\301\"\232G\006G\200\001\275F\363"
  22      B8409BC1 
  22      229A4706 
  22      478001BD 
  22      46F3
  23 005a 338E5052 		.ascii	"3\216PR\247k\227\210\243\230#9\350\321\307r9\370\272"
  23      A76B9788 
  23      A3982339 
  23      E8D1C772 
  23      39F8BA
  24 006d B400D02F 		.ascii	"\264\000\320/|\003\303\221\302\357\245\3708\365\024"
  24      7C03C391 
  24      C2EFA5F8 
  24      38F514
  25 007c A7345751 		.ascii	"\2474WQ&\330\246\221!\371\021I y\306}\014'\212\261\245"
  25      26D8A691 
  25      21F91149 
  25      2079C67D 
  25      0C278AB1 
  26 0091 E0D9E401 		.ascii	"\340\331\344\001\206S\225l\257\222Ku:\360\327l\027\303"
  26      8653956C 
ARM GAS  /tmp/ccTgQrGI.s 			page 2


  26      AF924B75 
  26      3AF0D76C 
  26      17C3
  27 00a3 B942F7D6 		.ascii	"\271B\367\326\232\355\344\016[\266\233\353s\235\273"
  27      9AEDE40E 
  27      5BB69BEB 
  27      739DBB
  28 00b2 6A8DA135 		.ascii	"j\215\2415oM2\036r*}\014\027JePN\245\3448K\024U\356"
  28      6F4D321E 
  28      722A7D0C 
  28      174A6550 
  28      4EA5E438 
  29 00ca B602C1D6 		.ascii	"\266\002\301\326\331\015\366w\374\214\303:\237\261\326"
  29      D90DF677 
  29      FC8CC33A 
  29      9FB1D6
  30 00d9 A1EE66F2 		.ascii	"\241\356f\362\377lY\256H+\273\"\313'\015\0143\225\034"
  30      FF6C59AE 
  30      482BBB22 
  30      CB270D0C 
  30      33951C
  31 00ec AE6EB6A6 		.ascii	"\256n\266\246\235\272a\253\0273\350o\307\365\014\252"
  31      9DBA61AB 
  31      1733E86F 
  31      C7F50CAA 
  32 00fc 5128F11D 		.ascii	"Q(\361\035\031\271\312\210\222z\357\312\343\230:\216"
  32      19B9CA88 
  32      927AEFCA 
  32      E3983A8E 
  33 010c 67D2907B 		.ascii	"g\322\220{\202\010/$\023\312\035f\301(\023NC\275\200"
  33      82082F24 
  33      13CA1D66 
  33      C128134E 
  33      43BD80
  34 011f 3F32624E 		.ascii	"?2bN\251\260\345\315\2302\352\223\311\015\265]&B\031"
  34      A9B0E5CD 
  34      9832EA93 
  34      C90DB55D 
  34      264219
  35 0132 68C768E6 		.ascii	"h\307h\346\372\341\003\364\271\270\243\016\267H\020"
  35      FAE103F4 
  35      B9B8A30E 
  35      B74810
  36 0141 D290C1F8 		.ascii	"\322\220\301\370V\260{\237\231\262\212$(\025>ty\020"
  36      56B07B9F 
  36      99B28A24 
  36      28153E74 
  36      7910
  37 0153 70614B12 		.ascii	"paK\022\306\310\225\224\273\206OT\243RU"
  37      C6C89594 
  37      BB864F54 
  37      A35255
  38              		.text
  39              		.section	.gnu.lto_.inline.108778a77f70d2a9,"",%progbits
  40 0000 789C6362 		.ascii	"x\234cb`b\300\006\354\240\302\314\014\034\312V\214\014"
  40      6062C006 
  40      ECA0C2CC 
ARM GAS  /tmp/ccTgQrGI.s 			page 3


  40      0C1CCA56 
  40      8C0C
  41 0012 4C021702 		.ascii	"L\002\027\002\030\330\026\310\203EYx\031\030\230&\370"
  41      18D816C8 
  41      83455978 
  41      19189826 
  41      F8
  42 0023 31B0F281 		.ascii	"1\260\362\201\344\201ln\006\006\306\011~\350\302 >\210"
  42      E4816C6E 
  42      0606C609 
  42      7EE8C220 
  42      3E88
  43 0035 6616D8CA 		.ascii	"f\026\330\312\244\0074\242\217qM\004\206\031$\230\205"
  43      A40734A2 
  43      8F714D04 
  43      86192498 
  43      85
  44 0046 E043F561 		.ascii	"\340C\365aJ\300\365C)\354\332\341\252`\\\002\312p\270"
  44      4AC0F543 
  44      29ECDAE1 
  44      AA605C02 
  44      CA70B8
  45 0059 8948DDA4 		.ascii	"\211H\335\244Y\202C\023U5S\024\366X\370\014\354\374"
  45      59824313 
  45      55355314 
  45      F658F80C 
  45      ECFC
  46 006b 8CE06484 		.ascii	"\214\340d\204\034\271 \031\006\000\310\233*/"
  46      1CB92019 
  46      0600C89B 
  46      2A2F
  47              		.text
  48              		.section	.gnu.lto_.pureconst.108778a77f70d2a9,"",%progbits
  49 0000 789C6362 		.ascii	"x\234cb`b`g\200\000f\006\011f\011\026\011\000\001\305"
  49      60626067 
  49      80006606 
  49      09660916 
  49      090001C5 
  50 0014 005E     		.ascii	"\000^"
  51              		.text
  52              		.section	.gnu.lto_test_011_002_execute.108778a77f70d2a9,"",%progbits
  53 0000 789C9555 		.ascii	"x\234\225UML\023Q\020\236y\333m\013\266\026\371i\340"
  53      4D4C1351 
  53      109E79DB 
  53      6D0BB616 
  53      F969E0
  54 0013 4208470F 		.ascii	"B\010G\017\255MH<\342]\023/\220h<4\353\262\226\215\375"
  54      AD4D483C 
  54      E25D132F 
  54      90683C34 
  54      EBB2968D 
  55 0028 415A2E70 		.ascii	"AZ.p\340\321\026\303\301\030\302\0115\004H\203\236\004"
  55      E0D116C3 
  55      C118C209 
  55      35044883 
  55      9E04
  56 003a 0D176230 		.ascii	"\015\027b0lLL0\006\033\022\016^4\215\036\214A\243'\211"
ARM GAS  /tmp/ccTgQrGI.s 			page 4


  56      6C4C4C30 
  56      061B120E 
  56      5E348D1E 
  56      8C41A327 
  57 004f 68ACEFA7 		.ascii	"h\254\357\247\335\026\254\255n\332\3317\363\346\347"
  57      DD16ACAD 
  57      6EDAD937 
  57      F3E6E7
  58 005e 9B795F5F 		.ascii	"\233y__\011\0208\376\234g_\217\023`\225\275\321\005"
  58      091038FE 
  58      9C675F8F 
  58      136095BD 
  58      D105
  59 0070 48665F01 		.ascii	"Hf_\001L\271\011Q7\317\002mV\366\374@=\012Q\367\202"
  59      4CB90951 
  59      37CF026D 
  59      56F6FC40 
  59      3D0A51F7 
  60 0085 4C736C76 		.ascii	"Lslv3\315\201N\351\244\226\027ND\276\000\204I\2428T"
  60      33CD814E 
  60      E9A49617 
  60      4E44BE00 
  60      8449A238 
  61 009a 274E5E46 		.ascii	"'N^F\236\234\364\3022\265\346\012\323\337v\361\016\265"
  61      9E9CF4C2 
  61      32B5E60A 
  61      D3DF76F1 
  61      0EB5
  62 00ac B24BF467 		.ascii	"\262K\364g\261\210h\"\003\322\207\240#\\b\012\366\210"
  62      B1886822 
  62      03D287A0 
  62      235C620A 
  62      F688
  63 00be 17711C45 		.ascii	"\027q\034E&c\351\233\241m\232\265\212\305~\021\325\337"
  63      2663E99B 
  63      A16D9AB5 
  63      8AC57E11 
  63      D5DF
  64 00d0 286A8D58 		.ascii	"(j\215X\205b\361\323\367\302\273Cl\353t\201\211J\023"
  64      8562F1D3 
  64      F7C2BB43 
  64      6CEB7481 
  64      894A13
  65 00e3 175E2E7C 		.ascii	"\027^.|\\\2643\341\350\340\202\271\253\220\245t\266"
  65      5CB433E1 
  65      E8E082B9 
  65      AB90A574 
  65      B6
  66 00f4 87D7A273 		.ascii	"\207\327\242s\326b\376V\027]J\317\322_\014&s p\241Q"
  66      D662FE56 
  66      175D4ACF 
  66      D25F0C26 
  66      732070A1 
  67 0109 3D0D97B1 		.ascii	"=\015\227\261\227\311\034\223\300}\3313\300$\237\307"
  67      97C91C93 
  67      C07DD933 
  67      C0249FC7 
ARM GAS  /tmp/ccTgQrGI.s 			page 5


  68 0119 2012FE56 		.ascii	" \022\376Vv \2751\177\320\245\341\012\252p\017\356N"
  68      7620BD31 
  68      7FD0A5E1 
  68      0AAA700F 
  68      EE4E
  69 012b 51DA62A2 		.ascii	"Q\332b\242:\001\207t\206\257\2341\021\306\323;\241\274"
  69      3A018774 
  69      86AF9C31 
  69      11C6D33B 
  69      A1BC
  70 013d 52B92D0F 		.ascii	"R\271-\0177\013o\037\240\214\004\260#\\:\242\355\351"
  70      370B6F1F 
  70      A08C04B0 
  70      235C3AA2 
  70      EDE9
  71 014f 961BEC09 		.ascii	"\226\033\354\011\233\330T\006$\"&`\\\230r\025\223\211"
  71      9BD85406 
  71      24222660 
  71      5C987215 
  71      9389
  72 0161 CD002F20 		.ascii	"\315\000/ m\251\322Pj}!\177\273\272u7\201\213\215Z\227"
  72      6DA9D250 
  72      6A7D217F 
  72      BBBA7537 
  72      818B8D5A 
  73 0176 68ACADBC 		.ascii	"h\254\255\274\237\371\307\320F\311\263WP\327\316\317"
  73      9FF9C7D0 
  73      46C9B357 
  73      50D7CECF 
  74 0186 8E72B051 		.ascii	"\216r\260Q~n\203\0269\205\257Ork]\245\303*\237\232\365"
  74      7E6E8316 
  74      3985AF4F 
  74      726B5DA5 
  74      C32A9F9A 
  75 019b F24B46D1 		.ascii	"\362KF\321\360\221\350\355\241\230\277,\251\243\340"
  75      F091E8ED 
  75      A198BF2C 
  75      A9A3E0
  76 01aa 7904DBED 		.ascii	"y\004\333\355\201\235\320\221\271\256K|\322J\257\034"
  76      819DD091 
  76      B9AE4B7C 
  76      D24AAF1C 
  77 01ba 815DAA26 		.ascii	"\201]\252&F\357fS\362\310)u\312m\015\357\213\002\000"
  77      46EF6653 
  77      F2C82975 
  77      CA6D0DEF 
  77      8B0200
  78 01cd 3B90799D 		.ascii	";\220y\235\311-\226\246\027A\027+\303\203\004\370<\330"
  78      C92D96A6 
  78      1741172B 
  78      C38304F8 
  78      3CD8
  79 01df F626BBB6 		.ascii	"\366&\273\266W\227\233\334\231\033;M<\331\015\323\270"
  79      57979BDC 
  79      991B3B4D 
  79      3CD90DD3 
  79      B8
ARM GAS  /tmp/ccTgQrGI.s 			page 6


  80 01f0 40E7CF99 		.ascii	"@\347\317\231\350\253\034\014\353u\033\262\237\320N"
  80      E8AB1C0C 
  80      EB751BB2 
  80      9FD04E
  81 01ff C1F32AD5 		.ascii	"\301\363*\325#\031d\352\236_\311C\266\360\361\203\353"
  81      231964EA 
  81      9E5FC943 
  81      B6F0F183 
  81      EB
  82 0210 0F5A9CD2 		.ascii	"\017Z\234\322e\203\274u\023[9\330\364\306\306\217\377"
  82      6583BC75 
  82      135B39D8 
  82      F4C6C68F 
  82      FF
  83 0221 651E1167 		.ascii	"e\036\021gH\352\362C\303U6\345\306\007\350.\023\342"
  83      48EAF243 
  83      C35536E5 
  83      C607E82E 
  83      13E2
  84 0233 73A42E1F 		.ascii	"s\244.\0374|\374O\371T\036\340\253G\212\003N\212\247"
  84      347CFC4F 
  84      F9541EE0 
  84      AB478A03 
  84      4E8AA7
  85 0246 82149BB5 		.ascii	"\202\024\233\265H\321q\214\024[rf%\260U5\216R\201\324"
  85      48D1718C 
  85      145B7266 
  85      25B05535 
  85      8E5281D4 
  86 025a 20423EF3 		.ascii	" B>\363\276B\004/K]\213\010\276ZD\360\226\210\320\326"
  86      BE42042F 
  86      4B5D8B08 
  86      BE5A44F0 
  86      9688D0D6 
  87 026e 0DF32522 		.ascii	"\015\363%\"\264\377\235\010\276\032Dp\300\276\233\335"
  87      B4FF9D08 
  87      BE1A4470 
  87      C0BE9BDD 
  88 027e 2CCFF66D 		.ascii	",\317\366m`\374w\337\007\353t\206\317S\000\254\332\314"
  88      60FC77DF 
  88      07EB7486 
  88      CF5300AC 
  88      DACC
  89 0290 1DDB9449 		.ascii	"\035\333\224ITXy\016\"\313\314!\326\311s\275~\032\247"
  89      5458790E 
  89      22CBCC21 
  89      D6C973BD 
  89      7E1AA7
  90 02a3 B8E676D9 		.ascii	"\270\346v\331?A\005\341\000\273\241\230\225\017=\024"
  90      3F4105E1 
  90      00BBA198 
  90      950F3D14 
  91 02b3 0804E527 		.ascii	"\010\004\345'e$S\301\321T0\231\030\033\325\015\251r"
  91      652453C1 
  91      D1543099 
  91      181BD50D 
  91      A972
ARM GAS  /tmp/ccTgQrGI.s 			page 7


  92 02c5 114E1A37 		.ascii	"\021N\0327\306\214\270n\204\317\204B\001\035\232S\211"
  92      C68CB86E 
  92      84CF8442 
  92      011D9A53 
  92      89
  93 02d6 94160D27 		.ascii	"\224\026\015'\315q\303\023\325F#\302\205)d$\244\016"
  93      CD71C313 
  93      D54623C2 
  93      85296424 
  93      A40E
  94 02e8 1BDAC888 		.ascii	"\033\332\310\210\203k\247\355\274\211dPO\304b\2118["
  94      836BA7ED 
  94      BC896450 
  94      4FC46289 
  94      385B
  95 02fa 45CDAB41 		.ascii	"E\315\253A3\256G\307\206\214\240>\314\275\003\303\320"
  95      33AE47C7 
  95      868CA03E 
  95      CCBD03C3 
  95      D0
  96 030b AA45A309 		.ascii	"\252E\243\011]K\231\211x\3175\315\214\032C\340\2572"
  96      5D4B9989 
  96      78CF35CD 
  96      8C1A43E0 
  96      AF32
  97 031d C513A9B2 		.ascii	"\305\023\251\262\3717\316}\255\036"
  97      F937CE7D 
  97      AD1E
  98              		.text
  99              		.section	.gnu.lto_test_011_001_execute.108778a77f70d2a9,"",%progbits
 100 0000 789CCD5A 		.ascii	"x\234\315Z{lS\327\031?\347\332N\034\307\211\3634\011"
 100      7B6C53D7 
 100      193FE7DA 
 100      4E1CC789 
 100      F33409
 101 0013 63C6A265 		.ascii	"c\306\242eL\375#)/\255\332\0370\376*c\352@\010J\331"
 101      4CFD2329 
 101      2FADDA1F 
 101      30FE2A63 
 101      EA40084A 
 102 0028 3405C798 		.ascii	"4\005\307\230\304\220\330\001\033\264\005Qn\234@\241"
 102      C490D801 
 102      1BB40551 
 102      6E9C40A1 
 103 0038 49480809 		.ascii	"IH\010\011\024\012m B\351VuhE\024\012lK\253\015\222"
 103      140A6D20 
 103      42E95675 
 103      6845140A 
 103      6C4BAB0D 
 104 004d F0DA26D4 		.ascii	"\360\332&\324\202X5\257[K\031\014\250\272\261\226G\275"
 104      825835AF 
 104      5B4B190C 
 104      A8BAB196 
 104      47BD
 105 005f F37DF7D8 		.ascii	"\363}\367\3307\276\234\\\333\343\022\315\212\276{\277"
 105      37BE9C5C 
 105      DBE312CD 
ARM GAS  /tmp/ccTgQrGI.s 			page 8


 105      8ABE7BBF 
 106 006f 73CFF7B8 		.ascii	"s\317\367\270\277\357\345\353\033\211HD\373\371\011"
 106      BFEFE5EB 
 106      1B894844 
 106      FBF909
 107 007e 2564CF53 		.ascii	"%d\317S\204\374\220\035\351xB\245\316\363\2044Y%\251"
 107      84FC901D 
 107      E97842A5 
 107      CEF38434 
 107      5925A9
 108 0091 ECE47788 		.ascii	"\354\344w\210l3]t\022\331n\342\234\03193\347,\310Y\244"
 108      6C335D74 
 108      12D96EE2 
 108      9C193933 
 108      E72CC859 
 109 00a6 1CE4B290 		.ascii	"\034\344\262\220\313\342\\6r\331\234\263\"g\345r6\344"
 109      CBE25C36 
 109      72D99CB3 
 109      2267E572 
 109      36E4
 110 00b8 72689962 		.ascii	"rh\231b\312\306\227sq9\227sv\344\354\222\243\375[\214"
 110      CAC69773 
 110      71399773 
 110      76E4EC92 
 110      A3FD5B8C 
 111 00cc CB6BFE36 		.ascii	"\313k\3766\343\362\244\374\333\245\214s\364>\303\270"
 111      E3F2A4FC 
 111      DBA58C73 
 111      F43EC3B8 
 112 00dc 7CEA0005 		.ascii	"|\352\000\005\324\301%\012P\242\200s\205\310\025r\256"
 112      D4C1250A 
 112      50A28073 
 112      85C81572 
 112      AE
 113 00ed 08B922CE 		.ascii	"\010\271\"\316\025#W\314\271\022\344J8W\212\\)\347\234"
 113      152357CC 
 113      B912E44A 
 113      38578A5C 
 113      29E79C
 114 0100 C839A5B2 		.ascii	"\3109\245\262\213\225\214\033w\322\305\270q\264\\q\274"
 114      8B958C1B 
 114      77D2C5B8 
 114      71B45C71 
 114      BC
 115 0111 2C7E524E 		.ascii	",~RN)\234\020J6J&\263%+\333\232c\313\265\347\345;\012"
 115      299C104A 
 115      364A26B3 
 115      252BDB9A 
 115      63CBB5E7 
 116 0128 0A8B8A4B 		.ascii	"\012\213\212KJ\235\343\312\312\351\306\245\024\340\266"
 116      4A9DE3CA 
 116      CAE9C6A5 
 116      14E0B6
 117 0137 4D22FB65 		.ascii	"M\"\373e\271+\272\351\3005iw\367{-\275\362\375X\214"
 117      B92BBAE9 
 117      C0356977 
 117      F77B2DBD 
ARM GAS  /tmp/ccTgQrGI.s 			page 9


 117      F2FD588C 
 118 014b 523F65A1 		.ascii	"R?e\241\231A\211\227\222\027\030C\335x\220\314L\002"
 118      99418997 
 118      92171843 
 118      DD7890CC 
 118      4C02
 119 015d 0406BA06 		.ascii	"\004\006\272\006\266\277\324^.\367F:\345\257\331~?5"
 119      B6BFD45E 
 119      2EF7463A 
 119      E5AFD97E 
 119      3F35
 120 016f 49E419E1 		.ascii	"I\344\031\341v\321G\2619\260cxx?\225\273\344\246\333"
 120      76D147B1 
 120      39B06378 
 120      783F95BB 
 120      E4A6DB
 121 0182 B198032D 		.ascii	"\261\230\003-~7\225\012.\331=\334f\353l\332\"\307b\033"
 121      7E37950A 
 121      2ED93DDC 
 121      66EB6CDA 
 121      22C7621B 
 122 0196 516E569A 		.ascii	"QnV\232r;5r?HK\256s\340\3553#\344\314\022\371Q\232\366"
 122      723B3572 
 122      3F484BAE 
 122      73E0ED33 
 122      23E4CC12 
 123 01ae 8E9F4FB6 		.ascii	"\216\237O\266W\235J\316C\373\350\244\004\304\247\267"
 123      579D4ACE 
 123      43FBE8A4 
 123      04C4A7B7 
 124 01be 6920AE49 		.ascii	"i \256I\307.\223|\360\222Vrez\222\362\347\313\007\345"
 124      C72E937C 
 124      F0925672 
 124      657A92F2 
 124      E7CB07E5 
 125 01d2 9681586C 		.ascii	"\226\201Xl6J\255M%uH\032\210\306b7\216F?~\235\026\367"
 125      364AAD4D 
 125      2575481A 
 125      88C66237 
 125      8E463F7E 
 126 01e9 53CA6EE0 		.ascii	"S\312n\340Mv\0039\204\335\256\215\021\213\035\210\003"
 126      4D760339 
 126      84DDAE8D 
 126      118B1D88 
 126      03
 127 01fa 48219012 		.ascii	"H!\220\022 N \343\331\326\375l\353\004`\\@&\262\225"
 127      204E20E3 
 127      D9D6FD6C 
 127      EB04605C 
 127      4026B295 
 128 020e 7EB6E206 		.ascii	"~\266\342\006f\022\220'\370\312\223\354\370sv\234\014"
 128      66129027 
 128      F8CA93EC 
 128      F873769C 
 128      0C
 129 021f 8B53804C 		.ascii	"\213S\200L\003\003\323\341l&\220Y\300\316\206\2639@"
 129      0303D3E1 
ARM GAS  /tmp/ccTgQrGI.s 			page 10


 129      6C269059 
 129      C0CE86B3 
 129      3940
 130 0231 9E05762E 		.ascii	"\236\005v.\234\315\003\362\034\260\363\201,\000v!\220"
 130      9CCD03F2 
 130      1CB0F381 
 130      2C007621 
 130      90
 131 0242 E7815D02 		.ascii	"\347\201]\002gK\201T\001\273\014\316\252\201\324\000"
 131      674B8154 
 131      01BB0CCE 
 131      AA81D400 
 132 0252 5B0B672B 		.ascii	"[\013g+\201\3243\373\007\231\375 0\253\201\204`C\030"
 132      81D433FB 
 132      0799FD20 
 132      30AB8184 
 132      604318
 133 0265 CED60169 		.ascii	"\316\326\001i\004v=\234m\000\362\"\337\277\221\035\337"
 133      04763D9C 
 133      6D00F222 
 133      DFBF911D 
 133      DF
 134 0276 624799C2 		.ascii	"bG\231\302j\004\351V\240Y/#mE\332\206\264\035\3516\244"
 134      6A04E956 
 134      A0592F23 
 134      6D45DA86 
 134      B41DE936 
 135 028b 1D483B91 		.ascii	"\035H;\221nG\332\205t\007\322n\244=Hw\"\335\205\224"
 135      6E47DA85 
 135      7407D26E 
 135      A43D4877 
 135      22DD8594 
 136 029f 85C3425A 		.ascii	"\205\303BZX\272\272y\366\305N\265\215\314\202,\211D"
 136      58BABA79 
 136      F6C54EB5 
 136      8DCC822C 
 136      8944
 137 02b1 687A892B 		.ascii	"hz\211+\377ZM\003&\266)]\261\017\223\304\266\244\024"
 137      FF5A4D03 
 137      26B6295D 
 137      B10F93C4 
 137      B6A414
 138 02c4 53D2DD43 		.ascii	"S\322\335C\0171J`/\373,b\024\272\327b*\301\321t\216"
 138      0F314A60 
 138      2FFB2C62 
 138      14BAD762 
 138      2AC1D174 
 139 02d9 448EBDF2 		.ascii	"D\216\275\362E\231\207\036\241\026\362*\331\323$\313"
 139      4599871E 
 139      A116F22A 
 139      D9D324CB 
 140 02e9 0588F65D 		.ascii	"\005\210\366]y\013\234e\327\243\030\250\317&\3613\002"
 140      790B9C65 
 140      D7A318A8 
 140      CF26F133 
 140      02
 141 02fa 6B17C8E6 		.ascii	"k\027\310\346\350\371>\252H\326\320\234\204\210\325"
ARM GAS  /tmp/ccTgQrGI.s 			page 11


 141      E8F93EAA 
 141      48D6D09C 
 141      8488D5
 142 0309 4B510695 		.ascii	"KQ\006\225X\3754\247\236\362]l\245\321Om\212G|\011\364"
 142      58FD34A7 
 142      9EF25D6C 
 142      A5D14F6D 
 142      8A477C09 
 143 031e D9084338 		.ascii	"\331\010C8\227\220s\244\371\202)\256\320\306t\302E\223"
 143      979073A4 
 143      F98229AE 
 143      D0C674C2 
 143      4593
 144 0330 62CC125F 		.ascii	"b\314\022_\267'\014\331\275T\231pl3,\226\371i\236\213"
 144      B7270CD9 
 144      BD549970 
 144      6C332C96 
 144      F9699E8B 
 145 0344 B4D27DF2 		.ascii	"\264\322}\362+\337\363\323\374\270\005?u\0202HZn$|\265"
 145      2BDFF3D3 
 145      FCB8053F 
 145      75103248 
 145      5A6E247C 
 146 0359 835ECB48 		.ascii	"\203^\313H\250\026S\023\271\350D4\276\274\223)\032\340"
 146      A8165313 
 146      B9E84434 
 146      BEBC9329 
 146      1AE0
 147 036b C4109114 		.ascii	"\304\020\221\024)\236\035\017N%\365\210\034\211\354"
 147      299E1D0F 
 147      4E25F588 
 147      1C89EC
 148 037a 4D192FC5 		.ascii	"M\031/\305\314\300\211\323\316$\320@y$z\305\253\247"
 148      CCC089D3 
 148      CE24D040 
 148      79247AC5 
 148      ABA7
 149 038c 9F759303 		.ascii	"\237u\223\003)\365\243\263\177(Wbw\373\302\301C\345"
 149      29F5A3B3 
 149      7F285762 
 149      77FBC2C1 
 149      43E5
 150 039e 3CA3E3A9 		.ascii	"<\243\343\251=p\346f\023\303\177\010\243s\012\263F1"
 150      3D70E666 
 150      13C37F08 
 150      A3730AB3 
 150      4631
 151 03b0 EA65F020 		.ascii	"\352e\360 \316[i\002\213\002/5{\350Y\305CeU\376q\222"
 151      CE5B6902 
 151      8B022F35 
 151      7BE859C5 
 151      436555FE 
 152 03c6 E3717B78 		.ascii	"\343q{x\264\2628\024\342\255\014p|=\364\0354\241\304"
 152      B4B23814 
 152      E2AD0C70 
 152      7C3DF41D 
 152      34A1C4
ARM GAS  /tmp/ccTgQrGI.s 			page 12


 153 03d9 BDF9DEB6 		.ascii	"\275\371\336\266D\210\035`\010\244\240\352F\306\276"
 153      44881D60 
 153      08A4A0EA 
 153      46C6BE
 154 03e8 50147B07 		.ascii	"P\024{\007\217}\221\213\374\211\307\276x\364\330\027"
 154      8F7D918B 
 154      FC89C7BE 
 154      78F4D817 
 155 03f8 0A626F26 		.ascii	"\012bo&CYJ\354\357f\032{S\032\261\367\320\323\314\331"
 155      43594AEC 
 155      EF661A7B 
 155      531AB1F7 
 155      D0D3CCD9 
 156 040c B4627F45 		.ascii	"\264b\177E\030\373\353\372\261\367\320\341\224\372\261"
 156      18FBEBFA 
 156      B1F7D0E1 
 156      94FAB1
 157 041b 920AF442 		.ascii	"\222\012\364B\177\007B\377\001\206\376\242(\364/kC\177"
 157      7F0742FF 
 157      0186FEA2 
 157      28F42F6B 
 157      437F
 158 042d 2945E899 		.ascii	")E\350\231\271t\"\177\251\371DG\"\300%`G\024y\247(\362"
 158      B974227F 
 158      A9F94447 
 158      22C02560 
 158      471479A7 
 159 0443 253CF225 		.ascii	"%<\362%.r\215G\276t\364\310;\005\221\267\220\177Q\323"
 159      2E728D47 
 159      BE74F4C8 
 159      3B0591B7 
 159      907F51D3 
 160 0457 05D212BD 		.ascii	"\005\322\022\275\365\267\3548\344\011KN/\337\016N\371"
 160      F5B7EC38 
 160      E4094B4E 
 160      2FDF0E4E 
 160      F9
 161 0468 E9387097 		.ascii	"\3518p\227u\313X\2469bV`\217n9\230\313Q\367\320_!\320"
 161      75CB58A6 
 161      39625660 
 161      8F6E3998 
 161      CB51F7D0 
 162 047f 8747008D 		.ascii	"\207G\000\215v\306\247\350\242\177\035\331E\025\035"
 162      76C6A7E8 
 162      A27F1DD9 
 162      45151D
 163 048e 494B87D5 		.ascii	"IK\207\325%\336Q#C\267\271\2342\016\230\015^p\375\335"
 163      25DE5123 
 163      43B7B99C 
 163      320E980D 
 163      5E70FDDD 
 164 04a2 16E5420D 		.ascii	"\026\345B\015\235\300V\223{\255\262\356\022\241>\201"
 164      9DC05693 
 164      7BADB2EE 
 164      12A13E81 
 165 04b2 A35EE622 		.ascii	"\243^\346\"\3679\352\345\252Q\025u\256B\200z\0269\215"
 165      F739EAE5 
ARM GAS  /tmp/ccTgQrGI.s 			page 13


 165      AA511575 
 165      AE42807A 
 165      16398D
 166 04c5 936768F0 		.ascii	"\223gh\360@b\337D\345~\320\267s\246\370\252\233]@\307"
 166      4062DF44 
 166      E57ED0B7 
 166      73A6F8AA 
 166      9B5D40C7 
 167 04d9 1CC98E4D 		.ascii	"\034\311\216M\0229\346V\033A\247\2446\202Q\034\233$"
 167      1239E656 
 167      1B41A7A4 
 167      3682511C 
 167      9B24
 168 04eb 702C9B94 		.ascii	"p,\233\224\242_\237\251~=\241\372\025\371~|\361\311"
 168      A25F9FA9 
 168      7E3DA1FA 
 168      15F97E7C 
 168      F1C9
 169 04fd 78E8F8C4 		.ascii	"x\350\370\304RV'\263\335\354Z\222\243SD\216N\316\310"
 169      525627B3 
 169      DDEC5A92 
 169      A353448E 
 169      4ECEC8
 170 0510 D1290247 		.ascii	"\321)\002G\255\004\032\326\373\327\245xh\301\307\031"
 170      AD041AD6 
 170      FBD7A578 
 170      68C1C719 
 171 0520 E4B0BC05 		.ascii	"\344\260\274\005\300B\307F\\<\374\320E\326\352\372\312"
 171      C042C746 
 171      5C3CFCD0 
 171      45D6EAFA 
 171      CA
 172 0531 334C638B 		.ascii	"3Lc\213\261\255\356\360\260\250\325u\370\306\240\325"
 172      B1ADEEF0 
 172      B0A8D575 
 172      F8C6A0D5 
 173 0541 9D8D3045 		.ascii	"\235\2150E\377\306R\371B\324\352Z\265\255\356?\006\264"
 173      FFC652F9 
 173      42D4EA5A 
 173      B5ADEE3F 
 173      06B4
 174 0553 3A03A13B 		.ascii	":\003\241;\"\204n\367\246\254\307\217]\3539\300\356"
 174      22846EF7 
 174      A6ACC78F 
 174      5DEB39C0 
 174      EE
 175 0564 3E627757 		.ascii	">bwW\204]\233\026\273\257\037\001\273c\306cwT\210\335"
 175      845D9B16 
 175      BBAF1F01 
 175      BB63C663 
 175      775488DD 
 176 0578 9EB1C0EE 		.ascii	"\236\261\300\356\014b\327,\001vM\222\000\273v-v\233"
 176      0C62D72C 
 176      01764D92 
 176      00BB762D 
 176      769B
 177 058a A4FF1DBB 		.ascii	"\244\377\035\273\343\034;\230n{?\321\235n\255\312tc"
ARM GAS  /tmp/ccTgQrGI.s 			page 14


 177      E31C3B98 
 177      6E7B3FD1 
 177      9D6EADCA 
 177      7463
 178 059c 3B7BF759 		.ascii	";{\367Y\3646\266\251\033_\323\335\330\036\337\2709\372"
 178      F436B6A9 
 178      1B5FD3DD 
 178      D81EDFB8 
 178      39FA
 179 05ae FAC1C404 		.ascii	"\372\301\304\004\236\226\3113B_\032\317\010\323\231"
 179      9E96C933 
 179      425F1ACF 
 179      08D399
 180 05bd 4ED133C2 		.ascii	"N\3213\302LQ\327\235\236\3213\302LA\327\315!7)\266\335"
 180      4C51D79D 
 180      9ED133C2 
 180      4C41D7CD 
 180      213729B6 
 181 05d2 370E509D 		.ascii	"7\016P\235\306\273j\264\276\253h\261\021I\371\262\371"
 181      C6BB6AB4 
 181      BEAB68B1 
 181      1149F9B2 
 181      F9
 182 05e3 8B4C3B70 		.ascii	"\213L;p\226\261\245pEX\012o\216E\007\376\000*a\027V"
 182      96B1A570 
 182      45580A6F 
 182      8E4507FE 
 182      002A6117 
 183 05f8 428FA812 		.ascii	"B\217\250\022\266i+a\367#T\302c\350\300\037\011\241"
 183      B6692B61 
 183      F72354C2 
 183      63E8C01F 
 183      09A1
 184 060a 7B6B4C3A 		.ascii	"{kL:\360\207\200\335k\210\335^\021v\035Z\354z\037\001"
 184      F08780DD 
 184      6B88DD5E 
 184      11761D5A 
 184      EC7A1F01 
 185 061e BBC7D081 		.ascii	"\273\307\320\201\377\"\304\356\227c\322\201\021\273"
 185      FF22C4EE 
 185      9763D281 
 185      11BB
 186 062c 83885D9F 		.ascii	"\203\210]\237\010\273N-v\375\006u\340c\372\035\270S"
 186      08BB4E2D 
 186      76FD0675 
 186      E063FA1D 
 186      B853
 187 063e 6DACEFEA 		.ascii	"m\254\357\3526\326\016u\343q\335\215\333\324\016|B\355"
 187      36D60E75 
 187      E371DD8D 
 187      DBD40E7C 
 187      42ED
 188 0650 C0B38CEE 		.ascii	"\300\263\214\356\300\263\231NQ\007\236#\352\300\263"
 188      C0B3994E 
 188      51079E23 
 188      EAC0B3
 189 065f 33EAC073 		.ascii	"3\352\300s\004\0358\227P\345'\253\2673\355\235\331\306"
ARM GAS  /tmp/ccTgQrGI.s 			page 15


 189      041D3897 
 189      50E527AB 
 189      B733ED9D 
 189      D9C6
 190 0671 2671CF19 		.ascii	"&q\317\031Q\022\017\032\324;\013\365\352\377\023\310"
 190      51120F1A 
 190      D43B0BF5 
 190      EAFF13C8 
 191 0681 E1A398C3 		.ascii	"\341\243\230\303GD9\274]\233\303\357\246\312\341\302"
 191      474439BC 
 191      5D9BC3EF 
 191      A6CAE1C2 
 192 0691 31ED9DBB 		.ascii	"1\355\235\273\204\320\015\217I\375#v\277A\354N\212\260"
 192      84D00D8F 
 192      49FD2376 
 192      BF41EC4E 
 192      8AB0
 193 06a3 EBD26237 		.ascii	"\353\322b7`@\357\204\372?\253_\377\333\325j=\247V\353"
 193      6040EF84 
 193      FA3FAB5F 
 193      FFDBD56A 
 193      3DA756EB 
 194 06b7 B34657EB 		.ascii	"\263FW\353\\\246\363\005\345\347\302\244j\235'\252\326"
 194      5CA6F305 
 194      E5E7C2A4 
 194      6A9D27AA 
 194      D6
 195 06c8 B9BC5AC7 		.ascii	"\271\274Z\307\273H?\177J\375\306\350\325:OP\255vBL\014"
 195      BB483F7F 
 195      4AFDC6E8 
 195      D53A4F50 
 195      AD76424C 
 196 06dd 112B3120 		.ascii	"\021+1 k\366\211\262fT\315\006\215\332\253\220.g1]\206"
 196      6BF689B2 
 196      6654CD06 
 196      8DDAAB90 
 196      2E67315D 
 197 06f2 45E9B243 		.ascii	"E\351\262C\233.\347\015\370\232\002IpYM\202\347\014"
 197      9B2EE70D 
 197      F89A0249 
 197      70594D82 
 197      E70C
 198 0704 488241F2 		.ascii	"H\202A\362\273\253\252\302D\277V#\225\307\"u\201d\305"
 198      BBABAAC2 
 198      44BF5623 
 198      95C72275 
 198      8164C5
 199 0717 B7CC37DA 		.ascii	"\267\3147\332\346\374D\326\305?\213X\353't1\344\021"
 199      E6FC44D6 
 199      C53F8B58 
 199      EB277431 
 199      E411
 200 0729 74F49B89 		.ascii	"t\364\233\211\034]P\003\026G$\347BQr.\310h\224,\324"
 200      1C5D5003 
 200      164724E7 
 200      4251722E 
 200      C868942C 
ARM GAS  /tmp/ccTgQrGI.s 			page 16


 201 073e 24E76582 		.ascii	"$\347e\202?2\232)\311G\237Yb\344\021\276bG@\012\020"
 201      3F329A29 
 201      C9479F59 
 201      62E411BE 
 201      6247400A 
 202 0753 9096E815 		.ascii	"\220\226\350\025\375\272\355R\307\361\237u\307\361\016"
 202      FDBAED52 
 202      C7F19F75 
 202      C7F10E
 203 0762 B5C03F52 		.ascii	"\265\300?Rc\373\274\321\005\276\204\351\024\215\343"
 203      63FBBCD1 
 203      05BE84E9 
 203      148DE3
 204 0771 A5220C97 		.ascii	"\245\"\014\227d\204\341RA\201\027*\301;v\351x\246\343"
 204      6484E152 
 204      4181172A 
 204      C13B76E9 
 204      78A6E3
 205 0784 D84A0C9D 		.ascii	"\330J\014\235)\227\2053\345\037c\360(\323z\007z\304"
 205      29978533 
 205      E51F63F0 
 205      28D37A07 
 205      7AC4
 206 0796 A7D823FE 		.ascii	"\247\330#\376.\352\021\335\332\036\361\331\377\327\243"
 206      2EEA11DD 
 206      DA1EF1D9 
 206      FFD7A3
 207 07a5 CC152174 		.ascii	"\314\025!t7\306d\034#v\377D\354\256\213\260\353\321"
 207      37C6641C 
 207      2376FF44 
 207      ECAE8BB0 
 207      EBD1
 208 07b7 6277CBA0 		.ascii	"bw\313\240q|S\277\254\273\325j\275\245Vk\225\321\325"
 208      717C53BF 
 208      ACBBD56A 
 208      BDA5566B 
 208      95D1D5
 209 07ca BA8CE914 		.ascii	"\272\214\351\024\215\343"
 209      8DE3
 210 07d0 6A51B52E 		.ascii	"jQ\265.\313h\034W\013\252\265\310\300q\374\371c\032"
 210      CB681C57 
 210      0BAAB5C8 
 210      C071FCF9 
 210      631A
 211 07e2 C76EBD52 		.ascii	"\307n\275R\273\017\351r\017\323\345+Q\272\354\324\246"
 211      BB0FE972 
 211      0FD3E52B 
 211      51BAECD4 
 211      A6
 212 07f3 CB8354E9 		.ascii	"\313\203T\351\342Ng\034\267D\277\322O\227\235\352\024"
 212      E24E671C 
 212      B744BFD2 
 212      4F979DEA 
 212      14
 213 0804 B8AB3B05 		.ascii	"\270\253;\005z\324\274\272\247\346U\215\321yU\313t\212"
 213      7AD4BCBA 
 213      A7E6558D 
ARM GAS  /tmp/ccTgQrGI.s 			page 17


 213      D17955CB 
 213      748A
 214 0816 A6C04A51 		.ascii	"\246\300JQ^\325f4\005V\012\362\252\230O\201/\177\233"
 214      5ED56634 
 214      05560AF2 
 214      AA984F81 
 214      2F7F9B
 215 0829 E914C851 		.ascii	"\351\024\310Q\242\035\335\332O\037\202-\011\013\026"
 215      A21DDDDA 
 215      4F1F822D 
 215      090B16
 216 0838 BDAACCE0 		.ascii	"\275\252\314\340\210\014]\372\370\232\024w\273^\331"
 216      880C5DFA 
 216      F89A1477 
 216      BB5ED9
 217 0847 69EC23E0 		.ascii	"i\354#\340\371\207K@WyZU\300|\325\251\200\33773%\035"
 217      F9874B40 
 217      57795A55 
 217      C07CD5A9 
 217      80DF3733 
 218 085d 26B8E776 		.ascii	"&\270\347v\223\240\002vi+`\273i\364\012`\246Rf?\276"
 218      93A00276 
 218      692B60BB 
 218      69F40A60 
 218      A652663F 
 219 0872 A03DB437 		.ascii	"\240=\2647\221BA\260\001R\332\027\264\253E\271\025\314"
 219      914241B0 
 219      0152DA17 
 219      B4AB45B9 
 219      15CC
 220 0884 E805ED6A 		.ascii	"\350\005\355jAn\225\340\367\260\315\275m\331\361]\241"
 220      416E95E0 
 220      F7B0CDBD 
 220      6DD9F15D 
 220      A1
 221 0895 74AA85E7 		.ascii	"t\252\205\347\302\250\025\022fz\260B4w\261Nt\027a~\027"
 221      C2A81512 
 221      667AB042 
 221      3477B14E 
 221      7417617E 
 222 08aa 135CE41D 		.ascii	"\023\\\344\035\336y\2779\372]\254\023\334E)\3776\331"
 222      DE79BF39 
 222      FA5DAC13 
 222      DC4529FF 
 222      36D9
 223 08bc 7E55B78F 		.ascii	"~U\267\217\354\242\211\267\314\227>\315\264\226l\274"
 223      ECA289B7 
 223      CC973ECD 
 223      B4966CBC 
 224 08cc 96F6F627 		.ascii	"\226\366\366'\\i4\272\261\254g:E\215e\203\010\266\365"
 224      5C6934BA 
 224      B1AC673A 
 224      458D6583 
 224      08B6F5
 225 08df 1935960D 		.ascii	"\0315\226\015\002\330\234Jc\031zC}\220x1^\310\312\353"
 225      02D89C4A 
 225      63197A43 
ARM GAS  /tmp/ccTgQrGI.s 			page 18


 225      7D907831 
 225      5EC8CAEB 
 226 08f3 58657163 		.ascii	"Xeqc\374\177\234\222\234\225)\333\316.&y\032\241\"W"
 226      FC7F9C92 
 226      9C9529DB 
 226      CE2E2679 
 226      1AA12257 
 227 0907 65CA7D75 		.ascii	"e\312}u\271\310{<\304\023G\3675B\005\316\216Cg\361\255"
 227      B9C87B3C 
 227      C41347F7 
 227      354205CE 
 227      8E4367F1 
 228 091c AB52427D 		.ascii	"\253RB}\342W\262\312\305C\302W\003e\374\177\262\336"
 228      E257B2CA 
 228      C543C257 
 228      0365FC7F 
 228      B2DE
 229 092e BF3E18D2 		.ascii	"\277>\030\322Q\263J_K9j\371#i\262\252\376-b\361g\253"
 229      51B34A5F 
 229      4B396AF9 
 229      2369B2AA 
 229      FE2D62F1 
 230 0944 70C3532B 		.ascii	"p\303S+**\225\277\260/\024\256\\\023\256\014\005\327"
 230      2A2A95BF 
 230      B02F14AE 
 230      5C13AE0C 
 230      05D7
 231 0956 AEF1FA14 		.ascii	"\256\361\372\024\026HU\310\267z\255/\340\365U==uj\205"
 231      164855C8 
 231      B77AAD2F 
 231      E0F5553D 
 231      3D756A85 
 232 096a 97980215 		.ascii	"\227\230\002\025O\323\000\243S\355\341`\330SW\025\362"
 232      4FD300A3 
 232      53EDE160 
 232      D8535715 
 232      F2
 233 097b 37FA2AA6 		.ascii	"7\372*\246\345\327y\326\324\340v`\247g\373W\204\353"
 233      E5D779D6 
 233      D4E07660 
 233      A767FB57 
 233      84EB
 234 098d 1B2A6698 		.ascii	"\033*f\230C\215\0253\245P\243M\335k\037\271Sj\230*5"
 234      438D1533 
 234      A550A34D 
 234      DD6B1FB9 
 234      536A982A 
 235 09a2 4C931AA6 		.ascii	"L\223\032\246\027\324\372<\015\356\025k<5\365\276@\330"
 235      17D4FA3C 
 235      0DEE156B 
 235      3C35F5BE 
 235      40D8
 236 09b4 B79C5860 		.ascii	"\267\234X`\241\301\014\233\236J8\031\014Uz\203\365\365"
 236      A1C10C9B 
 236      9E4A3819 
 236      0C557A83 
 236      F5F5
ARM GAS  /tmp/ccTgQrGI.s 			page 19


 237 09c6 C1003BAB 		.ascii	"\301\000;\253\363WW\372\003\336\272\265\313}\225\336"
 237      F35757FA 
 237      03DEBAB5 
 237      CB7D95DE 
 238 09d6 5AD85D51 		.ascii	"Z\330]QK\234\236\272\272\240\327\023\366\007\003\356"
 238      4B9C9EBA 
 238      BAA0D713 
 238      F60703EE 
 239 09e6 4030EC5E 		.ascii	"@0\354^\341\361\3271eE#\226\371Rq\275?\024\362\007j"
 239      E1F1D731 
 239      65452396 
 239      F95271BD 
 239      3F14F207 
 240 09fb 984D9FCF 		.ascii	"\230M\237\317]\315.\257\"\316\265\001\337O\033|^f\337"
 240      5DCD2EAF 
 240      22CEB501 
 240      DF4F1B7C 
 240      5E66DF
 241 0a0e 8DFE84C2 		.ascii	"\215\376\204\302\236\260\217\344\373\003\353<u\376\345"
 241      9EB08FE4 
 241      FB03EB3C 
 241      75FEE5
 242 0a1d 9CB58162 		.ascii	"\234\265\201b_}C\370g$\017\334s{k=\201\032\246\362\277"
 242      5F7D43F8 
 242      67240FDC 
 242      737B6B3D 
 242      811AA6F2 
 243 0a32 F4DE7C5C 		.ascii	"\364\336|\\"
 244              		.text
 245              		.section	.gnu.lto_test_011_001_setup.108778a77f70d2a9,"",%progbits
 246 0000 789C6362 		.ascii	"x\234cb`b@\007\222@\274\006\210\215\201\230\221\231"
 246      60624007 
 246      9240BC06 
 246      888D8198 
 246      9199
 247 0012 819169C2 		.ascii	"\201\221i\3029\006\206F\016&FF\020\203\201\221\241\236"
 247      39068646 
 247      0E264646 
 247      10838191 
 247      A19E
 248 0024 89B13E92 		.ascii	"\211\261>\222\021\254v=\323\201\007\377\377\257\373"
 248      11AC763D 
 248      D38107FF 
 248      FFAFFB
 249 0033 D2B6FC0C 		.ascii	"\322\266\374\014\343l&f\240\010+CKC\303\004\005\006"
 249      E36C2666 
 249      A0082B43 
 249      4B43C304 
 249      0506
 250 0045 8664B08A 		.ascii	"\206d\260\212\020 \011\322\026\312\310\004\242\231\317"
 250      102009D2 
 250      16CAC804 
 250      A299CF
 251 0054 33B43DD8 		.ascii	"3\264=\330\375\230+\221q!#+P\272\232\341WCG\203@&#P"
 251      FD982B91 
 251      7121232B 
 251      50BA9AE1 
ARM GAS  /tmp/ccTgQrGI.s 			page 20


 251      57434783 
 252 006c 39C44490 		.ascii	"9\304D\220\010G&#c.#\003T\021DM\303D\306LF\246\\FF\250"
 252      08472623 
 252      632E2303 
 252      5411444D 
 252      C344C64C 
 253 0086 680490CB 		.ascii	"h\004\220\313\374\202\207!\223\221\205\201\341\"C\343"
 253      FC828721 
 253      93918581 
 253      E12243E3 
 254 0096 833DCA30 		.ascii	"\203=\3120C! \004h \320F\220\377\014\365\364\364!\250"
 254      43212004 
 254      6820D046 
 254      90FF0CF5 
 254      F4F421A8 
 255 00aa 24B5B844 		.ascii	"$\265\270D\277\250D\2778\277\264(9\025\302\005\021\361"
 255      BFA844BF 
 255      38BFB428 
 255      3915C205 
 255      11F1
 256 00bc C5A985A5 		.ascii	"\305\251\205\245\251y\311\251\361\006\206\206z\311\014"
 256      A979C9A9 
 256      F1068686 
 256      7AC90C
 257 00cb 00627B3F 		.ascii	"\000b{?H"
 257      48
 258              		.text
 259              		.section	.gnu.lto_.symbol_nodes.108778a77f70d2a9,"",%progbits
 260 0000 789C4D50 		.ascii	"x\234MP\313JC1\024<'\271Q\352c\253`\305\357r\253\202"
 260      CB4A4331 
 260      143C27B9 
 260      51EA63AB 
 260      60C5EF72 
 261 0016 5D081514 		.ascii	"]\010\025\024,(\364\024\002\212\025D\\\2732\240\320"
 261      2C28F414 
 261      028A1544 
 261      5CBB32A0 
 261      D0
 262 0027 827E44F6 		.ascii	"\202~D\366\272s\343\2535V\375\0121g\"^\263\230a&3'\017"
 262      BA73E3AB 
 262      3556FD0A 
 262      3167225E 
 262      B3986126 
 263 003e 4386560D 		.ascii	"C\206V\015\225e^Y\210\316\356\210D.\216\327\334\033"
 263      95655E59 
 263      88CEEE88 
 263      442E8ED7 
 263      DC1B
 264 0050 1B12728F 		.ascii	"\033\022r\217LN\310<\263p\275i\236X\314\277\354\027"
 264      4C4EC83C 
 264      B370BD69 
 264      9E58CCBF 
 264      EC17
 265 0062 B366C76C 		.ascii	"\263f\307ls\326\275pU\211u#v\231\370\235\305\226h\257"
 265      73D6BD70 
 265      55897523 
 265      7699F89D 
ARM GAS  /tmp/ccTgQrGI.s 			page 21


 265      C59668AF 
 266 0076 C7FCC152 		.ascii	"\307\374\301R\325j\302\342j\225X\246j\365\3112\375\247"
 266      D56AC2E2 
 266      6A9558A6 
 266      6AF5C932 
 266      FDA7
 267 0088 2CCD5118 		.ascii	",\315Q\030}g\236!?VnP\002\317R8\234T\352\207#\345\006"
 267      7D679E21 
 267      3F566E50 
 267      02CF5238 
 267      9C54EA87 
 268 009f F97E66FB 		.ascii	"\371~f\373\233\2679\007\316=\315\251\006g\335\177(\373"
 268      9BB73907 
 268      CE3DCDA9 
 268      0667DD7F 
 268      28FB
 269 00b1 E03CE764 		.ascii	"\340<\347dYkI\251A\361\264\320\275E\346\034#\342\002"
 269      596B49A9 
 269      41F1B4D0 
 269      BD45E61C 
 269      23E202
 270 00c4 7011B8A4 		.ascii	"p\021\270\244%\337D\025\030\233\3507\265\020Vp\304:"
 270      25DF4415 
 270      189BE837 
 270      B5105670 
 270      C43A
 271 00d6 7003B889 		.ascii	"p\003\270\211\0140\001}\013\327l\341\200\0262[\3006"
 271      0C30017D 
 271      0BD76CE1 
 271      8016325B 
 271      C036
 272 00e8 926D4C6B 		.ascii	"\222mLkc\332\266\372a\007\0160\354\252\357\367\220\004"
 272      63DAB6FA 
 272      61070E30 
 272      ECAAEFF7 
 272      9004
 273 00fa A63DF57D 		.ascii	"\246=\365}\007\267\356h>\355\003\017p\303\256\356\306"
 273      07B7EE68 
 273      3EED030F 
 273      70C3AEEE 
 273      C6
 274 010b 2E5A8253 		.ascii	".Z\202S.\361\352X()\345z\300\227\304\000\025\256\360"
 274      2EF1EA58 
 274      2829E57A 
 274      C097C400 
 274      15AEF0
 275 011e EA700DD3 		.ascii	"\352p\015\323\017`\306AQ\303R\037\226\336M\351\025J"
 275      0F60C641 
 275      51C3521F 
 275      96DE4DE9 
 275      154A
 276 0130 B76CAB79 		.ascii	"\267l\253y\362\371\343\351\007\013A\215\313"
 276      F2F9E3E9 
 276      070B418D 
 276      CB
 277              		.text
 278              		.section	.gnu.lto_.refs.108778a77f70d2a9,"",%progbits
ARM GAS  /tmp/ccTgQrGI.s 			page 22


 279 0000 789C6D87 		.ascii	"x\234m\207\301\015\300 \020\303\022\037\005&a\273\356"
 279      C10DC020 
 279      10C3121F 
 279      052661BB 
 279      EE
 280 0011 FF2DE2C4 		.ascii	"\377-\342\304\243\002KV\034\204^%!\033\354\021\271\177"
 280      A3024B56 
 280      1C845E25 
 280      211BEC11 
 280      B97F
 281 0023 935B9D7F 		.ascii	"\223[\235\177\367\3322}\2504\372\264\020\356H\037k\242"
 281      F7DA327D 
 281      A834FAB4 
 281      10EE481F 
 281      6BA2
 282 0035 0175     		.ascii	"\001u"
 283              		.text
 284              		.section	.gnu.lto_.decls.108778a77f70d2a9,"",%progbits
 285 0000 789CAD5A 		.ascii	"x\234\255Z{t\024\325\031\277w6\373\"\013B\254\026\254"
 285      7B7414D5 
 285      19BF7736 
 285      FB220B42 
 285      AC16AC
 286 0013 CAEAD19E 		.ascii	"\312\352\321\236\252\225\200\245J\317\361\010\210-\320"
 286      AA9580A5 
 286      4ACFF108 
 286      882DD0
 287 0022 53ABA71E 		.ascii	"S\253\247\036\317\3519=\355:l&\311j\262\273\316Nx\264"
 287      CFE9393D 
 287      ED3A6C26 
 287      C96AB2BB 
 287      CE4E78B4 
 288 0036 7F38040C 		.ascii	"\1778\004\014\210h\002(Fj$\301\007P\361\0019>\000\305"
 288      88680228 
 288      466A24C1 
 288      0750F101 
 288      393E00C5 
 289 004a 11152320 		.ascii	"\021\025# \004\302\323\007]\212\217\360\022B\200@y\244"
 289      04C2D307 
 289      5D8A8FF0 
 289      12428040 
 289      79A4
 290 005c DFBD7367 		.ascii	"\337\275sgwfvfw&t\016\36723\271\337\357\376\276\307"
 290      77667666 
 290      7726740E 
 290      F73233B9 
 290      DFEFFEBE 
 291 0071 FDEE6387 		.ascii	"\375\356c\207C\034\032\303!\324\013\327}w 4\331\207"
 291      431C1AC3 
 291      21D40BD7 
 291      7D772034 
 291      D987
 292 0083 501142E8 		.ascii	"P\021B\350.(\227Ci\201\262\004\312R(^(2Fh:\224V\270"
 292      2E289743 
 292      6981B204 
 292      CA52285E 
 292      28324668 
ARM GAS  /tmp/ccTgQrGI.s 			page 23


 293 009b 9F01FFCF 		.ascii	"\237\001\377\317\204R\007e\026\224'\240\314\201\362"
 293      84520765 
 293      169427A0 
 293      CC81F2
 294 00aa 2494A7A0 		.ascii	"$\224\247\240<\015\245\001\312<(\013\240\220+\000e!"
 294      3C0DA501 
 294      CA3C280B 
 294      A0902B00 
 294      6521
 295 00bc DC2F82D2 		.ascii	"\334/\202\322\004\245\031\3122(o@Y\005\345=(@\001\255"
 295      04A519CA 
 295      32286F40 
 295      5905E53D 
 295      284001AD 
 296 00d0 83FF1528 		.ascii	"\203\377\025(\353\241|\002\345k(?0\014\355\"8W \225"
 296      EBA17C02 
 296      E56B283F 
 296      300CED22 
 296      38572095 
 297 00e4 CB002821 		.ascii	"\313\000(!\302\025\336\215f\\\217\302\375\217X\345N"
 297      C215DE8D 
 297      665C8FC2 
 297      FD8F58E5 
 297      4E
 298 00f5 B8B54239 		.ascii	"\270\265B9\006e9\224\3438\253K\013\224.(o\342\254\276"
 298      06653994 
 298      E338AB4B 
 298      0B942E28 
 298      6FE2ACBE 
 299 0109 E4F2B13E 		.ascii	"\344\362\261>\010\257\023\214g3\343\012&\243\334\326"
 299      08AF138C 
 299      6733E30A 
 299      26A3DCD6 
 300 0119 993811BD 		.ascii	"\2318\021\275\302\254\177\215\023\341W\244\343f\305"
 300      C2AC7F8D 
 300      13E157A4 
 300      E366C5
 301 0128 EBB8CE8E 		.ascii	"\353\270\316\216-:\236\032\037\215\253\306S\263\253"
 301      2D3A9E1A 
 301      1F8DABC6 
 301      53B3AB
 302 0137 6667CDEE 		.ascii	"fg\315\356\232O4\376\213\030\377f\235\016\371\370\023"
 302      9A4F34FE 
 302      8B18FF66 
 302      9D0EF9F8 
 302      13
 303 0148 9F10EEE7 		.ascii	"\237\020\356\347\030\277\005\354y5k\307\2616\3571\014"
 303      18BF05EC 
 303      79356BC7 
 303      B136EF31 
 303      0C
 304 0159 CD4FFAAB 		.ascii	"\315O\372\253\030\315\221\345Z\271\271N\236\3206`\020"
 304      18CD91E5 
 304      5AB9B94E 
 304      9ED03660 
 304      10
 305 016a 6A90E10A 		.ascii	"j\220\341\0127\016\010\242\331\344u\372\025y\360`\204"
ARM GAS  /tmp/ccTgQrGI.s 			page 24


 305      370E08A2 
 305      D9E475FA 
 305      1579F060 
 305      84
 306 017b FE8C790C 		.ascii	"\376\214y\014\257\002\364&\024D\004\343F\36424\205\366"
 306      AF02F426 
 306      144404E3 
 306      46F43234 
 306      85F6
 307 018d 1C8F5FC2 		.ascii	"\034\217_\302A\350\2003Ak\227\372wr\021q\365^\273\353"
 307      41E88033 
 307      416B97FA 
 307      77721171 
 307      F55EBBEB 
 308 01a1 C519F4B7 		.ascii	"\305\031\364\267\260\006\177%\023[\202\007\321;JFf\034"
 308      B0067F25 
 308      135B8207 
 308      D13B4A46 
 308      661C
 309 01b3 690B2612 		.ascii	"i\013&\022\326$\212\230\304\253\272\216B\301\354\315"
 309      D6248A98 
 309      C4ABBA8E 
 309      42C1ECCD 
 310 01c3 158C8A9D 		.ascii	"\025\214\212\235\\\013.\2664H\011\232G\0152\373@\226"
 310      5C0B2EB6 
 310      3448099A 
 310      470D32FB 
 310      4096
 311 01d5 A7CC69D2 		.ascii	"\247\314i\322a\315\014\015\351\372\357\323\036Y\016"
 311      61CD0C0D 
 311      E9FAEFD3 
 311      1E590E
 312 01e4 F078192E 		.ascii	"\360x\031.\001S\334\206\321\315h\271j\237\332\353\255"
 312      0153DC86 
 312      D1CD68B9 
 312      6A9FDAEB 
 312      AD
 313 01f5 EC521899 		.ascii	"\354R\030\231C\3431P[\001\200<~\015\337\314,\256,\230"
 313      43E33150 
 313      5B01803C 
 313      7E0DDFCC 
 313      2CAE2C98 
 314 0209 15928BD4 		.ascii	"\025\222\213\324\367\210\375\305\342\272\0165C\327\312"
 314      F788FDC5 
 314      E2BA0E35 
 314      43D7CA
 315 0218 B39FBD30 		.ascii	"\263\237\2750Dn^\217\015Z]\211\236e\366\224\261\304"
 315      446E5E8F 
 315      0D5A5D89 
 315      9E65F694 
 315      B1C4
 316 022a E3D1C5B6 		.ascii	"\343\321\305\266vY\211U_xh\374 \026\025*\212\2655\231"
 316      76598955 
 316      5F7868FC 
 316      2016152A 
 316      8AB53599 
 317 023e 3D76D7ED 		.ascii	"=v\327\355\352\306\265\200\317\343V\032\034\012\306"
ARM GAS  /tmp/ccTgQrGI.s 			page 25


 317      EAC6B580 
 317      CFE3561A 
 317      1C0AC6
 318 024d 06B23CF6 		.ascii	"\006\262<\366\006\215A\002\317Z\003\202\347\015foH\302"
 318      068D4102 
 318      CF5A0382 
 318      E70D666F 
 318      48C2
 319 025f BB2CC342 		.ascii	"\273,\303B\023\315<\266\252^\347\361\203\236\014^\036"
 319      13CD3CB6 
 319      AA5EE7F1 
 319      839E0C5E 
 319      1E
 320 0270 6E8B9FDE 		.ascii	"n\213\237\3362\217q{\013\014\303\241S&n\006c\251F\260"
 320      328F717B 
 320      0B0CC3A1 
 320      53266E06 
 320      63A946B0 
 321 0284 33D01A00 		.ascii	"3\320\032\000\260\366A\316\33784\203\323\034j\005\227"
 321      B0F641CE 
 321      DF383483 
 321      D31C6A05 
 321      97
 322 0295 89591D7D 		.ascii	"\211Y\035}\2753\345t}w\233g\221\2544\016\277\034\315"
 322      BD33E574 
 322      7D779B67 
 322      91AC340E 
 322      BF1CCD
 323 02a8 270E547C 		.ascii	"'\016T|\372\350\031\243!\0042\252*k7\\Cb\345\003|9t"
 323      FAE819A3 
 323      210432AA 
 323      2A6B375C 
 323      4362E503 
 324 02bf 3F9733AA 		.ascii	"?\2273\252Y\030\205C\213\250\214\002\362\206\030\334"
 324      59188543 
 324      8BA88C02 
 324      F28618DC 
 325 02cf B9C11356 		.ascii	"\271\301\023V_\027\016\301\335u\365W\311\315s\007\263"
 325      5F170EC1 
 325      DD75F557 
 325      C9CD7307 
 325      B3
 326 02e0 E051EAE4 		.ascii	"\340Q\352\344\331x\372\312\253\363\361N7u\374\330\302"
 326      D978FACA 
 326      ABF3F14E 
 326      3775FCD8 
 326      C2
 327 02f1 5CF4090D 		.ascii	"\\\364\011\015\237v\023w7`=\013\317\177\204gP\260\317"
 327      9F761377 
 327      37603D0B 
 327      CF7F8467 
 327      50B0CF
 328 0304 28D81A8F 		.ascii	"(\330\032\2179\026\203\246X\014\032c1\030\314\336\364"
 328      391683A6 
 328      580C1A63 
 328      3118CCDE 
 328      F4
ARM GAS  /tmp/ccTgQrGI.s 			page 26


 329 0315 6A977154 		.ascii	"j\227qT;\226\341\320\307\036\315\246V\244\013\207\301"
 329      3B96E1D0 
 329      C71ECDA6 
 329      56A40B87 
 329      C1
 330 0326 B1C3CB30 		.ascii	"\261\303\3130\031\323,\2054\217\321\215E\003\024a\265"
 330      19D32C85 
 330      348FD18D 
 330      45031461 
 330      B5
 331 0337 D99C3EF6 		.ascii	"\331\234>\366n\300a\365ua\327}U\327\224\233=\324p\262"
 331      6EC061F5 
 331      7561D77D 
 331      55D7949B 
 331      3DD470B2 
 332 034b 1B105BB3 		.ascii	"\033\020[\263\231\224C\237SM7\3671\340k\225o6\250\331"
 332      9994439F 
 332      534D37F7 
 332      31E06B95 
 332      6F36A8D9 
 333 035f 4B4B225B 		.ascii	"KK\"[\\\343\205M\212qh\307\245Y_\351\331\320O\236\037"
 333      5CE3854D 
 333      8A7168C7 
 333      A5595FE9 
 333      D9D04F9E 
 334 0374 7264FB9D 		.ascii	"rd\373\235f\333wQ\333\357td\373nf{\036/\245Ij/\345\275"
 334      66DB7751 
 334      DBEF7464 
 334      FB6E667B 
 334      1E2FA549 
 335 038c B3CFB63C 		.ascii	"\263\317\266<e\262\345>\327x\271\266<\320W[Z]\3724\303"
 335      65B2E53E 
 335      D778B9B6 
 335      3CD0575B 
 335      5A5DFA34 
 336 03a1 E3F5F846 		.ascii	"\343\365\370F\250?\306\327A\275\211\326;\240\326\365"
 336      A83FC6D7 
 336      41BD89D6 
 336      3BA0D6F5 
 337 03b1 DDE93125 		.ascii	"\335\3511%S\253\276\003\366~|a|\003\257M\302:'\312\231"
 337      53ABBE03 
 337      F67E7C61 
 337      7C03AF4D 
 337      C23A27CA 
 338 03c6 55C84094 		.ascii	"U\310@\224\311 \353\026\337N\322\350>:\267\327\027\031"
 338      C920EB16 
 338      DF4ED2E8 
 338      3E3AB7D7 
 338      1719
 339 03d8 B3474110 		.ascii	"\263GA\020\016=GE\366\233\303\241\233\017\253o\013E"
 339      0E3D4745 
 339      F69BC3A1 
 339      9B0FAB6F 
 339      0B45
 340 03ea 83AC9CFA 		.ascii	"\203\254\234\372.\230\215\272\260]\3201\272\363\016"
 340      2E988DBA 
 340      B05DD031 
ARM GAS  /tmp/ccTgQrGI.s 			page 27


 340      BAF30E
 341 03f9 28577D2E 		.ascii	"(W}.\313\003y\374\035e\374\2515c\373\340\345\320N*\322"
 341      CB0379FC 
 341      1D65FCA9 
 341      3563FBE0 
 341      E5D04E2A 
 342 040e 69629C6E 		.ascii	"ib\234n\372\341\314M\215\024\271\323Q\020o\233c\221"
 342      FAE1CC4D 
 342      8D14B9D3 
 342      51106F9B 
 342      6391
 343 0420 402CB468 		.ascii	"@,\264h.\322\272\277'\253F\303\2013~\272\246:J\265\230"
 343      2ED2BABF 
 343      27AB46C3 
 343      81337EBA 
 343      A63A4AB5 
 344 0435 E52D6877 		.ascii	"\345-hw#\014\207\032\250\310\361\\-\332oQ\2658\356\310"
 344      230C871A 
 344      A8C8F15C 
 344      2DDA6F51 
 344      B538EEC8 
 345 0449 F83D1B5F 		.ascii	"\370=\033_\300\352\320Q\355\271(\003\333\227\024R\253"
 345      C0EAD051 
 345      EDB92803 
 345      DB971452 
 345      AB
 346 045a 9CD9186A 		.ascii	"\234\331\030j\340\235\257\245\346\035V\006\177@\351"
 346      E09DAFA5 
 346      E61D5606 
 346      7F40E9
 347 0469 9EA62377 		.ascii	"\236\246#w\257\327r.t\200\324\263pG\027\233V\317R\250"
 347      AFD7722E 
 347      7480D4B3 
 347      7047179B 
 347      56CF52A8 
 348 047d FD5EF34C 		.ascii	"\375^\363L\3507\315\204~\343\254\346\017fo\330\252\314"
 348      E837CD84 
 348      7EE3ACE6 
 348      0F666FD8 
 348      AACC
 349 048f 65730E1D 		.ascii	"es\016\0352\233\317*\363\330\217\\p_\347-\253W\311\362"
 349      329BCF2A 
 349      F3D88F5C 
 349      705FE72D 
 349      AB57C9F2 
 350 04a3 133E2D90 		.ascii	"\023>-\220}vzs\350\030\355\354bN\010tl\256\305\323\251"
 350      7D767A73 
 350      E818EDEC 
 350      624E0874 
 350      6CAEC5D3 
 351 04b8 252E3A8A 		.ascii	"%.:\212\344\2677>\347,\2223k\370\033h\377\347i\3773"
 351      E4B7373E 
 351      E72C9233 
 351      6BF81B68 
 351      FFE769FF 
 352 04cd 3853FF2B 		.ascii	"8S\377+O\264\375E\015A\362\247\302\335\257\336\375\214"
 352      4FB4FD45 
ARM GAS  /tmp/ccTgQrGI.s 			page 28


 352      0D41F2A7 
 352      C2DDAFDE 
 352      FD8C
 353 04df D54C7CD7 		.ascii	"\325L|\327\025\371\334\335\324\361}\027Sr\026G\346\220"
 353      15F9DCDD 
 353      D4F17D17 
 353      53721647 
 353      E690
 354 04f1 777C6677 		.ascii	"w|fw\217.\326wF\237\015K\326\017}\032\375>\315:\240"
 354      8F2ED677 
 354      469F0D4B 
 354      D60F7D1A 
 354      FD3ECD3A 
 355 0506 67E75F97 		.ascii	"g\347_\227S_i\034\326\273F\014\033,\361\376n\030<\032"
 355      535F691C 
 355      D6BB460C 
 355      1B2CF1FE 
 355      6E183C1A 
 356 051a D8A74EC0 		.ascii	"\330\247N\300lC\251VY\247\007ks\015fd\326\256\007\333"
 356      6C43A956 
 356      59A7076B 
 356      730D6664 
 356      D6AE07DB 
 357 052e E4046CA0 		.ascii	"\344\004l\240=\263\355z\260-\256\301\214\314v\350\301"
 357      3DB3ED7A 
 357      B02DAEC1 
 357      8CCC76E8 
 357      C1
 358 053f B639011B 		.ascii	"\2669\001\033l\317l\227\036l\247k0#\263=z\260\275N\300"
 358      6CCF6C97 
 358      1E6CA76B 
 358      3023B33D 
 358      7AB0BD4E 
 359 0554 C216CC32 		.ascii	"\302\026\3142\227\335\252\264\226\323\255J\277\366i"
 359      97DDAAB4 
 359      96D3AD4A 
 359      BFF669
 360 0563 29C1654C 		.ascii	")\301eL\243,\306\277}ns\230Ao2\221\336\262\206\215\213"
 360      A32CC6BF 
 360      7D6E7398 
 360      416F3291 
 360      DEB2868D 
 361 0578 23747D77 		.ascii	"#t}w\300\011b\236\200i\330D-\251\202\035t\015ft\313"
 361      C009629E 
 361      8069D844 
 361      2DA9821D 
 361      740D6674 
 362 058d 8B04CC90 		.ascii	"\213\004\314\220k2\007B\312\340\306l\2663\234\010\361"
 362      6B320742 
 362      CAE0C66C 
 362      B6339C08 
 362      F1
 363 059e F865BA68 		.ascii	"\370e\272hst\332\223\343\242%z\027\035s\302?O\214\266"
 363      7374DA93 
 363      E3A2257A 
 363      171D73C2 
 363      3F4F8CB6 
ARM GAS  /tmp/ccTgQrGI.s 			page 29


 364 05b2 E7F05737 		.ascii	"\347\360W7\222v\235\277\252\357\374\244\353\316\215"
 364      92769DBF 
 364      AAEFFCA4 
 364      EBCE8D
 365 05c1 C6FB6AD3 		.ascii	"\306\373j\323\013?\225\323\012\326\235\241\331\231,"
 365      0B3F95D3 
 365      0AD69DA1 
 365      D9992C
 366 05d0 33C377EE 		.ascii	"3\303w\356f;\324\345\034\231\227\317\371,\247x\007P"
 366      663BD4E5 
 366      1C9997CF 
 366      F92CA778 
 366      0750
 367 05e2 3D0B5F2F 		.ascii	"=\013_/\245\213\246\025\024h\246\337\234\361\261i\202"
 367      A58BA615 
 367      1468A6DF 
 367      9CF1B169 
 367      82
 368 05f3 C7C6193B 		.ascii	"\307\306\031;\343/\346.7m94\327o2\235\201b\236\021\234"
 368      E32FE62E 
 368      376D3934 
 368      D76F329D 
 368      81629E11 
 369 0608 19166DA5 		.ascii	"\031\026m\245\253\337\220\345\031>7\306Kk\306[Iu\236"
 369      ABDF90E5 
 369      193E37C6 
 369      4B6BC65B 
 369      49759E
 370 061b 9FA333B1 		.ascii	"\237\2433\261\205;E\026\271V$`R\344x\037\0249\256)\362"
 370      853B4516 
 370      B9562460 
 370      52E4781F 
 370      1439AE29 
 371 0630 0E55A4F9 		.ascii	"\016U\244\371\377\240\3102\327\212\014\324)BW\374\023"
 371      FFA0C832 
 371      D78A0CD4 
 371      294257FC 
 371      13
 372 0641 D5C5163B 		.ascii	"\325\305\026;.\262_l\021>k9\363I\321\026\262\345%\257"
 372      2EB25F6C 
 372      113E6B39 
 372      F349D116 
 372      B2E525AF 
 373 0655 0BAFB3BB 		.ascii	"\013\257\263\273\267\250[T\303yo\201\245q\033[\032\257"
 373      B7A85B54 
 373      C3796F81 
 373      A5711B5B 
 373      1AAF
 374 0667 A3167BDD 		.ascii	"\243\026{\335o1n\034!\365\354\332\272\215-\215?\242"
 374      6F316E1C 
 374      21F5ECDA 
 374      BA8D2D8D 
 374      3FA2
 375 0679 50AD39C6 		.ascii	"P\2559\306\367\231l\3573\332\036\036I_g\3509\317c\354"
 375      F7996CEF 
 375      33DA1E1E 
 375      495F67E8 
ARM GAS  /tmp/ccTgQrGI.s 			page 30


 375      39CF63EC 
 376 068d 0D79F0A3 		.ascii	"\015y\360\243>\313qh-\245A\354\327\227\005\030\361\237"
 376      3ECB7168 
 376      2DA541EC 
 376      D7970518 
 376      F19F
 377 069f 72E76A36 		.ascii	"r\347j6\321\2506Z\177I\210\265\312\342z\355`b4]\350"
 377      D1A8365A 
 377      7F4988B5 
 377      CAE27AED 
 377      6062345D 
 378 06b4 5C22DCFB 		.ascii	"\\\"\334\373[\315\251\332\224\267\217\332$\342\314f"
 378      5BCDA9DA 
 378      94B78FDA 
 378      24E2CC66 
 379 06c4 373D7805 		.ascii	"7=x\005\015\201Mt\021\261=\307oG\260i\221{\304x0k\027"
 379      0D814D74 
 379      11B13DC7 
 379      6F47B069 
 379      917BC478 
 380 06db CB1BF593 		.ascii	"\313\033\365\223\302w\227\354\207=w\031\375p\370\022"
 380      C27797EC 
 380      873D7719 
 380      FD70F812 
 381 06eb 0D77B6DE 		.ascii	"\015w\266\336\331\336\372!\015+D\025\351\246\335v\230"
 381      D9DEFA21 
 381      0D2B4415 
 381      E9A6DD76 
 381      98
 382 06fc 3724F396 		.ascii	"7$\363\226\354\257c\361\337\341`G\"+_\321\023\011uK"
 382      ECAF63F1 
 382      DFE16047 
 382      222B5FD1 
 382      1309754B 
 383 0710 CCE39398 		.ascii	"\314\343\223\230c\250\254WW[bY\331'\264\015w3\354;\331"
 383      63A8AC57 
 383      575B6259 
 383      D927B40D 
 383      7733EC3B 
 384 0725 B0DFA326 		.ascii	"\260\337\243&\312\200\331\347\037\231\023\245\253A\367"
 384      CA80D9E7 
 384      1F9913A5 
 384      AB41F7
 385 0734 6A001BB5 		.ascii	"j\000\033\265q\272\255\310\\v1\265]\037S\377\012\\R"
 385      71BAADC8 
 385      5C7631B5 
 385      5D1F53FF 
 385      0A5C52
 386 0747 04908DF0 		.ascii	"\004\220\215\360\004u\021i\0322\373m\206\014a\260O\317"
 386      04751169 
 386      1A32FB6D 
 386      860C61B0 
 386      4FCF
 387 0759 60E5A531 		.ascii	"`\345\2451P\326n\327el\207\207\031{\230\353\366S\327"
 387      50D66ED7 
 387      656C8787 
 387      197B98EB 
ARM GAS  /tmp/ccTgQrGI.s 			page 31


 387      F653D7
 388 076c BD97E3BA 		.ascii	"\275\227\343\272\263\346\025\212\2233\205O\372\252H"
 388      B3E6158A 
 388      9333854F 
 388      FAAA48
 389 077b E6824C16 		.ascii	"\346\202L\026p\260\356\013\033\335\253\213apG\372\367"
 389      70B0EE0B 
 389      1BDDAB8B 
 389      617047FA 
 389      F7
 390 078c 0ECF2532 		.ascii	"\016\317%2\271\253mH\0335\306\017\0349X\372\302d\014"
 390      B9AB6D48 
 390      1B35C60F 
 390      1C3958FA 
 390      C2640C
 391 079f 07E71B5F 		.ascii	"\007\347\033_S\221C\346\341\014i\237\035\324\035rt\276"
 391      539143E6 
 391      E10C699F 
 391      1DD41D72 
 391      74BE
 392 07b1 D03A474B 		.ascii	"\320:GK\352jrl\247\343\371\220\373}\277\325\245\347"
 392      EA6A726C 
 392      A7E3F990 
 392      FB7DBFD5 
 392      A5E7
 393 07c3 071D7064 		.ascii	"\007\035pd\223p\2243\234\346\036qb"
 393      93709433 
 393      9CE61E71 
 393      62
 394 07d0 FB5FD805 		.ascii	"\373_\330\005\242\254\234\332n<\242;i\306\263\312G\006"
 394      A2AC9CDA 
 394      6E3CA23B 
 394      69C6B3CA 
 394      4706
 395 07e2 3CBD2F61 		.ascii	"<\275/a7\325AwSj\214^pBn\270=\330\342\005\232q\367\321"
 395      37D54177 
 395      536A8C5E 
 395      70426EB8 
 395      3DD8E205 
 396 07fa 29AA2EE8 		.ascii	")\252.\350\000o\224\235\262\265\312\273\035\332Q\276"
 396      006F949D 
 396      B2B5CABB 
 396      1DDA51BE 
 397 080a 7A20F8B4 		.ascii	"z \370\264k<#\277\235\013\0143\372sN\340\3068\366}\366"
 397      6B3C23BF 
 397      9D0B0C33 
 397      FA734EE0 
 397      C638F67D 
 398 081f F895C727 		.ascii	"\370\225\307'\350\006\261\233\236\347\237\242\365\005"
 398      E806B19B 
 398      9EE79FA2 
 398      F505
 399 082d 5A3771A4 		.ascii	"Z7q\244^L\353\026Z\277B\353e\264~\213\326o\323z\015"
 399      5E4CEB16 
 399      5ABF42EB 
 399      65B47E8B 
 399      D66FD37A 
ARM GAS  /tmp/ccTgQrGI.s 			page 32


 400 0842 ADBFA7F5 		.ascii	"\255\277\247\3651Zw\321\272\233\326\247h\335\243\217"
 400      315A77D1 
 400      BA9BD6A7 
 400      68DDA38F 
 401 0852 2DBB3C68 		.ascii	"-\273<hZ\004h!\337\331\347\037X\266o\324m\300\233\202"
 401      5A046821 
 401      DFD9E71F 
 401      58B66FD4 
 401      6DC09B82 
 402 0866 D8255838 		.ascii	"\330%X8\237\015;u6<Dmx\230\332\355\254^Sm\026\336\337"
 402      9F0D3B75 
 402      363C446D 
 402      7898DAED 
 402      AC5E536D 
 403 087d D783E9F4 		.ascii	"\327\203\351\364\272\305\353tY\200CK\202\030\331\317"
 403      BAC5EB74 
 403      5980434B 
 403      8218D9CF 
 404 088d 2679E641 		.ascii	"&y\346Af\222\3630\253\233\246\246}y\246\246\213\331"
 404      6692F330 
 404      AB9BA6A6 
 404      7D79A6A6 
 404      8BD9
 405 089f A9497387 		.ascii	"\251Is\207\233\276\363Zp\277\316\202\007\250\005\277"
 405      9BBEF35A 
 405      70BFCE82 
 405      07A805BF 
 406 08af A5163C47 		.ascii	"\245\026<G#\346\2021\033-\013\232~[2\376\240\243\273"
 406      23E68231 
 406      1B2D0B9A 
 406      7E5B32FE 
 406      A0A3BB
 407 08c2 75360456 		.ascii	"u6\004V\350:\177\203v\376&\355\374}Z\177\203\035\204"
 407      E83A7F83 
 407      76FE26ED 
 407      FC7D5A7F 
 407      831D84
 408 08d5 EB529B2F 		.ascii	"\353R\233/T\262\237\354\250G,L\276!C\270\204\001L\367"
 408      54B29FEC 
 408      A8472C4C 
 408      BE2143B8 
 408      84014CF7 
 409 08e9 B8FD98A6 		.ascii	"\270\375\230\246\326c\3751\315\240\002Te\217+\252\225"
 409      D663FD31 
 409      CDA00254 
 409      658F2BAA 
 409      95
 410 08fa 9A7C7F26 		.ascii	"\232|\177&?\3235\323\307m\230\206\0120\235\341\216\251"
 410      3FD335D3 
 410      C76D9886 
 410      0A309DE1 
 410      8EA9
 411 090c 310A08C0 		.ascii	"1\012\010\300,\327Tg\333P\275\254\000\325:\033\252\352"
 411      2CD75467 
 411      DB50BDAC 
 411      00D53A1B 
 411      AAEA
ARM GAS  /tmp/ccTgQrGI.s 			page 33


 412 091e CFB97652 		.ascii	"\317\271vRO\270S\360~M\276\037\223\177\322\265~sm\364"
 412      4FB853F0 
 412      7E4DBE1F 
 412      937FD2B5 
 412      7E736DF4 
 413 0932 CBC97626 		.ascii	"\313\311v&\2719\356\230&5\371\001L\376i\327L\353m\230"
 413      B939EE98 
 413      2635F901 
 413      4CFE69D7 
 413      4CEB6D98 
 414 0946 F62FC0F4 		.ascii	"\366/\300\364)wL\0333As9\003\230\347\232\352|\033\252"
 414      29774C1B 
 414      33417339 
 414      0398E79A 
 414      EA7C1BAA 
 415 095a 2505A836 		.ascii	"%\005\25068\240J\216\224\230\274R\256\001t\206\030\302"
 415      38A04A8E 
 415      9498BC52 
 415      AE017486 
 415      18C2
 416 096c 33AEB93E 		.ascii	"3\256\271>k\303\365\207B\203qA\226\354P\364\242\254"
 416      6BC3F587 
 416      42837141 
 416      96EC50F4 
 416      A2AC
 417 097e 1C4FAF7E 		.ascii	"\034O\257~\255\353\316&\262\240\226/\366>\206M_\255"
 417      ADEBCE26 
 417      B2A0962F 
 417      F63E864D 
 417      5FAD
 418 0990 D9FCF445 		.ascii	"\331\374\364E\220\236\363h_\020j\037\204qh_\320\270"
 418      909EF368 
 418      5F106A1F 
 418      8471685F 
 418      D0B8
 419 09a2 B446E8E7 		.ascii	"\264F\350\347\350\025\202'/\223=\024\215\264_\350\031"
 419      E8158227 
 419      2F933D14 
 419      8DB45FE8 
 419      19
 420 09b3 8A74178F 		.ascii	"\212t\027\217\033=\234\376\205JL9\277!\3240=\335\333"
 420      1B3D9CFE 
 420      854A4C39 
 420      BF21D430 
 420      3DDDDB
 421 09c6 3B54ED0B 		.ascii	";T\355\0136\325\216\320\027\231\321\377i\211~\322\214"
 421      36D58ED0 
 421      1799D1FF 
 421      69897ED2 
 421      8C
 422 09d7 3EBB9F13 		.ascii	">\273\237\023\364&3\372\213\271\350\351\206t\317\252"
 422      F42633FA 
 422      8BB9E8E9 
 422      8674CFAA 
 423 09e7 AE5F36AE 		.ascii	"\256_6\256\222gZ\0305\200f\321\243\312\307\345\351\370"
 423      92675A18 
 423      358066D1 
ARM GAS  /tmp/ccTgQrGI.s 			page 34


 423      A3CAC7E5 
 423      E9F8
 424 09f9 D18CA36C 		.ascii	"\321\214\243l\277\372\\\342\011\220\015\\?\343)\261"
 424      BFFA5CE2 
 424      09900D5C 
 424      3FE329B1 
 425 0a09 8E0069A0 		.ascii	"\216\000i\240y\\\275\327\356\362\374\016\320\3421|r"
 425      795CBDD7 
 425      EEF2FC0E 
 425      D0E2317C 
 425      72
 426 0a1a A8B6CF3E 		.ascii	"\250\266\317>\250K\004\303\247~\034Z\227c \265\321R"
 426      A84B04C3 
 426      A77E1C5A 
 426      976320B5 
 426      D152
 427 0a2c 4B0BD42F 		.ascii	"K\013\324/\371\034?/\257\237)\367\366>\206\234\177\013"
 427      F91C3F2F 
 427      AF9F29F7 
 427      F63E869C 
 427      7F0B
 428 0a3e B9DC4C8C 		.ascii	"\271\334L\214L\311\346o\020M\237(\232xn\262\341\371"
 428      4CC9E66F 
 428      104D9F28 
 428      9A786EB2 
 428      E1F9
 429 0a50 BA154F65 		.ascii	"\272\025Oe\301\234\271C\344\226Z\245\267w\264\231f\236"
 429      C19CB943 
 429      E4965AA5 
 429      B777B499 
 429      669E
 430 0a62 E07FD34C 		.ascii	"\340\177\323L\223\376\244k\240\261\317\206\306JK\032"
 430      93FEA46B 
 430      A0B1CF86 
 430      C64A4B1A 
 431 0a72 CFCE79CA 		.ascii	"\317\316y\312\216F\276\251\2475\257\271\330\304d~6\021"
 431      8E46BEA9 
 431      A735AFB9 
 431      D8C4647E 
 431      3611
 432 0a84 3D6843F4 		.ascii	"=hC\364]K\242\275\263\372b\257\325yy\2166\322\264\372"
 432      5D4BA2BD 
 432      B3FA62AF 
 432      D579798E 
 432      36D2B4FA 
 433 0a98 D29443A7 		.ascii	"\322\224C\247mh~`\244y=j\221\323\355$\253\235\306\260"
 433      6D687E60 
 433      A4793D6A 
 433      91D3ED24 
 433      AB9DC6B0 
 434 0aac AF9F3D83 		.ascii	"\257\237=\203\234?\341^\217\366\321\360\254b\015F[o"
 434      9C3FE15E 
 434      8FF6D1F0 
 434      AC620D46 
 434      5B6F
 435 0abe 18BE0726 		.ascii	"\030\276\007&\210\037f\021)ZC\272c\315\336\237-\253"
 435      881F6611 
ARM GAS  /tmp/ccTgQrGI.s 			page 35


 435      295A43BA 
 435      63CDDE9F 
 435      2DAB
 436 0ad0 956766C1 		.ascii	"\225gf\301H\312\346\320Z3\230Er\377\310\210\326<\237"
 436      48CAE6D0 
 436      5A339845 
 436      72FFC888 
 436      D63C9F
 437 0ae3 24875B96 		.ascii	"$\207[\226\323\344\240\241y\311\006\36333X\216\025?"
 437      D3E4A0A1 
 437      79C906F3 
 437      3333588E 
 437      153F
 438 0af5 3642BDA5 		.ascii	"6B\275\245\200\232\333&\256\251%\311[\205\322\346\034"
 438      809ADB26 
 438      AEA925C9 
 438      5B85D2E6 
 438      1C
 439 0b06 DDF9AE92 		.ascii	"\335\371\256\222=\260\204\355\002.\364\025V\317\252"
 439      3DB084ED 
 439      022EF415 
 439      56CFAA
 440 0b15 6D83C9CF 		.ascii	"m\203\311\317#\005?\270\342q\233\347\306\302\337e\321"
 440      23053FB8 
 440      E2719BE7 
 440      C6C2DF65 
 440      D1
 441 0b26 335E8FE9 		.ascii	"3^\217\351\233\254sBX}[\370\314\344\302\2056L\217@I"
 441      9BAC7342 
 441      587D5BF8 
 441      CCE4C285 
 441      364C8F40 
 442 0b3b 52E2F1CB 		.ascii	"R\342\361\313\034\307\000\373\266\177\354=H\341L\253"
 442      1CC700FB 
 442      B67FEC3D 
 442      48E14CAB 
 443 0b4b 3B3203D8 		.ascii	";2\003\330\031}\213\307\364\265\3066\352'7\024\302\006"
 443      197D8BC7 
 443      F4B5C636 
 443      EA273714 
 443      C206
 444 0b5d 0A0D1BE8 		.ascii	"\012\015\033\350\026\226\340rh\267\023\260<\233\277"
 444      1696E072 
 444      68B713B0 
 444      3C9BBF
 445 0b6c F97AB0B4 		.ascii	"\371z\260\264k\260\260\311\350\332\376i\223\207\354"
 445      6BB0B0C9 
 445      E8DAFE69 
 445      9387EC
 446 0b7b 9F367BC8 		.ascii	"\2376{\310\316\351\013Z\267\323z\273\307\370y`\261q"
 446      CEE90B5A 
 446      B7D37ABB 
 446      C7F87960 
 446      B171
 447 0b8d 4C6A4ED5 		.ascii	"LjN\325\341e}\217\012#Z\373\300\344\254\317l\364\243"
 447      E1657D8F 
 447      0A235AFB 
ARM GAS  /tmp/ccTgQrGI.s 			page 36


 447      C0E4ACCF 
 447      6CF4A3
 448 0ba0 1F837A0C 		.ascii	"\037\203z\014\277Bd!\0372\356V\262\343D\225\261n\305"
 448      BF426421 
 448      1F32EE56 
 448      B2E34495 
 448      B16EC5
 449 0bb3 E35DAE57 		.ascii	"\343]\256Wf\273mVf\372$\225mEV5\346a\237Cb\017\014\373"
 449      66BB6D56 
 449      66FA2495 
 449      6D455635 
 449      E6619F43 
 450 0bcb 6BD1E3A1 		.ascii	"k\321\343\241&Y\365\335H\324*\317V\206\363\370S`\227"
 450      2659F5DD 
 450      48D42ACF 
 450      5686F3F8 
 450      536097
 451 0bde 898A7FA0 		.ascii	"\211\212\177\240\377\312\2152d\204\275\023=\252R$G\264"
 451      FFCA8D32 
 451      6484BD13 
 451      3DAA5224 
 451      47B4
 452 0bf0 B72B1D5B 		.ascii	"\267+\035[\310\251\035$\211\213\275\275X5\037\207\026"
 452      C8A91D24 
 452      898BBDBD 
 452      58351F87 
 452      16
 453 0c01 87CC6930 		.ascii	"\207\314i0g\324~\303\262\215\332\335\030URu\241\332"
 453      67D47EC3 
 453      B28DDADD 
 453      18555275 
 453      A1DA
 454 0c13 17F9D9D1 		.ascii	"\027\371\331\321\311\342\2743\003}\015\203\336\357\332"
 454      C9E2BC33 
 454      037D0D83 
 454      DEEFDA
 455 0c22 ACFFB131 		.ascii	"\254\377\2611\353\325y#\207\307\351l@\\\213V\200\011"
 455      EBD57923 
 455      87C7E96C 
 455      405C8B56 
 455      8009
 456 0c34 1BC764BB 		.ascii	"\033\307d\273W#\221(3[Vv\015\320\306:[\343\251\021J"
 456      57239128 
 456      335B5676 
 456      0DD0C63A 
 456      5BE3A911 
 457 0c49 F0B65010 		.ascii	"\360\266P\0205VY\353/3\255\365\353M\306\002k\006z\257"
 457      355659EB 
 457      2F33ADF5 
 457      EB4DC602 
 457      6B067AAF 
 458 0c5d C4E089B3 		.ascii	"\304\340\211\263[-<\261\261\260':\013z\342\334V\254"
 458      5B2D3CB1 
 458      B1B0273A 
 458      0B7AE2DC 
 458      56AC
 459 0c6f 6EB4AF45 		.ascii	"n\264\257E\273\231\2223\015J\352\325\310\243VC\211\246"
ARM GAS  /tmp/ccTgQrGI.s 			page 37


 459      BB999233 
 459      0D4AEAD5 
 459      C8A35643 
 459      89A6
 460 0c81 D6C25CB5 		.ascii	"\326\302\\\265\324\211R\033b\246Q\351\265\367\335Q\373"
 460      D489521B 
 460      62A651E9 
 460      B5F7DD51 
 460      FB
 461 0c92 5D759EBC 		.ascii	"]u\236\274\373\243\255\324\362<R\307l\245Z\362H\035"
 461      FBA3ADD4 
 461      F23C52C7 
 461      6CA55AF2 
 461      481D
 462 0ca4 B7957A33 		.ascii	"\267\225z3\217T\227qf`\373\251co\034\344\236\227\025"
 462      8F549771 
 462      6660FBA9 
 462      636F1CE4 
 462      9E9715
 463 0cb7 BAF0BDCE 		.ascii	"\272\360\275\316\371\302\267\333\311\302\327\264$\372"
 463      F9C2B7DB 
 463      C9C2D7B4 
 463      24FA
 464 0cc5 2E644CBF 		.ascii	".dL\2777\240\227dy\276\274M\230\240}\317\336E[\234\000"
 464      37A09764 
 464      79BEBC4D 
 464      98A07DCF 
 464      DE455B9C 
 465 0cda 5F5AF5CB 		.ascii	"_Z\365\313\016\274\230\330\005\"\326J\277u\370\222\036"
 465      0EBC98D8 
 465      0522D64A 
 465      BF75F892 
 465      1E
 466 0ceb 0BDA8B31 		.ascii	"\013\332\2131:t\203T+\177\365\355\375\023\330\"\316"
 466      3A748354 
 466      2B7FF5ED 
 466      FD13D822 
 466      CE
 467 0cfc 5E88A979 		.ascii	"^\210\251y\332\270Z3Y{u\036k\237\323\245\366\242h%/"
 467      DAB85A33 
 467      597B751E 
 467      6B9FD3A5 
 467      F6A26825 
 468 0d11 DE3C6C58 		.ascii	"\336<lX\251\372/\221*\215&\252\253\023q\270\253\212"
 468      A9FA2F91 
 468      2A8D26AA 
 468      AB1371B8 
 468      AB8A
 469 0d23 4D2A8DC5 		.ascii	"M*\215\305\243U5eBi\264\262R\340\223\303*Q\377j\241"
 469      A3553565 
 469      4269B4B2 
 469      52E093C3 
 469      2A51FF6A 
 470 0d38 3A214E8B 		.ascii	":!N\213\220\307\210\344\033\377\307\007\303\343P\261"
 470      90C788E4 
 470      1BFFC707 
 470      C3E350B1 
ARM GAS  /tmp/ccTgQrGI.s 			page 38


 471 0d48 EE655569 		.ascii	"\356eUie\242Z(MHR\242\364^!.%\304\361\"\237\254\214"
 471      65A25A28 
 471      4D4852A2 
 471      F45E212E 
 471      25C4F122 
 472 0d5f 4553A50F 		.ascii	"ES\245\017$j\304\250\000\355\306%\312\204\273\205x\264"
 472      246AC4A8 
 472      00EDC625 
 472      CA84BB85 
 472      78B4
 473 0d71 32F28798 		.ascii	"2\362\207\230$D\312\023bd\354\237\356\215\374v\354\335"
 473      2444CA13 
 473      6264EC9F 
 473      EE8DFC76 
 473      ECDD
 474 0d83 134B49AF 		.ascii	"\023KI\257\025\321h)/V\337\032O\304\205[\005~R\254t"
 474      15D16829 
 474      2F56DF1A 
 474      4FC4855B 
 474      057E52AC 
 475 0d98 E4B051C3 		.ascii	"\344\260Q\303Fd\330\244\244\2622\241\034\330\370R\261"
 475      4664D8A4 
 475      A4B232A1 
 475      1CD8F852 
 475      B1
 476 0da9 BF0B11E9 		.ascii	"\277\013\021\351V\007\374\201b4!\012L\205\012A*\257"
 476      5607FC81 
 476      6234210A 
 476      4C850A41 
 476      2AAF
 477 0dbb 89476F8B 		.ascii	"\211Go\213H\201\244\230\230\034+\023\304\376T%\250\340"
 477      4881A498 
 477      981C2B13 
 477      C4FE5425 
 477      A8E0
 478 0dcd 3E2215EB 		.ascii	">\"\025\353\236n\262\200O&D)U\012\254\307\335;\025\320"
 478      9E6EB280 
 478      4F264429 
 478      550AACC7 
 478      DD3B15D0 
 479 0de1 1974BF94 		.ascii	"\031t\277\224\364\010_\025\253\210G\244\277]\242\035"
 479      F4085F15 
 479      AB8847A4 
 479      BF5DA21D 
 480 0df1 8CFAEB34 		.ascii	"\214\372\3534\217\305%\350)P\003\377\337>2\"yi\177E"
 480      8FC525E8 
 480      295003FF 
 480      DF3E3222 
 480      79697F45 
 481 0e05 7161AAE4 		.ascii	"qa\252\344M\362\025B\252\250\\\024\204\"B\277\210X\247"
 481      4DF21542 
 481      AAA85C14 
 481      842242BF 
 481      8858A7
 482 0e18 A8262594 		.ascii	"\250&%\224\371TE\206\352\025\021%\275u\244\251\000\352"
 482      F9544586 
 482      EA151125 
ARM GAS  /tmp/ccTgQrGI.s 			page 39


 482      BD75A4A9 
 482      00EA
 483 0e2a AFAE9184 		.ascii	"\257\256\221\204\251`\023`Doo\260\025HMKI\323\222B\012"
 483      A9601360 
 483      446F6FB0 
 483      15484D4B 
 483      49D39242 
 484 0e3f A42E932A 		.ascii	"\244.\223*E\200OE\036\255\021j\300\033\003A\332\360"
 484      45804F45 
 484      1EAD116A 
 484      C01B0341 
 484      DAF0
 485 0e51 2A6C8F12 		.ascii	"*l\217\022\255,#\312\250\315#R0#\352\245\222\243\012"
 485      AD2C23CA 
 485      A8CD2352 
 485      3023EAA5 
 485      92A30A
 486 0e64 5A3E519D 		.ascii	"Z>Q\235\214U\011b\252t\374\270q\000\250q\362KI1\226"
 486      8C550962 
 486      AA74FCB8 
 486      7100A871 
 486      F24B4931 
 487 0e79 004D8899 		.ascii	"\000M\210\231~\005n.\"\317!\"\033\211&\342\240\232T"
 487      7E056E2E 
 487      22CF2122 
 487      1B8926E2 
 487      A09A54
 488 0e8c 4C1FE0CF 		.ascii	"L\037\340\317Qi\252U\000Yx82\371\216jBW\024*\300=\021"
 488      5169AA55 
 488      00597838 
 488      32F98E6A 
 488      4257142A 
 489 0ea3 89134772 		.ascii	"\211\023Gr\342\2579\361vN\274\203\023Gq\342o<\342\210"
 489      E2AF39F1 
 489      764EBC83 
 489      134771E2 
 489      6F3CE288 
 490 0eb7 E1504670 		.ascii	"\341PFpU\"\227Jz\000\332\033\027\246\010\2427Q\005\366"
 490      5522974A 
 490      7A00DA1B 
 490      17A608A2 
 490      375105F6 
 491 0ecb 2F8AF3D5 		.ascii	"/\212\363\325\202o\012?\211O\011\001)%\361\340t\311"
 491      826F0A3F 
 491      894F0901 
 491      2925F1E0 
 491      74C9
 492 0edd 4F288E02 		.ascii	"O(\216\002G\322g\277T\015A\001O\345U|E\312/\211By\012"
 492      47D267BF 
 492      540D4101 
 492      4FE5557C 
 492      45CA2F89 
 493 0ef4 D893FFBC 		.ascii	"\330\223\377\274\325\251\012h\316\024\362\211e\323\340"
 493      D5A90A68 
 493      CE14F289 
 493      65D3E0
 494 0f03 4540981A 		.ascii	"E@\230\032\223\242 \342\233\"%&=\234,a\246\004\001A"
ARM GAS  /tmp/ccTgQrGI.s 			page 40


 494      93A220E2 
 494      9B222526 
 494      3D9C2C61 
 494      A6040141 
 495 0f17 84D02250 		.ascii	"\204\320\"PS$IL\372S\020\204 \020\002\023\247\204j\010"
 495      5324494C 
 495      FA531084 
 495      20100213 
 495      A7846A08 
 496 0f2b 4550C83E 		.ascii	"EP\310> \240\011h\352\215\306\245\210\344\201\032\340"
 496      20A00968 
 496      EA8DC6A5 
 496      88E4811A 
 496      E0
 497 0f3c E15512FE 		.ascii	"\341U\022\376\203PI\026\013\223\011\032\237z\004\210"
 497      83504916 
 497      0B93091A 
 497      9F7A0488 
 498 0f4c 0853C80D 		.ascii	"\010S\310\015\256\031\2409\275*\226\002\251\313ta@\336"
 498      AE19A039 
 498      BD2A9602 
 498      A9CB7461 
 498      40DE
 499 0f5e F8A7F031 		.ascii	"\370\247\3601)\026\257\010\000\011\352\334\200\220\024"
 499      2916AF08 
 499      0009EADC 
 499      809014
 500 0f6d E210CE15 		.ascii	"\342\020\316\025~\200$-\300\256|\025\361\223\267:\231"
 500      7E80242D 
 500      C0AE7C15 
 500      F193B73A 
 500      99
 501 0f7e 485481CB 		.ascii	"HT\201\313\204\311\336\304\224\270 z\240\305\210\014"
 501      84C9DEC4 
 501      94B8207A 
 501      A0C5880C 
 502 0f8e 57494849 		.ascii	"WIHI\204m\212\216#\365\221T\240\027\000\023\235\207"
 502      846D8A8E 
 502      23F59154 
 502      A0170013 
 502      9D87
 503 0fa0 8F18312C 		.ascii	"\217\0301,\212~B_\302}d\370\360\333\"\302T!\0121\255"
 503      8A7E425F 
 503      C27D64F8 
 503      F0DB22C2 
 503      54210A31 
 504 0fb5 7F39427B 		.ascii	"\1779B{Ybx\231\022\244\232\344\325\306\356H2!\012\301"
 504      59627899 
 504      12A49AE4 
 504      D5C6EE48 
 504      32210AC1 
 505 0fc9 3DB14BE4 		.ascii	"=\261K\344n \030\242\217\021>\225\022D\251$Z9\001\306"
 505      6E2018A2 
 505      8F113E95 
 505      1244A924 
 505      5A3901C6 
 506 0fdd DCD8AAAA 		.ascii	"\334\330\252\252Dt,\031\222BY?\365\325\357`<\206\324"
ARM GAS  /tmp/ccTgQrGI.s 			page 41


 506      44742C19 
 506      9242593F 
 506      F5D5EF60 
 506      3C86D4
 507 0ff0 DB07C0C5 		.ascii	"\333\007\300\3055\251\201\352\303}\223\036\026\242\322"
 507      35A981EA 
 507      C37D931E 
 507      16A2D2
 508 0fff C4       		.ascii	"\304"
 509 1000 784C0A52 		.ascii	"xL\012R\0342do*\254\244\230H\020\012\305\364aRM9\370"
 509      1C32646F 
 509      2AACA498 
 509      48100AC5 
 509      F461524D 
 510 1016 59954F49 		.ascii	"Y\225OIB\322K\271\007$\201\027\313\300r~\246_?\322 "
 510      42D24BB9 
 510      07248117 
 510      CBC0727E 
 510      A65F3FD2 
 511 102b 0A511791 		.ascii	"\012Q\027\221\006\345Xj\31001Q\306K\374\260\234\277"
 511      06E5586A 
 511      C8303151 
 511      C64BFCB0 
 511      9CBF
 512 103d 84F466B9 		.ascii	"\204\364f\271\206\252\306K\261D<\314\307\313\302\345"
 512      86AAC64B 
 512      B1443CCC 
 512      C7CBC2E5 
 513 104d 225F510D 		.ascii	"\"_Q\015Q@\337 }\323\333\372\337#\224\3635UR\230\250"
 513      5140DF20 
 513      7DD3DBFA 
 513      DF2394F3 
 513      35555298 
 514 1062 898A7596 		.ascii	"\211\212u\226\361\022%\223\377\003\367\020\221l"
 514      F1122593 
 514      FF03F710 
 514      916C
 515              		.text
 516              		.section	.gnu.lto_.symtab.108778a77f70d2a9,"",%progbits
 517 0000 74657374 		.ascii	"test_heap\000\000\000\000\000\000\000\000\000\000\000"
 517      5F686561 
 517      70000000 
 517      00000000 
 517      00000000 
 518 0014 00BE0100 		.ascii	"\000\276\001\000\000test_sequence_011\000\000\000\000"
 518      00746573 
 518      745F7365 
 518      7175656E 
 518      63655F30 
 519 002e 00000000 		.ascii	"\000\000\000\000\000\000\000\000\304\001\000\000tes"
 519      00000000 
 519      C4010000 
 519      746573
 520 003d 745F7374 		.ascii	"t_step\000\000\002\000\000\000\000\000\000\000\000\000"
 520      65700000 
 520      02000000 
 520      00000000 
ARM GAS  /tmp/ccTgQrGI.s 			page 42


 520      0000
 521 004f C2010000 		.ascii	"\302\001\000\000test_buffer\000\000\002\000\000\000"
 521      74657374 
 521      5F627566 
 521      66657200 
 521      00020000 
 522 0064 00000000 		.ascii	"\000\000\000\000\000\000\300\001\000\000_test_asser"
 522      0000C001 
 522      00005F74 
 522      6573745F 
 522      61737365 
 523 0079 74000002 		.ascii	"t\000\000\002\000\000\000\000\000\000\000\000\000\240"
 523      00000000 
 523      00000000 
 523      00A0
 524 0087 01000063 		.ascii	"\001\000\000chHeapAllocAligned\000\000\002\000\000\000"
 524      68486561 
 524      70416C6C 
 524      6F63416C 
 524      69676E65 
 525 00a2 00000000 		.ascii	"\000\000\000\000\000\000\250\001\000\000chHeapFree\000"
 525      0000A801 
 525      00006368 
 525      48656170 
 525      46726565 
 526 00b7 00020000 		.ascii	"\000\002\000\000\000\000\000\000\000\000\000\256\001"
 526      00000000 
 526      000000AE 
 526      01
 527 00c4 00006368 		.ascii	"\000\000chHeapStatus\000\000\002\000\000\000\000\000"
 527      48656170 
 527      53746174 
 527      75730000 
 527      02000000 
 528 00da 00000000 		.ascii	"\000\000\000\000\262\001\000\000chHeapObjectInit\000"
 528      B2010000 
 528      63684865 
 528      61704F62 
 528      6A656374 
 529 00f3 00020000 		.ascii	"\000\002\000\000\000\000\000\000\000\000\000\270\001"
 529      00000000 
 529      000000B8 
 529      01
 530 0100 0000     		.ascii	"\000\000"
 531              		.text
 532              		.section	.gnu.lto_.opts,"",%progbits
 533 0000 272D6D63 		.ascii	"'-mcpu=cortex-m3' '-mno-thumb-interwork' '-mthumb' "
 533      70753D63 
 533      6F727465 
 533      782D6D33 
 533      2720272D 
 534 0033 272D6767 		.ascii	"'-ggdb' '-O2' '-fomit-frame-pointer' '-falign-funct"
 534      64622720 
 534      272D4F32 
 534      2720272D 
 534      666F6D69 
 535 0066 696F6E73 		.ascii	"ions=16' '-ffunction-sections' '-fdata-sections' '-"
ARM GAS  /tmp/ccTgQrGI.s 			page 43


 535      3D313627 
 535      20272D66 
 535      66756E63 
 535      74696F6E 
 536 0099 666E6F2D 		.ascii	"fno-common' '-flto'\000"
 536      636F6D6D 
 536      6F6E2720 
 536      272D666C 
 536      746F2700 
 537              		.text
 538              		.cfi_sections	.debug_frame
 539              		.section	.text.test_011_002_execute,"ax",%progbits
 540              		.align	2
 541              		.p2align 4,,15
 542              		.thumb
 543              		.thumb_func
 544              		.type	test_011_002_execute, %function
 545              	test_011_002_execute:
 546              	.LFB221:
 547              		.file 1 "../../../test/rt/source/test/test_sequence_011.c"
 548              		.loc 1 230 0
 549              		.cfi_startproc
 550              		@ args = 0, pretend = 0, frame = 8
 551              		@ frame_needed = 0, uses_anonymous_args = 0
 552 0000 70B5     		push	{r4, r5, r6, lr}
 553              		.cfi_def_cfa_offset 16
 554              		.cfi_offset 4, -16
 555              		.cfi_offset 5, -12
 556              		.cfi_offset 6, -8
 557              		.cfi_offset 14, -4
 558              		.loc 1 236 0
 559 0002 40F20004 		movw	r4, #:lower16:test_step
 560              		.loc 1 230 0
 561 0006 82B0     		sub	sp, sp, #8
 562              		.cfi_def_cfa_offset 24
 563              		.loc 1 236 0
 564 0008 0123     		movs	r3, #1
 565              		.loc 1 238 0
 566 000a 6946     		mov	r1, sp
 567 000c 01AA     		add	r2, sp, #4
 568              		.loc 1 236 0
 569 000e C0F20004 		movt	r4, #:upper16:test_step
 570              		.loc 1 238 0
 571 0012 0020     		movs	r0, #0
 572              		.loc 1 236 0
 573 0014 2360     		str	r3, [r4]
 574              		.loc 1 238 0
 575 0016 FFF7FEFF 		bl	chHeapStatus
 576              	.LVL0:
 577              	.LBB37:
 578              	.LBB38:
 579              		.file 2 "../../../os/common/oslib/include/chheap.h"
 580              		.loc 2 157 0
 581 001a 40F20000 		movw	r0, #:lower16:.LANCHOR0
 582 001e 1021     		movs	r1, #16
 583 0020 0822     		movs	r2, #8
 584 0022 C0F20000 		movt	r0, #:upper16:.LANCHOR0
ARM GAS  /tmp/ccTgQrGI.s 			page 44


 585 0026 FFF7FEFF 		bl	chHeapAllocAligned
 586              	.LVL1:
 587              	.LBE38:
 588              	.LBE37:
 589              		.loc 1 240 0
 590 002a 40F20001 		movw	r1, #:lower16:.LC0
 591 002e 0646     		mov	r6, r0
 592 0030 0030     		adds	r0, r0, #0
 593 0032 18BF     		it	ne
 594 0034 0120     		movne	r0, #1
 595 0036 C0F20001 		movt	r1, #:upper16:.LC0
 596 003a FFF7FEFF 		bl	_test_assert
 597              	.LVL2:
 598 003e 0546     		mov	r5, r0
 599 0040 08B1     		cbz	r0, .L5
 600              		.loc 1 250 0
 601 0042 02B0     		add	sp, sp, #8
 602              		@ sp needed
 603 0044 70BD     		pop	{r4, r5, r6, pc}
 604              	.L5:
 605              		.loc 1 241 0
 606 0046 3046     		mov	r0, r6
 607 0048 FFF7FEFF 		bl	chHeapFree
 608              	.LVL3:
 609              		.loc 1 245 0
 610 004c 0223     		movs	r3, #2
 611              	.LBB39:
 612              	.LBB40:
 613              		.loc 2 157 0
 614 004e 0822     		movs	r2, #8
 615 0050 2846     		mov	r0, r5
 616 0052 6FF0FF01 		mvn	r1, #255
 617              	.LBE40:
 618              	.LBE39:
 619              		.loc 1 245 0
 620 0056 2360     		str	r3, [r4]
 621              	.LVL4:
 622              	.LBB42:
 623              	.LBB41:
 624              		.loc 2 157 0
 625 0058 FFF7FEFF 		bl	chHeapAllocAligned
 626              	.LVL5:
 627              	.LBE41:
 628              	.LBE42:
 629              		.loc 1 248 0
 630 005c 40F20001 		movw	r1, #:lower16:.LC1
 631 0060 D0F10100 		rsbs	r0, r0, #1
 632 0064 38BF     		it	cc
 633 0066 0020     		movcc	r0, #0
 634 0068 C0F20001 		movt	r1, #:upper16:.LC1
 635 006c FFF7FEFF 		bl	_test_assert
 636              	.LVL6:
 637              		.loc 1 250 0
 638 0070 02B0     		add	sp, sp, #8
 639              		@ sp needed
 640 0072 70BD     		pop	{r4, r5, r6, pc}
 641              		.cfi_endproc
ARM GAS  /tmp/ccTgQrGI.s 			page 45


 642              	.LFE221:
 643              		.size	test_011_002_execute, .-test_011_002_execute
 644 0074 AFF30080 		.section	.text.test_011_001_execute,"ax",%progbits
 644      AFF30080 
 644      AFF30080 
 645              		.align	2
 646              		.p2align 4,,15
 647              		.thumb
 648              		.thumb_func
 649              		.type	test_011_001_execute, %function
 650              	test_011_001_execute:
 651              	.LFB220:
 652              		.loc 1 94 0
 653              		.cfi_startproc
 654              		@ args = 0, pretend = 0, frame = 16
 655              		@ frame_needed = 0, uses_anonymous_args = 0
 656 0000 2DE9F041 		push	{r4, r5, r6, r7, r8, lr}
 657              		.cfi_def_cfa_offset 24
 658              		.cfi_offset 4, -24
 659              		.cfi_offset 5, -20
 660              		.cfi_offset 6, -16
 661              		.cfi_offset 7, -12
 662              		.cfi_offset 8, -8
 663              		.cfi_offset 14, -4
 664              		.loc 1 102 0
 665 0004 40F20000 		movw	r0, #:lower16:.LANCHOR0
 666              		.loc 1 94 0
 667 0008 84B0     		sub	sp, sp, #16
 668              		.cfi_def_cfa_offset 40
 669              		.loc 1 100 0
 670 000a 40F20004 		movw	r4, #:lower16:test_step
 671 000e 0123     		movs	r3, #1
 672              		.loc 1 102 0
 673 0010 01A9     		add	r1, sp, #4
 674              		.loc 1 100 0
 675 0012 C0F20004 		movt	r4, #:upper16:test_step
 676              		.loc 1 102 0
 677 0016 C0F20000 		movt	r0, #:upper16:.LANCHOR0
 678 001a 0022     		movs	r2, #0
 679              		.loc 1 100 0
 680 001c 2360     		str	r3, [r4]
 681              		.loc 1 102 0
 682 001e FFF7FEFF 		bl	chHeapStatus
 683              	.LVL7:
 684 0022 B0F1010E 		subs	lr, r0, #1
 685 0026 DEF10000 		rsbs	r0, lr, #0
 686 002a 40F20001 		movw	r1, #:lower16:.LC2
 687 002e 50EB0E00 		adcs	r0, r0, lr
 688 0032 C0F20001 		movt	r1, #:upper16:.LC2
 689 0036 FFF7FEFF 		bl	_test_assert
 690              	.LVL8:
 691 003a 10B1     		cbz	r0, .L14
 692              	.L6:
 693              		.loc 1 207 0
 694 003c 04B0     		add	sp, sp, #16
 695              		@ sp needed
 696 003e BDE8F081 		pop	{r4, r5, r6, r7, r8, pc}
ARM GAS  /tmp/ccTgQrGI.s 			page 46


 697              	.L14:
 698              	.LBB43:
 699              	.LBB44:
 700              		.loc 2 157 0
 701 0042 40F20000 		movw	r0, #:lower16:.LANCHOR0
 702              	.LBE44:
 703              	.LBE43:
 704              		.loc 1 107 0
 705 0046 0223     		movs	r3, #2
 706              	.LBB47:
 707              	.LBB45:
 708              		.loc 2 157 0
 709 0048 4FF44D61 		mov	r1, #3280
 710 004c C0F20000 		movt	r0, #:upper16:.LANCHOR0
 711 0050 0822     		movs	r2, #8
 712              	.LBE45:
 713              	.LBE47:
 714              		.loc 1 107 0
 715 0052 2360     		str	r3, [r4]
 716              	.LVL9:
 717              	.LBB48:
 718              	.LBB46:
 719              		.loc 2 157 0
 720 0054 FFF7FEFF 		bl	chHeapAllocAligned
 721              	.LVL10:
 722              	.LBE46:
 723              	.LBE48:
 724              		.loc 1 110 0
 725 0058 40F20001 		movw	r1, #:lower16:.LC1
 726 005c D0F10100 		rsbs	r0, r0, #1
 727 0060 38BF     		it	cc
 728 0062 0020     		movcc	r0, #0
 729 0064 C0F20001 		movt	r1, #:upper16:.LC1
 730 0068 FFF7FEFF 		bl	_test_assert
 731              	.LVL11:
 732 006c 0028     		cmp	r0, #0
 733 006e E5D1     		bne	.L6
 734              	.LBB49:
 735              	.LBB50:
 736              		.loc 2 157 0
 737 0070 40F20000 		movw	r0, #:lower16:.LANCHOR0
 738              	.LBE50:
 739              	.LBE49:
 740              		.loc 1 115 0
 741 0074 0323     		movs	r3, #3
 742              	.LBB53:
 743              	.LBB51:
 744              		.loc 2 157 0
 745 0076 1021     		movs	r1, #16
 746 0078 C0F20000 		movt	r0, #:upper16:.LANCHOR0
 747 007c 0822     		movs	r2, #8
 748              	.LBE51:
 749              	.LBE53:
 750              		.loc 1 115 0
 751 007e 2360     		str	r3, [r4]
 752              	.LVL12:
 753              	.LBB54:
ARM GAS  /tmp/ccTgQrGI.s 			page 47


 754              	.LBB52:
 755              		.loc 2 157 0
 756 0080 FFF7FEFF 		bl	chHeapAllocAligned
 757              	.LVL13:
 758              	.LBE52:
 759              	.LBE54:
 760              		.loc 1 118 0
 761 0084 40F20001 		movw	r1, #:lower16:.LC0
 762 0088 0546     		mov	r5, r0
 763 008a 0030     		adds	r0, r0, #0
 764 008c 18BF     		it	ne
 765 008e 0120     		movne	r0, #1
 766 0090 C0F20001 		movt	r1, #:upper16:.LC0
 767 0094 FFF7FEFF 		bl	_test_assert
 768              	.LVL14:
 769 0098 0028     		cmp	r0, #0
 770 009a CFD1     		bne	.L6
 771              		.loc 1 119 0
 772 009c 2846     		mov	r0, r5
 773 009e FFF7FEFF 		bl	chHeapFree
 774              	.LVL15:
 775              	.LBB55:
 776              		.loc 1 128 0
 777 00a2 40F20000 		movw	r0, #:lower16:.LANCHOR0
 778              	.LBE55:
 779              		.loc 1 124 0
 780 00a6 0423     		movs	r3, #4
 781              	.LBB56:
 782              		.loc 1 128 0
 783 00a8 02A9     		add	r1, sp, #8
 784 00aa C0F20000 		movt	r0, #:upper16:.LANCHOR0
 785 00ae 03AA     		add	r2, sp, #12
 786              	.LBE56:
 787              		.loc 1 124 0
 788 00b0 2360     		str	r3, [r4]
 789              	.LBB57:
 790              		.loc 1 128 0
 791 00b2 FFF7FEFF 		bl	chHeapStatus
 792              	.LVL16:
 793              		.loc 1 129 0
 794 00b6 471E     		subs	r7, r0, #1
 795              		.loc 1 128 0
 796 00b8 0346     		mov	r3, r0
 797              		.loc 1 129 0
 798 00ba 40F20001 		movw	r1, #:lower16:.LC3
 799 00be 7842     		rsbs	r0, r7, #0
 800 00c0 7841     		adcs	r0, r0, r7
 801 00c2 C0F20001 		movt	r1, #:upper16:.LC3
 802              		.loc 1 128 0
 803 00c6 0093     		str	r3, [sp]
 804              		.loc 1 129 0
 805 00c8 FFF7FEFF 		bl	_test_assert
 806              	.LVL17:
 807 00cc 0028     		cmp	r0, #0
 808 00ce B5D1     		bne	.L6
 809              		.loc 1 130 0
 810 00d0 0298     		ldr	r0, [sp, #8]
ARM GAS  /tmp/ccTgQrGI.s 			page 48


 811 00d2 40F20001 		movw	r1, #:lower16:.LC4
 812 00d6 0F28     		cmp	r0, #15
 813 00d8 94BF     		ite	ls
 814 00da 0020     		movls	r0, #0
 815 00dc 0120     		movhi	r0, #1
 816 00de C0F20001 		movt	r1, #:upper16:.LC4
 817 00e2 FFF7FEFF 		bl	_test_assert
 818              	.LVL18:
 819 00e6 0028     		cmp	r0, #0
 820 00e8 A8D1     		bne	.L6
 821              		.loc 1 131 0
 822 00ea 0298     		ldr	r0, [sp, #8]
 823 00ec 039B     		ldr	r3, [sp, #12]
 824 00ee 40F20001 		movw	r1, #:lower16:.LC4
 825 00f2 C61A     		subs	r6, r0, r3
 826 00f4 7042     		rsbs	r0, r6, #0
 827 00f6 7041     		adcs	r0, r0, r6
 828 00f8 C0F20001 		movt	r1, #:upper16:.LC4
 829 00fc FFF7FEFF 		bl	_test_assert
 830              	.LVL19:
 831 0100 0546     		mov	r5, r0
 832 0102 0028     		cmp	r0, #0
 833 0104 9AD1     		bne	.L6
 834              	.LBE57:
 835              	.LBB58:
 836              	.LBB59:
 837              		.loc 2 157 0
 838 0106 40F20000 		movw	r0, #:lower16:.LANCHOR0
 839              	.LBE59:
 840              	.LBE58:
 841              		.loc 1 135 0
 842 010a 0523     		movs	r3, #5
 843              	.LBB62:
 844              	.LBB60:
 845              		.loc 2 157 0
 846 010c 1021     		movs	r1, #16
 847 010e 0822     		movs	r2, #8
 848 0110 C0F20000 		movt	r0, #:upper16:.LANCHOR0
 849              	.LBE60:
 850              	.LBE62:
 851              		.loc 1 135 0
 852 0114 2360     		str	r3, [r4]
 853              	.LVL20:
 854              	.LBB63:
 855              	.LBB61:
 856              		.loc 2 157 0
 857 0116 FFF7FEFF 		bl	chHeapAllocAligned
 858              	.LVL21:
 859 011a 0746     		mov	r7, r0
 860              	.LVL22:
 861              	.LBE61:
 862              	.LBE63:
 863              	.LBB64:
 864              	.LBB65:
 865 011c 40F20000 		movw	r0, #:lower16:.LANCHOR0
 866 0120 1021     		movs	r1, #16
 867 0122 0822     		movs	r2, #8
ARM GAS  /tmp/ccTgQrGI.s 			page 49


 868 0124 C0F20000 		movt	r0, #:upper16:.LANCHOR0
 869 0128 FFF7FEFF 		bl	chHeapAllocAligned
 870              	.LVL23:
 871 012c 0646     		mov	r6, r0
 872              	.LVL24:
 873              	.LBE65:
 874              	.LBE64:
 875              	.LBB66:
 876              	.LBB67:
 877 012e 40F20000 		movw	r0, #:lower16:.LANCHOR0
 878 0132 1021     		movs	r1, #16
 879 0134 0822     		movs	r2, #8
 880 0136 C0F20000 		movt	r0, #:upper16:.LANCHOR0
 881 013a FFF7FEFF 		bl	chHeapAllocAligned
 882              	.LVL25:
 883 013e 8046     		mov	r8, r0
 884              	.LBE67:
 885              	.LBE66:
 886              		.loc 1 140 0
 887 0140 3846     		mov	r0, r7
 888 0142 FFF7FEFF 		bl	chHeapFree
 889              	.LVL26:
 890              		.loc 1 141 0
 891 0146 3046     		mov	r0, r6
 892 0148 FFF7FEFF 		bl	chHeapFree
 893              	.LVL27:
 894              		.loc 1 142 0
 895 014c 4046     		mov	r0, r8
 896 014e FFF7FEFF 		bl	chHeapFree
 897              	.LVL28:
 898              		.loc 1 143 0
 899 0152 40F20000 		movw	r0, #:lower16:.LANCHOR0
 900 0156 2A46     		mov	r2, r5
 901 0158 6946     		mov	r1, sp
 902 015a C0F20000 		movt	r0, #:upper16:.LANCHOR0
 903 015e FFF7FEFF 		bl	chHeapStatus
 904              	.LVL29:
 905 0162 451E     		subs	r5, r0, #1
 906 0164 6842     		rsbs	r0, r5, #0
 907 0166 40F20001 		movw	r1, #:lower16:.LC2
 908 016a 6841     		adcs	r0, r0, r5
 909 016c C0F20001 		movt	r1, #:upper16:.LC2
 910 0170 FFF7FEFF 		bl	_test_assert
 911              	.LVL30:
 912 0174 0546     		mov	r5, r0
 913 0176 0028     		cmp	r0, #0
 914 0178 7FF460AF 		bne	.L6
 915              	.LBB68:
 916              	.LBB69:
 917              		.loc 2 157 0
 918 017c 40F20000 		movw	r0, #:lower16:.LANCHOR0
 919              	.LBE69:
 920              	.LBE68:
 921              		.loc 1 147 0
 922 0180 0623     		movs	r3, #6
 923              	.LBB72:
 924              	.LBB70:
ARM GAS  /tmp/ccTgQrGI.s 			page 50


 925              		.loc 2 157 0
 926 0182 1021     		movs	r1, #16
 927 0184 0822     		movs	r2, #8
 928 0186 C0F20000 		movt	r0, #:upper16:.LANCHOR0
 929              	.LBE70:
 930              	.LBE72:
 931              		.loc 1 147 0
 932 018a 2360     		str	r3, [r4]
 933              	.LVL31:
 934              	.LBB73:
 935              	.LBB71:
 936              		.loc 2 157 0
 937 018c FFF7FEFF 		bl	chHeapAllocAligned
 938              	.LVL32:
 939 0190 0646     		mov	r6, r0
 940              	.LVL33:
 941              	.LBE71:
 942              	.LBE73:
 943              	.LBB74:
 944              	.LBB75:
 945 0192 40F20000 		movw	r0, #:lower16:.LANCHOR0
 946 0196 1021     		movs	r1, #16
 947 0198 0822     		movs	r2, #8
 948 019a C0F20000 		movt	r0, #:upper16:.LANCHOR0
 949 019e FFF7FEFF 		bl	chHeapAllocAligned
 950              	.LVL34:
 951 01a2 0746     		mov	r7, r0
 952              	.LVL35:
 953              	.LBE75:
 954              	.LBE74:
 955              	.LBB76:
 956              	.LBB77:
 957 01a4 40F20000 		movw	r0, #:lower16:.LANCHOR0
 958 01a8 1021     		movs	r1, #16
 959 01aa 0822     		movs	r2, #8
 960 01ac C0F20000 		movt	r0, #:upper16:.LANCHOR0
 961 01b0 FFF7FEFF 		bl	chHeapAllocAligned
 962              	.LVL36:
 963              	.LBE77:
 964              	.LBE76:
 965              		.loc 1 152 0
 966 01b4 FFF7FEFF 		bl	chHeapFree
 967              	.LVL37:
 968              		.loc 1 153 0
 969 01b8 3846     		mov	r0, r7
 970 01ba FFF7FEFF 		bl	chHeapFree
 971              	.LVL38:
 972              		.loc 1 154 0
 973 01be 3046     		mov	r0, r6
 974 01c0 FFF7FEFF 		bl	chHeapFree
 975              	.LVL39:
 976              		.loc 1 155 0
 977 01c4 40F20000 		movw	r0, #:lower16:.LANCHOR0
 978 01c8 2A46     		mov	r2, r5
 979 01ca 6946     		mov	r1, sp
 980 01cc C0F20000 		movt	r0, #:upper16:.LANCHOR0
 981 01d0 FFF7FEFF 		bl	chHeapStatus
ARM GAS  /tmp/ccTgQrGI.s 			page 51


 982              	.LVL40:
 983 01d4 421E     		subs	r2, r0, #1
 984 01d6 5042     		rsbs	r0, r2, #0
 985 01d8 40F20001 		movw	r1, #:lower16:.LC2
 986 01dc 5041     		adcs	r0, r0, r2
 987 01de C0F20001 		movt	r1, #:upper16:.LC2
 988 01e2 FFF7FEFF 		bl	_test_assert
 989              	.LVL41:
 990 01e6 0546     		mov	r5, r0
 991 01e8 0028     		cmp	r0, #0
 992 01ea 7FF427AF 		bne	.L6
 993              	.LBB78:
 994              	.LBB79:
 995              		.loc 2 157 0
 996 01ee 40F20000 		movw	r0, #:lower16:.LANCHOR0
 997              	.LBE79:
 998              	.LBE78:
 999              		.loc 1 160 0
 1000 01f2 0723     		movs	r3, #7
 1001              	.LBB82:
 1002              	.LBB80:
 1003              		.loc 2 157 0
 1004 01f4 1121     		movs	r1, #17
 1005 01f6 0822     		movs	r2, #8
 1006 01f8 C0F20000 		movt	r0, #:upper16:.LANCHOR0
 1007              	.LBE80:
 1008              	.LBE82:
 1009              		.loc 1 160 0
 1010 01fc 2360     		str	r3, [r4]
 1011              	.LVL42:
 1012              	.LBB83:
 1013              	.LBB81:
 1014              		.loc 2 157 0
 1015 01fe FFF7FEFF 		bl	chHeapAllocAligned
 1016              	.LVL43:
 1017 0202 0646     		mov	r6, r0
 1018              	.LVL44:
 1019              	.LBE81:
 1020              	.LBE83:
 1021              	.LBB84:
 1022              	.LBB85:
 1023 0204 40F20000 		movw	r0, #:lower16:.LANCHOR0
 1024 0208 1021     		movs	r1, #16
 1025 020a 0822     		movs	r2, #8
 1026 020c C0F20000 		movt	r0, #:upper16:.LANCHOR0
 1027 0210 FFF7FEFF 		bl	chHeapAllocAligned
 1028              	.LVL45:
 1029 0214 0746     		mov	r7, r0
 1030              	.LBE85:
 1031              	.LBE84:
 1032              		.loc 1 164 0
 1033 0216 3046     		mov	r0, r6
 1034 0218 FFF7FEFF 		bl	chHeapFree
 1035              	.LVL46:
 1036              		.loc 1 165 0
 1037 021c 40F20000 		movw	r0, #:lower16:.LANCHOR0
 1038 0220 2A46     		mov	r2, r5
ARM GAS  /tmp/ccTgQrGI.s 			page 52


 1039 0222 6946     		mov	r1, sp
 1040 0224 C0F20000 		movt	r0, #:upper16:.LANCHOR0
 1041 0228 FFF7FEFF 		bl	chHeapStatus
 1042              	.LVL47:
 1043 022c 831E     		subs	r3, r0, #2
 1044 022e 5842     		rsbs	r0, r3, #0
 1045 0230 40F20001 		movw	r1, #:lower16:.LC5
 1046 0234 5841     		adcs	r0, r0, r3
 1047 0236 C0F20001 		movt	r1, #:upper16:.LC5
 1048 023a FFF7FEFF 		bl	_test_assert
 1049              	.LVL48:
 1050 023e 0546     		mov	r5, r0
 1051 0240 0028     		cmp	r0, #0
 1052 0242 7FF4FBAE 		bne	.L6
 1053              	.LVL49:
 1054              	.LBB86:
 1055              	.LBB87:
 1056              		.loc 2 157 0
 1057 0246 40F20000 		movw	r0, #:lower16:.LANCHOR0
 1058 024a 1021     		movs	r1, #16
 1059 024c 0822     		movs	r2, #8
 1060 024e C0F20000 		movt	r0, #:upper16:.LANCHOR0
 1061 0252 FFF7FEFF 		bl	chHeapAllocAligned
 1062              	.LVL50:
 1063 0256 0646     		mov	r6, r0
 1064              	.LBE87:
 1065              	.LBE86:
 1066              		.loc 1 169 0
 1067 0258 40F20000 		movw	r0, #:lower16:.LANCHOR0
 1068 025c 2A46     		mov	r2, r5
 1069 025e C0F20000 		movt	r0, #:upper16:.LANCHOR0
 1070 0262 6946     		mov	r1, sp
 1071 0264 FFF7FEFF 		bl	chHeapStatus
 1072              	.LVL51:
 1073 0268 0128     		cmp	r0, #1
 1074 026a 00F0E480 		beq	.L13
 1075              		.loc 1 169 0 is_stmt 0 discriminator 2
 1076 026e 40F20000 		movw	r0, #:lower16:.LANCHOR0
 1077 0272 C0F20000 		movt	r0, #:upper16:.LANCHOR0
 1078 0276 6946     		mov	r1, sp
 1079 0278 0022     		movs	r2, #0
 1080 027a FFF7FEFF 		bl	chHeapStatus
 1081              	.LVL52:
 1082 027e B0F10208 		subs	r8, r0, #2
 1083 0282 D8F10000 		rsbs	r0, r8, #0
 1084 0286 50EB0800 		adcs	r0, r0, r8
 1085              	.L11:
 1086              		.loc 1 169 0 discriminator 4
 1087 028a 40F20001 		movw	r1, #:lower16:.LC2
 1088 028e C0F20001 		movt	r1, #:upper16:.LC2
 1089 0292 FFF7FEFF 		bl	_test_assert
 1090              	.LVL53:
 1091 0296 0546     		mov	r5, r0
 1092 0298 0028     		cmp	r0, #0
 1093 029a 7FF4CFAE 		bne	.L6
 1094              		.loc 1 171 0 is_stmt 1
 1095 029e 3846     		mov	r0, r7
ARM GAS  /tmp/ccTgQrGI.s 			page 53


 1096 02a0 FFF7FEFF 		bl	chHeapFree
 1097              	.LVL54:
 1098              		.loc 1 172 0
 1099 02a4 3046     		mov	r0, r6
 1100 02a6 FFF7FEFF 		bl	chHeapFree
 1101              	.LVL55:
 1102              		.loc 1 173 0
 1103 02aa 40F20000 		movw	r0, #:lower16:.LANCHOR0
 1104 02ae 2A46     		mov	r2, r5
 1105 02b0 6946     		mov	r1, sp
 1106 02b2 C0F20000 		movt	r0, #:upper16:.LANCHOR0
 1107 02b6 FFF7FEFF 		bl	chHeapStatus
 1108              	.LVL56:
 1109 02ba B0F1010C 		subs	ip, r0, #1
 1110 02be DCF10000 		rsbs	r0, ip, #0
 1111 02c2 40F20001 		movw	r1, #:lower16:.LC2
 1112 02c6 50EB0C00 		adcs	r0, r0, ip
 1113 02ca C0F20001 		movt	r1, #:upper16:.LC2
 1114 02ce FFF7FEFF 		bl	_test_assert
 1115              	.LVL57:
 1116 02d2 0646     		mov	r6, r0
 1117 02d4 0028     		cmp	r0, #0
 1118 02d6 7FF4B1AE 		bne	.L6
 1119              		.loc 1 178 0
 1120 02da 0825     		movs	r5, #8
 1121              	.LBB88:
 1122              	.LBB89:
 1123              		.loc 2 157 0
 1124 02dc 40F20000 		movw	r0, #:lower16:.LANCHOR0
 1125 02e0 2A46     		mov	r2, r5
 1126 02e2 1021     		movs	r1, #16
 1127 02e4 C0F20000 		movt	r0, #:upper16:.LANCHOR0
 1128              	.LBE89:
 1129              	.LBE88:
 1130              		.loc 1 178 0
 1131 02e8 2560     		str	r5, [r4]
 1132              	.LVL58:
 1133              	.LBB91:
 1134              	.LBB90:
 1135              		.loc 2 157 0
 1136 02ea FFF7FEFF 		bl	chHeapAllocAligned
 1137              	.LVL59:
 1138 02ee 0446     		mov	r4, r0
 1139              	.LVL60:
 1140              	.LBE90:
 1141              	.LBE91:
 1142              	.LBB92:
 1143              	.LBB93:
 1144 02f0 40F20000 		movw	r0, #:lower16:.LANCHOR0
 1145 02f4 2A46     		mov	r2, r5
 1146 02f6 1021     		movs	r1, #16
 1147 02f8 C0F20000 		movt	r0, #:upper16:.LANCHOR0
 1148 02fc FFF7FEFF 		bl	chHeapAllocAligned
 1149              	.LVL61:
 1150 0300 0746     		mov	r7, r0
 1151              	.LBE93:
 1152              	.LBE92:
ARM GAS  /tmp/ccTgQrGI.s 			page 54


 1153              		.loc 1 182 0
 1154 0302 2046     		mov	r0, r4
 1155 0304 FFF7FEFF 		bl	chHeapFree
 1156              	.LVL62:
 1157              		.loc 1 183 0
 1158 0308 40F20000 		movw	r0, #:lower16:.LANCHOR0
 1159 030c 3246     		mov	r2, r6
 1160 030e 6946     		mov	r1, sp
 1161 0310 C0F20000 		movt	r0, #:upper16:.LANCHOR0
 1162 0314 FFF7FEFF 		bl	chHeapStatus
 1163              	.LVL63:
 1164 0318 B0F1020E 		subs	lr, r0, #2
 1165 031c DEF10000 		rsbs	r0, lr, #0
 1166 0320 40F20001 		movw	r1, #:lower16:.LC5
 1167 0324 50EB0E00 		adcs	r0, r0, lr
 1168 0328 C0F20001 		movt	r1, #:upper16:.LC5
 1169 032c FFF7FEFF 		bl	_test_assert
 1170              	.LVL64:
 1171              		.loc 1 178 0
 1172 0330 40F20004 		movw	r4, #:lower16:test_step
 1173              		.loc 1 183 0
 1174 0334 0646     		mov	r6, r0
 1175              		.loc 1 178 0
 1176 0336 C0F20004 		movt	r4, #:upper16:test_step
 1177              		.loc 1 183 0
 1178 033a 0028     		cmp	r0, #0
 1179 033c 7FF47EAE 		bne	.L6
 1180              	.LVL65:
 1181              	.LBB94:
 1182              	.LBB95:
 1183              		.loc 2 157 0
 1184 0340 40F20000 		movw	r0, #:lower16:.LANCHOR0
 1185 0344 2021     		movs	r1, #32
 1186 0346 2A46     		mov	r2, r5
 1187 0348 C0F20000 		movt	r0, #:upper16:.LANCHOR0
 1188 034c FFF7FEFF 		bl	chHeapAllocAligned
 1189              	.LVL66:
 1190              	.LBE95:
 1191              	.LBE94:
 1192              		.loc 1 185 0
 1193 0350 FFF7FEFF 		bl	chHeapFree
 1194              	.LVL67:
 1195              		.loc 1 186 0
 1196 0354 3846     		mov	r0, r7
 1197 0356 FFF7FEFF 		bl	chHeapFree
 1198              	.LVL68:
 1199              		.loc 1 187 0
 1200 035a 40F20000 		movw	r0, #:lower16:.LANCHOR0
 1201 035e 3246     		mov	r2, r6
 1202 0360 6946     		mov	r1, sp
 1203 0362 C0F20000 		movt	r0, #:upper16:.LANCHOR0
 1204 0366 FFF7FEFF 		bl	chHeapStatus
 1205              	.LVL69:
 1206 036a 461E     		subs	r6, r0, #1
 1207 036c 7042     		rsbs	r0, r6, #0
 1208 036e 40F20001 		movw	r1, #:lower16:.LC2
 1209 0372 7041     		adcs	r0, r0, r6
ARM GAS  /tmp/ccTgQrGI.s 			page 55


 1210 0374 C0F20001 		movt	r1, #:upper16:.LC2
 1211 0378 FFF7FEFF 		bl	_test_assert
 1212              	.LVL70:
 1213 037c 0246     		mov	r2, r0
 1214 037e 0028     		cmp	r0, #0
 1215 0380 7FF45CAE 		bne	.L6
 1216              		.loc 1 193 0
 1217 0384 40F20000 		movw	r0, #:lower16:.LANCHOR0
 1218              		.loc 1 191 0
 1219 0388 0923     		movs	r3, #9
 1220              		.loc 1 193 0
 1221 038a 6946     		mov	r1, sp
 1222 038c C0F20000 		movt	r0, #:upper16:.LANCHOR0
 1223              		.loc 1 191 0
 1224 0390 2360     		str	r3, [r4]
 1225              		.loc 1 193 0
 1226 0392 FFF7FEFF 		bl	chHeapStatus
 1227              	.LVL71:
 1228              	.LBB96:
 1229              	.LBB97:
 1230              		.loc 2 157 0
 1231 0396 40F20000 		movw	r0, #:lower16:.LANCHOR0
 1232 039a 2A46     		mov	r2, r5
 1233 039c 0099     		ldr	r1, [sp]
 1234 039e C0F20000 		movt	r0, #:upper16:.LANCHOR0
 1235 03a2 FFF7FEFF 		bl	chHeapAllocAligned
 1236              	.LVL72:
 1237              	.LBE97:
 1238              	.LBE96:
 1239              		.loc 1 195 0
 1240 03a6 40F20001 		movw	r1, #:lower16:.LC0
 1241 03aa 0646     		mov	r6, r0
 1242 03ac 0030     		adds	r0, r0, #0
 1243 03ae C0F20001 		movt	r1, #:upper16:.LC0
 1244 03b2 18BF     		it	ne
 1245 03b4 0120     		movne	r0, #1
 1246 03b6 FFF7FEFF 		bl	_test_assert
 1247              	.LVL73:
 1248 03ba 0146     		mov	r1, r0
 1249 03bc 0028     		cmp	r0, #0
 1250 03be 7FF43DAE 		bne	.L6
 1251              		.loc 1 196 0
 1252 03c2 40F20000 		movw	r0, #:lower16:.LANCHOR0
 1253 03c6 0A46     		mov	r2, r1
 1254 03c8 C0F20000 		movt	r0, #:upper16:.LANCHOR0
 1255 03cc FFF7FEFF 		bl	chHeapStatus
 1256              	.LVL74:
 1257 03d0 40F20001 		movw	r1, #:lower16:.LC6
 1258 03d4 D0F10100 		rsbs	r0, r0, #1
 1259 03d8 38BF     		it	cc
 1260 03da 0020     		movcc	r0, #0
 1261 03dc C0F20001 		movt	r1, #:upper16:.LC6
 1262 03e0 FFF7FEFF 		bl	_test_assert
 1263              	.LVL75:
 1264 03e4 0546     		mov	r5, r0
 1265 03e6 0028     		cmp	r0, #0
 1266 03e8 7FF428AE 		bne	.L6
ARM GAS  /tmp/ccTgQrGI.s 			page 56


 1267              		.loc 1 197 0
 1268 03ec 3046     		mov	r0, r6
 1269 03ee FFF7FEFF 		bl	chHeapFree
 1270              	.LVL76:
 1271              		.loc 1 204 0
 1272 03f2 40F20000 		movw	r0, #:lower16:.LANCHOR0
 1273 03f6 6946     		mov	r1, sp
 1274 03f8 2A46     		mov	r2, r5
 1275              		.loc 1 202 0
 1276 03fa 0A23     		movs	r3, #10
 1277              		.loc 1 204 0
 1278 03fc C0F20000 		movt	r0, #:upper16:.LANCHOR0
 1279              		.loc 1 202 0
 1280 0400 2360     		str	r3, [r4]
 1281              		.loc 1 204 0
 1282 0402 FFF7FEFF 		bl	chHeapStatus
 1283              	.LVL77:
 1284 0406 421E     		subs	r2, r0, #1
 1285 0408 5042     		rsbs	r0, r2, #0
 1286 040a 40F20001 		movw	r1, #:lower16:.LC2
 1287 040e 5041     		adcs	r0, r0, r2
 1288 0410 C0F20001 		movt	r1, #:upper16:.LC2
 1289 0414 FFF7FEFF 		bl	_test_assert
 1290              	.LVL78:
 1291 0418 0028     		cmp	r0, #0
 1292 041a 7FF40FAE 		bne	.L6
 1293              		.loc 1 205 0
 1294 041e 9DE80900 		ldmia	sp, {r0, r3}
 1295 0422 C31A     		subs	r3, r0, r3
 1296 0424 5842     		rsbs	r0, r3, #0
 1297 0426 40F20001 		movw	r1, #:lower16:.LC7
 1298 042a 5841     		adcs	r0, r0, r3
 1299 042c C0F20001 		movt	r1, #:upper16:.LC7
 1300 0430 FFF7FEFF 		bl	_test_assert
 1301              	.LVL79:
 1302 0434 02E6     		b	.L6
 1303              	.LVL80:
 1304              	.L13:
 1305              		.loc 1 169 0
 1306 0436 0120     		movs	r0, #1
 1307 0438 27E7     		b	.L11
 1308              		.cfi_endproc
 1309              	.LFE220:
 1310              		.size	test_011_001_execute, .-test_011_001_execute
 1311 043a 00BFAFF3 		.section	.text.test_011_001_setup,"ax",%progbits
 1311      0080
 1312              		.align	2
 1313              		.p2align 4,,15
 1314              		.thumb
 1315              		.thumb_func
 1316              		.type	test_011_001_setup, %function
 1317              	test_011_001_setup:
 1318              	.LFB219:
 1319              		.loc 1 90 0
 1320              		.cfi_startproc
 1321              		@ args = 0, pretend = 0, frame = 0
 1322              		@ frame_needed = 0, uses_anonymous_args = 0
ARM GAS  /tmp/ccTgQrGI.s 			page 57


 1323              		@ link register save eliminated.
 1324              		.loc 1 91 0
 1325 0000 40F20000 		movw	r0, #:lower16:.LANCHOR0
 1326 0004 40F20001 		movw	r1, #:lower16:test_buffer
 1327 0008 C0F20000 		movt	r0, #:upper16:.LANCHOR0
 1328 000c C0F20001 		movt	r1, #:upper16:test_buffer
 1329 0010 4FF4CD62 		mov	r2, #1640
 1330 0014 FFF7FEBF 		b	chHeapObjectInit
 1331              	.LVL81:
 1332              		.cfi_endproc
 1333              	.LFE219:
 1334              		.size	test_011_001_setup, .-test_011_001_setup
 1335              		.global	test_sequence_011
 1336              		.global	test_heap
 1337 0018 AFF30080 		.section	.rodata.test_011_002,"a",%progbits
 1337      AFF30080 
 1338              		.align	2
 1339              		.type	test_011_002, %object
 1340              		.size	test_011_002, 16
 1341              	test_011_002:
 1342 0000 94000000 		.word	.LC8
 1343 0004 00000000 		.word	0
 1344 0008 00000000 		.word	0
 1345 000c 00000000 		.word	test_011_002_execute
 1346              		.section	.rodata.test_sequence_011,"a",%progbits
 1347              		.align	2
 1348              		.type	test_sequence_011, %object
 1349              		.size	test_sequence_011, 12
 1350              	test_sequence_011:
 1351 0000 00000000 		.word	test_011_001
 1352 0004 00000000 		.word	test_011_002
 1353 0008 00000000 		.word	0
 1354              		.section	.rodata.str1.4,"aMS",%progbits,1
 1355              		.align	2
 1356              	.LC0:
 1357 0000 616C6C6F 		.ascii	"allocation failed\000"
 1357      63617469 
 1357      6F6E2066 
 1357      61696C65 
 1357      6400
 1358 0012 0000     		.space	2
 1359              	.LC1:
 1360 0014 616C6C6F 		.ascii	"allocation not failed\000"
 1360      63617469 
 1360      6F6E206E 
 1360      6F742066 
 1360      61696C65 
 1361 002a 0000     		.space	2
 1362              	.LC2:
 1363 002c 68656170 		.ascii	"heap fragmented\000"
 1363      20667261 
 1363      676D656E 
 1363      74656400 
 1364              	.LC3:
 1365 003c 6D697373 		.ascii	"missing free block\000"
 1365      696E6720 
 1365      66726565 
ARM GAS  /tmp/ccTgQrGI.s 			page 58


 1365      20626C6F 
 1365      636B00
 1366 004f 00       		.space	1
 1367              	.LC4:
 1368 0050 756E6578 		.ascii	"unexpected heap state\000"
 1368      70656374 
 1368      65642068 
 1368      65617020 
 1368      73746174 
 1369 0066 0000     		.space	2
 1370              	.LC5:
 1371 0068 696E7661 		.ascii	"invalid state\000"
 1371      6C696420 
 1371      73746174 
 1371      6500
 1372 0076 0000     		.space	2
 1373              	.LC6:
 1374 0078 6E6F7420 		.ascii	"not empty\000"
 1374      656D7074 
 1374      7900
 1375 0082 0000     		.space	2
 1376              	.LC7:
 1377 0084 73697A65 		.ascii	"size changed\000"
 1377      20636861 
 1377      6E676564 
 1377      00
 1378 0091 000000   		.space	3
 1379              	.LC8:
 1380 0094 44656661 		.ascii	"Default Heap\000"
 1380      756C7420 
 1380      48656170 
 1380      00
 1381 00a1 000000   		.space	3
 1382              	.LC9:
 1383 00a4 416C6C6F 		.ascii	"Allocation and fragmentation\000"
 1383      63617469 
 1383      6F6E2061 
 1383      6E642066 
 1383      7261676D 
 1384 00c1 000000   		.section	.rodata.test_011_001,"a",%progbits
 1385              		.align	2
 1386              		.type	test_011_001, %object
 1387              		.size	test_011_001, 16
 1388              	test_011_001:
 1389 0000 A4000000 		.word	.LC9
 1390 0004 00000000 		.word	test_011_001_setup
 1391 0008 00000000 		.word	0
 1392 000c 00000000 		.word	test_011_001_execute
 1393              		.section	.bss.test_heap,"aw",%nobits
 1394              		.align	3
 1395              		.set	.LANCHOR0,. + 0
 1396              		.type	test_heap, %object
 1397              		.size	test_heap, 32
 1398              	test_heap:
 1399 0000 00000000 		.space	32
 1399      00000000 
 1399      00000000 
ARM GAS  /tmp/ccTgQrGI.s 			page 59


 1399      00000000 
 1399      00000000 
 1400              		.text
 1401              	.Letext0:
 1402              		.file 3 "/home/otto/MentorGraphics/Sourcery_CodeBench_Lite_for_ARM_EABI/lib/gcc/arm-none-eabi/4.8.
 1403              		.file 4 "/home/otto/MentorGraphics/Sourcery_CodeBench_Lite_for_ARM_EABI/arm-none-eabi/include/stdi
 1404              		.file 5 "../../../os/common/ports/ARMCMx/compilers/GCC/chtypes.h"
 1405              		.file 6 "../../../os/rt/include/chsystypes.h"
 1406              		.file 7 "../../../os/rt/include/chschd.h"
 1407              		.file 8 "../../../os/common/ports/ARMCMx/chcore.h"
 1408              		.file 9 "../../../os/common/ports/ARMCMx/chcore_v7m.h"
 1409              		.file 10 "../../../os/rt/include/chsem.h"
 1410              		.file 11 "../../../os/rt/include/chmtx.h"
 1411              		.file 12 "../../../os/common/oslib/include/chmemcore.h"
 1412              		.file 13 "../../../test/lib/ch_test.h"
 1413              		.file 14 "../../../os/common/ext/CMSIS/include/core_cm3.h"
 1414              		.file 15 "../../../test/rt/source/test/test_root.h"